GAS LISTING /tmp/cccfnTdD.s 			page 1


   1              		.file	"accelStepper.c"
   2              		.text
   3              	.Ltext0:
   4              		.section	.text.asComputeNewSpeed,"ax",@progbits
   5              		.p2align 4,,15
   6              		.type	asComputeNewSpeed, @function
   7              	asComputeNewSpeed:
   8              	.LVL0:
   9              	.LFB228:
  10              		.file 1 "accelStepper.c"
  11              		.loc 1 70 47 view -0
  12              		.cfi_startproc
  13              		.loc 1 72 2 view .LVU1
  14              	.LBB36:
  15              	.LBI36:
  16              		.loc 1 132 9 view .LVU2
  17              	.LBB37:
  18              		.loc 1 133 2 view .LVU3
  19              	.LBE37:
  20              	.LBE36:
  21              		.loc 1 70 47 is_stmt 0 view .LVU4
  22 0000 55       		pushl	%ebp
  23              		.cfi_def_cfa_offset 8
  24              		.cfi_offset 5, -8
  25 0001 57       		pushl	%edi
  26              		.cfi_def_cfa_offset 12
  27              		.cfi_offset 7, -12
  28 0002 E8FCFFFF 		call	__x86.get_pc_thunk.di
  28      FF
  29 0007 81C70200 		addl	$_GLOBAL_OFFSET_TABLE_, %edi
  29      0000
  30 000d 56       		pushl	%esi
  31              		.cfi_def_cfa_offset 16
  32              		.cfi_offset 6, -16
  33 000e 53       		pushl	%ebx
  34              		.cfi_def_cfa_offset 20
  35              		.cfi_offset 3, -20
  36 000f 83EC1C   		subl	$28, %esp
  37              		.cfi_def_cfa_offset 48
  38              		.loc 1 74 43 view .LVU5
  39 0012 D94008   		flds	8(%eax)
  40              	.LBB41:
  41              	.LBB38:
  42              		.loc 1 133 16 view .LVU6
  43 0015 8B7004   		movl	4(%eax), %esi
  44              	.LBE38:
  45              	.LBE41:
  46              		.loc 1 74 10 view .LVU7
  47 0018 D97C2412 		fnstcw	18(%esp)
  48              	.LBB42:
  49              	.LBB39:
  50              		.loc 1 133 38 view .LVU8
  51 001c 8B08     		movl	(%eax), %ecx
  52              	.LVL1:
  53              		.loc 1 133 38 view .LVU9
  54              	.LBE39:
  55              	.LBE42:
GAS LISTING /tmp/cccfnTdD.s 			page 2


  56              		.loc 1 74 2 is_stmt 1 view .LVU10
  57              		.loc 1 76 5 is_stmt 0 view .LVU11
  58 001e 89F5     		movl	%esi, %ebp
  59              		.loc 1 74 52 view .LVU12
  60 0020 D8C8     		fmul	%st(0), %st
  61              		.loc 1 74 87 view .LVU13
  62 0022 D94010   		flds	16(%eax)
  63              		.loc 1 74 10 view .LVU14
  64 0025 0FB75424 		movzwl	18(%esp), %edx
  64      12
  65              	.LBB43:
  66              	.LBB40:
  67              		.loc 1 133 38 view .LVU15
  68 002a 894C2408 		movl	%ecx, 8(%esp)
  69              	.LBE40:
  70              	.LBE43:
  71              		.loc 1 74 10 view .LVU16
  72 002e 80CE0C   		orb	$12, %dh
  73              		.loc 1 74 78 view .LVU17
  74 0031 D8C0     		fadd	%st(0), %st
  75              		.loc 1 74 10 view .LVU18
  76 0033 66895424 		movw	%dx, 16(%esp)
  76      10
  77              		.loc 1 74 71 view .LVU19
  78 0038 DEF9     		fdivrp	%st, %st(1)
  79              		.loc 1 74 10 view .LVU20
  80 003a D96C2410 		fldcw	16(%esp)
  81 003e DB5C240C 		fistpl	12(%esp)
  82 0042 D96C2412 		fldcw	18(%esp)
  83 0046 8B54240C 		movl	12(%esp), %edx
  84              	.LVL2:
  85              		.loc 1 76 2 is_stmt 1 view .LVU21
  86              		.loc 1 76 5 is_stmt 0 view .LVU22
  87 004a 29CD     		subl	%ecx, %ebp
  88              	.LVL3:
  89              		.loc 1 76 5 view .LVU23
  90 004c 7522     		jne	.L2
  91 004e 83FA01   		cmpl	$1, %edx
  92 0051 7F1D     		jg	.L2
  93              		.loc 1 78 3 is_stmt 1 view .LVU24
  94              		.loc 1 78 26 is_stmt 0 view .LVU25
  95 0053 31D2     		xorl	%edx, %edx
  96              	.LVL4:
  97              		.loc 1 79 19 view .LVU26
  98 0055 C7400800 		movl	$0x00000000, 8(%eax)
  98      000000
  99              	.LVL5:
 100              		.loc 1 78 26 view .LVU27
 101 005c 66895018 		movw	%dx, 24(%eax)
 102              		.loc 1 79 3 is_stmt 1 view .LVU28
 103              		.loc 1 80 3 view .LVU29
 104              		.loc 1 80 15 is_stmt 0 view .LVU30
 105 0060 C7402000 		movl	$0, 32(%eax)
 105      000000
 106              		.loc 1 81 3 is_stmt 1 view .LVU31
 107              		.loc 1 126 1 is_stmt 0 view .LVU32
 108 0067 83C41C   		addl	$28, %esp
GAS LISTING /tmp/cccfnTdD.s 			page 3


 109              		.cfi_remember_state
 110              		.cfi_def_cfa_offset 20
 111 006a 5B       		popl	%ebx
 112              		.cfi_restore 3
 113              		.cfi_def_cfa_offset 16
 114 006b 5E       		popl	%esi
 115              		.cfi_restore 6
 116              		.cfi_def_cfa_offset 12
 117 006c 5F       		popl	%edi
 118              		.cfi_restore 7
 119              		.cfi_def_cfa_offset 8
 120 006d 5D       		popl	%ebp
 121              		.cfi_restore 5
 122              		.cfi_def_cfa_offset 4
 123              	.LVL6:
 124              		.loc 1 126 1 view .LVU33
 125 006e C3       		ret
 126              	.LVL7:
 127 006f 90       		.p2align 4,,10
 128              		.p2align 3
 129              	.L2:
 130              		.cfi_restore_state
 131              		.loc 1 84 2 is_stmt 1 view .LVU34
 132 0070 8B4820   		movl	32(%eax), %ecx
 133              		.loc 1 84 5 is_stmt 0 view .LVU35
 134 0073 85ED     		testl	%ebp, %ebp
 135 0075 7E61     		jle	.L4
 136              		.loc 1 87 3 is_stmt 1 view .LVU36
 137              		.loc 1 87 6 is_stmt 0 view .LVU37
 138 0077 85C9     		testl	%ecx, %ecx
 139 0079 0F8EE100 		jle	.L5
 139      0000
 140              		.loc 1 89 4 is_stmt 1 view .LVU38
 141              		.loc 1 89 7 is_stmt 0 view .LVU39
 142 007f 39EA     		cmpl	%ebp, %edx
 143 0081 0F8DB900 		jge	.L10
 143      0000
 144              		.loc 1 89 46 discriminator 1 view .LVU40
 145 0087 0FB6581D 		movzbl	29(%eax), %ebx
 146 008b 885C2407 		movb	%bl, 7(%esp)
 147              		.loc 1 89 36 discriminator 1 view .LVU41
 148 008f 84DB     		testb	%bl, %bl
 149 0091 0F84A900 		je	.L10
 149      0000
 150              	.LVL8:
 151 0097 8DB42600 		.p2align 4,,10
 151      00000066 
 151      90
 152              		.p2align 3
 153              	.L16:
 154              		.loc 1 117 3 is_stmt 1 view .LVU42
 155              		.loc 1 117 26 is_stmt 0 view .LVU43
 156 00a0 D94028   		flds	40(%eax)
 157              	.LVL9:
 158              		.loc 1 117 64 view .LVU44
 159 00a3 894C2408 		movl	%ecx, 8(%esp)
 160              		.loc 1 117 40 view .LVU45
GAS LISTING /tmp/cccfnTdD.s 			page 4


 161 00a7 D9C0     		fld	%st(0)
 162 00a9 D8C1     		fadd	%st(1), %st
 163              		.loc 1 117 64 view .LVU46
 164 00ab DB442408 		fildl	8(%esp)
 165 00af D88F0000 		fmuls	.LC1@GOTOFF(%edi)
 165      0000
 166              		.loc 1 117 79 view .LVU47
 167 00b5 D8870000 		fadds	.LC2@GOTOFF(%edi)
 167      0000
 168              		.loc 1 117 56 view .LVU48
 169 00bb DEF9     		fdivrp	%st, %st(1)
 170              		.loc 1 117 32 view .LVU49
 171 00bd DEE9     		fsubrp	%st, %st(1)
 172 00bf D95C2414 		fstps	20(%esp)
 173 00c3 D9442414 		flds	20(%esp)
 174              		.loc 1 118 3 is_stmt 1 view .LVU50
 175              		.loc 1 118 18 is_stmt 0 view .LVU51
 176 00c7 D9402C   		flds	44(%eax)
 177              	.LVL10:
 178              	.LBB44:
 179              	.LBI44:
 180              		.loc 1 54 7 is_stmt 1 view .LVU52
 181              	.LBB45:
 182              		.loc 1 55 2 view .LVU53
 183              		.loc 1 58 10 is_stmt 0 view .LVU54
 184 00ca DBF1     		fcomi	%st(1), %st
 185 00cc DAC1     		fcmovb	%st(1), %st
 186              	.LVL11:
 187              		.loc 1 58 10 view .LVU55
 188 00ce DDD9     		fstp	%st(1)
 189              	.LVL12:
 190              		.loc 1 58 10 view .LVU56
 191              	.LBE45:
 192              	.LBE44:
 193              		.loc 1 118 16 view .LVU57
 194 00d0 D95028   		fsts	40(%eax)
 195 00d3 EB20     		jmp	.L13
 196              	.LVL13:
 197              		.p2align 4,,10
 198 00d5 8D7600   		.p2align 3
 199              	.L4:
 200              		.loc 1 96 9 is_stmt 1 view .LVU58
 201              		.loc 1 96 12 is_stmt 0 view .LVU59
 202 00d8 7556     		jne	.L38
 203              	.L8:
 204              		.loc 1 111 2 is_stmt 1 view .LVU60
 205              		.loc 1 111 5 is_stmt 0 view .LVU61
 206 00da 85C9     		testl	%ecx, %ecx
 207 00dc 756D     		jne	.L12
 208              	.L11:
 209              		.loc 1 113 3 is_stmt 1 view .LVU62
 210              		.loc 1 114 57 is_stmt 0 view .LVU63
 211 00de 85ED     		testl	%ebp, %ebp
 212              		.loc 1 113 25 view .LVU64
 213 00e0 D94024   		flds	36(%eax)
 214              		.loc 1 114 57 view .LVU65
 215 00e3 0F9F4424 		setg	7(%esp)
GAS LISTING /tmp/cccfnTdD.s 			page 5


 215      07
 216 00e8 0FB65C24 		movzbl	7(%esp), %ebx
 216      07
 217 00ed 31C9     		xorl	%ecx, %ecx
 218              		.loc 1 114 23 view .LVU66
 219 00ef 88581D   		movb	%bl, 29(%eax)
 220              		.loc 1 113 16 view .LVU67
 221 00f2 D95028   		fsts	40(%eax)
 222              		.loc 1 114 3 is_stmt 1 view .LVU68
 223              	.LVL14:
 224              	.L13:
 225              		.loc 1 120 2 view .LVU69
 226              		.loc 1 121 25 is_stmt 0 view .LVU70
 227 00f5 D96C2410 		fldcw	16(%esp)
 228 00f9 DB54240C 		fistl	12(%esp)
 229 00fd D96C2412 		fldcw	18(%esp)
 230              		.loc 1 120 13 view .LVU71
 231 0101 83C101   		addl	$1, %ecx
 232              		.loc 1 122 18 view .LVU72
 233 0104 807C2407 		cmpb	$0, 7(%esp)
 233      00
 234              		.loc 1 120 13 view .LVU73
 235 0109 894820   		movl	%ecx, 32(%eax)
 236              		.loc 1 121 2 is_stmt 1 view .LVU74
 237              		.loc 1 122 18 is_stmt 0 view .LVU75
 238 010c D8BF0000 		fdivrs	.LC3@GOTOFF(%edi)
 238      0000
 239              		.loc 1 121 25 view .LVU76
 240 0112 8B54240C 		movl	12(%esp), %edx
 241 0116 66895018 		movw	%dx, 24(%eax)
 242              		.loc 1 122 2 is_stmt 1 view .LVU77
 243              		.loc 1 123 2 view .LVU78
 244              		.loc 1 122 18 is_stmt 0 view .LVU79
 245 011a D9C0     		fld	%st(0)
 246 011c D9E0     		fchs
 247 011e DBC9     		fcmovne	%st(1), %st
 248 0120 DDD9     		fstp	%st(1)
 249 0122 D95808   		fstps	8(%eax)
 250              		.loc 1 126 1 view .LVU80
 251 0125 83C41C   		addl	$28, %esp
 252              		.cfi_remember_state
 253              		.cfi_def_cfa_offset 20
 254 0128 5B       		popl	%ebx
 255              		.cfi_restore 3
 256              		.cfi_def_cfa_offset 16
 257 0129 5E       		popl	%esi
 258              		.cfi_restore 6
 259              		.cfi_def_cfa_offset 12
 260 012a 5F       		popl	%edi
 261              		.cfi_restore 7
 262              		.cfi_def_cfa_offset 8
 263 012b 5D       		popl	%ebp
 264              		.cfi_restore 5
 265              		.cfi_def_cfa_offset 4
 266              	.LVL15:
 267              		.loc 1 126 1 view .LVU81
 268 012c C3       		ret
GAS LISTING /tmp/cccfnTdD.s 			page 6


 269              	.LVL16:
 270 012d 8D7600   		.p2align 4,,10
 271              		.p2align 3
 272              	.L38:
 273              		.cfi_restore_state
 274              		.loc 1 99 3 is_stmt 1 view .LVU82
 275              		.loc 1 99 6 is_stmt 0 view .LVU83
 276 0130 85C9     		testl	%ecx, %ecx
 277 0132 7E6C     		jle	.L9
 278              		.loc 1 101 4 is_stmt 1 view .LVU84
 279              		.loc 1 101 24 is_stmt 0 view .LVU85
 280 0134 8B5C2408 		movl	8(%esp), %ebx
 281 0138 29F3     		subl	%esi, %ebx
 282              		.loc 1 101 7 view .LVU86
 283 013a 39D3     		cmpl	%edx, %ebx
 284 013c 7F4A     		jg	.L39
 285 013e 6690     		.p2align 4,,10
 286              		.p2align 3
 287              	.L10:
 288              		.loc 1 102 5 is_stmt 1 view .LVU87
 289              		.loc 1 102 19 is_stmt 0 view .LVU88
 290 0140 89D1     		movl	%edx, %ecx
 291 0142 F7D9     		negl	%ecx
 292              		.loc 1 102 17 view .LVU89
 293 0144 894820   		movl	%ecx, 32(%eax)
 294              		.loc 1 111 2 is_stmt 1 view .LVU90
 295              		.loc 1 111 5 is_stmt 0 view .LVU91
 296 0147 85C9     		testl	%ecx, %ecx
 297 0149 7493     		je	.L11
 298              	.L12:
 299              		.loc 1 111 5 view .LVU92
 300 014b 0FB6581D 		movzbl	29(%eax), %ebx
 301 014f 885C2407 		movb	%bl, 7(%esp)
 302 0153 E948FFFF 		jmp	.L16
 302      FF
 303 0158 8DB42600 		.p2align 4,,10
 303      00000090 
 304              		.p2align 3
 305              	.L5:
 306              		.loc 1 91 10 is_stmt 1 view .LVU93
 307              		.loc 1 93 4 view .LVU94
 308              		.loc 1 93 7 is_stmt 0 view .LVU95
 309 0160 0F8474FF 		je	.L8
 309      FFFF
 310 0166 39EA     		cmpl	%ebp, %edx
 311 0168 0F8D6CFF 		jge	.L8
 311      FFFF
 312              		.loc 1 93 45 discriminator 1 view .LVU96
 313 016e 0FB6581D 		movzbl	29(%eax), %ebx
 314              		.loc 1 94 19 discriminator 1 view .LVU97
 315 0172 89CA     		movl	%ecx, %edx
 316              	.LVL17:
 317              		.loc 1 94 19 discriminator 1 view .LVU98
 318 0174 F7DA     		negl	%edx
 319 0176 80FB01   		cmpb	$1, %bl
 320              		.loc 1 93 45 discriminator 1 view .LVU99
 321 0179 885C2407 		movb	%bl, 7(%esp)
GAS LISTING /tmp/cccfnTdD.s 			page 7


 322              		.loc 1 94 19 discriminator 1 view .LVU100
 323 017d 0F44CA   		cmove	%edx, %ecx
 324 0180 E91BFFFF 		jmp	.L16
 324      FF
 325              	.LVL18:
 326              		.p2align 4,,10
 327 0185 8D7600   		.p2align 3
 328              	.L39:
 329              		.loc 1 101 47 discriminator 1 view .LVU101
 330 0188 0FB6581D 		movzbl	29(%eax), %ebx
 331 018c 885C2407 		movb	%bl, 7(%esp)
 332              		.loc 1 101 37 discriminator 1 view .LVU102
 333 0190 80FB01   		cmpb	$1, %bl
 334 0193 0F8507FF 		jne	.L16
 334      FFFF
 335 0199 EBA5     		jmp	.L10
 336 019b 8D742600 		.p2align 4,,10
 336      90
 337              		.p2align 3
 338              	.L9:
 339              		.loc 1 103 10 is_stmt 1 view .LVU103
 340              		.loc 1 103 13 is_stmt 0 view .LVU104
 341 01a0 0F8438FF 		je	.L11
 341      FFFF
 342              		.loc 1 105 4 is_stmt 1 view .LVU105
 343 01a6 0FB6581D 		movzbl	29(%eax), %ebx
 344 01aa 885C2407 		movb	%bl, 7(%esp)
 345              		.loc 1 105 23 is_stmt 0 view .LVU106
 346 01ae 8B5C2408 		movl	8(%esp), %ebx
 347 01b2 29F3     		subl	%esi, %ebx
 348              		.loc 1 105 7 view .LVU107
 349 01b4 39D3     		cmpl	%edx, %ebx
 350 01b6 0F8EE4FE 		jle	.L16
 350      FFFF
 351              		.loc 1 106 19 discriminator 1 view .LVU108
 352 01bc 89CA     		movl	%ecx, %edx
 353              	.LVL19:
 354              		.loc 1 106 19 discriminator 1 view .LVU109
 355 01be F7DA     		negl	%edx
 356 01c0 807C2407 		cmpb	$0, 7(%esp)
 356      00
 357 01c5 0F44CA   		cmove	%edx, %ecx
 358 01c8 E9D3FEFF 		jmp	.L16
 358      FF
 359              		.cfi_endproc
 360              	.LFE228:
 361              		.size	asComputeNewSpeed, .-asComputeNewSpeed
 362              		.section	.text.asSetMaxSpeed,"ax",@progbits
 363              		.p2align 4,,15
 364              		.globl	asSetMaxSpeed
 365              		.type	asSetMaxSpeed, @function
 366              	asSetMaxSpeed:
 367              	.LVL20:
 368              	.LFB222:
 369              		.loc 1 3 56 is_stmt 1 view -0
 370              		.cfi_startproc
 371              		.loc 1 4 2 view .LVU111
GAS LISTING /tmp/cccfnTdD.s 			page 8


 372 0000 E8FCFFFF 		call	__x86.get_pc_thunk.dx
 372      FF
 373 0005 81C20200 		addl	$_GLOBAL_OFFSET_TABLE_, %edx
 373      0000
 374              		.loc 1 3 56 is_stmt 0 view .LVU112
 375 000b 83EC0C   		subl	$12, %esp
 376              		.cfi_def_cfa_offset 16
 377              		.loc 1 3 56 view .LVU113
 378 000e D9442414 		flds	20(%esp)
 379 0012 8B442410 		movl	16(%esp), %eax
 380              		.loc 1 5 9 view .LVU114
 381 0016 D9C0     		fld	%st(0)
 382 0018 D9E0     		fchs
 383 001a D9EE     		fldz
 384 001c DFF2     		fcomip	%st(2), %st
 385 001e DAD1     		fcmovbe	%st(1), %st
 386 0020 DDD9     		fstp	%st(1)
 387              	.LVL21:
 388              		.loc 1 6 2 is_stmt 1 view .LVU115
 389              		.loc 1 6 5 is_stmt 0 view .LVU116
 390 0022 D9400C   		flds	12(%eax)
 391              	.LVL22:
 392              		.loc 1 6 5 view .LVU117
 393 0025 DFE9     		fucomip	%st(1), %st
 394              		.loc 1 6 5 view .LVU118
 395 0027 7A0F     		jp	.L43
 396 0029 750D     		jne	.L43
 397 002b DDD8     		fstp	%st(0)
 398              	.L47:
 399              		.loc 1 15 1 view .LVU119
 400 002d 83C40C   		addl	$12, %esp
 401              		.cfi_remember_state
 402              		.cfi_def_cfa_offset 4
 403 0030 C3       		ret
 404              		.p2align 4,,10
 405 0031 8DB42600 		.p2align 3
 405      000000
 406              	.L43:
 407              		.cfi_restore_state
 408              		.loc 1 7 3 is_stmt 1 view .LVU120
 409              		.loc 1 7 22 is_stmt 0 view .LVU121
 410 0038 D9500C   		fsts	12(%eax)
 411              		.loc 1 8 3 is_stmt 1 view .LVU122
 412              		.loc 1 8 18 is_stmt 0 view .LVU123
 413 003b D8BA0000 		fdivrs	.LC3@GOTOFF(%edx)
 413      0000
 414              		.loc 1 10 6 view .LVU124
 415 0041 8B5020   		movl	32(%eax), %edx
 416              		.loc 1 8 18 view .LVU125
 417 0044 D9582C   		fstps	44(%eax)
 418              		.loc 1 10 3 is_stmt 1 view .LVU126
 419              		.loc 1 10 6 is_stmt 0 view .LVU127
 420 0047 85D2     		testl	%edx, %edx
 421 0049 7EE2     		jle	.L47
 422              		.loc 1 11 4 is_stmt 1 view .LVU128
 423              		.loc 1 11 37 is_stmt 0 view .LVU129
 424 004b D94008   		flds	8(%eax)
GAS LISTING /tmp/cccfnTdD.s 			page 9


 425              		.loc 1 11 46 view .LVU130
 426 004e D8C8     		fmul	%st(0), %st
 427              		.loc 1 11 81 view .LVU131
 428 0050 D94010   		flds	16(%eax)
 429              		.loc 1 11 18 view .LVU132
 430 0053 D97C2406 		fnstcw	6(%esp)
 431              		.loc 1 11 72 view .LVU133
 432 0057 D8C0     		fadd	%st(0), %st
 433              		.loc 1 11 18 view .LVU134
 434 0059 0FB75424 		movzwl	6(%esp), %edx
 434      06
 435 005e 80CE0C   		orb	$12, %dh
 436              		.loc 1 11 65 view .LVU135
 437 0061 DEF9     		fdivrp	%st, %st(1)
 438              		.loc 1 11 18 view .LVU136
 439 0063 66895424 		movw	%dx, 4(%esp)
 439      04
 440 0068 D96C2404 		fldcw	4(%esp)
 441 006c DB5820   		fistpl	32(%eax)
 442 006f D96C2406 		fldcw	6(%esp)
 443              		.loc 1 12 4 is_stmt 1 view .LVU137
 444              		.loc 1 15 1 is_stmt 0 view .LVU138
 445 0073 83C40C   		addl	$12, %esp
 446              		.cfi_def_cfa_offset 4
 447              		.loc 1 12 4 view .LVU139
 448 0076 E9FCFFFF 		jmp	asComputeNewSpeed
 448      FF
 449              	.LVL23:
 450              		.loc 1 12 4 view .LVU140
 451              		.cfi_endproc
 452              	.LFE222:
 453              		.size	asSetMaxSpeed, .-asSetMaxSpeed
 454              		.section	.text.asSetAcceleration,"ax",@progbits
 455              		.p2align 4,,15
 456              		.globl	asSetAcceleration
 457              		.type	asSetAcceleration, @function
 458              	asSetAcceleration:
 459              	.LVL24:
 460              	.LFB223:
 461              		.loc 1 17 67 is_stmt 1 view -0
 462              		.cfi_startproc
 463              		.loc 1 19 2 view .LVU142
 464              		.loc 1 17 67 is_stmt 0 view .LVU143
 465 0000 53       		pushl	%ebx
 466              		.cfi_def_cfa_offset 8
 467              		.cfi_offset 3, -8
 468 0001 E8FCFFFF 		call	__x86.get_pc_thunk.bx
 468      FF
 469 0006 81C30200 		addl	$_GLOBAL_OFFSET_TABLE_, %ebx
 469      0000
 470 000c 83EC28   		subl	$40, %esp
 471              		.cfi_def_cfa_offset 48
 472              		.loc 1 19 5 view .LVU144
 473 000f D9EE     		fldz
 474              		.loc 1 17 67 view .LVU145
 475 0011 D9442434 		flds	52(%esp)
 476 0015 8B442430 		movl	48(%esp), %eax
GAS LISTING /tmp/cccfnTdD.s 			page 10


 477              		.loc 1 19 5 view .LVU146
 478 0019 DBE9     		fucomi	%st(1), %st
 479 001b DDD9     		fstp	%st(1)
 480 001d 0F8B8500 		jnp	.L62
 480      0000
 481              	.L56:
 482              		.loc 1 21 2 is_stmt 1 view .LVU147
 483              		.loc 1 22 16 is_stmt 0 view .LVU148
 484 0023 D9C0     		fld	%st(0)
 485 0025 D9E0     		fchs
 486 0027 D9EE     		fldz
 487 0029 DFF2     		fcomip	%st(2), %st
 488 002b DAD1     		fcmovbe	%st(1), %st
 489 002d DDD9     		fstp	%st(1)
 490              	.LVL25:
 491              		.loc 1 23 2 is_stmt 1 view .LVU149
 492              		.loc 1 23 13 is_stmt 0 view .LVU150
 493 002f D94010   		flds	16(%eax)
 494              	.LVL26:
 495              		.loc 1 23 5 view .LVU151
 496 0032 DBE9     		fucomi	%st(1), %st
 497              		.loc 1 23 5 view .LVU152
 498 0034 7A12     		jp	.L58
 499 0036 7510     		jne	.L58
 500 0038 DDD8     		fstp	%st(0)
 501 003a DDD8     		fstp	%st(0)
 502              		.loc 1 32 1 view .LVU153
 503 003c 83C428   		addl	$40, %esp
 504              		.cfi_remember_state
 505              		.cfi_def_cfa_offset 8
 506 003f 5B       		popl	%ebx
 507              		.cfi_restore 3
 508              		.cfi_def_cfa_offset 4
 509 0040 C3       		ret
 510              		.p2align 4,,10
 511 0041 8DB42600 		.p2align 3
 511      000000
 512              	.L58:
 513              		.cfi_restore_state
 514              		.loc 1 25 3 is_stmt 1 view .LVU154
 515              		.loc 1 25 29 is_stmt 0 view .LVU155
 516 0048 DB4020   		fildl	32(%eax)
 517 004b D9C9     		fxch	%st(1)
 518              		.loc 1 25 15 view .LVU156
 519 004d D97C241A 		fnstcw	26(%esp)
 520              		.loc 1 25 55 view .LVU157
 521 0051 D8F2     		fdiv	%st(2), %st
 522              		.loc 1 25 15 view .LVU158
 523 0053 0FB75424 		movzwl	26(%esp), %edx
 523      1A
 524 0058 80CE0C   		orb	$12, %dh
 525 005b 66895424 		movw	%dx, 24(%esp)
 525      18
 526              		.loc 1 25 29 view .LVU159
 527 0060 DEC9     		fmulp	%st, %st(1)
 528              		.loc 1 25 15 view .LVU160
 529 0062 D96C2418 		fldcw	24(%esp)
GAS LISTING /tmp/cccfnTdD.s 			page 11


 530 0066 DB5820   		fistpl	32(%eax)
 531 0069 D96C241A 		fldcw	26(%esp)
 532              		.loc 1 27 3 is_stmt 1 view .LVU161
 533              		.loc 1 27 26 is_stmt 0 view .LVU162
 534 006d D9830000 		flds	.LC4@GOTOFF(%ebx)
 534      0000
 535 0073 D8F1     		fdiv	%st(1), %st
 536 0075 D9C0     		fld	%st(0)
 537 0077 D9FA     		fsqrt
 538 0079 D9EE     		fldz
 539              		.loc 1 27 26 view .LVU163
 540 007b DFEA     		fucomip	%st(2), %st
 541 007d 7736     		ja	.L63
 542 007f DDD9     		fstp	%st(1)
 543              	.L55:
 544              		.loc 1 27 24 view .LVU164
 545 0081 DD830000 		fldl	.LC5@GOTOFF(%ebx)
 545      0000
 546 0087 DD542408 		fstl	8(%esp)
 547 008b DEC9     		fmulp	%st, %st(1)
 548              		.loc 1 27 52 view .LVU165
 549 008d D88B0000 		fmuls	.LC3@GOTOFF(%ebx)
 549      0000
 550 0093 D95824   		fstps	36(%eax)
 551              		.loc 1 28 3 is_stmt 1 view .LVU166
 552              		.loc 1 28 26 is_stmt 0 view .LVU167
 553 0096 D95810   		fstps	16(%eax)
 554              		.loc 1 29 3 is_stmt 1 view .LVU168
 555              		.loc 1 32 1 is_stmt 0 view .LVU169
 556 0099 83C428   		addl	$40, %esp
 557              		.cfi_remember_state
 558              		.cfi_def_cfa_offset 8
 559 009c 5B       		popl	%ebx
 560              		.cfi_restore 3
 561              		.cfi_def_cfa_offset 4
 562              		.loc 1 29 3 view .LVU170
 563 009d E9FCFFFF 		jmp	asComputeNewSpeed
 563      FF
 564              	.LVL27:
 565              		.p2align 4,,10
 566 00a2 8DB60000 		.p2align 3
 566      0000
 567              	.L62:
 568              		.cfi_restore_state
 569              		.loc 1 19 5 view .LVU171
 570 00a8 0F8575FF 		jne	.L56
 570      FFFF
 571 00ae DDD8     		fstp	%st(0)
 572              		.loc 1 32 1 view .LVU172
 573 00b0 83C428   		addl	$40, %esp
 574              		.cfi_remember_state
 575              		.cfi_def_cfa_offset 8
 576 00b3 5B       		popl	%ebx
 577              		.cfi_restore 3
 578              		.cfi_def_cfa_offset 4
 579 00b4 C3       		ret
 580              	.LVL28:
GAS LISTING /tmp/cccfnTdD.s 			page 12


 581              	.L63:
 582              		.cfi_restore_state
 583              		.loc 1 32 1 view .LVU173
 584 00b5 D9CA     		fxch	%st(2)
 585              		.loc 1 32 1 view .LVU174
 586 00b7 D95C2414 		fstps	20(%esp)
 587 00bb D9C9     		fxch	%st(1)
 588              		.loc 1 27 26 view .LVU175
 589 00bd 83EC10   		subl	$16, %esp
 590              		.cfi_def_cfa_offset 64
 591 00c0 89442420 		movl	%eax, 32(%esp)
 592 00c4 D95C2418 		fstps	24(%esp)
 593 00c8 D91C24   		fstps	(%esp)
 594 00cb E8FCFFFF 		call	sqrtf@PLT
 594      FF
 595              	.LVL29:
 596 00d0 DDD8     		fstp	%st(0)
 597 00d2 83C410   		addl	$16, %esp
 598              		.cfi_def_cfa_offset 48
 599 00d5 D9442414 		flds	20(%esp)
 600 00d9 8B442410 		movl	16(%esp), %eax
 601 00dd D9442408 		flds	8(%esp)
 602 00e1 EB9E     		jmp	.L55
 603              		.cfi_endproc
 604              	.LFE223:
 605              		.size	asSetAcceleration, .-asSetAcceleration
 606              		.section	.text.asSetSpeed,"ax",@progbits
 607              		.p2align 4,,15
 608              		.globl	asSetSpeed
 609              		.type	asSetSpeed, @function
 610              	asSetSpeed:
 611              	.LVL30:
 612              	.LFB224:
 613              		.loc 1 34 53 is_stmt 1 view -0
 614              		.cfi_startproc
 615              		.loc 1 36 2 view .LVU177
 616 0000 E8FCFFFF 		call	__x86.get_pc_thunk.dx
 616      FF
 617 0005 81C20200 		addl	$_GLOBAL_OFFSET_TABLE_, %edx
 617      0000
 618              		.loc 1 34 53 is_stmt 0 view .LVU178
 619 000b 83EC0C   		subl	$12, %esp
 620              		.cfi_def_cfa_offset 16
 621              		.loc 1 34 53 view .LVU179
 622 000e 8B442410 		movl	16(%esp), %eax
 623 0012 D9442414 		flds	20(%esp)
 624              		.loc 1 36 22 view .LVU180
 625 0016 D94008   		flds	8(%eax)
 626              		.loc 1 36 5 view .LVU181
 627 0019 DBE9     		fucomi	%st(1), %st
 628 001b 7B63     		jnp	.L75
 629              	.L70:
 630              		.loc 1 39 2 is_stmt 1 view .LVU182
 631              		.loc 1 39 5 is_stmt 0 view .LVU183
 632 001d D9EE     		fldz
 633 001f D9CA     		fxch	%st(2)
 634 0021 DBEA     		fucomi	%st(2), %st
GAS LISTING /tmp/cccfnTdD.s 			page 13


 635 0023 DDDA     		fstp	%st(2)
 636 0025 7A19     		jp	.L67
 637 0027 7517     		jne	.L67
 638 0029 DDD8     		fstp	%st(0)
 639              		.loc 1 40 3 is_stmt 1 view .LVU184
 640              		.loc 1 40 26 is_stmt 0 view .LVU185
 641 002b 31D2     		xorl	%edx, %edx
 642 002d 66895018 		movw	%dx, 24(%eax)
 643              	.L69:
 644              		.loc 1 46 2 is_stmt 1 view .LVU186
 645              		.loc 1 46 18 is_stmt 0 view .LVU187
 646 0031 D95808   		fstps	8(%eax)
 647              		.loc 1 48 1 view .LVU188
 648 0034 83C40C   		addl	$12, %esp
 649              		.cfi_remember_state
 650              		.cfi_def_cfa_offset 4
 651 0037 C3       		ret
 652 0038 8DB42600 		.p2align 4,,10
 652      00000090 
 653              		.p2align 3
 654              	.L67:
 655              		.cfi_restore_state
 656              		.loc 1 42 3 is_stmt 1 view .LVU189
 657              		.loc 1 42 26 is_stmt 0 view .LVU190
 658 0040 D97C2406 		fnstcw	6(%esp)
 659              		.loc 1 42 51 view .LVU191
 660 0044 D9E1     		fabs
 661              		.loc 1 42 48 view .LVU192
 662 0046 D9820000 		flds	.LC3@GOTOFF(%edx)
 662      0000
 663              		.loc 1 42 26 view .LVU193
 664 004c 0FB74C24 		movzwl	6(%esp), %ecx
 664      06
 665              		.loc 1 42 48 view .LVU194
 666 0051 DEF1     		fdivp	%st, %st(1)
 667              		.loc 1 42 26 view .LVU195
 668 0053 80CD0C   		orb	$12, %ch
 669 0056 66894C24 		movw	%cx, 4(%esp)
 669      04
 670 005b D96C2404 		fldcw	4(%esp)
 671 005f DB1C24   		fistpl	(%esp)
 672 0062 D96C2406 		fldcw	6(%esp)
 673 0066 8B0C24   		movl	(%esp), %ecx
 674 0069 66894818 		movw	%cx, 24(%eax)
 675              		.loc 1 43 3 is_stmt 1 view .LVU196
 676              		.loc 1 43 54 is_stmt 0 view .LVU197
 677 006d D9EE     		fldz
 678 006f D9C9     		fxch	%st(1)
 679 0071 DBF1     		fcomi	%st(1), %st
 680 0073 DDD9     		fstp	%st(1)
 681              		.loc 1 43 23 view .LVU198
 682 0075 0F97401D 		seta	29(%eax)
 683 0079 EBB6     		jmp	.L69
 684 007b 8D742600 		.p2align 4,,10
 684      90
 685              		.p2align 3
 686              	.L75:
GAS LISTING /tmp/cccfnTdD.s 			page 14


 687              		.loc 1 36 5 view .LVU199
 688 0080 759B     		jne	.L70
 689 0082 DDD8     		fstp	%st(0)
 690 0084 DDD8     		fstp	%st(0)
 691              		.loc 1 48 1 view .LVU200
 692 0086 83C40C   		addl	$12, %esp
 693              		.cfi_def_cfa_offset 4
 694 0089 C3       		ret
 695              		.cfi_endproc
 696              	.LFE224:
 697              		.size	asSetSpeed, .-asSetSpeed
 698              		.section	.text.asGetSpeed,"ax",@progbits
 699              		.p2align 4,,15
 700              		.globl	asGetSpeed
 701              		.type	asGetSpeed, @function
 702              	asGetSpeed:
 703              	.LVL31:
 704              	.LFB225:
 705              		.loc 1 49 41 is_stmt 1 view -0
 706              		.cfi_startproc
 707              		.loc 1 50 2 view .LVU202
 708              		.loc 1 50 16 is_stmt 0 view .LVU203
 709 0000 8B442404 		movl	4(%esp), %eax
 710 0004 D94008   		flds	8(%eax)
 711              		.loc 1 51 1 view .LVU204
 712 0007 C3       		ret
 713              		.cfi_endproc
 714              	.LFE225:
 715              		.size	asGetSpeed, .-asGetSpeed
 716              		.section	.text.max,"ax",@progbits
 717              		.p2align 4,,15
 718              		.globl	max
 719              		.type	max, @function
 720              	max:
 721              	.LVL32:
 722              	.LFB226:
 723              		.loc 1 54 33 is_stmt 1 view -0
 724              		.cfi_startproc
 725              		.loc 1 55 2 view .LVU206
 726              		.loc 1 54 33 is_stmt 0 view .LVU207
 727 0000 D9442404 		flds	4(%esp)
 728 0004 D9442408 		flds	8(%esp)
 729              		.loc 1 58 10 view .LVU208
 730 0008 DBF1     		fcomi	%st(1), %st
 731 000a DAC1     		fcmovb	%st(1), %st
 732 000c DDD9     		fstp	%st(1)
 733              		.loc 1 59 1 view .LVU209
 734 000e C3       		ret
 735              		.cfi_endproc
 736              	.LFE226:
 737              		.size	max, .-max
 738              		.section	.text.asMoveTo,"ax",@progbits
 739              		.p2align 4,,15
 740              		.globl	asMoveTo
 741              		.type	asMoveTo, @function
 742              	asMoveTo:
 743              	.LVL33:
GAS LISTING /tmp/cccfnTdD.s 			page 15


 744              	.LFB227:
 745              		.loc 1 61 56 is_stmt 1 view -0
 746              		.cfi_startproc
 747              		.loc 1 63 2 view .LVU211
 748              		.loc 1 61 56 is_stmt 0 view .LVU212
 749 0000 8B442404 		movl	4(%esp), %eax
 750 0004 8B542408 		movl	8(%esp), %edx
 751              		.loc 1 63 5 view .LVU213
 752 0008 395004   		cmpl	%edx, 4(%eax)
 753 000b 7503     		jne	.L81
 754              		.loc 1 68 1 view .LVU214
 755 000d C3       		ret
 756 000e 6690     		.p2align 4,,10
 757              		.p2align 3
 758              	.L81:
 759              		.loc 1 64 3 is_stmt 1 view .LVU215
 760              		.loc 1 64 23 is_stmt 0 view .LVU216
 761 0010 895004   		movl	%edx, 4(%eax)
 762              		.loc 1 65 3 is_stmt 1 view .LVU217
 763 0013 E9FCFFFF 		jmp	asComputeNewSpeed
 763      FF
 764              	.LVL34:
 765              		.cfi_endproc
 766              	.LFE227:
 767              		.size	asMoveTo, .-asMoveTo
 768              		.section	.text.asMove,"ax",@progbits
 769              		.p2align 4,,15
 770              		.globl	asMove
 771              		.type	asMove, @function
 772              	asMove:
 773              	.LVL35:
 774              	.LFB229:
 775              		.loc 1 128 54 view -0
 776              		.cfi_startproc
 777              		.loc 1 129 2 view .LVU219
 778              		.loc 1 128 54 is_stmt 0 view .LVU220
 779 0000 8B442404 		movl	4(%esp), %eax
 780              		.loc 1 129 2 view .LVU221
 781 0004 8B10     		movl	(%eax), %edx
 782 0006 03542408 		addl	8(%esp), %edx
 783              	.LVL36:
 784              	.LBB46:
 785              	.LBI46:
 786              		.loc 1 61 6 is_stmt 1 view .LVU222
 787              	.LBB47:
 788              		.loc 1 63 2 view .LVU223
 789              		.loc 1 63 5 is_stmt 0 view .LVU224
 790 000a 3B5004   		cmpl	4(%eax), %edx
 791 000d 7501     		jne	.L84
 792              	.LBE47:
 793              	.LBE46:
 794              		.loc 1 130 1 view .LVU225
 795 000f C3       		ret
 796              		.p2align 4,,10
 797              		.p2align 3
 798              	.L84:
 799              	.LBB49:
GAS LISTING /tmp/cccfnTdD.s 			page 16


 800              	.LBB48:
 801              		.loc 1 64 3 is_stmt 1 view .LVU226
 802              		.loc 1 64 23 is_stmt 0 view .LVU227
 803 0010 895004   		movl	%edx, 4(%eax)
 804              		.loc 1 65 3 is_stmt 1 view .LVU228
 805 0013 E9FCFFFF 		jmp	asComputeNewSpeed
 805      FF
 806              	.LVL37:
 807              		.loc 1 65 3 is_stmt 0 view .LVU229
 808              	.LBE48:
 809              	.LBE49:
 810              		.cfi_endproc
 811              	.LFE229:
 812              		.size	asMove, .-asMove
 813              		.section	.text.asDistanceToGo,"ax",@progbits
 814              		.p2align 4,,15
 815              		.globl	asDistanceToGo
 816              		.type	asDistanceToGo, @function
 817              	asDistanceToGo:
 818              	.LVL38:
 819              	.LFB230:
 820              		.loc 1 132 47 is_stmt 1 view -0
 821              		.cfi_startproc
 822              		.loc 1 133 2 view .LVU231
 823              		.loc 1 132 47 is_stmt 0 view .LVU232
 824 0000 8B542404 		movl	4(%esp), %edx
 825              		.loc 1 133 29 view .LVU233
 826 0004 8B4204   		movl	4(%edx), %eax
 827 0007 2B02     		subl	(%edx), %eax
 828              		.loc 1 134 1 view .LVU234
 829 0009 C3       		ret
 830              		.cfi_endproc
 831              	.LFE230:
 832              		.size	asDistanceToGo, .-asDistanceToGo
 833              		.section	.text.asTargetPosition,"ax",@progbits
 834              		.p2align 4,,15
 835              		.globl	asTargetPosition
 836              		.type	asTargetPosition, @function
 837              	asTargetPosition:
 838              	.LVL39:
 839              	.LFB231:
 840              		.loc 1 136 49 is_stmt 1 view -0
 841              		.cfi_startproc
 842              		.loc 1 137 2 view .LVU236
 843              		.loc 1 137 16 is_stmt 0 view .LVU237
 844 0000 8B442404 		movl	4(%esp), %eax
 845 0004 8B4004   		movl	4(%eax), %eax
 846              		.loc 1 138 1 view .LVU238
 847 0007 C3       		ret
 848              		.cfi_endproc
 849              	.LFE231:
 850              		.size	asTargetPosition, .-asTargetPosition
 851              		.section	.text.asCurrentPosition,"ax",@progbits
 852              		.p2align 4,,15
 853              		.globl	asCurrentPosition
 854              		.type	asCurrentPosition, @function
 855              	asCurrentPosition:
GAS LISTING /tmp/cccfnTdD.s 			page 17


 856              	.LVL40:
 857              	.LFB232:
 858              		.loc 1 140 50 is_stmt 1 view -0
 859              		.cfi_startproc
 860              		.loc 1 141 2 view .LVU240
 861              		.loc 1 141 16 is_stmt 0 view .LVU241
 862 0000 8B442404 		movl	4(%esp), %eax
 863 0004 8B00     		movl	(%eax), %eax
 864              		.loc 1 142 1 view .LVU242
 865 0006 C3       		ret
 866              		.cfi_endproc
 867              	.LFE232:
 868              		.size	asCurrentPosition, .-asCurrentPosition
 869              		.section	.text.asSetCurrentPosition,"ax",@progbits
 870              		.p2align 4,,15
 871              		.globl	asSetCurrentPosition
 872              		.type	asSetCurrentPosition, @function
 873              	asSetCurrentPosition:
 874              	.LVL41:
 875              	.LFB233:
 876              		.loc 1 144 68 is_stmt 1 view -0
 877              		.cfi_startproc
 878              		.loc 1 145 2 view .LVU244
 879              		.loc 1 144 68 is_stmt 0 view .LVU245
 880 0000 8B442404 		movl	4(%esp), %eax
 881 0004 8B542408 		movl	8(%esp), %edx
 882              		.loc 1 145 43 view .LVU246
 883 0008 8910     		movl	%edx, (%eax)
 884              		.loc 1 145 21 view .LVU247
 885 000a 895004   		movl	%edx, 4(%eax)
 886              		.loc 1 146 2 is_stmt 1 view .LVU248
 887              		.loc 1 147 26 is_stmt 0 view .LVU249
 888 000d 31D2     		xorl	%edx, %edx
 889              		.loc 1 146 14 view .LVU250
 890 000f C7402000 		movl	$0, 32(%eax)
 890      000000
 891              		.loc 1 147 2 is_stmt 1 view .LVU251
 892              		.loc 1 147 26 is_stmt 0 view .LVU252
 893 0016 66895018 		movw	%dx, 24(%eax)
 894              		.loc 1 148 2 is_stmt 1 view .LVU253
 895              		.loc 1 148 19 is_stmt 0 view .LVU254
 896 001a C7400800 		movl	$0x00000000, 8(%eax)
 896      000000
 897              		.loc 1 149 2 view .LVU255
 898 0021 C3       		ret
 899              		.cfi_endproc
 900              	.LFE233:
 901              		.size	asSetCurrentPosition, .-asSetCurrentPosition
 902              		.section	.text.asRunSpeed,"ax",@progbits
 903              		.p2align 4,,15
 904              		.globl	asRunSpeed
 905              		.type	asRunSpeed, @function
 906              	asRunSpeed:
 907              	.LVL42:
 908              	.LFB238:
 909              		.loc 1 260 40 is_stmt 1 view -0
 910              		.cfi_startproc
GAS LISTING /tmp/cccfnTdD.s 			page 18


 911              		.loc 1 262 2 view .LVU257
 912 0000 E8FCFFFF 		call	__x86.get_pc_thunk.cx
 912      FF
 913 0005 81C10200 		addl	$_GLOBAL_OFFSET_TABLE_, %ecx
 913      0000
 914              		.loc 1 260 40 is_stmt 0 view .LVU258
 915 000b 53       		pushl	%ebx
 916              		.cfi_def_cfa_offset 8
 917              		.cfi_offset 3, -8
 918              		.loc 1 260 40 view .LVU259
 919 000c 8B442408 		movl	8(%esp), %eax
 920              		.loc 1 262 12 view .LVU260
 921 0010 0FB75018 		movzwl	24(%eax), %edx
 922              		.loc 1 262 4 view .LVU261
 923 0014 6685D2   		testw	%dx, %dx
 924 0017 745F     		je	.L92
 925              		.loc 1 264 2 is_stmt 1 view .LVU262
 926              	.LBB50:
 927              	.LBI50:
 928              		.file 2 "../../../os/rt/include/chvt.h"
 929              		.loc 2 134 25 view .LVU263
 930              	.LBB51:
 931              		.loc 2 135 3 view .LVU264
 932              		.loc 2 137 3 view .LVU265
 933              	.LBE51:
 934              	.LBE50:
 935              		.file 3 "../../../os/rt/include/chsys.h"
 936              		.loc 3 355 3 view .LVU266
 937              		.file 4 "../../../os/common/ports/SIMIA32/chcore.h"
 938              		.loc 4 364 3 view .LVU267
 939              		.loc 3 356 34 view .LVU268
 940              		.loc 3 357 20 view .LVU269
 941              	.LBB65:
 942              	.LBB64:
 943              		.loc 2 138 3 view .LVU270
 944              	.LBB52:
 945              	.LBI52:
 946              		.loc 2 115 25 view .LVU271
 947              	.LBB53:
 948              		.loc 2 118 3 view .LVU272
 949              		.loc 2 118 19 is_stmt 0 view .LVU273
 950 0019 8B990000 		movl	ch@GOT(%ecx), %ebx
 950      0000
 951              	.LBE53:
 952              	.LBE52:
 953              	.LBB55:
 954              	.LBB56:
 955              	.LBB57:
 956              	.LBB58:
 957              		.loc 4 373 16 view .LVU274
 958 001f 8B890000 		movl	port_irq_sts@GOT(%ecx), %ecx
 958      0000
 959              	.LBE58:
 960              	.LBE57:
 961              	.LBE56:
 962              	.LBE55:
 963              	.LBB62:
GAS LISTING /tmp/cccfnTdD.s 			page 19


 964              	.LBB54:
 965              		.loc 2 118 19 view .LVU275
 966 0025 0FB75B28 		movzwl	40(%ebx), %ebx
 967              	.LVL43:
 968              		.loc 2 118 19 view .LVU276
 969              	.LBE54:
 970              	.LBE62:
 971              		.loc 2 139 3 is_stmt 1 view .LVU277
 972              	.LBB63:
 973              	.LBI55:
 974              		.loc 3 365 20 view .LVU278
 975              	.LBB61:
 976              		.loc 3 367 22 view .LVU279
 977              		.loc 3 368 33 view .LVU280
 978              		.loc 3 374 3 view .LVU281
 979              		.loc 3 374 3 view .LVU282
 980              		.loc 3 378 3 view .LVU283
 981              	.LBB60:
 982              	.LBI57:
 983              		.loc 4 371 20 view .LVU284
 984              	.LBB59:
 985              		.loc 4 373 3 view .LVU285
 986              		.loc 4 373 16 is_stmt 0 view .LVU286
 987 0029 C7010000 		movl	$0, (%ecx)
 987      0000
 988              	.LBE59:
 989              	.LBE60:
 990              	.LBE61:
 991              	.LBE63:
 992              		.loc 2 141 3 is_stmt 1 view .LVU287
 993              	.LVL44:
 994              		.loc 2 141 3 is_stmt 0 view .LVU288
 995              	.LBE64:
 996              	.LBE65:
 997              		.loc 1 265 2 is_stmt 1 view .LVU289
 998              		.loc 1 265 6 is_stmt 0 view .LVU290
 999 002f 89D9     		movl	%ebx, %ecx
 1000 0031 662B481A 		subw	26(%eax), %cx
 1001              		.loc 1 265 5 view .LVU291
 1002 0035 6639CA   		cmpw	%cx, %dx
 1003 0038 773E     		ja	.L92
 1004              		.loc 1 268 3 is_stmt 1 view .LVU292
 1005 003a 8B08     		movl	(%eax), %ecx
 1006              		.loc 1 268 6 is_stmt 0 view .LVU293
 1007 003c 80781D01 		cmpb	$1, 29(%eax)
 1008              		.loc 1 271 25 view .LVU294
 1009 0040 8D51FF   		leal	-1(%ecx), %edx
 1010              		.loc 1 268 6 view .LVU295
 1011 0043 7503     		jne	.L94
 1012              		.loc 1 269 4 is_stmt 1 view .LVU296
 1013              		.loc 1 269 25 is_stmt 0 view .LVU297
 1014 0045 8D5101   		leal	1(%ecx), %edx
 1015              	.L94:
 1016 0048 8910     		movl	%edx, (%eax)
 1017              		.loc 1 281 3 is_stmt 1 view .LVU298
 1018              	.LVL45:
 1019              		.loc 1 281 3 is_stmt 0 view .LVU299
GAS LISTING /tmp/cccfnTdD.s 			page 20


 1020 004a 83E203   		andl	$3, %edx
 1021              	.LVL46:
 1022              	.LBB66:
 1023              	.LBI66:
 1024              		.loc 1 197 13 is_stmt 1 view .LVU300
 1025              	.LBB67:
 1026              		.loc 1 199 2 view .LVU301
 1027 004d 80FA02   		cmpb	$2, %dl
 1028 0050 742E     		je	.L95
 1029 0052 80FA03   		cmpb	$3, %dl
 1030 0055 7439     		je	.L96
 1031              		.loc 1 201 26 is_stmt 0 view .LVU302
 1032 0057 80FA01   		cmpb	$1, %dl
 1033 005a 0F95C2   		setne	%dl
 1034              	.LVL47:
 1035              		.loc 1 201 26 view .LVU303
 1036 005d 8D149506 		leal	6(,%edx,4), %edx
 1036      000000
 1037 0064 88501C   		movb	%dl, 28(%eax)
 1038              	.L98:
 1039              	.LVL48:
 1040              		.loc 1 201 26 view .LVU304
 1041              	.LBE67:
 1042              	.LBE66:
 1043              		.loc 1 282 3 is_stmt 1 view .LVU305
 1044              		.loc 1 282 26 is_stmt 0 view .LVU306
 1045 0067 6689581A 		movw	%bx, 26(%eax)
 1046              		.loc 1 283 3 is_stmt 1 view .LVU307
 1047              		.loc 1 283 10 is_stmt 0 view .LVU308
 1048 006b B8010000 		movl	$1, %eax
 1048      00
 1049              		.loc 1 286 1 view .LVU309
 1050 0070 5B       		popl	%ebx
 1051              		.cfi_remember_state
 1052              		.cfi_restore 3
 1053              		.cfi_def_cfa_offset 4
 1054              	.LVL49:
 1055              		.loc 1 286 1 view .LVU310
 1056 0071 C3       		ret
 1057              	.LVL50:
 1058              		.p2align 4,,10
 1059 0072 8DB60000 		.p2align 3
 1059      0000
 1060              	.L92:
 1061              		.cfi_restore_state
 1062              		.loc 1 263 10 view .LVU311
 1063 0078 31C0     		xorl	%eax, %eax
 1064              	.LVL51:
 1065              		.loc 1 286 1 view .LVU312
 1066 007a 5B       		popl	%ebx
 1067              		.cfi_remember_state
 1068              		.cfi_restore 3
 1069              		.cfi_def_cfa_offset 4
 1070 007b C3       		ret
 1071              	.LVL52:
 1072 007c 8D742600 		.p2align 4,,10
 1073              		.p2align 3
GAS LISTING /tmp/cccfnTdD.s 			page 21


 1074              	.L95:
 1075              		.cfi_restore_state
 1076              	.LBB69:
 1077              	.LBB68:
 1078              		.loc 1 209 3 is_stmt 1 view .LVU313
 1079              		.loc 1 209 26 is_stmt 0 view .LVU314
 1080 0080 C6401C05 		movb	$5, 28(%eax)
 1081              		.loc 1 210 3 is_stmt 1 view .LVU315
 1082 0084 EBE1     		jmp	.L98
 1083 0086 8DB42600 		.p2align 4,,10
 1083      0000008D 
 1083      7600
 1084              		.p2align 3
 1085              	.L96:
 1086              		.loc 1 213 3 view .LVU316
 1087              		.loc 1 213 26 is_stmt 0 view .LVU317
 1088 0090 C6401C09 		movb	$9, 28(%eax)
 1089              		.loc 1 214 3 is_stmt 1 view .LVU318
 1090 0094 EBD1     		jmp	.L98
 1091              	.LBE68:
 1092              	.LBE69:
 1093              		.cfi_endproc
 1094              	.LFE238:
 1095              		.size	asRunSpeed, .-asRunSpeed
 1096              		.section	.text.asRun,"ax",@progbits
 1097              		.p2align 4,,15
 1098              		.globl	asRun
 1099              		.type	asRun, @function
 1100              	asRun:
 1101              	.LVL53:
 1102              	.LFB235:
 1103              		.loc 1 219 35 view -0
 1104              		.cfi_startproc
 1105              		.loc 1 223 2 view .LVU320
 1106              		.loc 1 219 35 is_stmt 0 view .LVU321
 1107 0000 56       		pushl	%esi
 1108              		.cfi_def_cfa_offset 8
 1109              		.cfi_offset 6, -8
 1110 0001 53       		pushl	%ebx
 1111              		.cfi_def_cfa_offset 12
 1112              		.cfi_offset 3, -12
 1113 0002 83EC04   		subl	$4, %esp
 1114              		.cfi_def_cfa_offset 16
 1115              		.loc 1 219 35 view .LVU322
 1116 0005 8B5C2410 		movl	16(%esp), %ebx
 1117              		.loc 1 223 6 view .LVU323
 1118 0009 53       		pushl	%ebx
 1119              		.cfi_def_cfa_offset 20
 1120 000a E8FCFFFF 		call	asRunSpeed
 1120      FF
 1121              	.LVL54:
 1122              		.loc 1 223 5 view .LVU324
 1123 000f 5A       		popl	%edx
 1124              		.cfi_def_cfa_offset 16
 1125 0010 84C0     		testb	%al, %al
 1126 0012 752C     		jne	.L108
 1127              	.L101:
GAS LISTING /tmp/cccfnTdD.s 			page 22


 1128              		.loc 1 225 2 is_stmt 1 view .LVU325
 1129              		.loc 1 225 32 is_stmt 0 view .LVU326
 1130 0014 D9EE     		fldz
 1131 0016 D94308   		flds	8(%ebx)
 1132 0019 DFE9     		fucomip	%st(1), %st
 1133 001b DDD8     		fstp	%st(0)
 1134 001d 7A11     		jp	.L103
 1135 001f 750F     		jne	.L103
 1136              	.LVL55:
 1137              	.LBB70:
 1138              	.LBI70:
 1139              		.loc 1 132 9 is_stmt 1 view .LVU327
 1140              	.LBB71:
 1141              		.loc 1 133 2 view .LVU328
 1142              		.loc 1 133 2 is_stmt 0 view .LVU329
 1143              	.LBE71:
 1144              	.LBE70:
 1145              		.loc 1 225 32 view .LVU330
 1146 0021 8B03     		movl	(%ebx), %eax
 1147 0023 394304   		cmpl	%eax, 4(%ebx)
 1148 0026 0F95C0   		setne	%al
 1149              		.loc 1 226 1 view .LVU331
 1150 0029 83C404   		addl	$4, %esp
 1151              		.cfi_remember_state
 1152              		.cfi_def_cfa_offset 12
 1153 002c 5B       		popl	%ebx
 1154              		.cfi_restore 3
 1155              		.cfi_def_cfa_offset 8
 1156 002d 5E       		popl	%esi
 1157              		.cfi_restore 6
 1158              		.cfi_def_cfa_offset 4
 1159 002e C3       		ret
 1160 002f 90       		.p2align 4,,10
 1161              		.p2align 3
 1162              	.L103:
 1163              		.cfi_restore_state
 1164 0030 83C404   		addl	$4, %esp
 1165              		.cfi_remember_state
 1166              		.cfi_def_cfa_offset 12
 1167 0033 B8010000 		movl	$1, %eax
 1167      00
 1168 0038 5B       		popl	%ebx
 1169              		.cfi_restore 3
 1170              		.cfi_def_cfa_offset 8
 1171 0039 5E       		popl	%esi
 1172              		.cfi_restore 6
 1173              		.cfi_def_cfa_offset 4
 1174 003a C3       		ret
 1175 003b 8D742600 		.p2align 4,,10
 1175      90
 1176              		.p2align 3
 1177              	.L108:
 1178              		.cfi_restore_state
 1179              		.loc 1 224 3 is_stmt 1 view .LVU332
 1180 0040 89D8     		movl	%ebx, %eax
 1181 0042 E8FCFFFF 		call	asComputeNewSpeed
 1181      FF
GAS LISTING /tmp/cccfnTdD.s 			page 23


 1182              	.LVL56:
 1183 0047 EBCB     		jmp	.L101
 1184              		.cfi_endproc
 1185              	.LFE235:
 1186              		.size	asRun, .-asRun
 1187              		.section	.text.asRunToPosition,"ax",@progbits
 1188              		.p2align 4,,15
 1189              		.globl	asRunToPosition
 1190              		.type	asRunToPosition, @function
 1191              	asRunToPosition:
 1192              	.LVL57:
 1193              	.LFB237:
 1194              		.loc 1 252 45 view -0
 1195              		.cfi_startproc
 1196              		.loc 1 252 45 is_stmt 0 view .LVU334
 1197 0000 53       		pushl	%ebx
 1198              		.cfi_def_cfa_offset 8
 1199              		.cfi_offset 3, -8
 1200 0001 8B5C2408 		movl	8(%esp), %ebx
 1201              		.loc 1 253 2 is_stmt 1 view .LVU335
 1202              		.p2align 4,,10
 1203 0005 8D7600   		.p2align 3
 1204              	.L110:
 1205              		.loc 1 254 3 discriminator 1 view .LVU336
 1206              		.loc 1 253 9 is_stmt 0 discriminator 1 view .LVU337
 1207 0008 83EC04   		subl	$4, %esp
 1208              		.cfi_def_cfa_offset 12
 1209 000b 53       		pushl	%ebx
 1210              		.cfi_def_cfa_offset 16
 1211 000c E8FCFFFF 		call	asRun
 1211      FF
 1212              	.LVL58:
 1213              		.loc 1 253 8 discriminator 1 view .LVU338
 1214 0011 5A       		popl	%edx
 1215              		.cfi_def_cfa_offset 12
 1216 0012 59       		popl	%ecx
 1217              		.cfi_def_cfa_offset 8
 1218 0013 84C0     		testb	%al, %al
 1219 0015 75F1     		jne	.L110
 1220              		.loc 1 255 1 view .LVU339
 1221 0017 5B       		popl	%ebx
 1222              		.cfi_restore 3
 1223              		.cfi_def_cfa_offset 4
 1224 0018 C3       		ret
 1225              		.cfi_endproc
 1226              	.LFE237:
 1227              		.size	asRunToPosition, .-asRunToPosition
 1228              		.section	.text.asRunSpeedToPosition,"ax",@progbits
 1229              		.p2align 4,,15
 1230              		.globl	asRunSpeedToPosition
 1231              		.type	asRunSpeedToPosition, @function
 1232              	asRunSpeedToPosition:
 1233              	.LVL59:
 1234              	.LFB236:
 1235              		.loc 1 236 50 is_stmt 1 view -0
 1236              		.cfi_startproc
 1237              		.loc 1 237 2 view .LVU341
GAS LISTING /tmp/cccfnTdD.s 			page 24


 1238              		.loc 1 236 50 is_stmt 0 view .LVU342
 1239 0000 56       		pushl	%esi
 1240              		.cfi_def_cfa_offset 8
 1241              		.cfi_offset 6, -8
 1242              		.loc 1 238 10 view .LVU343
 1243 0001 31C0     		xorl	%eax, %eax
 1244              		.loc 1 236 50 view .LVU344
 1245 0003 53       		pushl	%ebx
 1246              		.cfi_def_cfa_offset 12
 1247              		.cfi_offset 3, -12
 1248              		.loc 1 236 50 view .LVU345
 1249 0004 8B5C240C 		movl	12(%esp), %ebx
 1250              		.loc 1 237 5 view .LVU346
 1251 0008 8B13     		movl	(%ebx), %edx
 1252 000a 395304   		cmpl	%edx, 4(%ebx)
 1253 000d 7420     		je	.L113
 1254              		.loc 1 240 5 is_stmt 1 view .LVU347
 1255 000f 0F9F431D 		setg	29(%ebx)
 1256              		.loc 1 245 5 view .LVU348
 1257 0013 53       		pushl	%ebx
 1258              		.cfi_def_cfa_offset 16
 1259 0014 E8FCFFFF 		call	asRunSpeed
 1259      FF
 1260              	.LVL60:
 1261              		.loc 1 246 5 view .LVU349
 1262              		.loc 1 246 36 is_stmt 0 view .LVU350
 1263 0019 D9EE     		fldz
 1264 001b D94308   		flds	8(%ebx)
 1265 001e 58       		popl	%eax
 1266              		.cfi_def_cfa_offset 12
 1267 001f DFE9     		fucomip	%st(1), %st
 1268 0021 DDD8     		fstp	%st(0)
 1269 0023 7A13     		jp	.L117
 1270 0025 7511     		jne	.L117
 1271              	.LVL61:
 1272              	.LBB72:
 1273              	.LBI72:
 1274              		.loc 1 132 9 is_stmt 1 view .LVU351
 1275              	.LBB73:
 1276              		.loc 1 133 2 view .LVU352
 1277              		.loc 1 133 2 is_stmt 0 view .LVU353
 1278              	.LBE73:
 1279              	.LBE72:
 1280              		.loc 1 246 36 view .LVU354
 1281 0027 8B03     		movl	(%ebx), %eax
 1282 0029 394304   		cmpl	%eax, 4(%ebx)
 1283 002c 0F95C0   		setne	%al
 1284              	.L113:
 1285              		.loc 1 248 1 view .LVU355
 1286 002f 5B       		popl	%ebx
 1287              		.cfi_remember_state
 1288              		.cfi_restore 3
 1289              		.cfi_def_cfa_offset 8
 1290 0030 5E       		popl	%esi
 1291              		.cfi_restore 6
 1292              		.cfi_def_cfa_offset 4
 1293 0031 C3       		ret
GAS LISTING /tmp/cccfnTdD.s 			page 25


 1294              		.p2align 4,,10
 1295 0032 8DB60000 		.p2align 3
 1295      0000
 1296              	.L117:
 1297              		.cfi_restore_state
 1298              		.loc 1 248 1 view .LVU356
 1299 0038 B8010000 		movl	$1, %eax
 1299      00
 1300 003d 5B       		popl	%ebx
 1301              		.cfi_restore 3
 1302              		.cfi_def_cfa_offset 8
 1303 003e 5E       		popl	%esi
 1304              		.cfi_restore 6
 1305              		.cfi_def_cfa_offset 4
 1306 003f C3       		ret
 1307              		.cfi_endproc
 1308              	.LFE236:
 1309              		.size	asRunSpeedToPosition, .-asRunSpeedToPosition
 1310              		.section	.rodata.cst4,"aM",@progbits,4
 1311              		.align 4
 1312              	.LC1:
 1313 0000 00008040 		.long	1082130432
 1314              		.align 4
 1315              	.LC2:
 1316 0004 0000803F 		.long	1065353216
 1317              		.align 4
 1318              	.LC3:
 1319 0008 00007A44 		.long	1148846080
 1320              		.align 4
 1321              	.LC4:
 1322 000c 00000040 		.long	1073741824
 1323              		.section	.rodata.cst8,"aM",@progbits,8
 1324              		.align 8
 1325              	.LC5:
 1326 0000 6F1283C0 		.long	3229815407
 1327 0004 CAA1E53F 		.long	1072013770
 1328              		.section	.text.__x86.get_pc_thunk.dx,"axG",@progbits,__x86.get_pc_thunk.dx,comdat
 1329              		.globl	__x86.get_pc_thunk.dx
 1330              		.hidden	__x86.get_pc_thunk.dx
 1331              		.type	__x86.get_pc_thunk.dx, @function
 1332              	__x86.get_pc_thunk.dx:
 1333              	.LFB239:
 1334              		.cfi_startproc
 1335 0000 8B1424   		movl	(%esp), %edx
 1336 0003 C3       		ret
 1337              		.cfi_endproc
 1338              	.LFE239:
 1339              		.section	.text.__x86.get_pc_thunk.cx,"axG",@progbits,__x86.get_pc_thunk.cx,comdat
 1340              		.globl	__x86.get_pc_thunk.cx
 1341              		.hidden	__x86.get_pc_thunk.cx
 1342              		.type	__x86.get_pc_thunk.cx, @function
 1343              	__x86.get_pc_thunk.cx:
 1344              	.LFB240:
 1345              		.cfi_startproc
 1346 0000 8B0C24   		movl	(%esp), %ecx
 1347 0003 C3       		ret
 1348              		.cfi_endproc
GAS LISTING /tmp/cccfnTdD.s 			page 26


 1349              	.LFE240:
 1350              		.section	.text.__x86.get_pc_thunk.bx,"axG",@progbits,__x86.get_pc_thunk.bx,comdat
 1351              		.globl	__x86.get_pc_thunk.bx
 1352              		.hidden	__x86.get_pc_thunk.bx
 1353              		.type	__x86.get_pc_thunk.bx, @function
 1354              	__x86.get_pc_thunk.bx:
 1355              	.LFB241:
 1356              		.cfi_startproc
 1357 0000 8B1C24   		movl	(%esp), %ebx
 1358 0003 C3       		ret
 1359              		.cfi_endproc
 1360              	.LFE241:
 1361              		.section	.text.__x86.get_pc_thunk.di,"axG",@progbits,__x86.get_pc_thunk.di,comdat
 1362              		.globl	__x86.get_pc_thunk.di
 1363              		.hidden	__x86.get_pc_thunk.di
 1364              		.type	__x86.get_pc_thunk.di, @function
 1365              	__x86.get_pc_thunk.di:
 1366              	.LFB242:
 1367              		.cfi_startproc
 1368 0000 8B3C24   		movl	(%esp), %edi
 1369 0003 C3       		ret
 1370              		.cfi_endproc
 1371              	.LFE242:
 1372              		.text
 1373              	.Letext0:
 1374              		.file 5 "/usr/lib/gcc/x86_64-linux-gnu/8/include/stddef.h"
 1375              		.file 6 "/usr/include/i386-linux-gnu/bits/types.h"
 1376              		.file 7 "/usr/include/i386-linux-gnu/bits/stdint-intn.h"
 1377              		.file 8 "/usr/include/i386-linux-gnu/bits/stdint-uintn.h"
 1378              		.file 9 "../../../os/common/ports/SIMIA32/compilers/GCC/chtypes.h"
 1379              		.file 10 "../../../os/rt/include/chsystypes.h"
 1380              		.file 11 "../../../os/rt/include/chschd.h"
 1381              		.file 12 "../../../os/rt/include/chtime.h"
 1382              		.file 13 "../../../os/rt/include/chtm.h"
 1383              		.file 14 "../../../os/rt/include/chsem.h"
 1384              		.file 15 "../../../os/rt/include/chmtx.h"
 1385              		.file 16 "../../../os/rt/include/chregistry.h"
 1386              		.file 17 "../../../os/rt/include/chevents.h"
 1387              		.file 18 "../../../os/common/oslib/include/chmemcore.h"
 1388              		.file 19 "../../../os/common/oslib/include/chmempools.h"
 1389              		.file 20 "../../../os/common/oslib/include/chfactory.h"
 1390              		.file 21 "/usr/include/netinet/in.h"
 1391              		.file 22 "/usr/include/unistd.h"
 1392              		.file 23 "/usr/include/i386-linux-gnu/bits/getopt_core.h"
 1393              		.file 24 "/usr/include/i386-linux-gnu/bits/types/struct_FILE.h"
 1394              		.file 25 "/usr/include/i386-linux-gnu/bits/types/FILE.h"
 1395              		.file 26 "/usr/include/stdio.h"
 1396              		.file 27 "/usr/include/i386-linux-gnu/bits/sys_errlist.h"
 1397              		.file 28 "../../../os/hal/include/hal_queues.h"
 1398              		.file 29 "../../../os/hal/ports/simulator/hal_pal_lld.h"
 1399              		.file 30 "../../../os/hal/include/hal_serial.h"
 1400              		.file 31 "../../../os/hal/ports/simulator/posix/hal_serial_lld.h"
 1401              		.file 32 "/usr/include/math.h"
 1402              		.file 33 "accelStepper.h"
 1403              		.file 34 "/usr/include/i386-linux-gnu/bits/mathcalls.h"
 6878              		.section	.note.GNU-stack,"",@progbits
GAS LISTING /tmp/cccfnTdD.s 			page 134

