GAS LISTING /tmp/ccffpNMU.s 			page 1


   1              		.file	"animations.c"
   2              		.text
   3              	.Ltext0:
   4              		.section	.text.aniStandardTime,"ax",@progbits
   5              		.p2align 4,,15
   6              		.globl	aniStandardTime
   7              		.type	aniStandardTime, @function
   8              	aniStandardTime:
   9              	.LVL0:
  10              	.LFB222:
  11              		.file 1 "animations.c"
  12              		.loc 1 6 96 view -0
  13              		.cfi_startproc
  14              		.loc 1 7 2 view .LVU1
  15              		.loc 1 6 96 is_stmt 0 view .LVU2
  16 0000 55       		pushl	%ebp
  17              		.cfi_def_cfa_offset 8
  18              		.cfi_offset 5, -8
  19 0001 57       		pushl	%edi
  20              		.cfi_def_cfa_offset 12
  21              		.cfi_offset 7, -12
  22 0002 56       		pushl	%esi
  23              		.cfi_def_cfa_offset 16
  24              		.cfi_offset 6, -16
  25 0003 53       		pushl	%ebx
  26              		.cfi_def_cfa_offset 20
  27              		.cfi_offset 3, -20
  28 0004 E8FCFFFF 		call	__x86.get_pc_thunk.bx
  28      FF
  29 0009 81C30200 		addl	$_GLOBAL_OFFSET_TABLE_, %ebx
  29      0000
  30 000f 83EC0C   		subl	$12, %esp
  31              		.cfi_def_cfa_offset 32
  32              		.loc 1 6 96 view .LVU3
  33 0012 8B7C2424 		movl	36(%esp), %edi
  34              	.LVL1:
  35              	.LBB111:
  36              	.LBI111:
  37              		.file 2 "../../../os/common/oslib/include/chbsem.h"
  38              		.loc 2 282 20 is_stmt 1 view .LVU4
  39              	.LBB112:
  40              		.loc 2 284 3 view .LVU5
  41              	.LBB113:
  42              	.LBI113:
  43              		.file 3 "../../../os/rt/include/chsys.h"
  44              		.loc 3 353 20 view .LVU6
  45              	.LBE113:
  46              	.LBE112:
  47              	.LBE111:
  48              		.loc 3 355 3 view .LVU7
  49              	.LBB138:
  50              	.LBB134:
  51              	.LBB118:
  52              	.LBB114:
  53              	.LBI114:
  54              		.file 4 "../../../os/common/ports/SIMIA32/chcore.h"
  55              		.loc 4 362 20 view .LVU8
GAS LISTING /tmp/ccffpNMU.s 			page 2


  56              	.LBB115:
  57              		.loc 4 364 3 view .LVU9
  58              	.LBE115:
  59              	.LBE114:
  60              	.LBE118:
  61              	.LBB119:
  62              	.LBB120:
  63              		.loc 2 270 6 is_stmt 0 view .LVU10
  64 0016 8B4708   		movl	8(%edi), %eax
  65              	.LBE120:
  66              	.LBE119:
  67              	.LBB123:
  68              	.LBB117:
  69              	.LBB116:
  70              		.loc 4 364 16 view .LVU11
  71 0019 8BB30000 		movl	port_irq_sts@GOT(%ebx), %esi
  71      0000
  72 001f C7060100 		movl	$1, (%esi)
  72      0000
  73              	.LBE116:
  74              	.LBE117:
  75              	.LBE123:
  76              	.LBE134:
  77              	.LBE138:
  78              		.loc 3 356 34 is_stmt 1 view .LVU12
  79              		.loc 3 357 20 view .LVU13
  80              	.LBB139:
  81              	.LBB135:
  82              		.loc 2 285 3 view .LVU14
  83              	.LVL2:
  84              	.LBB124:
  85              	.LBI119:
  86              		.loc 2 266 20 view .LVU15
  87              	.LBB121:
  88              		.loc 2 268 21 view .LVU16
  89              		.loc 2 270 3 view .LVU17
  90              		.loc 2 270 6 is_stmt 0 view .LVU18
  91 0025 85C0     		testl	%eax, %eax
  92 0027 0F8EC300 		jle	.L7
  92      0000
  93              	.L2:
  94              	.LVL3:
  95              		.loc 2 270 6 view .LVU19
  96              	.LBE121:
  97              	.LBE124:
  98              		.loc 2 286 3 is_stmt 1 view .LVU20
  99 002d E8FCFFFF 		call	chSchRescheduleS@PLT
  99      FF
 100              	.LVL4:
 101              		.loc 2 287 3 view .LVU21
 102              	.LBB125:
 103              	.LBI125:
 104              		.loc 3 365 20 view .LVU22
 105              	.LBB126:
 106              		.loc 3 367 22 view .LVU23
 107              		.loc 3 368 33 view .LVU24
 108              		.loc 3 374 3 view .LVU25
GAS LISTING /tmp/ccffpNMU.s 			page 3


 109              		.loc 3 374 3 view .LVU26
 110              		.loc 3 378 3 view .LVU27
 111              	.LBB127:
 112              	.LBI127:
 113              		.loc 4 371 20 view .LVU28
 114              	.LBB128:
 115              		.loc 4 373 3 view .LVU29
 116              	.LBE128:
 117              	.LBE127:
 118              	.LBE126:
 119              	.LBE125:
 120              	.LBE135:
 121              	.LBE139:
 122              	.LBB140:
 123              	.LBB141:
 124              		.loc 2 143 10 is_stmt 0 view .LVU30
 125 0032 83EC0C   		subl	$12, %esp
 126              		.cfi_def_cfa_offset 44
 127              	.LBE141:
 128              	.LBE140:
 129              		.loc 1 11 2 view .LVU31
 130 0035 8DAB0000 		leal	myTime@GOTOFF(%ebx), %ebp
 130      0000
 131              	.LBB143:
 132              	.LBB136:
 133              	.LBB132:
 134              	.LBB131:
 135              	.LBB130:
 136              	.LBB129:
 137              		.loc 4 373 16 view .LVU32
 138 003b C7060000 		movl	$0, (%esi)
 138      0000
 139              	.LVL5:
 140              		.loc 4 373 16 view .LVU33
 141              	.LBE129:
 142              	.LBE130:
 143              	.LBE131:
 144              	.LBE132:
 145              	.LBE136:
 146              	.LBE143:
 147              		.loc 1 8 2 is_stmt 1 view .LVU34
 148              	.LBB144:
 149              	.LBI140:
 150              		.loc 2 141 21 view .LVU35
 151              	.LBB142:
 152              		.loc 2 143 3 view .LVU36
 153              		.loc 2 143 10 is_stmt 0 view .LVU37
 154 0041 FF74242C 		pushl	44(%esp)
 155              		.cfi_def_cfa_offset 48
 156 0045 E8FCFFFF 		call	chSemWait@PLT
 156      FF
 157              	.LVL6:
 158              	.LBE142:
 159              	.LBE144:
 160              		.loc 1 9 2 is_stmt 1 view .LVU38
 161              		.loc 1 11 2 view .LVU39
 162 004a 892C24   		movl	%ebp, (%esp)
GAS LISTING /tmp/ccffpNMU.s 			page 4


 163 004d E8FCFFFF 		call	SmallTimeGet@PLT
 163      FF
 164              	.LVL7:
 165              		.loc 1 12 2 view .LVU40
 166              		.loc 1 12 12 is_stmt 0 view .LVU41
 167 0052 8B830400 		movl	4+myTime@GOTOFF(%ebx), %eax
 167      0000
 168              		.loc 1 12 21 view .LVU42
 169 0058 0FB69300 		movzbl	prevmin.7179@GOTOFF(%ebx), %edx
 169      000000
 170              		.loc 1 12 5 view .LVU43
 171 005f 83C410   		addl	$16, %esp
 172              		.cfi_def_cfa_offset 32
 173 0062 39D0     		cmpl	%edx, %eax
 174 0064 750A     		jne	.L8
 175              		.loc 1 21 1 view .LVU44
 176 0066 83C40C   		addl	$12, %esp
 177              		.cfi_remember_state
 178              		.cfi_def_cfa_offset 20
 179 0069 5B       		popl	%ebx
 180              		.cfi_restore 3
 181              		.cfi_def_cfa_offset 16
 182 006a 5E       		popl	%esi
 183              		.cfi_restore 6
 184              		.cfi_def_cfa_offset 12
 185 006b 5F       		popl	%edi
 186              		.cfi_restore 7
 187              		.cfi_def_cfa_offset 8
 188 006c 5D       		popl	%ebp
 189              		.cfi_restore 5
 190              		.cfi_def_cfa_offset 4
 191 006d C3       		ret
 192 006e 6690     		.p2align 4,,10
 193              		.p2align 3
 194              	.L8:
 195              		.cfi_restore_state
 196              		.loc 1 13 3 is_stmt 1 view .LVU45
 197              		.loc 1 14 3 is_stmt 0 view .LVU46
 198 0070 83EC08   		subl	$8, %esp
 199              		.cfi_def_cfa_offset 40
 200              		.loc 1 13 11 view .LVU47
 201 0073 88830000 		movb	%al, prevmin.7179@GOTOFF(%ebx)
 201      0000
 202              		.loc 1 14 3 is_stmt 1 view .LVU48
 203 0079 8D830000 		leal	myTimeDigits@GOTOFF(%ebx), %eax
 203      0000
 204 007f 50       		pushl	%eax
 205              		.cfi_def_cfa_offset 44
 206 0080 55       		pushl	%ebp
 207              		.cfi_def_cfa_offset 48
 208 0081 E8FCFFFF 		call	SmallTimeGetDigits@PLT
 208      FF
 209              	.LVL8:
 210              		.loc 1 15 3 view .LVU49
 211 0086 58       		popl	%eax
 212              		.cfi_def_cfa_offset 44
 213 0087 0FB68300 		movzbl	myTimeDigits@GOTOFF(%ebx), %eax
GAS LISTING /tmp/ccffpNMU.s 			page 5


 213      000000
 214 008e 5A       		popl	%edx
 215              		.cfi_def_cfa_offset 40
 216 008f 50       		pushl	%eax
 217              		.cfi_def_cfa_offset 44
 218 0090 6A00     		pushl	$0
 219              		.cfi_def_cfa_offset 48
 220 0092 E8FCFFFF 		call	diSetDigits@PLT
 220      FF
 221              	.LVL9:
 222              		.loc 1 16 3 view .LVU50
 223 0097 0FB68301 		movzbl	1+myTimeDigits@GOTOFF(%ebx), %eax
 223      000000
 224 009e 59       		popl	%ecx
 225              		.cfi_def_cfa_offset 44
 226 009f 5D       		popl	%ebp
 227              		.cfi_def_cfa_offset 40
 228 00a0 50       		pushl	%eax
 229              		.cfi_def_cfa_offset 44
 230 00a1 6A02     		pushl	$2
 231              		.cfi_def_cfa_offset 48
 232 00a3 E8FCFFFF 		call	diSetDigits@PLT
 232      FF
 233              	.LVL10:
 234              		.loc 1 17 3 view .LVU51
 235 00a8 58       		popl	%eax
 236              		.cfi_def_cfa_offset 44
 237 00a9 0FB68302 		movzbl	2+myTimeDigits@GOTOFF(%ebx), %eax
 237      000000
 238 00b0 5A       		popl	%edx
 239              		.cfi_def_cfa_offset 40
 240 00b1 50       		pushl	%eax
 241              		.cfi_def_cfa_offset 44
 242 00b2 6A04     		pushl	$4
 243              		.cfi_def_cfa_offset 48
 244 00b4 E8FCFFFF 		call	diSetDigits@PLT
 244      FF
 245              	.LVL11:
 246              		.loc 1 18 3 view .LVU52
 247 00b9 0FB68303 		movzbl	3+myTimeDigits@GOTOFF(%ebx), %eax
 247      000000
 248 00c0 59       		popl	%ecx
 249              		.cfi_def_cfa_offset 44
 250 00c1 5D       		popl	%ebp
 251              		.cfi_def_cfa_offset 40
 252 00c2 50       		pushl	%eax
 253              		.cfi_def_cfa_offset 44
 254 00c3 6A06     		pushl	$6
 255              		.cfi_def_cfa_offset 48
 256 00c5 E8FCFFFF 		call	diSetDigits@PLT
 256      FF
 257              	.LVL12:
 258              		.loc 1 19 3 view .LVU53
 259              	.LBB145:
 260              	.LBI145:
 261              		.loc 2 282 20 view .LVU54
 262              	.LBB146:
GAS LISTING /tmp/ccffpNMU.s 			page 6


 263              		.loc 2 284 3 view .LVU55
 264              	.LBB147:
 265              	.LBI147:
 266              		.loc 3 353 20 view .LVU56
 267              	.LBE147:
 268              	.LBE146:
 269              	.LBE145:
 270              		.loc 3 355 3 view .LVU57
 271              	.LBB167:
 272              	.LBB164:
 273              	.LBB152:
 274              	.LBB148:
 275              	.LBI148:
 276              		.loc 4 362 20 view .LVU58
 277              	.LBB149:
 278              		.loc 4 364 3 view .LVU59
 279              	.LBE149:
 280              	.LBE148:
 281              	.LBE152:
 282              	.LBB153:
 283              	.LBB154:
 284              		.loc 2 270 6 is_stmt 0 view .LVU60
 285 00ca 8B4708   		movl	8(%edi), %eax
 286              	.LBE154:
 287              	.LBE153:
 288              	.LBB157:
 289              	.LBB151:
 290              	.LBB150:
 291              		.loc 4 364 16 view .LVU61
 292 00cd C7060100 		movl	$1, (%esi)
 292      0000
 293              	.LBE150:
 294              	.LBE151:
 295              	.LBE157:
 296              	.LBE164:
 297              	.LBE167:
 298              		.loc 3 356 34 is_stmt 1 view .LVU62
 299              		.loc 3 357 20 view .LVU63
 300              	.LBB168:
 301              	.LBB165:
 302              		.loc 2 285 3 view .LVU64
 303              	.LVL13:
 304              	.LBB158:
 305              	.LBI153:
 306              		.loc 2 266 20 view .LVU65
 307              	.LBB155:
 308              		.loc 2 268 21 view .LVU66
 309              		.loc 2 270 3 view .LVU67
 310              		.loc 2 270 6 is_stmt 0 view .LVU68
 311 00d3 83C410   		addl	$16, %esp
 312              		.cfi_def_cfa_offset 32
 313 00d6 85C0     		testl	%eax, %eax
 314 00d8 7E2E     		jle	.L9
 315              	.L4:
 316              	.LVL14:
 317              		.loc 2 270 6 view .LVU69
 318              	.LBE155:
GAS LISTING /tmp/ccffpNMU.s 			page 7


 319              	.LBE158:
 320              		.loc 2 286 3 is_stmt 1 view .LVU70
 321 00da E8FCFFFF 		call	chSchRescheduleS@PLT
 321      FF
 322              	.LVL15:
 323              		.loc 2 287 3 view .LVU71
 324              	.LBB159:
 325              	.LBI159:
 326              		.loc 3 365 20 view .LVU72
 327              	.LBB160:
 328              		.loc 3 367 22 view .LVU73
 329              		.loc 3 368 33 view .LVU74
 330              		.loc 3 374 3 view .LVU75
 331              		.loc 3 374 3 view .LVU76
 332              		.loc 3 378 3 view .LVU77
 333              	.LBB161:
 334              	.LBI161:
 335              		.loc 4 371 20 view .LVU78
 336              	.LBB162:
 337              		.loc 4 373 3 view .LVU79
 338              		.loc 4 373 16 is_stmt 0 view .LVU80
 339 00df C7060000 		movl	$0, (%esi)
 339      0000
 340              	.LBE162:
 341              	.LBE161:
 342              	.LBE160:
 343              	.LBE159:
 344              	.LBE165:
 345              	.LBE168:
 346              		.loc 1 21 1 view .LVU81
 347 00e5 83C40C   		addl	$12, %esp
 348              		.cfi_remember_state
 349              		.cfi_def_cfa_offset 20
 350 00e8 5B       		popl	%ebx
 351              		.cfi_restore 3
 352              		.cfi_def_cfa_offset 16
 353 00e9 5E       		popl	%esi
 354              		.cfi_restore 6
 355              		.cfi_def_cfa_offset 12
 356 00ea 5F       		popl	%edi
 357              		.cfi_restore 7
 358              		.cfi_def_cfa_offset 8
 359              	.LVL16:
 360              		.loc 1 21 1 view .LVU82
 361 00eb 5D       		popl	%ebp
 362              		.cfi_restore 5
 363              		.cfi_def_cfa_offset 4
 364 00ec C3       		ret
 365              	.LVL17:
 366 00ed 8D7600   		.p2align 4,,10
 367              		.p2align 3
 368              	.L7:
 369              		.cfi_restore_state
 370              	.LBB169:
 371              	.LBB137:
 372              	.LBB133:
 373              	.LBB122:
GAS LISTING /tmp/ccffpNMU.s 			page 8


 374              		.loc 2 271 5 is_stmt 1 view .LVU83
 375 00f0 83EC0C   		subl	$12, %esp
 376              		.cfi_def_cfa_offset 44
 377 00f3 57       		pushl	%edi
 378              		.cfi_def_cfa_offset 48
 379 00f4 E8FCFFFF 		call	chSemSignalI@PLT
 379      FF
 380              	.LVL18:
 381 00f9 83C410   		addl	$16, %esp
 382              		.cfi_def_cfa_offset 32
 383 00fc E92CFFFF 		jmp	.L2
 383      FF
 384              	.LVL19:
 385              		.p2align 4,,10
 386 0101 8DB42600 		.p2align 3
 386      000000
 387              	.L9:
 388              		.loc 2 271 5 is_stmt 0 view .LVU84
 389              	.LBE122:
 390              	.LBE133:
 391              	.LBE137:
 392              	.LBE169:
 393              	.LBB170:
 394              	.LBB166:
 395              	.LBB163:
 396              	.LBB156:
 397              		.loc 2 271 5 is_stmt 1 view .LVU85
 398 0108 83EC0C   		subl	$12, %esp
 399              		.cfi_def_cfa_offset 44
 400 010b 57       		pushl	%edi
 401              		.cfi_def_cfa_offset 48
 402 010c E8FCFFFF 		call	chSemSignalI@PLT
 402      FF
 403              	.LVL20:
 404 0111 83C410   		addl	$16, %esp
 405              		.cfi_def_cfa_offset 32
 406 0114 EBC4     		jmp	.L4
 407              	.LBE156:
 408              	.LBE163:
 409              	.LBE166:
 410              	.LBE170:
 411              		.cfi_endproc
 412              	.LFE222:
 413              		.size	aniStandardTime, .-aniStandardTime
 414              		.section	.text.aniStandardTimeOff,"ax",@progbits
 415              		.p2align 4,,15
 416              		.globl	aniStandardTimeOff
 417              		.type	aniStandardTimeOff, @function
 418              	aniStandardTimeOff:
 419              	.LVL21:
 420              	.LFB223:
 421              		.loc 1 23 99 view -0
 422              		.cfi_startproc
 423              		.loc 1 24 2 view .LVU87
 424              		.loc 1 23 99 is_stmt 0 view .LVU88
 425 0000 55       		pushl	%ebp
 426              		.cfi_def_cfa_offset 8
GAS LISTING /tmp/ccffpNMU.s 			page 9


 427              		.cfi_offset 5, -8
 428 0001 57       		pushl	%edi
 429              		.cfi_def_cfa_offset 12
 430              		.cfi_offset 7, -12
 431 0002 56       		pushl	%esi
 432              		.cfi_def_cfa_offset 16
 433              		.cfi_offset 6, -16
 434 0003 53       		pushl	%ebx
 435              		.cfi_def_cfa_offset 20
 436              		.cfi_offset 3, -20
 437 0004 E8FCFFFF 		call	__x86.get_pc_thunk.bx
 437      FF
 438 0009 81C30200 		addl	$_GLOBAL_OFFSET_TABLE_, %ebx
 438      0000
 439 000f 83EC0C   		subl	$12, %esp
 440              		.cfi_def_cfa_offset 32
 441              		.loc 1 23 99 view .LVU89
 442 0012 8B7C2424 		movl	36(%esp), %edi
 443              	.LVL22:
 444              	.LBB195:
 445              	.LBI195:
 446              		.loc 2 282 20 is_stmt 1 view .LVU90
 447              	.LBB196:
 448              		.loc 2 284 3 view .LVU91
 449              	.LBB197:
 450              	.LBI197:
 451              		.loc 3 353 20 view .LVU92
 452              	.LBE197:
 453              	.LBE196:
 454              	.LBE195:
 455              		.loc 3 355 3 view .LVU93
 456              	.LBB222:
 457              	.LBB218:
 458              	.LBB202:
 459              	.LBB198:
 460              	.LBI198:
 461              		.loc 4 362 20 view .LVU94
 462              	.LBB199:
 463              		.loc 4 364 3 view .LVU95
 464              	.LBE199:
 465              	.LBE198:
 466              	.LBE202:
 467              	.LBB203:
 468              	.LBB204:
 469              		.loc 2 270 6 is_stmt 0 view .LVU96
 470 0016 8B5708   		movl	8(%edi), %edx
 471              	.LBE204:
 472              	.LBE203:
 473              	.LBB207:
 474              	.LBB201:
 475              	.LBB200:
 476              		.loc 4 364 16 view .LVU97
 477 0019 8BB30000 		movl	port_irq_sts@GOT(%ebx), %esi
 477      0000
 478 001f C7060100 		movl	$1, (%esi)
 478      0000
 479              	.LBE200:
GAS LISTING /tmp/ccffpNMU.s 			page 10


 480              	.LBE201:
 481              	.LBE207:
 482              	.LBE218:
 483              	.LBE222:
 484              		.loc 3 356 34 is_stmt 1 view .LVU98
 485              		.loc 3 357 20 view .LVU99
 486              	.LBB223:
 487              	.LBB219:
 488              		.loc 2 285 3 view .LVU100
 489              	.LVL23:
 490              	.LBB208:
 491              	.LBI203:
 492              		.loc 2 266 20 view .LVU101
 493              	.LBB205:
 494              		.loc 2 268 21 view .LVU102
 495              		.loc 2 270 3 view .LVU103
 496              		.loc 2 270 6 is_stmt 0 view .LVU104
 497 0025 85D2     		testl	%edx, %edx
 498 0027 0F8EFB00 		jle	.L15
 498      0000
 499              	.L11:
 500              	.LVL24:
 501              		.loc 2 270 6 view .LVU105
 502              	.LBE205:
 503              	.LBE208:
 504              		.loc 2 286 3 is_stmt 1 view .LVU106
 505 002d E8FCFFFF 		call	chSchRescheduleS@PLT
 505      FF
 506              	.LVL25:
 507              		.loc 2 287 3 view .LVU107
 508              	.LBB209:
 509              	.LBI209:
 510              		.loc 3 365 20 view .LVU108
 511              	.LBB210:
 512              		.loc 3 367 22 view .LVU109
 513              		.loc 3 368 33 view .LVU110
 514              		.loc 3 374 3 view .LVU111
 515              		.loc 3 374 3 view .LVU112
 516              		.loc 3 378 3 view .LVU113
 517              	.LBB211:
 518              	.LBI211:
 519              		.loc 4 371 20 view .LVU114
 520              	.LBB212:
 521              		.loc 4 373 3 view .LVU115
 522              	.LBE212:
 523              	.LBE211:
 524              	.LBE210:
 525              	.LBE209:
 526              	.LBE219:
 527              	.LBE223:
 528              	.LBB224:
 529              	.LBB225:
 530              		.loc 2 143 10 is_stmt 0 view .LVU116
 531 0032 83EC0C   		subl	$12, %esp
 532              		.cfi_def_cfa_offset 44
 533              	.LBE225:
 534              	.LBE224:
GAS LISTING /tmp/ccffpNMU.s 			page 11


 535              		.loc 1 28 2 view .LVU117
 536 0035 8DAB0000 		leal	myTime@GOTOFF(%ebx), %ebp
 536      0000
 537              	.LBB227:
 538              	.LBB220:
 539              	.LBB216:
 540              	.LBB215:
 541              	.LBB214:
 542              	.LBB213:
 543              		.loc 4 373 16 view .LVU118
 544 003b C7060000 		movl	$0, (%esi)
 544      0000
 545              	.LVL26:
 546              		.loc 4 373 16 view .LVU119
 547              	.LBE213:
 548              	.LBE214:
 549              	.LBE215:
 550              	.LBE216:
 551              	.LBE220:
 552              	.LBE227:
 553              		.loc 1 25 2 is_stmt 1 view .LVU120
 554              	.LBB228:
 555              	.LBI224:
 556              		.loc 2 141 21 view .LVU121
 557              	.LBB226:
 558              		.loc 2 143 3 view .LVU122
 559              		.loc 2 143 10 is_stmt 0 view .LVU123
 560 0041 FF74242C 		pushl	44(%esp)
 561              		.cfi_def_cfa_offset 48
 562 0045 E8FCFFFF 		call	chSemWait@PLT
 562      FF
 563              	.LVL27:
 564              	.LBE226:
 565              	.LBE228:
 566              		.loc 1 26 2 is_stmt 1 view .LVU124
 567              		.loc 1 27 2 view .LVU125
 568              		.loc 1 28 2 view .LVU126
 569 004a 892C24   		movl	%ebp, (%esp)
 570 004d E8FCFFFF 		call	SmallTimeGet@PLT
 570      FF
 571              	.LVL28:
 572              		.loc 1 29 2 view .LVU127
 573              		.loc 1 29 12 is_stmt 0 view .LVU128
 574 0052 8B830400 		movl	4+myTime@GOTOFF(%ebx), %eax
 574      0000
 575              		.loc 1 29 21 view .LVU129
 576 0058 0FB69300 		movzbl	prevmin.7184@GOTOFF(%ebx), %edx
 576      000000
 577              		.loc 1 29 5 view .LVU130
 578 005f 83C410   		addl	$16, %esp
 579              		.cfi_def_cfa_offset 32
 580 0062 39D0     		cmpl	%edx, %eax
 581 0064 750A     		jne	.L16
 582              		.loc 1 39 1 view .LVU131
 583 0066 83C40C   		addl	$12, %esp
 584              		.cfi_remember_state
 585              		.cfi_def_cfa_offset 20
GAS LISTING /tmp/ccffpNMU.s 			page 12


 586 0069 5B       		popl	%ebx
 587              		.cfi_restore 3
 588              		.cfi_def_cfa_offset 16
 589 006a 5E       		popl	%esi
 590              		.cfi_restore 6
 591              		.cfi_def_cfa_offset 12
 592 006b 5F       		popl	%edi
 593              		.cfi_restore 7
 594              		.cfi_def_cfa_offset 8
 595 006c 5D       		popl	%ebp
 596              		.cfi_restore 5
 597              		.cfi_def_cfa_offset 4
 598 006d C3       		ret
 599 006e 6690     		.p2align 4,,10
 600              		.p2align 3
 601              	.L16:
 602              		.cfi_restore_state
 603              		.loc 1 30 3 is_stmt 1 view .LVU132
 604              		.loc 1 31 3 is_stmt 0 view .LVU133
 605 0070 83EC08   		subl	$8, %esp
 606              		.cfi_def_cfa_offset 40
 607              		.loc 1 30 11 view .LVU134
 608 0073 88830000 		movb	%al, prevmin.7184@GOTOFF(%ebx)
 608      0000
 609              		.loc 1 31 3 is_stmt 1 view .LVU135
 610 0079 8D830000 		leal	myTimeDigits@GOTOFF(%ebx), %eax
 610      0000
 611 007f 50       		pushl	%eax
 612              		.cfi_def_cfa_offset 44
 613 0080 55       		pushl	%ebp
 614              		.cfi_def_cfa_offset 48
 615 0081 E8FCFFFF 		call	SmallTimeGetDigits@PLT
 615      FF
 616              	.LVL29:
 617              		.loc 1 32 3 view .LVU136
 618 0086 0FB68300 		movzbl	turns.7185@GOTOFF(%ebx), %eax
 618      000000
 619 008d 83C40C   		addl	$12, %esp
 620              		.cfi_def_cfa_offset 36
 621 0090 F7D8     		negl	%eax
 622 0092 0FBEC0   		movsbl	%al, %eax
 623 0095 50       		pushl	%eax
 624              		.cfi_def_cfa_offset 40
 625 0096 0FB68300 		movzbl	myTimeDigits@GOTOFF(%ebx), %eax
 625      000000
 626 009d 50       		pushl	%eax
 627              		.cfi_def_cfa_offset 44
 628 009e 6A00     		pushl	$0
 629              		.cfi_def_cfa_offset 48
 630 00a0 E8FCFFFF 		call	diSetDigitsOffset@PLT
 630      FF
 631              	.LVL30:
 632              		.loc 1 33 3 view .LVU137
 633 00a5 0FBE8300 		movsbl	turns.7185@GOTOFF(%ebx), %eax
 633      000000
 634 00ac 83C40C   		addl	$12, %esp
 635              		.cfi_def_cfa_offset 36
GAS LISTING /tmp/ccffpNMU.s 			page 13


 636 00af 50       		pushl	%eax
 637              		.cfi_def_cfa_offset 40
 638 00b0 0FB68301 		movzbl	1+myTimeDigits@GOTOFF(%ebx), %eax
 638      000000
 639 00b7 50       		pushl	%eax
 640              		.cfi_def_cfa_offset 44
 641 00b8 6A02     		pushl	$2
 642              		.cfi_def_cfa_offset 48
 643 00ba E8FCFFFF 		call	diSetDigitsOffset@PLT
 643      FF
 644              	.LVL31:
 645              		.loc 1 34 3 view .LVU138
 646 00bf 0FB68300 		movzbl	turns.7185@GOTOFF(%ebx), %eax
 646      000000
 647 00c6 83C40C   		addl	$12, %esp
 648              		.cfi_def_cfa_offset 36
 649 00c9 F7D8     		negl	%eax
 650 00cb 0FBEC0   		movsbl	%al, %eax
 651 00ce 50       		pushl	%eax
 652              		.cfi_def_cfa_offset 40
 653 00cf 0FB68302 		movzbl	2+myTimeDigits@GOTOFF(%ebx), %eax
 653      000000
 654 00d6 50       		pushl	%eax
 655              		.cfi_def_cfa_offset 44
 656 00d7 6A04     		pushl	$4
 657              		.cfi_def_cfa_offset 48
 658 00d9 E8FCFFFF 		call	diSetDigitsOffset@PLT
 658      FF
 659              	.LVL32:
 660              		.loc 1 35 3 view .LVU139
 661 00de 0FBE8300 		movsbl	turns.7185@GOTOFF(%ebx), %eax
 661      000000
 662 00e5 83C40C   		addl	$12, %esp
 663              		.cfi_def_cfa_offset 36
 664 00e8 50       		pushl	%eax
 665              		.cfi_def_cfa_offset 40
 666 00e9 0FB68303 		movzbl	3+myTimeDigits@GOTOFF(%ebx), %eax
 666      000000
 667 00f0 50       		pushl	%eax
 668              		.cfi_def_cfa_offset 44
 669 00f1 6A06     		pushl	$6
 670              		.cfi_def_cfa_offset 48
 671 00f3 E8FCFFFF 		call	diSetDigitsOffset@PLT
 671      FF
 672              	.LVL33:
 673              		.loc 1 36 3 view .LVU140
 674              	.LBB229:
 675              	.LBB230:
 676              	.LBB231:
 677              	.LBB232:
 678              		.loc 2 270 6 is_stmt 0 view .LVU141
 679 00f8 8B4708   		movl	8(%edi), %eax
 680              	.LBE232:
 681              	.LBE231:
 682              	.LBE230:
 683              	.LBE229:
 684              		.loc 1 36 9 view .LVU142
GAS LISTING /tmp/ccffpNMU.s 			page 14


 685 00fb F69B0000 		negb	turns.7185@GOTOFF(%ebx)
 685      0000
 686              		.loc 1 37 3 is_stmt 1 view .LVU143
 687              	.LVL34:
 688              	.LBB254:
 689              	.LBI229:
 690              		.loc 2 282 20 view .LVU144
 691              	.LBB250:
 692              		.loc 2 284 3 view .LVU145
 693              	.LBB236:
 694              	.LBI236:
 695              		.loc 3 353 20 view .LVU146
 696              	.LBE236:
 697              	.LBE250:
 698              	.LBE254:
 699              		.loc 3 355 3 view .LVU147
 700              	.LBB255:
 701              	.LBB251:
 702              	.LBB241:
 703              	.LBB237:
 704              	.LBI237:
 705              		.loc 4 362 20 view .LVU148
 706              	.LBB238:
 707              		.loc 4 364 3 view .LVU149
 708              	.LBE238:
 709              	.LBE237:
 710              	.LBE241:
 711              	.LBB242:
 712              	.LBB233:
 713              		.loc 2 270 6 is_stmt 0 view .LVU150
 714 0101 83C410   		addl	$16, %esp
 715              		.cfi_def_cfa_offset 32
 716              	.LBE233:
 717              	.LBE242:
 718              	.LBB243:
 719              	.LBB240:
 720              	.LBB239:
 721              		.loc 4 364 16 view .LVU151
 722 0104 C7060100 		movl	$1, (%esi)
 722      0000
 723              	.LBE239:
 724              	.LBE240:
 725              	.LBE243:
 726              	.LBE251:
 727              	.LBE255:
 728              		.loc 3 356 34 is_stmt 1 view .LVU152
 729              		.loc 3 357 20 view .LVU153
 730              	.LBB256:
 731              	.LBB252:
 732              		.loc 2 285 3 view .LVU154
 733              	.LVL35:
 734              	.LBB244:
 735              	.LBI231:
 736              		.loc 2 266 20 view .LVU155
 737              	.LBB234:
 738              		.loc 2 268 21 view .LVU156
 739              		.loc 2 270 3 view .LVU157
GAS LISTING /tmp/ccffpNMU.s 			page 15


 740              		.loc 2 270 6 is_stmt 0 view .LVU158
 741 010a 85C0     		testl	%eax, %eax
 742 010c 7E32     		jle	.L17
 743              	.L13:
 744              	.LVL36:
 745              		.loc 2 270 6 view .LVU159
 746              	.LBE234:
 747              	.LBE244:
 748              		.loc 2 286 3 is_stmt 1 view .LVU160
 749 010e E8FCFFFF 		call	chSchRescheduleS@PLT
 749      FF
 750              	.LVL37:
 751              		.loc 2 287 3 view .LVU161
 752              	.LBB245:
 753              	.LBI245:
 754              		.loc 3 365 20 view .LVU162
 755              	.LBB246:
 756              		.loc 3 367 22 view .LVU163
 757              		.loc 3 368 33 view .LVU164
 758              		.loc 3 374 3 view .LVU165
 759              		.loc 3 374 3 view .LVU166
 760              		.loc 3 378 3 view .LVU167
 761              	.LBB247:
 762              	.LBI247:
 763              		.loc 4 371 20 view .LVU168
 764              	.LBB248:
 765              		.loc 4 373 3 view .LVU169
 766              		.loc 4 373 16 is_stmt 0 view .LVU170
 767 0113 C7060000 		movl	$0, (%esi)
 767      0000
 768              	.LBE248:
 769              	.LBE247:
 770              	.LBE246:
 771              	.LBE245:
 772              	.LBE252:
 773              	.LBE256:
 774              		.loc 1 39 1 view .LVU171
 775 0119 83C40C   		addl	$12, %esp
 776              		.cfi_remember_state
 777              		.cfi_def_cfa_offset 20
 778 011c 5B       		popl	%ebx
 779              		.cfi_restore 3
 780              		.cfi_def_cfa_offset 16
 781 011d 5E       		popl	%esi
 782              		.cfi_restore 6
 783              		.cfi_def_cfa_offset 12
 784 011e 5F       		popl	%edi
 785              		.cfi_restore 7
 786              		.cfi_def_cfa_offset 8
 787              	.LVL38:
 788              		.loc 1 39 1 view .LVU172
 789 011f 5D       		popl	%ebp
 790              		.cfi_restore 5
 791              		.cfi_def_cfa_offset 4
 792 0120 C3       		ret
 793              	.LVL39:
 794              		.p2align 4,,10
GAS LISTING /tmp/ccffpNMU.s 			page 16


 795 0121 8DB42600 		.p2align 3
 795      000000
 796              	.L15:
 797              		.cfi_restore_state
 798              	.LBB257:
 799              	.LBB221:
 800              	.LBB217:
 801              	.LBB206:
 802              		.loc 2 271 5 is_stmt 1 view .LVU173
 803 0128 83EC0C   		subl	$12, %esp
 804              		.cfi_def_cfa_offset 44
 805 012b 57       		pushl	%edi
 806              		.cfi_def_cfa_offset 48
 807 012c E8FCFFFF 		call	chSemSignalI@PLT
 807      FF
 808              	.LVL40:
 809 0131 83C410   		addl	$16, %esp
 810              		.cfi_def_cfa_offset 32
 811 0134 E9F4FEFF 		jmp	.L11
 811      FF
 812              	.LVL41:
 813 0139 8DB42600 		.p2align 4,,10
 813      000000
 814              		.p2align 3
 815              	.L17:
 816              		.loc 2 271 5 is_stmt 0 view .LVU174
 817              	.LBE206:
 818              	.LBE217:
 819              	.LBE221:
 820              	.LBE257:
 821              	.LBB258:
 822              	.LBB253:
 823              	.LBB249:
 824              	.LBB235:
 825              		.loc 2 271 5 is_stmt 1 view .LVU175
 826 0140 83EC0C   		subl	$12, %esp
 827              		.cfi_def_cfa_offset 44
 828 0143 57       		pushl	%edi
 829              		.cfi_def_cfa_offset 48
 830 0144 E8FCFFFF 		call	chSemSignalI@PLT
 830      FF
 831              	.LVL42:
 832 0149 83C410   		addl	$16, %esp
 833              		.cfi_def_cfa_offset 32
 834 014c EBC0     		jmp	.L13
 835              	.LBE235:
 836              	.LBE249:
 837              	.LBE253:
 838              	.LBE258:
 839              		.cfi_endproc
 840              	.LFE223:
 841              		.size	aniStandardTimeOff, .-aniStandardTimeOff
 842              		.section	.text.aniCounter,"ax",@progbits
 843              		.p2align 4,,15
 844              		.globl	aniCounter
 845              		.type	aniCounter, @function
 846              	aniCounter:
GAS LISTING /tmp/ccffpNMU.s 			page 17


 847              	.LVL43:
 848              	.LFB224:
 849              		.loc 1 43 91 view -0
 850              		.cfi_startproc
 851              		.loc 1 45 2 view .LVU177
 852              		.loc 1 43 91 is_stmt 0 view .LVU178
 853 0000 57       		pushl	%edi
 854              		.cfi_def_cfa_offset 8
 855              		.cfi_offset 7, -8
 856 0001 56       		pushl	%esi
 857              		.cfi_def_cfa_offset 12
 858              		.cfi_offset 6, -12
 859 0002 53       		pushl	%ebx
 860              		.cfi_def_cfa_offset 16
 861              		.cfi_offset 3, -16
 862              	.LVL44:
 863              	.LBB272:
 864              	.LBI272:
 865              		.loc 2 141 21 is_stmt 1 view .LVU179
 866              	.LBB273:
 867              		.loc 2 143 3 view .LVU180
 868              	.LBE273:
 869              	.LBE272:
 870              		.loc 1 43 91 is_stmt 0 view .LVU181
 871 0003 8B7C2414 		movl	20(%esp), %edi
 872 0007 E8FCFFFF 		call	__x86.get_pc_thunk.bx
 872      FF
 873 000c 81C30200 		addl	$_GLOBAL_OFFSET_TABLE_, %ebx
 873      0000
 874              	.LBB275:
 875              	.LBB274:
 876              		.loc 2 143 10 view .LVU182
 877 0012 83EC0C   		subl	$12, %esp
 878              		.cfi_def_cfa_offset 28
 879 0015 FF74241C 		pushl	28(%esp)
 880              		.cfi_def_cfa_offset 32
 881 0019 E8FCFFFF 		call	chSemWait@PLT
 881      FF
 882              	.LVL45:
 883              		.loc 2 143 10 view .LVU183
 884              	.LBE274:
 885              	.LBE275:
 886              		.loc 1 46 2 is_stmt 1 view .LVU184
 887              		.loc 1 49 2 view .LVU185
 888 001e 58       		popl	%eax
 889              		.cfi_def_cfa_offset 28
 890 001f 0FB68300 		movzbl	counter.7190@GOTOFF(%ebx), %eax
 890      000000
 891 0026 5A       		popl	%edx
 892              		.cfi_def_cfa_offset 24
 893 0027 50       		pushl	%eax
 894              		.cfi_def_cfa_offset 28
 895 0028 6A00     		pushl	$0
 896              		.cfi_def_cfa_offset 32
 897 002a E8FCFFFF 		call	diSetDigits@PLT
 897      FF
 898              	.LVL46:
GAS LISTING /tmp/ccffpNMU.s 			page 18


 899              		.loc 1 50 2 view .LVU186
 900 002f 0FB68300 		movzbl	counter.7190@GOTOFF(%ebx), %eax
 900      000000
 901 0036 59       		popl	%ecx
 902              		.cfi_def_cfa_offset 28
 903 0037 5E       		popl	%esi
 904              		.cfi_def_cfa_offset 24
 905 0038 50       		pushl	%eax
 906              		.cfi_def_cfa_offset 28
 907 0039 6A02     		pushl	$2
 908              		.cfi_def_cfa_offset 32
 909 003b E8FCFFFF 		call	diSetDigits@PLT
 909      FF
 910              	.LVL47:
 911              		.loc 1 51 2 view .LVU187
 912 0040 58       		popl	%eax
 913              		.cfi_def_cfa_offset 28
 914 0041 0FB68300 		movzbl	counter.7190@GOTOFF(%ebx), %eax
 914      000000
 915 0048 5A       		popl	%edx
 916              		.cfi_def_cfa_offset 24
 917 0049 50       		pushl	%eax
 918              		.cfi_def_cfa_offset 28
 919 004a 6A04     		pushl	$4
 920              		.cfi_def_cfa_offset 32
 921 004c E8FCFFFF 		call	diSetDigits@PLT
 921      FF
 922              	.LVL48:
 923              		.loc 1 52 2 view .LVU188
 924 0051 0FB68300 		movzbl	counter.7190@GOTOFF(%ebx), %eax
 924      000000
 925 0058 59       		popl	%ecx
 926              		.cfi_def_cfa_offset 28
 927 0059 5E       		popl	%esi
 928              		.cfi_def_cfa_offset 24
 929 005a 50       		pushl	%eax
 930              		.cfi_def_cfa_offset 28
 931 005b 6A06     		pushl	$6
 932              		.cfi_def_cfa_offset 32
 933 005d E8FCFFFF 		call	diSetDigits@PLT
 933      FF
 934              	.LVL49:
 935              		.loc 1 53 2 view .LVU189
 936 0062 C7042400 		movl	$0x43480000, (%esp)
 936      004843
 937 0069 E8FCFFFF 		call	clARefractorMaxSpeed@PLT
 937      FF
 938              	.LVL50:
 939              		.loc 1 54 2 view .LVU190
 940              	.LBB276:
 941              	.LBI276:
 942              		.loc 2 282 20 view .LVU191
 943              	.LBB277:
 944              		.loc 2 284 3 view .LVU192
 945              	.LBB278:
 946              	.LBI278:
 947              		.loc 3 353 20 view .LVU193
GAS LISTING /tmp/ccffpNMU.s 			page 19


 948              	.LBE278:
 949              	.LBE277:
 950              	.LBE276:
 951              		.loc 3 355 3 view .LVU194
 952              	.LBB303:
 953              	.LBB299:
 954              	.LBB283:
 955              	.LBB279:
 956              	.LBI279:
 957              		.loc 4 362 20 view .LVU195
 958              	.LBB280:
 959              		.loc 4 364 3 view .LVU196
 960              		.loc 4 364 16 is_stmt 0 view .LVU197
 961 006e 8BB30000 		movl	port_irq_sts@GOT(%ebx), %esi
 961      0000
 962              	.LBE280:
 963              	.LBE279:
 964              	.LBE283:
 965              	.LBB284:
 966              	.LBB285:
 967              		.loc 2 270 6 view .LVU198
 968 0074 8B4708   		movl	8(%edi), %eax
 969 0077 83C410   		addl	$16, %esp
 970              		.cfi_def_cfa_offset 16
 971              	.LBE285:
 972              	.LBE284:
 973              	.LBB288:
 974              	.LBB282:
 975              	.LBB281:
 976              		.loc 4 364 16 view .LVU199
 977 007a C7060100 		movl	$1, (%esi)
 977      0000
 978              	.LBE281:
 979              	.LBE282:
 980              	.LBE288:
 981              	.LBE299:
 982              	.LBE303:
 983              		.loc 3 356 34 is_stmt 1 view .LVU200
 984              		.loc 3 357 20 view .LVU201
 985              	.LBB304:
 986              	.LBB300:
 987              		.loc 2 285 3 view .LVU202
 988              	.LVL51:
 989              	.LBB289:
 990              	.LBI284:
 991              		.loc 2 266 20 view .LVU203
 992              	.LBB286:
 993              		.loc 2 268 21 view .LVU204
 994              		.loc 2 270 3 view .LVU205
 995              		.loc 2 270 6 is_stmt 0 view .LVU206
 996 0080 85C0     		testl	%eax, %eax
 997 0082 7E2C     		jle	.L23
 998              	.L19:
 999              	.LVL52:
 1000              		.loc 2 270 6 view .LVU207
 1001              	.LBE286:
 1002              	.LBE289:
GAS LISTING /tmp/ccffpNMU.s 			page 20


 1003              		.loc 2 286 3 is_stmt 1 view .LVU208
 1004 0084 E8FCFFFF 		call	chSchRescheduleS@PLT
 1004      FF
 1005              	.LVL53:
 1006              		.loc 2 287 3 view .LVU209
 1007              	.LBB290:
 1008              	.LBI290:
 1009              		.loc 3 365 20 view .LVU210
 1010              	.LBB291:
 1011              		.loc 3 367 22 view .LVU211
 1012              		.loc 3 368 33 view .LVU212
 1013              		.loc 3 374 3 view .LVU213
 1014              		.loc 3 374 3 view .LVU214
 1015              		.loc 3 378 3 view .LVU215
 1016              	.LBB292:
 1017              	.LBI292:
 1018              		.loc 4 371 20 view .LVU216
 1019              	.LBB293:
 1020              		.loc 4 373 3 view .LVU217
 1021              	.LBE293:
 1022              	.LBE292:
 1023              	.LBE291:
 1024              	.LBE290:
 1025              	.LBE300:
 1026              	.LBE304:
 1027              		.loc 1 55 9 is_stmt 0 view .LVU218
 1028 0089 BA000000 		movl	$0, %edx
 1028      00
 1029 008e 0FB68300 		movzbl	counter.7190@GOTOFF(%ebx), %eax
 1029      000000
 1030              	.LBB305:
 1031              	.LBB301:
 1032              	.LBB297:
 1033              	.LBB296:
 1034              	.LBB295:
 1035              	.LBB294:
 1036              		.loc 4 373 16 view .LVU219
 1037 0095 C7060000 		movl	$0, (%esi)
 1037      0000
 1038              	.LVL54:
 1039              		.loc 4 373 16 view .LVU220
 1040              	.LBE294:
 1041              	.LBE295:
 1042              	.LBE296:
 1043              	.LBE297:
 1044              	.LBE301:
 1045              	.LBE305:
 1046              		.loc 1 55 2 is_stmt 1 view .LVU221
 1047              		.loc 1 55 9 is_stmt 0 view .LVU222
 1048 009b 83C001   		addl	$1, %eax
 1049              		.loc 1 56 2 is_stmt 1 view .LVU223
 1050              		.loc 1 55 9 is_stmt 0 view .LVU224
 1051 009e 3C09     		cmpb	$9, %al
 1052 00a0 0F47C2   		cmova	%edx, %eax
 1053 00a3 88830000 		movb	%al, counter.7190@GOTOFF(%ebx)
 1053      0000
 1054              		.loc 1 59 1 view .LVU225
GAS LISTING /tmp/ccffpNMU.s 			page 21


 1055 00a9 5B       		popl	%ebx
 1056              		.cfi_remember_state
 1057              		.cfi_restore 3
 1058              		.cfi_def_cfa_offset 12
 1059 00aa 5E       		popl	%esi
 1060              		.cfi_restore 6
 1061              		.cfi_def_cfa_offset 8
 1062 00ab 5F       		popl	%edi
 1063              		.cfi_restore 7
 1064              		.cfi_def_cfa_offset 4
 1065 00ac C3       		ret
 1066              	.LVL55:
 1067 00ad 8D7600   		.p2align 4,,10
 1068              		.p2align 3
 1069              	.L23:
 1070              		.cfi_restore_state
 1071              	.LBB306:
 1072              	.LBB302:
 1073              	.LBB298:
 1074              	.LBB287:
 1075              		.loc 2 271 5 is_stmt 1 view .LVU226
 1076 00b0 83EC0C   		subl	$12, %esp
 1077              		.cfi_def_cfa_offset 28
 1078 00b3 57       		pushl	%edi
 1079              		.cfi_def_cfa_offset 32
 1080 00b4 E8FCFFFF 		call	chSemSignalI@PLT
 1080      FF
 1081              	.LVL56:
 1082 00b9 83C410   		addl	$16, %esp
 1083              		.cfi_def_cfa_offset 16
 1084 00bc EBC6     		jmp	.L19
 1085              	.LBE287:
 1086              	.LBE298:
 1087              	.LBE302:
 1088              	.LBE306:
 1089              		.cfi_endproc
 1090              	.LFE224:
 1091              		.size	aniCounter, .-aniCounter
 1092              		.section	.text.aniRotate,"ax",@progbits
 1093              		.p2align 4,,15
 1094              		.globl	aniRotate
 1095              		.type	aniRotate, @function
 1096              	aniRotate:
 1097              	.LVL57:
 1098              	.LFB225:
 1099              		.loc 1 61 90 view -0
 1100              		.cfi_startproc
 1101              		.loc 1 61 90 is_stmt 0 view .LVU228
 1102 0000 56       		pushl	%esi
 1103              		.cfi_def_cfa_offset 8
 1104              		.cfi_offset 6, -8
 1105 0001 53       		pushl	%ebx
 1106              		.cfi_def_cfa_offset 12
 1107              		.cfi_offset 3, -12
 1108 0002 E8FCFFFF 		call	__x86.get_pc_thunk.bx
 1108      FF
 1109 0007 81C30200 		addl	$_GLOBAL_OFFSET_TABLE_, %ebx
GAS LISTING /tmp/ccffpNMU.s 			page 22


 1109      0000
 1110 000d 83EC10   		subl	$16, %esp
 1111              		.cfi_def_cfa_offset 28
 1112              		.loc 1 61 90 view .LVU229
 1113 0010 8B74241C 		movl	28(%esp), %esi
 1114              		.loc 1 63 2 is_stmt 1 view .LVU230
 1115              	.LVL58:
 1116              	.LBB307:
 1117              	.LBI307:
 1118              		.loc 2 141 21 view .LVU231
 1119              	.LBB308:
 1120              		.loc 2 143 3 view .LVU232
 1121              		.loc 2 143 10 is_stmt 0 view .LVU233
 1122 0014 56       		pushl	%esi
 1123              		.cfi_def_cfa_offset 32
 1124 0015 E8FCFFFF 		call	chSemWait@PLT
 1124      FF
 1125              	.LVL59:
 1126              		.loc 2 143 10 view .LVU234
 1127              	.LBE308:
 1128              	.LBE307:
 1129              		.loc 1 64 2 is_stmt 1 view .LVU235
 1130 001a 58       		popl	%eax
 1131              		.cfi_def_cfa_offset 28
 1132 001b 5A       		popl	%edx
 1133              		.cfi_def_cfa_offset 24
 1134 001c 68000500 		pushl	$1280
 1134      00
 1135              		.cfi_def_cfa_offset 28
 1136 0021 68000100 		pushl	$256
 1136      00
 1137              		.cfi_def_cfa_offset 32
 1138 0026 E8FCFFFF 		call	clASetAllTargetpostion@PLT
 1138      FF
 1139              	.LVL60:
 1140              		.loc 1 66 2 view .LVU236
 1141              		.loc 1 67 2 view .LVU237
 1142              	.LBB309:
 1143              	.LBI309:
 1144              		.loc 2 141 21 view .LVU238
 1145              	.LBB310:
 1146              		.loc 2 143 3 view .LVU239
 1147              		.loc 2 143 10 is_stmt 0 view .LVU240
 1148 002b 893424   		movl	%esi, (%esp)
 1149 002e E8FCFFFF 		call	chSemWait@PLT
 1149      FF
 1150              	.LVL61:
 1151              		.loc 2 143 10 view .LVU241
 1152              	.LBE310:
 1153              	.LBE309:
 1154              		.loc 1 68 2 is_stmt 1 view .LVU242
 1155 0033 59       		popl	%ecx
 1156              		.cfi_def_cfa_offset 28
 1157 0034 58       		popl	%eax
 1158              		.cfi_def_cfa_offset 24
 1159 0035 68002500 		pushl	$9472
 1159      00
GAS LISTING /tmp/ccffpNMU.s 			page 23


 1160              		.cfi_def_cfa_offset 28
 1161 003a 68002100 		pushl	$8448
 1161      00
 1162              		.cfi_def_cfa_offset 32
 1163 003f E8FCFFFF 		call	clASetAllTargetpostion@PLT
 1163      FF
 1164              	.LVL62:
 1165              		.loc 1 69 2 view .LVU243
 1166              	.LBB311:
 1167              	.LBI311:
 1168              		.loc 2 141 21 view .LVU244
 1169              	.LBB312:
 1170              		.loc 2 143 3 view .LVU245
 1171              		.loc 2 143 10 is_stmt 0 view .LVU246
 1172 0044 893424   		movl	%esi, (%esp)
 1173 0047 E8FCFFFF 		call	chSemWait@PLT
 1173      FF
 1174              	.LVL63:
 1175              		.loc 2 143 10 view .LVU247
 1176              	.LBE312:
 1177              	.LBE311:
 1178              		.loc 1 70 1 view .LVU248
 1179 004c 83C414   		addl	$20, %esp
 1180              		.cfi_def_cfa_offset 12
 1181 004f 5B       		popl	%ebx
 1182              		.cfi_restore 3
 1183              		.cfi_def_cfa_offset 8
 1184 0050 5E       		popl	%esi
 1185              		.cfi_restore 6
 1186              		.cfi_def_cfa_offset 4
 1187 0051 C3       		ret
 1188              		.cfi_endproc
 1189              	.LFE225:
 1190              		.size	aniRotate, .-aniRotate
 1191              		.section	.text.aniTriangle,"ax",@progbits
 1192              		.p2align 4,,15
 1193              		.globl	aniTriangle
 1194              		.type	aniTriangle, @function
 1195              	aniTriangle:
 1196              	.LVL64:
 1197              	.LFB226:
 1198              		.loc 1 72 92 is_stmt 1 view -0
 1199              		.cfi_startproc
 1200              		.loc 1 72 92 is_stmt 0 view .LVU250
 1201 0000 55       		pushl	%ebp
 1202              		.cfi_def_cfa_offset 8
 1203              		.cfi_offset 5, -8
 1204 0001 57       		pushl	%edi
 1205              		.cfi_def_cfa_offset 12
 1206              		.cfi_offset 7, -12
 1207 0002 56       		pushl	%esi
 1208              		.cfi_def_cfa_offset 16
 1209              		.cfi_offset 6, -16
 1210 0003 53       		pushl	%ebx
 1211              		.cfi_def_cfa_offset 20
 1212              		.cfi_offset 3, -20
 1213 0004 E8FCFFFF 		call	__x86.get_pc_thunk.bx
GAS LISTING /tmp/ccffpNMU.s 			page 24


 1213      FF
 1214 0009 81C30200 		addl	$_GLOBAL_OFFSET_TABLE_, %ebx
 1214      0000
 1215 000f 83EC18   		subl	$24, %esp
 1216              		.cfi_def_cfa_offset 44
 1217              		.loc 1 74 2 is_stmt 1 view .LVU251
 1218              	.LVL65:
 1219              	.LBB339:
 1220              	.LBI339:
 1221              		.loc 2 141 21 view .LVU252
 1222              	.LBB340:
 1223              		.loc 2 143 3 view .LVU253
 1224              	.LBE340:
 1225              	.LBE339:
 1226              		.loc 1 72 92 is_stmt 0 view .LVU254
 1227 0012 8B6C242C 		movl	44(%esp), %ebp
 1228 0016 8B7C2430 		movl	48(%esp), %edi
 1229              	.LBB342:
 1230              	.LBB341:
 1231              		.loc 2 143 10 view .LVU255
 1232 001a 55       		pushl	%ebp
 1233              		.cfi_def_cfa_offset 48
 1234 001b E8FCFFFF 		call	chSemWait@PLT
 1234      FF
 1235              	.LVL66:
 1236              		.loc 2 143 10 view .LVU256
 1237              	.LBE341:
 1238              	.LBE342:
 1239              		.loc 1 76 2 is_stmt 1 view .LVU257
 1240 0020 68000200 		pushl	$512
 1240      00
 1241              		.cfi_def_cfa_offset 52
 1242 0025 6A00     		pushl	$0
 1243              		.cfi_def_cfa_offset 56
 1244 0027 6A00     		pushl	$0
 1245              		.cfi_def_cfa_offset 60
 1246 0029 6A00     		pushl	$0
 1247              		.cfi_def_cfa_offset 64
 1248 002b E8FCFFFF 		call	clASetTargetPosition@PLT
 1248      FF
 1249              	.LVL67:
 1250              		.loc 1 77 2 view .LVU258
 1251 0030 83C420   		addl	$32, %esp
 1252              		.cfi_def_cfa_offset 32
 1253 0033 68000400 		pushl	$1024
 1253      00
 1254              		.cfi_def_cfa_offset 36
 1255 0038 6A00     		pushl	$0
 1256              		.cfi_def_cfa_offset 40
 1257 003a 6A00     		pushl	$0
 1258              		.cfi_def_cfa_offset 44
 1259 003c 6A01     		pushl	$1
 1260              		.cfi_def_cfa_offset 48
 1261 003e E8FCFFFF 		call	clASetTargetPosition@PLT
 1261      FF
 1262              	.LVL68:
 1263              		.loc 1 78 2 view .LVU259
GAS LISTING /tmp/ccffpNMU.s 			page 25


 1264 0043 68000300 		pushl	$768
 1264      00
 1265              		.cfi_def_cfa_offset 52
 1266 0048 68000400 		pushl	$1024
 1266      00
 1267              		.cfi_def_cfa_offset 56
 1268 004d 6A00     		pushl	$0
 1269              		.cfi_def_cfa_offset 60
 1270 004f 6A02     		pushl	$2
 1271              		.cfi_def_cfa_offset 64
 1272 0051 E8FCFFFF 		call	clASetTargetPosition@PLT
 1272      FF
 1273              	.LVL69:
 1274              		.loc 1 79 2 view .LVU260
 1275 0056 83C420   		addl	$32, %esp
 1276              		.cfi_def_cfa_offset 32
 1277 0059 68000600 		pushl	$1536
 1277      00
 1278              		.cfi_def_cfa_offset 36
 1279 005e 68000200 		pushl	$512
 1279      00
 1280              		.cfi_def_cfa_offset 40
 1281 0063 6A01     		pushl	$1
 1282              		.cfi_def_cfa_offset 44
 1283 0065 6A00     		pushl	$0
 1284              		.cfi_def_cfa_offset 48
 1285 0067 E8FCFFFF 		call	clASetTargetPosition@PLT
 1285      FF
 1286              	.LVL70:
 1287              		.loc 1 80 2 view .LVU261
 1288 006c 68000700 		pushl	$1792
 1288      00
 1289              		.cfi_def_cfa_offset 52
 1290 0071 68000300 		pushl	$768
 1290      00
 1291              		.cfi_def_cfa_offset 56
 1292 0076 6A01     		pushl	$1
 1293              		.cfi_def_cfa_offset 60
 1294 0078 6A01     		pushl	$1
 1295              		.cfi_def_cfa_offset 64
 1296 007a E8FCFFFF 		call	clASetTargetPosition@PLT
 1296      FF
 1297              	.LVL71:
 1298              		.loc 1 81 2 view .LVU262
 1299 007f 83C420   		addl	$32, %esp
 1300              		.cfi_def_cfa_offset 32
 1301 0082 68000700 		pushl	$1792
 1301      00
 1302              		.cfi_def_cfa_offset 36
 1303 0087 68000600 		pushl	$1536
 1303      00
 1304              		.cfi_def_cfa_offset 40
 1305 008c 6A02     		pushl	$2
 1306              		.cfi_def_cfa_offset 44
 1307 008e 6A00     		pushl	$0
 1308              		.cfi_def_cfa_offset 48
 1309 0090 E8FCFFFF 		call	clASetTargetPosition@PLT
GAS LISTING /tmp/ccffpNMU.s 			page 26


 1309      FF
 1310              	.LVL72:
 1311              		.loc 1 83 2 view .LVU263
 1312 0095 68000200 		pushl	$512
 1312      00
 1313              		.cfi_def_cfa_offset 52
 1314 009a 6A00     		pushl	$0
 1315              		.cfi_def_cfa_offset 56
 1316 009c 6A00     		pushl	$0
 1317              		.cfi_def_cfa_offset 60
 1318 009e 6A04     		pushl	$4
 1319              		.cfi_def_cfa_offset 64
 1320 00a0 E8FCFFFF 		call	clASetTargetPosition@PLT
 1320      FF
 1321              	.LVL73:
 1322              		.loc 1 84 2 view .LVU264
 1323 00a5 83C420   		addl	$32, %esp
 1324              		.cfi_def_cfa_offset 32
 1325 00a8 68000400 		pushl	$1024
 1325      00
 1326              		.cfi_def_cfa_offset 36
 1327 00ad 6A00     		pushl	$0
 1328              		.cfi_def_cfa_offset 40
 1329 00af 6A00     		pushl	$0
 1330              		.cfi_def_cfa_offset 44
 1331 00b1 6A05     		pushl	$5
 1332              		.cfi_def_cfa_offset 48
 1333 00b3 E8FCFFFF 		call	clASetTargetPosition@PLT
 1333      FF
 1334              	.LVL74:
 1335              		.loc 1 85 2 view .LVU265
 1336 00b8 68000300 		pushl	$768
 1336      00
 1337              		.cfi_def_cfa_offset 52
 1338 00bd 68000400 		pushl	$1024
 1338      00
 1339              		.cfi_def_cfa_offset 56
 1340 00c2 6A00     		pushl	$0
 1341              		.cfi_def_cfa_offset 60
 1342 00c4 6A06     		pushl	$6
 1343              		.cfi_def_cfa_offset 64
 1344 00c6 E8FCFFFF 		call	clASetTargetPosition@PLT
 1344      FF
 1345              	.LVL75:
 1346              		.loc 1 86 2 view .LVU266
 1347 00cb 83C420   		addl	$32, %esp
 1348              		.cfi_def_cfa_offset 32
 1349 00ce 68000600 		pushl	$1536
 1349      00
 1350              		.cfi_def_cfa_offset 36
 1351 00d3 68000200 		pushl	$512
 1351      00
 1352              		.cfi_def_cfa_offset 40
 1353 00d8 6A01     		pushl	$1
 1354              		.cfi_def_cfa_offset 44
 1355 00da 6A04     		pushl	$4
 1356              		.cfi_def_cfa_offset 48
GAS LISTING /tmp/ccffpNMU.s 			page 27


 1357 00dc E8FCFFFF 		call	clASetTargetPosition@PLT
 1357      FF
 1358              	.LVL76:
 1359              		.loc 1 87 2 view .LVU267
 1360 00e1 68000700 		pushl	$1792
 1360      00
 1361              		.cfi_def_cfa_offset 52
 1362 00e6 68000300 		pushl	$768
 1362      00
 1363              		.cfi_def_cfa_offset 56
 1364 00eb 6A01     		pushl	$1
 1365              		.cfi_def_cfa_offset 60
 1366 00ed 6A05     		pushl	$5
 1367              		.cfi_def_cfa_offset 64
 1368 00ef E8FCFFFF 		call	clASetTargetPosition@PLT
 1368      FF
 1369              	.LVL77:
 1370              		.loc 1 88 2 view .LVU268
 1371 00f4 83C420   		addl	$32, %esp
 1372              		.cfi_def_cfa_offset 32
 1373 00f7 68000700 		pushl	$1792
 1373      00
 1374              		.cfi_def_cfa_offset 36
 1375 00fc 68000600 		pushl	$1536
 1375      00
 1376              		.cfi_def_cfa_offset 40
 1377 0101 6A02     		pushl	$2
 1378              		.cfi_def_cfa_offset 44
 1379 0103 6A04     		pushl	$4
 1380              		.cfi_def_cfa_offset 48
 1381 0105 E8FCFFFF 		call	clASetTargetPosition@PLT
 1381      FF
 1382              	.LVL78:
 1383              		.loc 1 90 2 view .LVU269
 1384 010a 68000300 		pushl	$768
 1384      00
 1385              		.cfi_def_cfa_offset 52
 1386 010f 68000200 		pushl	$512
 1386      00
 1387              		.cfi_def_cfa_offset 56
 1388 0114 6A00     		pushl	$0
 1389              		.cfi_def_cfa_offset 60
 1390 0116 6A03     		pushl	$3
 1391              		.cfi_def_cfa_offset 64
 1392 0118 E8FCFFFF 		call	clASetTargetPosition@PLT
 1392      FF
 1393              	.LVL79:
 1394              		.loc 1 91 2 view .LVU270
 1395 011d 83C420   		addl	$32, %esp
 1396              		.cfi_def_cfa_offset 32
 1397 0120 68000700 		pushl	$1792
 1397      00
 1398              		.cfi_def_cfa_offset 36
 1399 0125 68000300 		pushl	$768
 1399      00
 1400              		.cfi_def_cfa_offset 40
 1401 012a 6A01     		pushl	$1
GAS LISTING /tmp/ccffpNMU.s 			page 28


 1402              		.cfi_def_cfa_offset 44
 1403 012c 6A02     		pushl	$2
 1404              		.cfi_def_cfa_offset 48
 1405 012e E8FCFFFF 		call	clASetTargetPosition@PLT
 1405      FF
 1406              	.LVL80:
 1407              		.loc 1 92 2 view .LVU271
 1408 0133 68000600 		pushl	$1536
 1408      00
 1409              		.cfi_def_cfa_offset 52
 1410 0138 68000200 		pushl	$512
 1410      00
 1411              		.cfi_def_cfa_offset 56
 1412 013d 6A01     		pushl	$1
 1413              		.cfi_def_cfa_offset 60
 1414 013f 6A03     		pushl	$3
 1415              		.cfi_def_cfa_offset 64
 1416 0141 E8FCFFFF 		call	clASetTargetPosition@PLT
 1416      FF
 1417              	.LVL81:
 1418              		.loc 1 93 2 view .LVU272
 1419 0146 83C420   		addl	$32, %esp
 1420              		.cfi_def_cfa_offset 32
 1421 0149 68000700 		pushl	$1792
 1421      00
 1422              		.cfi_def_cfa_offset 36
 1423 014e 6A00     		pushl	$0
 1424              		.cfi_def_cfa_offset 40
 1425 0150 6A02     		pushl	$2
 1426              		.cfi_def_cfa_offset 44
 1427 0152 6A01     		pushl	$1
 1428              		.cfi_def_cfa_offset 48
 1429 0154 E8FCFFFF 		call	clASetTargetPosition@PLT
 1429      FF
 1430              	.LVL82:
 1431              		.loc 1 94 2 view .LVU273
 1432 0159 68000400 		pushl	$1024
 1432      00
 1433              		.cfi_def_cfa_offset 52
 1434 015e 6A00     		pushl	$0
 1435              		.cfi_def_cfa_offset 56
 1436 0160 6A02     		pushl	$2
 1437              		.cfi_def_cfa_offset 60
 1438 0162 6A02     		pushl	$2
 1439              		.cfi_def_cfa_offset 64
 1440 0164 E8FCFFFF 		call	clASetTargetPosition@PLT
 1440      FF
 1441              	.LVL83:
 1442              		.loc 1 95 2 view .LVU274
 1443 0169 83C420   		addl	$32, %esp
 1444              		.cfi_def_cfa_offset 32
 1445 016c 68000600 		pushl	$1536
 1445      00
 1446              		.cfi_def_cfa_offset 36
 1447 0171 68000400 		pushl	$1024
 1447      00
 1448              		.cfi_def_cfa_offset 40
GAS LISTING /tmp/ccffpNMU.s 			page 29


 1449 0176 6A02     		pushl	$2
 1450              		.cfi_def_cfa_offset 44
 1451 0178 6A03     		pushl	$3
 1452              		.cfi_def_cfa_offset 48
 1453 017a E8FCFFFF 		call	clASetTargetPosition@PLT
 1453      FF
 1454              	.LVL84:
 1455              		.loc 1 97 2 view .LVU275
 1456 017f 68000300 		pushl	$768
 1456      00
 1457              		.cfi_def_cfa_offset 52
 1458 0184 68000200 		pushl	$512
 1458      00
 1459              		.cfi_def_cfa_offset 56
 1460 0189 6A00     		pushl	$0
 1461              		.cfi_def_cfa_offset 60
 1462 018b 6A07     		pushl	$7
 1463              		.cfi_def_cfa_offset 64
 1464 018d E8FCFFFF 		call	clASetTargetPosition@PLT
 1464      FF
 1465              	.LVL85:
 1466              		.loc 1 98 2 view .LVU276
 1467 0192 83C420   		addl	$32, %esp
 1468              		.cfi_def_cfa_offset 32
 1469 0195 68000700 		pushl	$1792
 1469      00
 1470              		.cfi_def_cfa_offset 36
 1471 019a 68000300 		pushl	$768
 1471      00
 1472              		.cfi_def_cfa_offset 40
 1473 019f 6A01     		pushl	$1
 1474              		.cfi_def_cfa_offset 44
 1475 01a1 6A06     		pushl	$6
 1476              		.cfi_def_cfa_offset 48
 1477 01a3 E8FCFFFF 		call	clASetTargetPosition@PLT
 1477      FF
 1478              	.LVL86:
 1479              		.loc 1 99 2 view .LVU277
 1480 01a8 68000600 		pushl	$1536
 1480      00
 1481              		.cfi_def_cfa_offset 52
 1482 01ad 68000200 		pushl	$512
 1482      00
 1483              		.cfi_def_cfa_offset 56
 1484 01b2 6A01     		pushl	$1
 1485              		.cfi_def_cfa_offset 60
 1486 01b4 6A07     		pushl	$7
 1487              		.cfi_def_cfa_offset 64
 1488 01b6 E8FCFFFF 		call	clASetTargetPosition@PLT
 1488      FF
 1489              	.LVL87:
 1490              		.loc 1 100 2 view .LVU278
 1491 01bb 83C420   		addl	$32, %esp
 1492              		.cfi_def_cfa_offset 32
 1493 01be 68000700 		pushl	$1792
 1493      00
 1494              		.cfi_def_cfa_offset 36
GAS LISTING /tmp/ccffpNMU.s 			page 30


 1495 01c3 6A00     		pushl	$0
 1496              		.cfi_def_cfa_offset 40
 1497 01c5 6A02     		pushl	$2
 1498              		.cfi_def_cfa_offset 44
 1499 01c7 6A05     		pushl	$5
 1500              		.cfi_def_cfa_offset 48
 1501 01c9 E8FCFFFF 		call	clASetTargetPosition@PLT
 1501      FF
 1502              	.LVL88:
 1503              		.loc 1 101 2 view .LVU279
 1504 01ce 68000400 		pushl	$1024
 1504      00
 1505              		.cfi_def_cfa_offset 52
 1506 01d3 6A00     		pushl	$0
 1507              		.cfi_def_cfa_offset 56
 1508 01d5 6A02     		pushl	$2
 1509              		.cfi_def_cfa_offset 60
 1510 01d7 6A06     		pushl	$6
 1511              		.cfi_def_cfa_offset 64
 1512 01d9 E8FCFFFF 		call	clASetTargetPosition@PLT
 1512      FF
 1513              	.LVL89:
 1514              		.loc 1 102 2 view .LVU280
 1515 01de 83C420   		addl	$32, %esp
 1516              		.cfi_def_cfa_offset 32
 1517 01e1 68000600 		pushl	$1536
 1517      00
 1518              		.cfi_def_cfa_offset 36
 1519 01e6 68000400 		pushl	$1024
 1519      00
 1520              		.cfi_def_cfa_offset 40
 1521 01eb 6A02     		pushl	$2
 1522              		.cfi_def_cfa_offset 44
 1523 01ed 6A07     		pushl	$7
 1524              		.cfi_def_cfa_offset 48
 1525 01ef E8FCFFFF 		call	clASetTargetPosition@PLT
 1525      FF
 1526              	.LVL90:
 1527              		.loc 1 103 2 view .LVU281
 1528              	.LBB343:
 1529              	.LBI343:
 1530              		.loc 2 282 20 view .LVU282
 1531              	.LBB344:
 1532              		.loc 2 284 3 view .LVU283
 1533              	.LBB345:
 1534              	.LBI345:
 1535              		.loc 3 353 20 view .LVU284
 1536              	.LBE345:
 1537              	.LBE344:
 1538              	.LBE343:
 1539              		.loc 3 355 3 view .LVU285
 1540              	.LBB370:
 1541              	.LBB366:
 1542              	.LBB350:
 1543              	.LBB346:
 1544              	.LBI346:
 1545              		.loc 4 362 20 view .LVU286
GAS LISTING /tmp/ccffpNMU.s 			page 31


 1546              	.LBB347:
 1547              		.loc 4 364 3 view .LVU287
 1548              		.loc 4 364 16 is_stmt 0 view .LVU288
 1549 01f4 8BB30000 		movl	port_irq_sts@GOT(%ebx), %esi
 1549      0000
 1550              	.LBE347:
 1551              	.LBE346:
 1552              	.LBE350:
 1553              	.LBB351:
 1554              	.LBB352:
 1555              		.loc 2 270 6 view .LVU289
 1556 01fa 8B4708   		movl	8(%edi), %eax
 1557 01fd 83C410   		addl	$16, %esp
 1558              		.cfi_def_cfa_offset 32
 1559              	.LBE352:
 1560              	.LBE351:
 1561              	.LBB355:
 1562              	.LBB349:
 1563              	.LBB348:
 1564              		.loc 4 364 16 view .LVU290
 1565 0200 C7060100 		movl	$1, (%esi)
 1565      0000
 1566              	.LBE348:
 1567              	.LBE349:
 1568              	.LBE355:
 1569              	.LBE366:
 1570              	.LBE370:
 1571              		.loc 3 356 34 is_stmt 1 view .LVU291
 1572              		.loc 3 357 20 view .LVU292
 1573              	.LBB371:
 1574              	.LBB367:
 1575              		.loc 2 285 3 view .LVU293
 1576              	.LVL91:
 1577              	.LBB356:
 1578              	.LBI351:
 1579              		.loc 2 266 20 view .LVU294
 1580              	.LBB353:
 1581              		.loc 2 268 21 view .LVU295
 1582              		.loc 2 270 3 view .LVU296
 1583              		.loc 2 270 6 is_stmt 0 view .LVU297
 1584 0206 85C0     		testl	%eax, %eax
 1585 0208 0F8E3201 		jle	.L30
 1585      0000
 1586              	.L27:
 1587              	.LVL92:
 1588              		.loc 2 270 6 view .LVU298
 1589              	.LBE353:
 1590              	.LBE356:
 1591              		.loc 2 286 3 is_stmt 1 view .LVU299
 1592 020e E8FCFFFF 		call	chSchRescheduleS@PLT
 1592      FF
 1593              	.LVL93:
 1594              		.loc 2 287 3 view .LVU300
 1595              	.LBB357:
 1596              	.LBI357:
 1597              		.loc 3 365 20 view .LVU301
 1598              	.LBB358:
GAS LISTING /tmp/ccffpNMU.s 			page 32


 1599              		.loc 3 367 22 view .LVU302
 1600              		.loc 3 368 33 view .LVU303
 1601              		.loc 3 374 3 view .LVU304
 1602              		.loc 3 374 3 view .LVU305
 1603              		.loc 3 378 3 view .LVU306
 1604              	.LBB359:
 1605              	.LBI359:
 1606              		.loc 4 371 20 view .LVU307
 1607              	.LBB360:
 1608              		.loc 4 373 3 view .LVU308
 1609              	.LBE360:
 1610              	.LBE359:
 1611              	.LBE358:
 1612              	.LBE357:
 1613              	.LBE367:
 1614              	.LBE371:
 1615              	.LBB372:
 1616              	.LBB373:
 1617              		.loc 2 143 10 is_stmt 0 view .LVU309
 1618 0213 83EC0C   		subl	$12, %esp
 1619              		.cfi_def_cfa_offset 44
 1620              	.LBE373:
 1621              	.LBE372:
 1622              	.LBB375:
 1623              	.LBB368:
 1624              	.LBB364:
 1625              	.LBB363:
 1626              	.LBB362:
 1627              	.LBB361:
 1628              		.loc 4 373 16 view .LVU310
 1629 0216 C7060000 		movl	$0, (%esi)
 1629      0000
 1630              	.LVL94:
 1631              		.loc 4 373 16 view .LVU311
 1632              	.LBE361:
 1633              	.LBE362:
 1634              	.LBE363:
 1635              	.LBE364:
 1636              	.LBE368:
 1637              	.LBE375:
 1638              		.loc 1 104 2 is_stmt 1 view .LVU312
 1639              	.LBB376:
 1640              	.LBI372:
 1641              		.loc 2 141 21 view .LVU313
 1642              	.LBB374:
 1643              		.loc 2 143 3 view .LVU314
 1644              		.loc 2 143 10 is_stmt 0 view .LVU315
 1645 021c 55       		pushl	%ebp
 1646              		.cfi_def_cfa_offset 48
 1647 021d E8FCFFFF 		call	chSemWait@PLT
 1647      FF
 1648              	.LVL95:
 1649              		.loc 2 143 10 view .LVU316
 1650              	.LBE374:
 1651              	.LBE376:
 1652              		.loc 1 105 2 is_stmt 1 view .LVU317
 1653 0222 58       		popl	%eax
GAS LISTING /tmp/ccffpNMU.s 			page 33


 1654              		.cfi_def_cfa_offset 44
 1655 0223 5A       		popl	%edx
 1656              		.cfi_def_cfa_offset 40
 1657 0224 6A00     		pushl	$0
 1658              		.cfi_def_cfa_offset 44
 1659 0226 6A00     		pushl	$0
 1660              		.cfi_def_cfa_offset 48
 1661 0228 E8FCFFFF 		call	clASetAllTargetpostion@PLT
 1661      FF
 1662              	.LVL96:
 1663              		.loc 1 107 2 view .LVU318
 1664 022d 68000200 		pushl	$512
 1664      00
 1665              		.cfi_def_cfa_offset 52
 1666 0232 68000100 		pushl	$256
 1666      00
 1667              		.cfi_def_cfa_offset 56
 1668 0237 6A00     		pushl	$0
 1669              		.cfi_def_cfa_offset 60
 1670 0239 6A00     		pushl	$0
 1671              		.cfi_def_cfa_offset 64
 1672 023b E8FCFFFF 		call	clASetTargetPosition@PLT
 1672      FF
 1673              	.LVL97:
 1674              		.loc 1 108 2 view .LVU319
 1675 0240 83C420   		addl	$32, %esp
 1676              		.cfi_def_cfa_offset 32
 1677 0243 68000600 		pushl	$1536
 1677      00
 1678              		.cfi_def_cfa_offset 36
 1679 0248 68000200 		pushl	$512
 1679      00
 1680              		.cfi_def_cfa_offset 40
 1681 024d 6A01     		pushl	$1
 1682              		.cfi_def_cfa_offset 44
 1683 024f 6A00     		pushl	$0
 1684              		.cfi_def_cfa_offset 48
 1685 0251 E8FCFFFF 		call	clASetTargetPosition@PLT
 1685      FF
 1686              	.LVL98:
 1687              		.loc 1 109 2 view .LVU320
 1688 0256 68000500 		pushl	$1280
 1688      00
 1689              		.cfi_def_cfa_offset 52
 1690 025b 68000100 		pushl	$256
 1690      00
 1691              		.cfi_def_cfa_offset 56
 1692 0260 6A01     		pushl	$1
 1693              		.cfi_def_cfa_offset 60
 1694 0262 6A01     		pushl	$1
 1695              		.cfi_def_cfa_offset 64
 1696 0264 E8FCFFFF 		call	clASetTargetPosition@PLT
 1696      FF
 1697              	.LVL99:
 1698              		.loc 1 110 2 view .LVU321
 1699 0269 83C420   		addl	$32, %esp
 1700              		.cfi_def_cfa_offset 32
GAS LISTING /tmp/ccffpNMU.s 			page 34


 1701 026c 68000600 		pushl	$1536
 1701      00
 1702              		.cfi_def_cfa_offset 36
 1703 0271 6A00     		pushl	$0
 1704              		.cfi_def_cfa_offset 40
 1705 0273 6A02     		pushl	$2
 1706              		.cfi_def_cfa_offset 44
 1707 0275 6A00     		pushl	$0
 1708              		.cfi_def_cfa_offset 48
 1709 0277 E8FCFFFF 		call	clASetTargetPosition@PLT
 1709      FF
 1710              	.LVL100:
 1711              		.loc 1 111 2 view .LVU322
 1712 027c 68000400 		pushl	$1024
 1712      00
 1713              		.cfi_def_cfa_offset 52
 1714 0281 6A00     		pushl	$0
 1715              		.cfi_def_cfa_offset 56
 1716 0283 6A02     		pushl	$2
 1717              		.cfi_def_cfa_offset 60
 1718 0285 6A01     		pushl	$1
 1719              		.cfi_def_cfa_offset 64
 1720 0287 E8FCFFFF 		call	clASetTargetPosition@PLT
 1720      FF
 1721              	.LVL101:
 1722              		.loc 1 112 2 view .LVU323
 1723 028c 83C420   		addl	$32, %esp
 1724              		.cfi_def_cfa_offset 32
 1725 028f 68000500 		pushl	$1280
 1725      00
 1726              		.cfi_def_cfa_offset 36
 1727 0294 68000400 		pushl	$1024
 1727      00
 1728              		.cfi_def_cfa_offset 40
 1729 0299 6A02     		pushl	$2
 1730              		.cfi_def_cfa_offset 44
 1731 029b 6A02     		pushl	$2
 1732              		.cfi_def_cfa_offset 48
 1733 029d E8FCFFFF 		call	clASetTargetPosition@PLT
 1733      FF
 1734              	.LVL102:
 1735              		.loc 1 114 2 view .LVU324
 1736 02a2 68000200 		pushl	$512
 1736      00
 1737              		.cfi_def_cfa_offset 52
 1738 02a7 68000100 		pushl	$256
 1738      00
 1739              		.cfi_def_cfa_offset 56
 1740 02ac 6A00     		pushl	$0
 1741              		.cfi_def_cfa_offset 60
 1742 02ae 6A04     		pushl	$4
 1743              		.cfi_def_cfa_offset 64
 1744 02b0 E8FCFFFF 		call	clASetTargetPosition@PLT
 1744      FF
 1745              	.LVL103:
 1746              		.loc 1 115 2 view .LVU325
 1747 02b5 83C420   		addl	$32, %esp
GAS LISTING /tmp/ccffpNMU.s 			page 35


 1748              		.cfi_def_cfa_offset 32
 1749 02b8 68000600 		pushl	$1536
 1749      00
 1750              		.cfi_def_cfa_offset 36
 1751 02bd 68000200 		pushl	$512
 1751      00
 1752              		.cfi_def_cfa_offset 40
 1753 02c2 6A01     		pushl	$1
 1754              		.cfi_def_cfa_offset 44
 1755 02c4 6A04     		pushl	$4
 1756              		.cfi_def_cfa_offset 48
 1757 02c6 E8FCFFFF 		call	clASetTargetPosition@PLT
 1757      FF
 1758              	.LVL104:
 1759              		.loc 1 116 2 view .LVU326
 1760 02cb 68000500 		pushl	$1280
 1760      00
 1761              		.cfi_def_cfa_offset 52
 1762 02d0 68000100 		pushl	$256
 1762      00
 1763              		.cfi_def_cfa_offset 56
 1764 02d5 6A01     		pushl	$1
 1765              		.cfi_def_cfa_offset 60
 1766 02d7 6A05     		pushl	$5
 1767              		.cfi_def_cfa_offset 64
 1768 02d9 E8FCFFFF 		call	clASetTargetPosition@PLT
 1768      FF
 1769              	.LVL105:
 1770              		.loc 1 117 2 view .LVU327
 1771 02de 83C420   		addl	$32, %esp
 1772              		.cfi_def_cfa_offset 32
 1773 02e1 68000600 		pushl	$1536
 1773      00
 1774              		.cfi_def_cfa_offset 36
 1775 02e6 6A00     		pushl	$0
 1776              		.cfi_def_cfa_offset 40
 1777 02e8 6A02     		pushl	$2
 1778              		.cfi_def_cfa_offset 44
 1779 02ea 6A04     		pushl	$4
 1780              		.cfi_def_cfa_offset 48
 1781 02ec E8FCFFFF 		call	clASetTargetPosition@PLT
 1781      FF
 1782              	.LVL106:
 1783              		.loc 1 118 2 view .LVU328
 1784 02f1 68000400 		pushl	$1024
 1784      00
 1785              		.cfi_def_cfa_offset 52
 1786 02f6 6A00     		pushl	$0
 1787              		.cfi_def_cfa_offset 56
 1788 02f8 6A02     		pushl	$2
 1789              		.cfi_def_cfa_offset 60
 1790 02fa 6A05     		pushl	$5
 1791              		.cfi_def_cfa_offset 64
 1792 02fc E8FCFFFF 		call	clASetTargetPosition@PLT
 1792      FF
 1793              	.LVL107:
 1794              		.loc 1 119 2 view .LVU329
GAS LISTING /tmp/ccffpNMU.s 			page 36


 1795 0301 83C420   		addl	$32, %esp
 1796              		.cfi_def_cfa_offset 32
 1797 0304 68000500 		pushl	$1280
 1797      00
 1798              		.cfi_def_cfa_offset 36
 1799 0309 68000400 		pushl	$1024
 1799      00
 1800              		.cfi_def_cfa_offset 40
 1801 030e 6A02     		pushl	$2
 1802              		.cfi_def_cfa_offset 44
 1803 0310 6A06     		pushl	$6
 1804              		.cfi_def_cfa_offset 48
 1805 0312 E8FCFFFF 		call	clASetTargetPosition@PLT
 1805      FF
 1806              	.LVL108:
 1807              		.loc 1 121 2 view .LVU330
 1808              	.LBB377:
 1809              	.LBI377:
 1810              		.loc 2 282 20 view .LVU331
 1811              	.LBB378:
 1812              		.loc 2 284 3 view .LVU332
 1813              	.LBB379:
 1814              	.LBI379:
 1815              		.loc 3 353 20 view .LVU333
 1816              	.LBE379:
 1817              	.LBE378:
 1818              	.LBE377:
 1819              		.loc 3 355 3 view .LVU334
 1820              	.LBB399:
 1821              	.LBB396:
 1822              	.LBB384:
 1823              	.LBB380:
 1824              	.LBI380:
 1825              		.loc 4 362 20 view .LVU335
 1826              	.LBB381:
 1827              		.loc 4 364 3 view .LVU336
 1828              	.LBE381:
 1829              	.LBE380:
 1830              	.LBE384:
 1831              	.LBB385:
 1832              	.LBB386:
 1833              		.loc 2 270 6 is_stmt 0 view .LVU337
 1834 0317 8B4F08   		movl	8(%edi), %ecx
 1835              	.LBE386:
 1836              	.LBE385:
 1837              	.LBB389:
 1838              	.LBB383:
 1839              	.LBB382:
 1840              		.loc 4 364 16 view .LVU338
 1841 031a C7060100 		movl	$1, (%esi)
 1841      0000
 1842              	.LBE382:
 1843              	.LBE383:
 1844              	.LBE389:
 1845              	.LBE396:
 1846              	.LBE399:
 1847              		.loc 3 356 34 is_stmt 1 view .LVU339
GAS LISTING /tmp/ccffpNMU.s 			page 37


 1848              		.loc 3 357 20 view .LVU340
 1849              	.LBB400:
 1850              	.LBB397:
 1851              		.loc 2 285 3 view .LVU341
 1852              	.LVL109:
 1853              	.LBB390:
 1854              	.LBI385:
 1855              		.loc 2 266 20 view .LVU342
 1856              	.LBB387:
 1857              		.loc 2 268 21 view .LVU343
 1858              		.loc 2 270 3 view .LVU344
 1859              		.loc 2 270 6 is_stmt 0 view .LVU345
 1860 0320 83C410   		addl	$16, %esp
 1861              		.cfi_def_cfa_offset 32
 1862 0323 85C9     		testl	%ecx, %ecx
 1863 0325 7E31     		jle	.L31
 1864              	.L28:
 1865              	.LVL110:
 1866              		.loc 2 270 6 view .LVU346
 1867              	.LBE387:
 1868              	.LBE390:
 1869              		.loc 2 286 3 is_stmt 1 view .LVU347
 1870 0327 E8FCFFFF 		call	chSchRescheduleS@PLT
 1870      FF
 1871              	.LVL111:
 1872              		.loc 2 287 3 view .LVU348
 1873              	.LBB391:
 1874              	.LBI391:
 1875              		.loc 3 365 20 view .LVU349
 1876              	.LBB392:
 1877              		.loc 3 367 22 view .LVU350
 1878              		.loc 3 368 33 view .LVU351
 1879              		.loc 3 374 3 view .LVU352
 1880              		.loc 3 374 3 view .LVU353
 1881              		.loc 3 378 3 view .LVU354
 1882              	.LBB393:
 1883              	.LBI393:
 1884              		.loc 4 371 20 view .LVU355
 1885              	.LBB394:
 1886              		.loc 4 373 3 view .LVU356
 1887              		.loc 4 373 16 is_stmt 0 view .LVU357
 1888 032c C7060000 		movl	$0, (%esi)
 1888      0000
 1889              	.LVL112:
 1890              		.loc 4 373 16 view .LVU358
 1891              	.LBE394:
 1892              	.LBE393:
 1893              	.LBE392:
 1894              	.LBE391:
 1895              	.LBE397:
 1896              	.LBE400:
 1897              		.loc 1 123 1 view .LVU359
 1898 0332 83C40C   		addl	$12, %esp
 1899              		.cfi_remember_state
 1900              		.cfi_def_cfa_offset 20
 1901 0335 5B       		popl	%ebx
 1902              		.cfi_restore 3
GAS LISTING /tmp/ccffpNMU.s 			page 38


 1903              		.cfi_def_cfa_offset 16
 1904 0336 5E       		popl	%esi
 1905              		.cfi_restore 6
 1906              		.cfi_def_cfa_offset 12
 1907 0337 5F       		popl	%edi
 1908              		.cfi_restore 7
 1909              		.cfi_def_cfa_offset 8
 1910 0338 5D       		popl	%ebp
 1911              		.cfi_restore 5
 1912              		.cfi_def_cfa_offset 4
 1913 0339 C3       		ret
 1914              	.LVL113:
 1915 033a 8DB60000 		.p2align 4,,10
 1915      0000
 1916              		.p2align 3
 1917              	.L30:
 1918              		.cfi_restore_state
 1919              	.LBB401:
 1920              	.LBB369:
 1921              	.LBB365:
 1922              	.LBB354:
 1923              		.loc 2 271 5 is_stmt 1 view .LVU360
 1924 0340 83EC0C   		subl	$12, %esp
 1925              		.cfi_def_cfa_offset 44
 1926 0343 57       		pushl	%edi
 1927              		.cfi_def_cfa_offset 48
 1928 0344 E8FCFFFF 		call	chSemSignalI@PLT
 1928      FF
 1929              	.LVL114:
 1930 0349 83C410   		addl	$16, %esp
 1931              		.cfi_def_cfa_offset 32
 1932 034c E9BDFEFF 		jmp	.L27
 1932      FF
 1933              	.LVL115:
 1934              		.p2align 4,,10
 1935 0351 8DB42600 		.p2align 3
 1935      000000
 1936              	.L31:
 1937              		.loc 2 271 5 is_stmt 0 view .LVU361
 1938              	.LBE354:
 1939              	.LBE365:
 1940              	.LBE369:
 1941              	.LBE401:
 1942              	.LBB402:
 1943              	.LBB398:
 1944              	.LBB395:
 1945              	.LBB388:
 1946              		.loc 2 271 5 is_stmt 1 view .LVU362
 1947 0358 83EC0C   		subl	$12, %esp
 1948              		.cfi_def_cfa_offset 44
 1949 035b 57       		pushl	%edi
 1950              		.cfi_def_cfa_offset 48
 1951 035c E8FCFFFF 		call	chSemSignalI@PLT
 1951      FF
 1952              	.LVL116:
 1953 0361 83C410   		addl	$16, %esp
 1954              		.cfi_def_cfa_offset 32
GAS LISTING /tmp/ccffpNMU.s 			page 39


 1955 0364 EBC1     		jmp	.L28
 1956              	.LBE388:
 1957              	.LBE395:
 1958              	.LBE398:
 1959              	.LBE402:
 1960              		.cfi_endproc
 1961              	.LFE226:
 1962              		.size	aniTriangle, .-aniTriangle
 1963              		.section	.text.aniSpiral,"ax",@progbits
 1964              		.p2align 4,,15
 1965              		.globl	aniSpiral
 1966              		.type	aniSpiral, @function
 1967              	aniSpiral:
 1968              	.LVL117:
 1969              	.LFB227:
 1970              		.loc 1 125 90 view -0
 1971              		.cfi_startproc
 1972              		.loc 1 125 90 is_stmt 0 view .LVU364
 1973 0000 55       		pushl	%ebp
 1974              		.cfi_def_cfa_offset 8
 1975              		.cfi_offset 5, -8
 1976 0001 57       		pushl	%edi
 1977              		.cfi_def_cfa_offset 12
 1978              		.cfi_offset 7, -12
 1979 0002 56       		pushl	%esi
 1980              		.cfi_def_cfa_offset 16
 1981              		.cfi_offset 6, -16
 1982 0003 53       		pushl	%ebx
 1983              		.cfi_def_cfa_offset 20
 1984              		.cfi_offset 3, -20
 1985 0004 E8FCFFFF 		call	__x86.get_pc_thunk.bx
 1985      FF
 1986 0009 81C30200 		addl	$_GLOBAL_OFFSET_TABLE_, %ebx
 1986      0000
 1987 000f 83EC18   		subl	$24, %esp
 1988              		.cfi_def_cfa_offset 44
 1989              		.loc 1 127 2 is_stmt 1 view .LVU365
 1990              	.LVL118:
 1991              	.LBB444:
 1992              	.LBI444:
 1993              		.loc 2 141 21 view .LVU366
 1994              	.LBB445:
 1995              		.loc 2 143 3 view .LVU367
 1996              	.LBE445:
 1997              	.LBE444:
 1998              		.loc 1 125 90 is_stmt 0 view .LVU368
 1999 0012 8B6C2430 		movl	48(%esp), %ebp
 2000              	.LBB447:
 2001              	.LBB446:
 2002              		.loc 2 143 10 view .LVU369
 2003 0016 FF74242C 		pushl	44(%esp)
 2004              		.cfi_def_cfa_offset 48
 2005 001a E8FCFFFF 		call	chSemWait@PLT
 2005      FF
 2006              	.LVL119:
 2007              		.loc 2 143 10 view .LVU370
 2008              	.LBE446:
GAS LISTING /tmp/ccffpNMU.s 			page 40


 2009              	.LBE447:
 2010              		.loc 1 128 2 is_stmt 1 view .LVU371
 2011 001f 59       		popl	%ecx
 2012              		.cfi_def_cfa_offset 44
 2013 0020 5E       		popl	%esi
 2014              		.cfi_def_cfa_offset 40
 2015 0021 68000500 		pushl	$1280
 2015      00
 2016              		.cfi_def_cfa_offset 44
 2017 0026 68000100 		pushl	$256
 2017      00
 2018              		.cfi_def_cfa_offset 48
 2019 002b E8FCFFFF 		call	clASetAllTargetpostion@PLT
 2019      FF
 2020              	.LVL120:
 2021              		.loc 1 129 2 view .LVU372
 2022              	.LBB448:
 2023              	.LBI448:
 2024              		.loc 2 282 20 view .LVU373
 2025              	.LBB449:
 2026              		.loc 2 284 3 view .LVU374
 2027              	.LBB450:
 2028              	.LBI450:
 2029              		.loc 3 353 20 view .LVU375
 2030              	.LBE450:
 2031              	.LBE449:
 2032              	.LBE448:
 2033              		.loc 3 355 3 view .LVU376
 2034              	.LBB475:
 2035              	.LBB471:
 2036              	.LBB455:
 2037              	.LBB451:
 2038              	.LBI451:
 2039              		.loc 4 362 20 view .LVU377
 2040              	.LBB452:
 2041              		.loc 4 364 3 view .LVU378
 2042              		.loc 4 364 16 is_stmt 0 view .LVU379
 2043 0030 8BBB0000 		movl	port_irq_sts@GOT(%ebx), %edi
 2043      0000
 2044              	.LBE452:
 2045              	.LBE451:
 2046              	.LBE455:
 2047              	.LBB456:
 2048              	.LBB457:
 2049              		.loc 2 270 6 view .LVU380
 2050 0036 8B4508   		movl	8(%ebp), %eax
 2051 0039 83C410   		addl	$16, %esp
 2052              		.cfi_def_cfa_offset 32
 2053              	.LBE457:
 2054              	.LBE456:
 2055              	.LBB460:
 2056              	.LBB454:
 2057              	.LBB453:
 2058              		.loc 4 364 16 view .LVU381
 2059 003c C7070100 		movl	$1, (%edi)
 2059      0000
 2060              	.LBE453:
GAS LISTING /tmp/ccffpNMU.s 			page 41


 2061              	.LBE454:
 2062              	.LBE460:
 2063              	.LBE471:
 2064              	.LBE475:
 2065              		.loc 3 356 34 is_stmt 1 view .LVU382
 2066              		.loc 3 357 20 view .LVU383
 2067              	.LBB476:
 2068              	.LBB472:
 2069              		.loc 2 285 3 view .LVU384
 2070              	.LVL121:
 2071              	.LBB461:
 2072              	.LBI456:
 2073              		.loc 2 266 20 view .LVU385
 2074              	.LBB458:
 2075              		.loc 2 268 21 view .LVU386
 2076              		.loc 2 270 3 view .LVU387
 2077              		.loc 2 270 6 is_stmt 0 view .LVU388
 2078 0042 85C0     		testl	%eax, %eax
 2079 0044 0F8E9E01 		jle	.L41
 2079      0000
 2080              	.L33:
 2081              	.LVL122:
 2082              		.loc 2 270 6 view .LVU389
 2083              	.LBE458:
 2084              	.LBE461:
 2085              		.loc 2 286 3 is_stmt 1 view .LVU390
 2086 004a E8FCFFFF 		call	chSchRescheduleS@PLT
 2086      FF
 2087              	.LVL123:
 2088              		.loc 2 287 3 view .LVU391
 2089              	.LBB462:
 2090              	.LBI462:
 2091              		.loc 3 365 20 view .LVU392
 2092              	.LBB463:
 2093              		.loc 3 367 22 view .LVU393
 2094              		.loc 3 368 33 view .LVU394
 2095              		.loc 3 374 3 view .LVU395
 2096              		.loc 3 374 3 view .LVU396
 2097              		.loc 3 378 3 view .LVU397
 2098              	.LBB464:
 2099              	.LBI464:
 2100              		.loc 4 371 20 view .LVU398
 2101              	.LBB465:
 2102              		.loc 4 373 3 view .LVU399
 2103              	.LBE465:
 2104              	.LBE464:
 2105              	.LBE463:
 2106              	.LBE462:
 2107              	.LBE472:
 2108              	.LBE476:
 2109              	.LBB477:
 2110              	.LBB478:
 2111              		.loc 2 143 10 is_stmt 0 view .LVU400
 2112 004f 83EC0C   		subl	$12, %esp
 2113              		.cfi_def_cfa_offset 44
 2114              	.LBE478:
 2115              	.LBE477:
GAS LISTING /tmp/ccffpNMU.s 			page 42


 2116              	.LBB480:
 2117              	.LBB473:
 2118              	.LBB469:
 2119              	.LBB468:
 2120              	.LBB467:
 2121              	.LBB466:
 2122              		.loc 4 373 16 view .LVU401
 2123 0052 C7070000 		movl	$0, (%edi)
 2123      0000
 2124              	.LVL124:
 2125              		.loc 4 373 16 view .LVU402
 2126              	.LBE466:
 2127              	.LBE467:
 2128              	.LBE468:
 2129              	.LBE469:
 2130              	.LBE473:
 2131              	.LBE480:
 2132              		.loc 1 130 2 is_stmt 1 view .LVU403
 2133              		.loc 1 131 2 view .LVU404
 2134              		.loc 1 132 2 view .LVU405
 2135              	.LBB481:
 2136              	.LBI477:
 2137              		.loc 2 141 21 view .LVU406
 2138              	.LBB479:
 2139              		.loc 2 143 3 view .LVU407
 2140              		.loc 2 143 10 is_stmt 0 view .LVU408
 2141 0058 FF74242C 		pushl	44(%esp)
 2142              		.cfi_def_cfa_offset 48
 2143 005c E8FCFFFF 		call	chSemWait@PLT
 2143      FF
 2144              	.LVL125:
 2145              		.loc 2 143 10 view .LVU409
 2146              	.LBE479:
 2147              	.LBE481:
 2148              		.loc 1 134 2 is_stmt 1 view .LVU410
 2149 0061 68000D00 		pushl	$3328
 2149      00
 2150              		.cfi_def_cfa_offset 52
 2151 0066 68000900 		pushl	$2304
 2151      00
 2152              		.cfi_def_cfa_offset 56
 2153 006b 6A00     		pushl	$0
 2154              		.cfi_def_cfa_offset 60
 2155 006d 6A00     		pushl	$0
 2156              		.cfi_def_cfa_offset 64
 2157 006f E8FCFFFF 		call	clASetTargetPosition@PLT
 2157      FF
 2158              	.LVL126:
 2159              		.loc 1 135 2 view .LVU411
 2160 0074 83C420   		addl	$32, %esp
 2161              		.cfi_def_cfa_offset 32
 2162 0077 68000D00 		pushl	$3328
 2162      00
 2163              		.cfi_def_cfa_offset 36
 2164 007c 68000900 		pushl	$2304
 2164      00
 2165              		.cfi_def_cfa_offset 40
GAS LISTING /tmp/ccffpNMU.s 			page 43


 2166 0081 6A01     		pushl	$1
 2167              		.cfi_def_cfa_offset 44
 2168 0083 6A00     		pushl	$0
 2169              		.cfi_def_cfa_offset 48
 2170 0085 E8FCFFFF 		call	clASetTargetPosition@PLT
 2170      FF
 2171              	.LVL127:
 2172              		.loc 1 136 2 view .LVU412
 2173 008a 68000D00 		pushl	$3328
 2173      00
 2174              		.cfi_def_cfa_offset 52
 2175 008f 68000900 		pushl	$2304
 2175      00
 2176              		.cfi_def_cfa_offset 56
 2177 0094 6A02     		pushl	$2
 2178              		.cfi_def_cfa_offset 60
 2179 0096 6A00     		pushl	$0
 2180              		.cfi_def_cfa_offset 64
 2181 0098 E8FCFFFF 		call	clASetTargetPosition@PLT
 2181      FF
 2182              	.LVL128:
 2183              		.loc 1 137 2 view .LVU413
 2184              	.LBB482:
 2185              	.LBI482:
 2186              		.loc 2 282 20 view .LVU414
 2187              	.LBB483:
 2188              		.loc 2 284 3 view .LVU415
 2189              	.LBB484:
 2190              	.LBI484:
 2191              		.loc 3 353 20 view .LVU416
 2192              	.LBE484:
 2193              	.LBE483:
 2194              	.LBE482:
 2195              		.loc 3 355 3 view .LVU417
 2196              	.LBB504:
 2197              	.LBB501:
 2198              	.LBB489:
 2199              	.LBB485:
 2200              	.LBI485:
 2201              		.loc 4 362 20 view .LVU418
 2202              	.LBB486:
 2203              		.loc 4 364 3 view .LVU419
 2204              	.LBE486:
 2205              	.LBE485:
 2206              	.LBE489:
 2207              	.LBB490:
 2208              	.LBB491:
 2209              		.loc 2 270 6 is_stmt 0 view .LVU420
 2210 009d 8B5508   		movl	8(%ebp), %edx
 2211              	.LBE491:
 2212              	.LBE490:
 2213              	.LBB494:
 2214              	.LBB488:
 2215              	.LBB487:
 2216              		.loc 4 364 16 view .LVU421
 2217 00a0 C7070100 		movl	$1, (%edi)
 2217      0000
GAS LISTING /tmp/ccffpNMU.s 			page 44


 2218              	.LBE487:
 2219              	.LBE488:
 2220              	.LBE494:
 2221              	.LBE501:
 2222              	.LBE504:
 2223              		.loc 3 356 34 is_stmt 1 view .LVU422
 2224              		.loc 3 357 20 view .LVU423
 2225              	.LBB505:
 2226              	.LBB502:
 2227              		.loc 2 285 3 view .LVU424
 2228              	.LVL129:
 2229              	.LBB495:
 2230              	.LBI490:
 2231              		.loc 2 266 20 view .LVU425
 2232              	.LBB492:
 2233              		.loc 2 268 21 view .LVU426
 2234              		.loc 2 270 3 view .LVU427
 2235              		.loc 2 270 6 is_stmt 0 view .LVU428
 2236 00a6 83C420   		addl	$32, %esp
 2237              		.cfi_def_cfa_offset 32
 2238 00a9 85D2     		testl	%edx, %edx
 2239 00ab 0F8E6701 		jle	.L42
 2239      0000
 2240              	.L34:
 2241              	.LVL130:
 2242              		.loc 2 270 6 view .LVU429
 2243              	.LBE492:
 2244              	.LBE495:
 2245              		.loc 2 286 3 is_stmt 1 view .LVU430
 2246 00b1 E8FCFFFF 		call	chSchRescheduleS@PLT
 2246      FF
 2247              	.LVL131:
 2248              		.loc 2 287 3 view .LVU431
 2249              	.LBB496:
 2250              	.LBI496:
 2251              		.loc 3 365 20 view .LVU432
 2252              	.LBB497:
 2253              		.loc 3 367 22 view .LVU433
 2254              		.loc 3 368 33 view .LVU434
 2255              		.loc 3 374 3 view .LVU435
 2256              		.loc 3 374 3 view .LVU436
 2257              		.loc 3 378 3 view .LVU437
 2258              	.LBB498:
 2259              	.LBI498:
 2260              		.loc 4 371 20 view .LVU438
 2261              	.LBB499:
 2262              		.loc 4 373 3 view .LVU439
 2263              		.loc 4 373 16 is_stmt 0 view .LVU440
 2264 00b6 C7070000 		movl	$0, (%edi)
 2264      0000
 2265              	.LVL132:
 2266              		.loc 4 373 16 view .LVU441
 2267 00bc BE010000 		movl	$1, %esi
 2267      00
 2268              	.LVL133:
 2269              		.p2align 4,,10
 2270 00c1 8DB42600 		.p2align 3
GAS LISTING /tmp/ccffpNMU.s 			page 45


 2270      000000
 2271              	.L35:
 2272              		.loc 4 373 16 view .LVU442
 2273              	.LBE499:
 2274              	.LBE498:
 2275              	.LBE497:
 2276              	.LBE496:
 2277              	.LBE502:
 2278              	.LBE505:
 2279              	.LBB506:
 2280              		.loc 1 140 3 is_stmt 1 discriminator 3 view .LVU443
 2281 00c8 83EC0C   		subl	$12, %esp
 2282              		.cfi_def_cfa_offset 44
 2283 00cb 68580200 		pushl	$600
 2283      00
 2284              		.cfi_def_cfa_offset 48
 2285 00d0 E8FCFFFF 		call	chThdSleep@PLT
 2285      FF
 2286              	.LVL134:
 2287              		.loc 1 141 3 discriminator 3 view .LVU444
 2288 00d5 68000D00 		pushl	$3328
 2288      00
 2289              		.cfi_def_cfa_offset 52
 2290 00da 68000900 		pushl	$2304
 2290      00
 2291              		.cfi_def_cfa_offset 56
 2292 00df 6A00     		pushl	$0
 2293              		.cfi_def_cfa_offset 60
 2294 00e1 56       		pushl	%esi
 2295              		.cfi_def_cfa_offset 64
 2296 00e2 E8FCFFFF 		call	clASetTargetPosition@PLT
 2296      FF
 2297              	.LVL135:
 2298              		.loc 1 142 3 discriminator 3 view .LVU445
 2299 00e7 83C420   		addl	$32, %esp
 2300              		.cfi_def_cfa_offset 32
 2301 00ea 68000D00 		pushl	$3328
 2301      00
 2302              		.cfi_def_cfa_offset 36
 2303 00ef 68000900 		pushl	$2304
 2303      00
 2304              		.cfi_def_cfa_offset 40
 2305 00f4 6A01     		pushl	$1
 2306              		.cfi_def_cfa_offset 44
 2307 00f6 56       		pushl	%esi
 2308              		.cfi_def_cfa_offset 48
 2309 00f7 E8FCFFFF 		call	clASetTargetPosition@PLT
 2309      FF
 2310              	.LVL136:
 2311              		.loc 1 143 3 discriminator 3 view .LVU446
 2312 00fc 68000D00 		pushl	$3328
 2312      00
 2313              		.cfi_def_cfa_offset 52
 2314 0101 68000900 		pushl	$2304
 2314      00
 2315              		.cfi_def_cfa_offset 56
 2316 0106 6A02     		pushl	$2
GAS LISTING /tmp/ccffpNMU.s 			page 46


 2317              		.cfi_def_cfa_offset 60
 2318 0108 56       		pushl	%esi
 2319              		.cfi_def_cfa_offset 64
 2320 0109 83C601   		addl	$1, %esi
 2321              	.LVL137:
 2322              		.loc 1 143 3 is_stmt 0 discriminator 3 view .LVU447
 2323 010c E8FCFFFF 		call	clASetTargetPosition@PLT
 2323      FF
 2324              	.LVL138:
 2325              		.loc 1 139 2 discriminator 3 view .LVU448
 2326 0111 83C420   		addl	$32, %esp
 2327              		.cfi_def_cfa_offset 32
 2328 0114 83FE08   		cmpl	$8, %esi
 2329 0117 75AF     		jne	.L35
 2330              	.LBE506:
 2331              		.loc 1 146 2 is_stmt 1 view .LVU449
 2332              	.LVL139:
 2333              	.LBB507:
 2334              	.LBI507:
 2335              		.loc 2 141 21 view .LVU450
 2336              	.LBB508:
 2337              		.loc 2 143 3 view .LVU451
 2338              		.loc 2 143 10 is_stmt 0 view .LVU452
 2339 0119 83EC0C   		subl	$12, %esp
 2340              		.cfi_def_cfa_offset 44
 2341 011c FF74242C 		pushl	44(%esp)
 2342              		.cfi_def_cfa_offset 48
 2343 0120 E8FCFFFF 		call	chSemWait@PLT
 2343      FF
 2344              	.LVL140:
 2345              		.loc 2 143 10 view .LVU453
 2346              	.LBE508:
 2347              	.LBE507:
 2348              		.loc 1 149 2 is_stmt 1 view .LVU454
 2349 0125 68000500 		pushl	$1280
 2349      00
 2350              		.cfi_def_cfa_offset 52
 2351 012a 68000100 		pushl	$256
 2351      00
 2352              		.cfi_def_cfa_offset 56
 2353 012f 6A00     		pushl	$0
 2354              		.cfi_def_cfa_offset 60
 2355 0131 6A07     		pushl	$7
 2356              		.cfi_def_cfa_offset 64
 2357 0133 E8FCFFFF 		call	clASetTargetPosition@PLT
 2357      FF
 2358              	.LVL141:
 2359              		.loc 1 150 2 view .LVU455
 2360 0138 83C420   		addl	$32, %esp
 2361              		.cfi_def_cfa_offset 32
 2362 013b 68000500 		pushl	$1280
 2362      00
 2363              		.cfi_def_cfa_offset 36
 2364 0140 68000100 		pushl	$256
 2364      00
 2365              		.cfi_def_cfa_offset 40
 2366 0145 6A01     		pushl	$1
GAS LISTING /tmp/ccffpNMU.s 			page 47


 2367              		.cfi_def_cfa_offset 44
 2368 0147 6A07     		pushl	$7
 2369              		.cfi_def_cfa_offset 48
 2370 0149 E8FCFFFF 		call	clASetTargetPosition@PLT
 2370      FF
 2371              	.LVL142:
 2372              		.loc 1 151 2 view .LVU456
 2373 014e 68000500 		pushl	$1280
 2373      00
 2374              		.cfi_def_cfa_offset 52
 2375 0153 68000100 		pushl	$256
 2375      00
 2376              		.cfi_def_cfa_offset 56
 2377 0158 6A02     		pushl	$2
 2378              		.cfi_def_cfa_offset 60
 2379 015a 6A07     		pushl	$7
 2380              		.cfi_def_cfa_offset 64
 2381 015c E8FCFFFF 		call	clASetTargetPosition@PLT
 2381      FF
 2382              	.LVL143:
 2383              		.loc 1 152 2 view .LVU457
 2384              	.LBB509:
 2385              	.LBI509:
 2386              		.loc 2 282 20 view .LVU458
 2387              	.LBB510:
 2388              		.loc 2 284 3 view .LVU459
 2389              	.LBB511:
 2390              	.LBI511:
 2391              		.loc 3 353 20 view .LVU460
 2392              	.LBE511:
 2393              	.LBE510:
 2394              	.LBE509:
 2395              		.loc 3 355 3 view .LVU461
 2396              	.LBB531:
 2397              	.LBB528:
 2398              	.LBB516:
 2399              	.LBB512:
 2400              	.LBI512:
 2401              		.loc 4 362 20 view .LVU462
 2402              	.LBB513:
 2403              		.loc 4 364 3 view .LVU463
 2404              	.LBE513:
 2405              	.LBE512:
 2406              	.LBE516:
 2407              	.LBB517:
 2408              	.LBB518:
 2409              		.loc 2 270 6 is_stmt 0 view .LVU464
 2410 0161 8B4508   		movl	8(%ebp), %eax
 2411              	.LBE518:
 2412              	.LBE517:
 2413              	.LBB521:
 2414              	.LBB515:
 2415              	.LBB514:
 2416              		.loc 4 364 16 view .LVU465
 2417 0164 C7070100 		movl	$1, (%edi)
 2417      0000
 2418              	.LBE514:
GAS LISTING /tmp/ccffpNMU.s 			page 48


 2419              	.LBE515:
 2420              	.LBE521:
 2421              	.LBE528:
 2422              	.LBE531:
 2423              		.loc 3 356 34 is_stmt 1 view .LVU466
 2424              		.loc 3 357 20 view .LVU467
 2425              	.LBB532:
 2426              	.LBB529:
 2427              		.loc 2 285 3 view .LVU468
 2428              	.LVL144:
 2429              	.LBB522:
 2430              	.LBI517:
 2431              		.loc 2 266 20 view .LVU469
 2432              	.LBB519:
 2433              		.loc 2 268 21 view .LVU470
 2434              		.loc 2 270 3 view .LVU471
 2435              		.loc 2 270 6 is_stmt 0 view .LVU472
 2436 016a 83C420   		addl	$32, %esp
 2437              		.cfi_def_cfa_offset 32
 2438 016d 85C0     		testl	%eax, %eax
 2439 016f 0F8E8B00 		jle	.L43
 2439      0000
 2440              	.L36:
 2441              	.LVL145:
 2442              		.loc 2 270 6 view .LVU473
 2443              	.LBE519:
 2444              	.LBE522:
 2445              		.loc 2 286 3 is_stmt 1 view .LVU474
 2446 0175 E8FCFFFF 		call	chSchRescheduleS@PLT
 2446      FF
 2447              	.LVL146:
 2448              		.loc 2 287 3 view .LVU475
 2449              	.LBB523:
 2450              	.LBI523:
 2451              		.loc 3 365 20 view .LVU476
 2452              	.LBB524:
 2453              		.loc 3 367 22 view .LVU477
 2454              		.loc 3 368 33 view .LVU478
 2455              		.loc 3 374 3 view .LVU479
 2456              		.loc 3 374 3 view .LVU480
 2457              		.loc 3 378 3 view .LVU481
 2458              	.LBB525:
 2459              	.LBI525:
 2460              		.loc 4 371 20 view .LVU482
 2461              	.LBB526:
 2462              		.loc 4 373 3 view .LVU483
 2463              		.loc 4 373 16 is_stmt 0 view .LVU484
 2464 017a C7070000 		movl	$0, (%edi)
 2464      0000
 2465              	.LVL147:
 2466              		.loc 4 373 16 view .LVU485
 2467 0180 BE060000 		movl	$6, %esi
 2467      00
 2468              	.LVL148:
 2469              		.p2align 4,,10
 2470 0185 8D7600   		.p2align 3
 2471              	.L37:
GAS LISTING /tmp/ccffpNMU.s 			page 49


 2472              		.loc 4 373 16 view .LVU486
 2473              	.LBE526:
 2474              	.LBE525:
 2475              	.LBE524:
 2476              	.LBE523:
 2477              	.LBE529:
 2478              	.LBE532:
 2479              	.LBB533:
 2480              		.loc 1 155 3 is_stmt 1 discriminator 3 view .LVU487
 2481 0188 83EC0C   		subl	$12, %esp
 2482              		.cfi_def_cfa_offset 44
 2483 018b 68580200 		pushl	$600
 2483      00
 2484              		.cfi_def_cfa_offset 48
 2485 0190 E8FCFFFF 		call	chThdSleep@PLT
 2485      FF
 2486              	.LVL149:
 2487              		.loc 1 156 3 discriminator 3 view .LVU488
 2488 0195 68000500 		pushl	$1280
 2488      00
 2489              		.cfi_def_cfa_offset 52
 2490 019a 68000100 		pushl	$256
 2490      00
 2491              		.cfi_def_cfa_offset 56
 2492 019f 6A00     		pushl	$0
 2493              		.cfi_def_cfa_offset 60
 2494 01a1 56       		pushl	%esi
 2495              		.cfi_def_cfa_offset 64
 2496 01a2 E8FCFFFF 		call	clASetTargetPosition@PLT
 2496      FF
 2497              	.LVL150:
 2498              		.loc 1 157 3 discriminator 3 view .LVU489
 2499 01a7 83C420   		addl	$32, %esp
 2500              		.cfi_def_cfa_offset 32
 2501 01aa 68000500 		pushl	$1280
 2501      00
 2502              		.cfi_def_cfa_offset 36
 2503 01af 68000100 		pushl	$256
 2503      00
 2504              		.cfi_def_cfa_offset 40
 2505 01b4 6A01     		pushl	$1
 2506              		.cfi_def_cfa_offset 44
 2507 01b6 56       		pushl	%esi
 2508              		.cfi_def_cfa_offset 48
 2509 01b7 E8FCFFFF 		call	clASetTargetPosition@PLT
 2509      FF
 2510              	.LVL151:
 2511              		.loc 1 158 3 discriminator 3 view .LVU490
 2512 01bc 68000500 		pushl	$1280
 2512      00
 2513              		.cfi_def_cfa_offset 52
 2514 01c1 68000100 		pushl	$256
 2514      00
 2515              		.cfi_def_cfa_offset 56
 2516 01c6 6A02     		pushl	$2
 2517              		.cfi_def_cfa_offset 60
 2518 01c8 56       		pushl	%esi
GAS LISTING /tmp/ccffpNMU.s 			page 50


 2519              		.cfi_def_cfa_offset 64
 2520 01c9 83EE01   		subl	$1, %esi
 2521              	.LVL152:
 2522              		.loc 1 158 3 is_stmt 0 discriminator 3 view .LVU491
 2523 01cc E8FCFFFF 		call	clASetTargetPosition@PLT
 2523      FF
 2524              	.LVL153:
 2525              		.loc 1 154 2 discriminator 3 view .LVU492
 2526 01d1 83C420   		addl	$32, %esp
 2527              		.cfi_def_cfa_offset 32
 2528 01d4 83FEFF   		cmpl	$-1, %esi
 2529 01d7 75AF     		jne	.L37
 2530              	.LBE533:
 2531              		.loc 1 162 1 view .LVU493
 2532 01d9 83C40C   		addl	$12, %esp
 2533              		.cfi_remember_state
 2534              		.cfi_def_cfa_offset 20
 2535 01dc 5B       		popl	%ebx
 2536              		.cfi_restore 3
 2537              		.cfi_def_cfa_offset 16
 2538 01dd 5E       		popl	%esi
 2539              		.cfi_restore 6
 2540              		.cfi_def_cfa_offset 12
 2541 01de 5F       		popl	%edi
 2542              		.cfi_restore 7
 2543              		.cfi_def_cfa_offset 8
 2544 01df 5D       		popl	%ebp
 2545              		.cfi_restore 5
 2546              		.cfi_def_cfa_offset 4
 2547              	.LVL154:
 2548              		.loc 1 162 1 view .LVU494
 2549 01e0 C3       		ret
 2550              	.LVL155:
 2551              		.p2align 4,,10
 2552 01e1 8DB42600 		.p2align 3
 2552      000000
 2553              	.L41:
 2554              		.cfi_restore_state
 2555              	.LBB534:
 2556              	.LBB474:
 2557              	.LBB470:
 2558              	.LBB459:
 2559              		.loc 2 271 5 is_stmt 1 view .LVU495
 2560 01e8 83EC0C   		subl	$12, %esp
 2561              		.cfi_def_cfa_offset 44
 2562 01eb 55       		pushl	%ebp
 2563              		.cfi_def_cfa_offset 48
 2564 01ec E8FCFFFF 		call	chSemSignalI@PLT
 2564      FF
 2565              	.LVL156:
 2566 01f1 83C410   		addl	$16, %esp
 2567              		.cfi_def_cfa_offset 32
 2568 01f4 E951FEFF 		jmp	.L33
 2568      FF
 2569              	.LVL157:
 2570 01f9 8DB42600 		.p2align 4,,10
 2570      000000
GAS LISTING /tmp/ccffpNMU.s 			page 51


 2571              		.p2align 3
 2572              	.L43:
 2573              		.loc 2 271 5 is_stmt 0 view .LVU496
 2574              	.LBE459:
 2575              	.LBE470:
 2576              	.LBE474:
 2577              	.LBE534:
 2578              	.LBB535:
 2579              	.LBB530:
 2580              	.LBB527:
 2581              	.LBB520:
 2582              		.loc 2 271 5 is_stmt 1 view .LVU497
 2583 0200 83EC0C   		subl	$12, %esp
 2584              		.cfi_def_cfa_offset 44
 2585 0203 55       		pushl	%ebp
 2586              		.cfi_def_cfa_offset 48
 2587 0204 E8FCFFFF 		call	chSemSignalI@PLT
 2587      FF
 2588              	.LVL158:
 2589 0209 83C410   		addl	$16, %esp
 2590              		.cfi_def_cfa_offset 32
 2591 020c E964FFFF 		jmp	.L36
 2591      FF
 2592              	.LVL159:
 2593              		.p2align 4,,10
 2594 0211 8DB42600 		.p2align 3
 2594      000000
 2595              	.L42:
 2596              		.loc 2 271 5 is_stmt 0 view .LVU498
 2597              	.LBE520:
 2598              	.LBE527:
 2599              	.LBE530:
 2600              	.LBE535:
 2601              	.LBB536:
 2602              	.LBB503:
 2603              	.LBB500:
 2604              	.LBB493:
 2605              		.loc 2 271 5 is_stmt 1 view .LVU499
 2606 0218 83EC0C   		subl	$12, %esp
 2607              		.cfi_def_cfa_offset 44
 2608 021b 55       		pushl	%ebp
 2609              		.cfi_def_cfa_offset 48
 2610 021c E8FCFFFF 		call	chSemSignalI@PLT
 2610      FF
 2611              	.LVL160:
 2612 0221 83C410   		addl	$16, %esp
 2613              		.cfi_def_cfa_offset 32
 2614 0224 E988FEFF 		jmp	.L34
 2614      FF
 2615              	.LBE493:
 2616              	.LBE500:
 2617              	.LBE503:
 2618              	.LBE536:
 2619              		.cfi_endproc
 2620              	.LFE227:
 2621              		.size	aniSpiral, .-aniSpiral
 2622              		.section	.text.aniDiamonds,"ax",@progbits
GAS LISTING /tmp/ccffpNMU.s 			page 52


 2623              		.p2align 4,,15
 2624              		.globl	aniDiamonds
 2625              		.type	aniDiamonds, @function
 2626              	aniDiamonds:
 2627              	.LVL161:
 2628              	.LFB228:
 2629              		.loc 1 164 92 view -0
 2630              		.cfi_startproc
 2631              		.loc 1 165 2 view .LVU501
 2632              		.loc 1 164 92 is_stmt 0 view .LVU502
 2633 0000 55       		pushl	%ebp
 2634              		.cfi_def_cfa_offset 8
 2635              		.cfi_offset 5, -8
 2636 0001 57       		pushl	%edi
 2637              		.cfi_def_cfa_offset 12
 2638              		.cfi_offset 7, -12
 2639 0002 56       		pushl	%esi
 2640              		.cfi_def_cfa_offset 16
 2641              		.cfi_offset 6, -16
 2642 0003 53       		pushl	%ebx
 2643              		.cfi_def_cfa_offset 20
 2644              		.cfi_offset 3, -20
 2645 0004 E8FCFFFF 		call	__x86.get_pc_thunk.bx
 2645      FF
 2646 0009 81C30200 		addl	$_GLOBAL_OFFSET_TABLE_, %ebx
 2646      0000
 2647 000f 83EC1C   		subl	$28, %esp
 2648              		.cfi_def_cfa_offset 48
 2649              		.loc 1 164 92 view .LVU503
 2650 0012 8B442430 		movl	48(%esp), %eax
 2651 0016 8944240C 		movl	%eax, 12(%esp)
 2652 001a 8B442434 		movl	52(%esp), %eax
 2653              	.LVL162:
 2654              	.LBB578:
 2655              	.LBI578:
 2656              		.loc 2 282 20 is_stmt 1 view .LVU504
 2657              	.LBB579:
 2658              		.loc 2 284 3 view .LVU505
 2659              	.LBB580:
 2660              	.LBI580:
 2661              		.loc 3 353 20 view .LVU506
 2662              	.LBE580:
 2663              	.LBE579:
 2664              	.LBE578:
 2665              		.loc 3 355 3 view .LVU507
 2666              	.LBB606:
 2667              	.LBB601:
 2668              	.LBB585:
 2669              	.LBB581:
 2670              	.LBI581:
 2671              		.loc 4 362 20 view .LVU508
 2672              	.LBB582:
 2673              		.loc 4 364 3 view .LVU509
 2674              		.loc 4 364 16 is_stmt 0 view .LVU510
 2675 001e 8B930000 		movl	port_irq_sts@GOT(%ebx), %edx
 2675      0000
 2676              	.LBE582:
GAS LISTING /tmp/ccffpNMU.s 			page 53


 2677              	.LBE581:
 2678              	.LBE585:
 2679              	.LBB586:
 2680              	.LBB587:
 2681              		.loc 2 270 6 view .LVU511
 2682 0024 8B4808   		movl	8(%eax), %ecx
 2683              	.LBE587:
 2684              	.LBE586:
 2685              	.LBE601:
 2686              	.LBE606:
 2687              		.loc 1 164 92 view .LVU512
 2688 0027 89442408 		movl	%eax, 8(%esp)
 2689              	.LBB607:
 2690              	.LBB602:
 2691              	.LBB590:
 2692              	.LBB584:
 2693              	.LBB583:
 2694              		.loc 4 364 16 view .LVU513
 2695 002b 89542404 		movl	%edx, 4(%esp)
 2696 002f C7020100 		movl	$1, (%edx)
 2696      0000
 2697              	.LBE583:
 2698              	.LBE584:
 2699              	.LBE590:
 2700              	.LBE602:
 2701              	.LBE607:
 2702              		.loc 3 356 34 is_stmt 1 view .LVU514
 2703              		.loc 3 357 20 view .LVU515
 2704              	.LBB608:
 2705              	.LBB603:
 2706              		.loc 2 285 3 view .LVU516
 2707              	.LVL163:
 2708              	.LBB591:
 2709              	.LBI586:
 2710              		.loc 2 266 20 view .LVU517
 2711              	.LBB588:
 2712              		.loc 2 268 21 view .LVU518
 2713              		.loc 2 270 3 view .LVU519
 2714              		.loc 2 270 6 is_stmt 0 view .LVU520
 2715 0035 85C9     		testl	%ecx, %ecx
 2716 0037 0F8E5E01 		jle	.L67
 2716      0000
 2717              	.LVL164:
 2718              	.L45:
 2719              		.loc 2 270 6 view .LVU521
 2720              	.LBE588:
 2721              	.LBE591:
 2722              		.loc 2 286 3 is_stmt 1 view .LVU522
 2723 003d E8FCFFFF 		call	chSchRescheduleS@PLT
 2723      FF
 2724              	.LVL165:
 2725              		.loc 2 287 3 view .LVU523
 2726              	.LBB592:
 2727              	.LBI592:
 2728              		.loc 3 365 20 view .LVU524
 2729              	.LBB593:
 2730              		.loc 3 367 22 view .LVU525
GAS LISTING /tmp/ccffpNMU.s 			page 54


 2731              		.loc 3 368 33 view .LVU526
 2732              		.loc 3 374 3 view .LVU527
 2733              		.loc 3 374 3 view .LVU528
 2734              		.loc 3 378 3 view .LVU529
 2735              	.LBB594:
 2736              	.LBI594:
 2737              		.loc 4 371 20 view .LVU530
 2738              	.LBB595:
 2739              		.loc 4 373 3 view .LVU531
 2740              		.loc 4 373 16 is_stmt 0 view .LVU532
 2741 0042 8B442404 		movl	4(%esp), %eax
 2742              	.LBE595:
 2743              	.LBE594:
 2744              	.LBE593:
 2745              	.LBE592:
 2746              	.LBE603:
 2747              	.LBE608:
 2748              	.LBB609:
 2749              	.LBB610:
 2750              		.loc 2 143 10 view .LVU533
 2751 0046 83EC0C   		subl	$12, %esp
 2752              		.cfi_def_cfa_offset 60
 2753 0049 31F6     		xorl	%esi, %esi
 2754              	.LBE610:
 2755              	.LBE609:
 2756              	.LBB614:
 2757              	.LBB604:
 2758              	.LBB599:
 2759              	.LBB598:
 2760              	.LBB597:
 2761              	.LBB596:
 2762              		.loc 4 373 16 view .LVU534
 2763 004b C7000000 		movl	$0, (%eax)
 2763      0000
 2764              	.LVL166:
 2765              		.loc 4 373 16 view .LVU535
 2766              	.LBE596:
 2767              	.LBE597:
 2768              	.LBE598:
 2769              	.LBE599:
 2770              	.LBE604:
 2771              	.LBE614:
 2772              		.loc 1 166 2 is_stmt 1 view .LVU536
 2773              		.loc 1 167 2 view .LVU537
 2774              	.LBB615:
 2775              	.LBI609:
 2776              		.loc 2 141 21 view .LVU538
 2777              	.LBB611:
 2778              		.loc 2 143 3 view .LVU539
 2779              		.loc 2 143 10 is_stmt 0 view .LVU540
 2780 0051 FF742418 		pushl	24(%esp)
 2781              		.cfi_def_cfa_offset 64
 2782 0055 E8FCFFFF 		call	chSemWait@PLT
 2782      FF
 2783              	.LVL167:
 2784              	.LBE611:
 2785              	.LBE615:
GAS LISTING /tmp/ccffpNMU.s 			page 55


 2786              		.loc 1 168 2 is_stmt 1 view .LVU541
 2787              	.LBB616:
 2788              		.loc 1 168 7 view .LVU542
 2789              		.loc 1 168 7 is_stmt 0 view .LVU543
 2790              	.LBE616:
 2791              	.LBB618:
 2792              	.LBB612:
 2793              		.loc 2 143 10 view .LVU544
 2794 005a 83C410   		addl	$16, %esp
 2795              		.cfi_def_cfa_offset 48
 2796              	.LVL168:
 2797              	.L46:
 2798              		.loc 2 143 10 view .LVU545
 2799 005d 89F5     		movl	%esi, %ebp
 2800              	.LBE612:
 2801              	.LBE618:
 2802              		.loc 1 164 92 view .LVU546
 2803 005f 31FF     		xorl	%edi, %edi
 2804 0061 83E501   		andl	$1, %ebp
 2805 0064 EB2A     		jmp	.L51
 2806              	.LVL169:
 2807 0066 8DB42600 		.p2align 4,,10
 2807      0000008D 
 2807      7600
 2808              		.p2align 3
 2809              	.L69:
 2810              	.LBB619:
 2811              	.LBB617:
 2812              		.loc 1 172 5 is_stmt 1 view .LVU547
 2813              		.loc 1 172 8 is_stmt 0 view .LVU548
 2814 0070 84C0     		testb	%al, %al
 2815 0072 742B     		je	.L65
 2816              	.LVL170:
 2817              	.L50:
 2818              		.loc 1 182 6 is_stmt 1 view .LVU549
 2819 0074 6800FFFF 		pushl	$-256
 2819      FF
 2820              		.cfi_def_cfa_offset 52
 2821 0079 68000500 		pushl	$1280
 2821      00
 2822              		.cfi_def_cfa_offset 56
 2823 007e 56       		pushl	%esi
 2824              		.cfi_def_cfa_offset 60
 2825 007f 57       		pushl	%edi
 2826              		.cfi_def_cfa_offset 64
 2827 0080 83C701   		addl	$1, %edi
 2828              	.LVL171:
 2829              		.loc 1 182 6 is_stmt 0 view .LVU550
 2830 0083 E8FCFFFF 		call	clASetTargetPosition@PLT
 2830      FF
 2831              	.LVL172:
 2832 0088 83C410   		addl	$16, %esp
 2833              		.cfi_def_cfa_offset 48
 2834              		.loc 1 169 3 view .LVU551
 2835 008b 83FF08   		cmpl	$8, %edi
 2836 008e 742B     		je	.L68
 2837              	.L51:
GAS LISTING /tmp/ccffpNMU.s 			page 56


 2838              	.LVL173:
 2839              		.loc 1 170 4 is_stmt 1 view .LVU552
 2840 0090 89F8     		movl	%edi, %eax
 2841              		.loc 1 170 7 is_stmt 0 view .LVU553
 2842 0092 89EA     		movl	%ebp, %edx
 2843 0094 83E001   		andl	$1, %eax
 2844 0097 84D2     		testb	%dl, %dl
 2845 0099 75D5     		jne	.L69
 2846              		.loc 1 178 5 is_stmt 1 view .LVU554
 2847              		.loc 1 178 8 is_stmt 0 view .LVU555
 2848 009b 84C0     		testb	%al, %al
 2849 009d 74D5     		je	.L50
 2850              	.LVL174:
 2851              	.L65:
 2852              		.loc 1 179 6 is_stmt 1 view .LVU556
 2853 009f 68000100 		pushl	$256
 2853      00
 2854              		.cfi_def_cfa_offset 52
 2855 00a4 68000300 		pushl	$768
 2855      00
 2856              		.cfi_def_cfa_offset 56
 2857 00a9 56       		pushl	%esi
 2858              		.cfi_def_cfa_offset 60
 2859 00aa 57       		pushl	%edi
 2860              		.cfi_def_cfa_offset 64
 2861 00ab 83C701   		addl	$1, %edi
 2862 00ae E8FCFFFF 		call	clASetTargetPosition@PLT
 2862      FF
 2863              	.LVL175:
 2864 00b3 83C410   		addl	$16, %esp
 2865              		.cfi_def_cfa_offset 48
 2866              		.loc 1 169 3 is_stmt 0 view .LVU557
 2867 00b6 83FF08   		cmpl	$8, %edi
 2868 00b9 75D5     		jne	.L51
 2869              	.L68:
 2870              	.LVL176:
 2871              		.loc 1 169 3 view .LVU558
 2872 00bb 83C601   		addl	$1, %esi
 2873              	.LVL177:
 2874              		.loc 1 169 3 view .LVU559
 2875              	.LBE617:
 2876              		.loc 1 168 2 discriminator 2 view .LVU560
 2877 00be 83FE03   		cmpl	$3, %esi
 2878 00c1 759A     		jne	.L46
 2879              	.LBE619:
 2880              		.loc 1 188 2 is_stmt 1 view .LVU561
 2881              	.LVL178:
 2882              	.LBB620:
 2883              	.LBI620:
 2884              		.loc 2 282 20 view .LVU562
 2885              	.LBB621:
 2886              		.loc 2 284 3 view .LVU563
 2887              	.LBB622:
 2888              	.LBI622:
 2889              		.loc 3 353 20 view .LVU564
 2890              	.LBE622:
 2891              	.LBE621:
GAS LISTING /tmp/ccffpNMU.s 			page 57


 2892              	.LBE620:
 2893              		.loc 3 355 3 view .LVU565
 2894              	.LBB642:
 2895              	.LBB638:
 2896              	.LBB625:
 2897              	.LBB623:
 2898              	.LBI623:
 2899              		.loc 4 362 20 view .LVU566
 2900              	.LBB624:
 2901              		.loc 4 364 3 view .LVU567
 2902              		.loc 4 364 16 is_stmt 0 view .LVU568
 2903 00c3 8B442404 		movl	4(%esp), %eax
 2904 00c7 C7000100 		movl	$1, (%eax)
 2904      0000
 2905              	.LBE624:
 2906              	.LBE623:
 2907              	.LBE625:
 2908              	.LBE638:
 2909              	.LBE642:
 2910              		.loc 3 356 34 is_stmt 1 view .LVU569
 2911              		.loc 3 357 20 view .LVU570
 2912              	.LBB643:
 2913              	.LBB639:
 2914              		.loc 2 285 3 view .LVU571
 2915              	.LVL179:
 2916              	.LBB626:
 2917              	.LBI626:
 2918              		.loc 2 266 20 view .LVU572
 2919              	.LBB627:
 2920              		.loc 2 268 21 view .LVU573
 2921              		.loc 2 270 3 view .LVU574
 2922              		.loc 2 270 6 is_stmt 0 view .LVU575
 2923 00cd 8B442408 		movl	8(%esp), %eax
 2924 00d1 8B5008   		movl	8(%eax), %edx
 2925 00d4 85D2     		testl	%edx, %edx
 2926 00d6 0F8EE400 		jle	.L70
 2926      0000
 2927              	.L53:
 2928              	.LVL180:
 2929              		.loc 2 270 6 view .LVU576
 2930              	.LBE627:
 2931              	.LBE626:
 2932              		.loc 2 286 3 is_stmt 1 view .LVU577
 2933 00dc E8FCFFFF 		call	chSchRescheduleS@PLT
 2933      FF
 2934              	.LVL181:
 2935              		.loc 2 287 3 view .LVU578
 2936              	.LBB629:
 2937              	.LBI629:
 2938              		.loc 3 365 20 view .LVU579
 2939              	.LBB630:
 2940              		.loc 3 367 22 view .LVU580
 2941              		.loc 3 368 33 view .LVU581
 2942              		.loc 3 374 3 view .LVU582
 2943              		.loc 3 374 3 view .LVU583
 2944              		.loc 3 378 3 view .LVU584
 2945              	.LBB631:
GAS LISTING /tmp/ccffpNMU.s 			page 58


 2946              	.LBI631:
 2947              		.loc 4 371 20 view .LVU585
 2948              	.LBB632:
 2949              		.loc 4 373 3 view .LVU586
 2950              		.loc 4 373 16 is_stmt 0 view .LVU587
 2951 00e1 8B442404 		movl	4(%esp), %eax
 2952              	.LBE632:
 2953              	.LBE631:
 2954              	.LBE630:
 2955              	.LBE629:
 2956              	.LBE639:
 2957              	.LBE643:
 2958              	.LBB644:
 2959              	.LBB645:
 2960              		.loc 2 143 10 view .LVU588
 2961 00e5 83EC0C   		subl	$12, %esp
 2962              		.cfi_def_cfa_offset 60
 2963 00e8 31F6     		xorl	%esi, %esi
 2964              	.LBE645:
 2965              	.LBE644:
 2966              	.LBB648:
 2967              	.LBB640:
 2968              	.LBB636:
 2969              	.LBB635:
 2970              	.LBB634:
 2971              	.LBB633:
 2972              		.loc 4 373 16 view .LVU589
 2973 00ea C7000000 		movl	$0, (%eax)
 2973      0000
 2974              	.LVL182:
 2975              		.loc 4 373 16 view .LVU590
 2976              	.LBE633:
 2977              	.LBE634:
 2978              	.LBE635:
 2979              	.LBE636:
 2980              	.LBE640:
 2981              	.LBE648:
 2982              		.loc 1 189 2 is_stmt 1 view .LVU591
 2983              	.LBB649:
 2984              	.LBI644:
 2985              		.loc 2 141 21 view .LVU592
 2986              	.LBB646:
 2987              		.loc 2 143 3 view .LVU593
 2988              		.loc 2 143 10 is_stmt 0 view .LVU594
 2989 00f0 FF742418 		pushl	24(%esp)
 2990              		.cfi_def_cfa_offset 64
 2991 00f4 E8FCFFFF 		call	chSemWait@PLT
 2991      FF
 2992              	.LVL183:
 2993              	.LBE646:
 2994              	.LBE649:
 2995              		.loc 1 190 2 is_stmt 1 view .LVU595
 2996              	.LBB650:
 2997              		.loc 1 190 7 view .LVU596
 2998              		.loc 1 190 7 is_stmt 0 view .LVU597
 2999              	.LBE650:
 3000              	.LBB652:
GAS LISTING /tmp/ccffpNMU.s 			page 59


 3001              	.LBB647:
 3002              		.loc 2 143 10 view .LVU598
 3003 00f9 83C410   		addl	$16, %esp
 3004              		.cfi_def_cfa_offset 48
 3005              	.LVL184:
 3006              	.L54:
 3007              		.loc 2 143 10 view .LVU599
 3008 00fc 89F5     		movl	%esi, %ebp
 3009              	.LBE647:
 3010              	.LBE652:
 3011              	.LBB653:
 3012              	.LBB613:
 3013 00fe 31FF     		xorl	%edi, %edi
 3014 0100 83E501   		andl	$1, %ebp
 3015 0103 EB23     		jmp	.L59
 3016              	.LVL185:
 3017              		.p2align 4,,10
 3018 0105 8D7600   		.p2align 3
 3019              	.L72:
 3020              		.loc 2 143 10 view .LVU600
 3021              	.LBE613:
 3022              	.LBE653:
 3023              	.LBB654:
 3024              	.LBB651:
 3025              		.loc 1 194 5 is_stmt 1 view .LVU601
 3026              		.loc 1 194 8 is_stmt 0 view .LVU602
 3027 0108 84C0     		testb	%al, %al
 3028 010a 742B     		je	.L66
 3029              	.LVL186:
 3030              	.L58:
 3031              		.loc 1 204 6 is_stmt 1 view .LVU603
 3032 010c 68000300 		pushl	$768
 3032      00
 3033              		.cfi_def_cfa_offset 52
 3034 0111 68000100 		pushl	$256
 3034      00
 3035              		.cfi_def_cfa_offset 56
 3036 0116 56       		pushl	%esi
 3037              		.cfi_def_cfa_offset 60
 3038 0117 57       		pushl	%edi
 3039              		.cfi_def_cfa_offset 64
 3040 0118 83C701   		addl	$1, %edi
 3041              	.LVL187:
 3042              		.loc 1 204 6 is_stmt 0 view .LVU604
 3043 011b E8FCFFFF 		call	clASetTargetPosition@PLT
 3043      FF
 3044              	.LVL188:
 3045 0120 83C410   		addl	$16, %esp
 3046              		.cfi_def_cfa_offset 48
 3047              		.loc 1 191 3 view .LVU605
 3048 0123 83FF08   		cmpl	$8, %edi
 3049 0126 742B     		je	.L71
 3050              	.L59:
 3051              	.LVL189:
 3052              		.loc 1 192 4 is_stmt 1 view .LVU606
 3053 0128 89F8     		movl	%edi, %eax
 3054              		.loc 1 192 7 is_stmt 0 view .LVU607
GAS LISTING /tmp/ccffpNMU.s 			page 60


 3055 012a 89E9     		movl	%ebp, %ecx
 3056 012c 83E001   		andl	$1, %eax
 3057 012f 84C9     		testb	%cl, %cl
 3058 0131 75D5     		jne	.L72
 3059              		.loc 1 200 5 is_stmt 1 view .LVU608
 3060              		.loc 1 200 8 is_stmt 0 view .LVU609
 3061 0133 84C0     		testb	%al, %al
 3062 0135 74D5     		je	.L58
 3063              	.LVL190:
 3064              	.L66:
 3065              		.loc 1 201 6 is_stmt 1 view .LVU610
 3066 0137 6800FDFF 		pushl	$-768
 3066      FF
 3067              		.cfi_def_cfa_offset 52
 3068 013c 68000700 		pushl	$1792
 3068      00
 3069              		.cfi_def_cfa_offset 56
 3070 0141 56       		pushl	%esi
 3071              		.cfi_def_cfa_offset 60
 3072 0142 57       		pushl	%edi
 3073              		.cfi_def_cfa_offset 64
 3074 0143 83C701   		addl	$1, %edi
 3075 0146 E8FCFFFF 		call	clASetTargetPosition@PLT
 3075      FF
 3076              	.LVL191:
 3077 014b 83C410   		addl	$16, %esp
 3078              		.cfi_def_cfa_offset 48
 3079              		.loc 1 191 3 is_stmt 0 view .LVU611
 3080 014e 83FF08   		cmpl	$8, %edi
 3081 0151 75D5     		jne	.L59
 3082              	.L71:
 3083              	.LVL192:
 3084              		.loc 1 191 3 view .LVU612
 3085 0153 83C601   		addl	$1, %esi
 3086              	.LVL193:
 3087              		.loc 1 191 3 view .LVU613
 3088              	.LBE651:
 3089              		.loc 1 190 2 discriminator 2 view .LVU614
 3090 0156 83FE03   		cmpl	$3, %esi
 3091 0159 75A1     		jne	.L54
 3092              	.LBE654:
 3093              		.loc 1 210 2 is_stmt 1 view .LVU615
 3094              	.LVL194:
 3095              	.LBB655:
 3096              	.LBI655:
 3097              		.loc 2 282 20 view .LVU616
 3098              	.LBB656:
 3099              		.loc 2 284 3 view .LVU617
 3100              	.LBB657:
 3101              	.LBI657:
 3102              		.loc 3 353 20 view .LVU618
 3103              	.LBE657:
 3104              	.LBE656:
 3105              	.LBE655:
 3106              		.loc 3 355 3 view .LVU619
 3107              	.LBB672:
 3108              	.LBB669:
GAS LISTING /tmp/ccffpNMU.s 			page 61


 3109              	.LBB660:
 3110              	.LBB658:
 3111              	.LBI658:
 3112              		.loc 4 362 20 view .LVU620
 3113              	.LBB659:
 3114              		.loc 4 364 3 view .LVU621
 3115              		.loc 4 364 16 is_stmt 0 view .LVU622
 3116 015b 8B442404 		movl	4(%esp), %eax
 3117 015f C7000100 		movl	$1, (%eax)
 3117      0000
 3118              	.LBE659:
 3119              	.LBE658:
 3120              	.LBE660:
 3121              	.LBE669:
 3122              	.LBE672:
 3123              		.loc 3 356 34 is_stmt 1 view .LVU623
 3124              		.loc 3 357 20 view .LVU624
 3125              	.LBB673:
 3126              	.LBB670:
 3127              		.loc 2 285 3 view .LVU625
 3128              	.LVL195:
 3129              	.LBB661:
 3130              	.LBI661:
 3131              		.loc 2 266 20 view .LVU626
 3132              	.LBB662:
 3133              		.loc 2 268 21 view .LVU627
 3134              		.loc 2 270 3 view .LVU628
 3135              		.loc 2 270 6 is_stmt 0 view .LVU629
 3136 0165 8B442408 		movl	8(%esp), %eax
 3137 0169 8B4008   		movl	8(%eax), %eax
 3138 016c 85C0     		testl	%eax, %eax
 3139 016e 7E3F     		jle	.L73
 3140              	.L61:
 3141              	.LVL196:
 3142              		.loc 2 270 6 view .LVU630
 3143              	.LBE662:
 3144              	.LBE661:
 3145              		.loc 2 286 3 is_stmt 1 view .LVU631
 3146 0170 E8FCFFFF 		call	chSchRescheduleS@PLT
 3146      FF
 3147              	.LVL197:
 3148              		.loc 2 287 3 view .LVU632
 3149              	.LBB664:
 3150              	.LBI664:
 3151              		.loc 3 365 20 view .LVU633
 3152              	.LBB665:
 3153              		.loc 3 367 22 view .LVU634
 3154              		.loc 3 368 33 view .LVU635
 3155              		.loc 3 374 3 view .LVU636
 3156              		.loc 3 374 3 view .LVU637
 3157              		.loc 3 378 3 view .LVU638
 3158              	.LBB666:
 3159              	.LBI666:
 3160              		.loc 4 371 20 view .LVU639
 3161              	.LBB667:
 3162              		.loc 4 373 3 view .LVU640
 3163              		.loc 4 373 16 is_stmt 0 view .LVU641
GAS LISTING /tmp/ccffpNMU.s 			page 62


 3164 0175 8B442404 		movl	4(%esp), %eax
 3165 0179 C7000000 		movl	$0, (%eax)
 3165      0000
 3166              	.LVL198:
 3167              		.loc 4 373 16 view .LVU642
 3168              	.LBE667:
 3169              	.LBE666:
 3170              	.LBE665:
 3171              	.LBE664:
 3172              	.LBE670:
 3173              	.LBE673:
 3174              		.loc 1 211 2 is_stmt 1 view .LVU643
 3175 017f 8B442408 		movl	8(%esp), %eax
 3176 0183 89442434 		movl	%eax, 52(%esp)
 3177              	.LVL199:
 3178              		.loc 1 211 2 is_stmt 0 view .LVU644
 3179 0187 8B44240C 		movl	12(%esp), %eax
 3180 018b 89442430 		movl	%eax, 48(%esp)
 3181              	.LVL200:
 3182              		.loc 1 213 1 view .LVU645
 3183 018f 83C41C   		addl	$28, %esp
 3184              		.cfi_remember_state
 3185              		.cfi_def_cfa_offset 20
 3186 0192 5B       		popl	%ebx
 3187              		.cfi_restore 3
 3188              		.cfi_def_cfa_offset 16
 3189 0193 5E       		popl	%esi
 3190              		.cfi_restore 6
 3191              		.cfi_def_cfa_offset 12
 3192 0194 5F       		popl	%edi
 3193              		.cfi_restore 7
 3194              		.cfi_def_cfa_offset 8
 3195 0195 5D       		popl	%ebp
 3196              		.cfi_restore 5
 3197              		.cfi_def_cfa_offset 4
 3198              		.loc 1 211 2 view .LVU646
 3199 0196 E9FCFFFF 		jmp	aniStandardTime
 3199      FF
 3200              	.LVL201:
 3201              	.L67:
 3202              		.cfi_restore_state
 3203              	.LBB674:
 3204              	.LBB605:
 3205              	.LBB600:
 3206              	.LBB589:
 3207              		.loc 2 271 5 is_stmt 1 view .LVU647
 3208 019b 83EC0C   		subl	$12, %esp
 3209              		.cfi_def_cfa_offset 60
 3210 019e FF742414 		pushl	20(%esp)
 3211              		.cfi_def_cfa_offset 64
 3212 01a2 E8FCFFFF 		call	chSemSignalI@PLT
 3212      FF
 3213              	.LVL202:
 3214              		.loc 2 271 5 is_stmt 0 view .LVU648
 3215 01a7 83C410   		addl	$16, %esp
 3216              		.cfi_def_cfa_offset 48
 3217 01aa E98EFEFF 		jmp	.L45
GAS LISTING /tmp/ccffpNMU.s 			page 63


 3217      FF
 3218              	.LVL203:
 3219              	.L73:
 3220              		.loc 2 271 5 view .LVU649
 3221              	.LBE589:
 3222              	.LBE600:
 3223              	.LBE605:
 3224              	.LBE674:
 3225              	.LBB675:
 3226              	.LBB671:
 3227              	.LBB668:
 3228              	.LBB663:
 3229              		.loc 2 271 5 is_stmt 1 view .LVU650
 3230 01af 83EC0C   		subl	$12, %esp
 3231              		.cfi_def_cfa_offset 60
 3232 01b2 FF742414 		pushl	20(%esp)
 3233              		.cfi_def_cfa_offset 64
 3234 01b6 E8FCFFFF 		call	chSemSignalI@PLT
 3234      FF
 3235              	.LVL204:
 3236 01bb 83C410   		addl	$16, %esp
 3237              		.cfi_def_cfa_offset 48
 3238 01be EBB0     		jmp	.L61
 3239              	.LVL205:
 3240              	.L70:
 3241              		.loc 2 271 5 is_stmt 0 view .LVU651
 3242              	.LBE663:
 3243              	.LBE668:
 3244              	.LBE671:
 3245              	.LBE675:
 3246              	.LBB676:
 3247              	.LBB641:
 3248              	.LBB637:
 3249              	.LBB628:
 3250              		.loc 2 271 5 is_stmt 1 view .LVU652
 3251 01c0 83EC0C   		subl	$12, %esp
 3252              		.cfi_def_cfa_offset 60
 3253 01c3 FF742414 		pushl	20(%esp)
 3254              		.cfi_def_cfa_offset 64
 3255 01c7 E8FCFFFF 		call	chSemSignalI@PLT
 3255      FF
 3256              	.LVL206:
 3257              		.loc 2 271 5 is_stmt 0 view .LVU653
 3258 01cc 83C410   		addl	$16, %esp
 3259              		.cfi_def_cfa_offset 48
 3260 01cf E908FFFF 		jmp	.L53
 3260      FF
 3261              	.LBE628:
 3262              	.LBE637:
 3263              	.LBE641:
 3264              	.LBE676:
 3265              		.cfi_endproc
 3266              	.LFE228:
 3267              		.size	aniDiamonds, .-aniDiamonds
 3268              		.section	.text.aniDiamonds2,"ax",@progbits
 3269              		.p2align 4,,15
 3270              		.globl	aniDiamonds2
GAS LISTING /tmp/ccffpNMU.s 			page 64


 3271              		.type	aniDiamonds2, @function
 3272              	aniDiamonds2:
 3273              	.LVL207:
 3274              	.LFB229:
 3275              		.loc 1 215 93 is_stmt 1 view -0
 3276              		.cfi_startproc
 3277              		.loc 1 216 2 view .LVU655
 3278              		.loc 1 215 93 is_stmt 0 view .LVU656
 3279 0000 55       		pushl	%ebp
 3280              		.cfi_def_cfa_offset 8
 3281              		.cfi_offset 5, -8
 3282 0001 57       		pushl	%edi
 3283              		.cfi_def_cfa_offset 12
 3284              		.cfi_offset 7, -12
 3285 0002 56       		pushl	%esi
 3286              		.cfi_def_cfa_offset 16
 3287              		.cfi_offset 6, -16
 3288 0003 53       		pushl	%ebx
 3289              		.cfi_def_cfa_offset 20
 3290              		.cfi_offset 3, -20
 3291 0004 E8FCFFFF 		call	__x86.get_pc_thunk.bx
 3291      FF
 3292 0009 81C30200 		addl	$_GLOBAL_OFFSET_TABLE_, %ebx
 3292      0000
 3293 000f 83EC1C   		subl	$28, %esp
 3294              		.cfi_def_cfa_offset 48
 3295              		.loc 1 215 93 view .LVU657
 3296 0012 8B442430 		movl	48(%esp), %eax
 3297 0016 8944240C 		movl	%eax, 12(%esp)
 3298 001a 8B442434 		movl	52(%esp), %eax
 3299              	.LVL208:
 3300              	.LBB718:
 3301              	.LBI718:
 3302              		.loc 2 282 20 is_stmt 1 view .LVU658
 3303              	.LBB719:
 3304              		.loc 2 284 3 view .LVU659
 3305              	.LBB720:
 3306              	.LBI720:
 3307              		.loc 3 353 20 view .LVU660
 3308              	.LBE720:
 3309              	.LBE719:
 3310              	.LBE718:
 3311              		.loc 3 355 3 view .LVU661
 3312              	.LBB746:
 3313              	.LBB741:
 3314              	.LBB725:
 3315              	.LBB721:
 3316              	.LBI721:
 3317              		.loc 4 362 20 view .LVU662
 3318              	.LBB722:
 3319              		.loc 4 364 3 view .LVU663
 3320              		.loc 4 364 16 is_stmt 0 view .LVU664
 3321 001e 8B930000 		movl	port_irq_sts@GOT(%ebx), %edx
 3321      0000
 3322              	.LBE722:
 3323              	.LBE721:
 3324              	.LBE725:
GAS LISTING /tmp/ccffpNMU.s 			page 65


 3325              	.LBB726:
 3326              	.LBB727:
 3327              		.loc 2 270 6 view .LVU665
 3328 0024 8B4808   		movl	8(%eax), %ecx
 3329              	.LBE727:
 3330              	.LBE726:
 3331              	.LBE741:
 3332              	.LBE746:
 3333              		.loc 1 215 93 view .LVU666
 3334 0027 89442408 		movl	%eax, 8(%esp)
 3335              	.LBB747:
 3336              	.LBB742:
 3337              	.LBB730:
 3338              	.LBB724:
 3339              	.LBB723:
 3340              		.loc 4 364 16 view .LVU667
 3341 002b 89542404 		movl	%edx, 4(%esp)
 3342 002f C7020100 		movl	$1, (%edx)
 3342      0000
 3343              	.LBE723:
 3344              	.LBE724:
 3345              	.LBE730:
 3346              	.LBE742:
 3347              	.LBE747:
 3348              		.loc 3 356 34 is_stmt 1 view .LVU668
 3349              		.loc 3 357 20 view .LVU669
 3350              	.LBB748:
 3351              	.LBB743:
 3352              		.loc 2 285 3 view .LVU670
 3353              	.LVL209:
 3354              	.LBB731:
 3355              	.LBI726:
 3356              		.loc 2 266 20 view .LVU671
 3357              	.LBB728:
 3358              		.loc 2 268 21 view .LVU672
 3359              		.loc 2 270 3 view .LVU673
 3360              		.loc 2 270 6 is_stmt 0 view .LVU674
 3361 0035 85C9     		testl	%ecx, %ecx
 3362 0037 0F8EAF01 		jle	.L98
 3362      0000
 3363              	.LVL210:
 3364              	.L75:
 3365              		.loc 2 270 6 view .LVU675
 3366              	.LBE728:
 3367              	.LBE731:
 3368              		.loc 2 286 3 is_stmt 1 view .LVU676
 3369 003d E8FCFFFF 		call	chSchRescheduleS@PLT
 3369      FF
 3370              	.LVL211:
 3371              		.loc 2 287 3 view .LVU677
 3372              	.LBB732:
 3373              	.LBI732:
 3374              		.loc 3 365 20 view .LVU678
 3375              	.LBB733:
 3376              		.loc 3 367 22 view .LVU679
 3377              		.loc 3 368 33 view .LVU680
 3378              		.loc 3 374 3 view .LVU681
GAS LISTING /tmp/ccffpNMU.s 			page 66


 3379              		.loc 3 374 3 view .LVU682
 3380              		.loc 3 378 3 view .LVU683
 3381              	.LBB734:
 3382              	.LBI734:
 3383              		.loc 4 371 20 view .LVU684
 3384              	.LBB735:
 3385              		.loc 4 373 3 view .LVU685
 3386              		.loc 4 373 16 is_stmt 0 view .LVU686
 3387 0042 8B442404 		movl	4(%esp), %eax
 3388              	.LBE735:
 3389              	.LBE734:
 3390              	.LBE733:
 3391              	.LBE732:
 3392              	.LBE743:
 3393              	.LBE748:
 3394              	.LBB749:
 3395              	.LBB750:
 3396              		.loc 2 143 10 view .LVU687
 3397 0046 83EC0C   		subl	$12, %esp
 3398              		.cfi_def_cfa_offset 60
 3399 0049 31F6     		xorl	%esi, %esi
 3400              	.LBE750:
 3401              	.LBE749:
 3402              	.LBB754:
 3403              	.LBB744:
 3404              	.LBB739:
 3405              	.LBB738:
 3406              	.LBB737:
 3407              	.LBB736:
 3408              		.loc 4 373 16 view .LVU688
 3409 004b C7000000 		movl	$0, (%eax)
 3409      0000
 3410              	.LVL212:
 3411              		.loc 4 373 16 view .LVU689
 3412              	.LBE736:
 3413              	.LBE737:
 3414              	.LBE738:
 3415              	.LBE739:
 3416              	.LBE744:
 3417              	.LBE754:
 3418              		.loc 1 217 2 is_stmt 1 view .LVU690
 3419              		.loc 1 218 2 view .LVU691
 3420              	.LBB755:
 3421              	.LBI749:
 3422              		.loc 2 141 21 view .LVU692
 3423              	.LBB751:
 3424              		.loc 2 143 3 view .LVU693
 3425              		.loc 2 143 10 is_stmt 0 view .LVU694
 3426 0051 FF742418 		pushl	24(%esp)
 3427              		.cfi_def_cfa_offset 64
 3428 0055 E8FCFFFF 		call	chSemWait@PLT
 3428      FF
 3429              	.LVL213:
 3430              	.LBE751:
 3431              	.LBE755:
 3432              		.loc 1 219 2 is_stmt 1 view .LVU695
 3433              	.LBB756:
GAS LISTING /tmp/ccffpNMU.s 			page 67


 3434              		.loc 1 219 7 view .LVU696
 3435              		.loc 1 219 7 is_stmt 0 view .LVU697
 3436              	.LBE756:
 3437              	.LBB758:
 3438              	.LBB752:
 3439              		.loc 2 143 10 view .LVU698
 3440 005a 83C410   		addl	$16, %esp
 3441              		.cfi_def_cfa_offset 48
 3442              	.LVL214:
 3443              	.L76:
 3444              		.loc 2 143 10 view .LVU699
 3445 005d 89F5     		movl	%esi, %ebp
 3446              	.LBE752:
 3447              	.LBE758:
 3448              		.loc 1 215 93 view .LVU700
 3449 005f 31FF     		xorl	%edi, %edi
 3450 0061 83E501   		andl	$1, %ebp
 3451 0064 EB2A     		jmp	.L81
 3452              	.LVL215:
 3453 0066 8DB42600 		.p2align 4,,10
 3453      0000008D 
 3453      7600
 3454              		.p2align 3
 3455              	.L100:
 3456              	.LBB759:
 3457              	.LBB757:
 3458              		.loc 1 223 5 is_stmt 1 view .LVU701
 3459              		.loc 1 223 8 is_stmt 0 view .LVU702
 3460 0070 84C0     		testb	%al, %al
 3461 0072 742B     		je	.L95
 3462              	.LVL216:
 3463              	.L80:
 3464              		.loc 1 233 6 is_stmt 1 view .LVU703
 3465 0074 6800FFFF 		pushl	$-256
 3465      FF
 3466              		.cfi_def_cfa_offset 52
 3467 0079 68000500 		pushl	$1280
 3467      00
 3468              		.cfi_def_cfa_offset 56
 3469 007e 56       		pushl	%esi
 3470              		.cfi_def_cfa_offset 60
 3471 007f 57       		pushl	%edi
 3472              		.cfi_def_cfa_offset 64
 3473 0080 83C701   		addl	$1, %edi
 3474              	.LVL217:
 3475              		.loc 1 233 6 is_stmt 0 view .LVU704
 3476 0083 E8FCFFFF 		call	clASetTargetPosition@PLT
 3476      FF
 3477              	.LVL218:
 3478 0088 83C410   		addl	$16, %esp
 3479              		.cfi_def_cfa_offset 48
 3480              		.loc 1 220 3 view .LVU705
 3481 008b 83FF08   		cmpl	$8, %edi
 3482 008e 742B     		je	.L99
 3483              	.L81:
 3484              	.LVL219:
 3485              		.loc 1 221 4 is_stmt 1 view .LVU706
GAS LISTING /tmp/ccffpNMU.s 			page 68


 3486 0090 89F8     		movl	%edi, %eax
 3487              		.loc 1 221 7 is_stmt 0 view .LVU707
 3488 0092 89EA     		movl	%ebp, %edx
 3489 0094 83E001   		andl	$1, %eax
 3490 0097 84D2     		testb	%dl, %dl
 3491 0099 75D5     		jne	.L100
 3492              		.loc 1 229 5 is_stmt 1 view .LVU708
 3493              		.loc 1 229 8 is_stmt 0 view .LVU709
 3494 009b 84C0     		testb	%al, %al
 3495 009d 74D5     		je	.L80
 3496              	.LVL220:
 3497              	.L95:
 3498              		.loc 1 230 6 is_stmt 1 view .LVU710
 3499 009f 68000100 		pushl	$256
 3499      00
 3500              		.cfi_def_cfa_offset 52
 3501 00a4 68000300 		pushl	$768
 3501      00
 3502              		.cfi_def_cfa_offset 56
 3503 00a9 56       		pushl	%esi
 3504              		.cfi_def_cfa_offset 60
 3505 00aa 57       		pushl	%edi
 3506              		.cfi_def_cfa_offset 64
 3507 00ab 83C701   		addl	$1, %edi
 3508 00ae E8FCFFFF 		call	clASetTargetPosition@PLT
 3508      FF
 3509              	.LVL221:
 3510 00b3 83C410   		addl	$16, %esp
 3511              		.cfi_def_cfa_offset 48
 3512              		.loc 1 220 3 is_stmt 0 view .LVU711
 3513 00b6 83FF08   		cmpl	$8, %edi
 3514 00b9 75D5     		jne	.L81
 3515              	.L99:
 3516              	.LVL222:
 3517              		.loc 1 220 3 view .LVU712
 3518 00bb 83C601   		addl	$1, %esi
 3519              	.LVL223:
 3520              		.loc 1 220 3 view .LVU713
 3521              	.LBE757:
 3522              		.loc 1 219 2 discriminator 2 view .LVU714
 3523 00be 83FE03   		cmpl	$3, %esi
 3524 00c1 759A     		jne	.L76
 3525              	.LBE759:
 3526              		.loc 1 239 2 is_stmt 1 view .LVU715
 3527              	.LVL224:
 3528              	.LBB760:
 3529              	.LBI760:
 3530              		.loc 2 282 20 view .LVU716
 3531              	.LBB761:
 3532              		.loc 2 284 3 view .LVU717
 3533              	.LBB762:
 3534              	.LBI762:
 3535              		.loc 3 353 20 view .LVU718
 3536              	.LBE762:
 3537              	.LBE761:
 3538              	.LBE760:
 3539              		.loc 3 355 3 view .LVU719
GAS LISTING /tmp/ccffpNMU.s 			page 69


 3540              	.LBB782:
 3541              	.LBB778:
 3542              	.LBB765:
 3543              	.LBB763:
 3544              	.LBI763:
 3545              		.loc 4 362 20 view .LVU720
 3546              	.LBB764:
 3547              		.loc 4 364 3 view .LVU721
 3548              		.loc 4 364 16 is_stmt 0 view .LVU722
 3549 00c3 8B442404 		movl	4(%esp), %eax
 3550 00c7 C7000100 		movl	$1, (%eax)
 3550      0000
 3551              	.LBE764:
 3552              	.LBE763:
 3553              	.LBE765:
 3554              	.LBE778:
 3555              	.LBE782:
 3556              		.loc 3 356 34 is_stmt 1 view .LVU723
 3557              		.loc 3 357 20 view .LVU724
 3558              	.LBB783:
 3559              	.LBB779:
 3560              		.loc 2 285 3 view .LVU725
 3561              	.LVL225:
 3562              	.LBB766:
 3563              	.LBI766:
 3564              		.loc 2 266 20 view .LVU726
 3565              	.LBB767:
 3566              		.loc 2 268 21 view .LVU727
 3567              		.loc 2 270 3 view .LVU728
 3568              		.loc 2 270 6 is_stmt 0 view .LVU729
 3569 00cd 8B442408 		movl	8(%esp), %eax
 3570 00d1 8B5008   		movl	8(%eax), %edx
 3571 00d4 85D2     		testl	%edx, %edx
 3572 00d6 0F8E3501 		jle	.L101
 3572      0000
 3573              	.L83:
 3574              	.LVL226:
 3575              		.loc 2 270 6 view .LVU730
 3576              	.LBE767:
 3577              	.LBE766:
 3578              		.loc 2 286 3 is_stmt 1 view .LVU731
 3579 00dc E8FCFFFF 		call	chSchRescheduleS@PLT
 3579      FF
 3580              	.LVL227:
 3581              		.loc 2 287 3 view .LVU732
 3582              	.LBB769:
 3583              	.LBI769:
 3584              		.loc 3 365 20 view .LVU733
 3585              	.LBB770:
 3586              		.loc 3 367 22 view .LVU734
 3587              		.loc 3 368 33 view .LVU735
 3588              		.loc 3 374 3 view .LVU736
 3589              		.loc 3 374 3 view .LVU737
 3590              		.loc 3 378 3 view .LVU738
 3591              	.LBB771:
 3592              	.LBI771:
 3593              		.loc 4 371 20 view .LVU739
GAS LISTING /tmp/ccffpNMU.s 			page 70


 3594              	.LBB772:
 3595              		.loc 4 373 3 view .LVU740
 3596              		.loc 4 373 16 is_stmt 0 view .LVU741
 3597 00e1 8B442404 		movl	4(%esp), %eax
 3598              	.LBE772:
 3599              	.LBE771:
 3600              	.LBE770:
 3601              	.LBE769:
 3602              	.LBE779:
 3603              	.LBE783:
 3604              	.LBB784:
 3605              	.LBB785:
 3606              		.loc 2 143 10 view .LVU742
 3607 00e5 83EC0C   		subl	$12, %esp
 3608              		.cfi_def_cfa_offset 60
 3609 00e8 31F6     		xorl	%esi, %esi
 3610              	.LBE785:
 3611              	.LBE784:
 3612              	.LBB788:
 3613              	.LBB780:
 3614              	.LBB776:
 3615              	.LBB775:
 3616              	.LBB774:
 3617              	.LBB773:
 3618              		.loc 4 373 16 view .LVU743
 3619 00ea C7000000 		movl	$0, (%eax)
 3619      0000
 3620              	.LVL228:
 3621              		.loc 4 373 16 view .LVU744
 3622              	.LBE773:
 3623              	.LBE774:
 3624              	.LBE775:
 3625              	.LBE776:
 3626              	.LBE780:
 3627              	.LBE788:
 3628              		.loc 1 240 2 is_stmt 1 view .LVU745
 3629              	.LBB789:
 3630              	.LBI784:
 3631              		.loc 2 141 21 view .LVU746
 3632              	.LBB786:
 3633              		.loc 2 143 3 view .LVU747
 3634              		.loc 2 143 10 is_stmt 0 view .LVU748
 3635 00f0 FF742418 		pushl	24(%esp)
 3636              		.cfi_def_cfa_offset 64
 3637 00f4 E8FCFFFF 		call	chSemWait@PLT
 3637      FF
 3638              	.LVL229:
 3639              	.LBE786:
 3640              	.LBE789:
 3641              		.loc 1 241 2 is_stmt 1 view .LVU749
 3642              	.LBB790:
 3643              		.loc 1 241 7 view .LVU750
 3644              		.loc 1 241 7 is_stmt 0 view .LVU751
 3645              	.LBE790:
 3646              	.LBB792:
 3647              	.LBB787:
 3648              		.loc 2 143 10 view .LVU752
GAS LISTING /tmp/ccffpNMU.s 			page 71


 3649 00f9 83C410   		addl	$16, %esp
 3650              		.cfi_def_cfa_offset 48
 3651              	.LVL230:
 3652              	.L84:
 3653              		.loc 2 143 10 view .LVU753
 3654 00fc 89F5     		movl	%esi, %ebp
 3655              	.LBE787:
 3656              	.LBE792:
 3657              	.LBB793:
 3658              	.LBB753:
 3659 00fe 31FF     		xorl	%edi, %edi
 3660 0100 83E501   		andl	$1, %ebp
 3661 0103 EB3A     		jmp	.L89
 3662              	.LVL231:
 3663              		.p2align 4,,10
 3664 0105 8D7600   		.p2align 3
 3665              	.L103:
 3666              		.loc 2 143 10 view .LVU754
 3667              	.LBE753:
 3668              	.LBE793:
 3669              	.LBB794:
 3670              	.LBB791:
 3671              		.loc 1 245 5 is_stmt 1 view .LVU755
 3672              		.loc 1 245 8 is_stmt 0 view .LVU756
 3673 0108 84C0     		testb	%al, %al
 3674 010a 7464     		je	.L86
 3675              		.loc 1 246 6 is_stmt 1 view .LVU757
 3676 010c 68000700 		pushl	$1792
 3676      00
 3677              		.cfi_def_cfa_offset 52
 3678 0111 68000D00 		pushl	$3328
 3678      00
 3679              		.cfi_def_cfa_offset 56
 3680 0116 56       		pushl	%esi
 3681              		.cfi_def_cfa_offset 60
 3682 0117 57       		pushl	%edi
 3683              		.cfi_def_cfa_offset 64
 3684 0118 E8FCFFFF 		call	clASetTargetPosition@PLT
 3684      FF
 3685              	.LVL232:
 3686              		.loc 1 247 6 view .LVU758
 3687 011d D9830000 		flds	.LC1@GOTOFF(%ebx)
 3687      0000
 3688              	.LVL233:
 3689              	.L96:
 3690              		.loc 1 260 6 is_stmt 0 view .LVU759
 3691 0123 83EC08   		subl	$8, %esp
 3692              		.cfi_def_cfa_offset 72
 3693 0126 D9542404 		fsts	4(%esp)
 3694 012a D91C24   		fstps	(%esp)
 3695 012d 56       		pushl	%esi
 3696              		.cfi_def_cfa_offset 76
 3697 012e 57       		pushl	%edi
 3698              		.cfi_def_cfa_offset 80
 3699 012f 83C701   		addl	$1, %edi
 3700 0132 E8FCFFFF 		call	clASetMaxSpeed@PLT
 3700      FF
GAS LISTING /tmp/ccffpNMU.s 			page 72


 3701              	.LVL234:
 3702 0137 83C420   		addl	$32, %esp
 3703              		.cfi_def_cfa_offset 48
 3704              		.loc 1 242 3 view .LVU760
 3705 013a 83FF08   		cmpl	$8, %edi
 3706 013d 7461     		je	.L102
 3707              	.L89:
 3708              	.LVL235:
 3709              		.loc 1 243 4 is_stmt 1 view .LVU761
 3710 013f 89F8     		movl	%edi, %eax
 3711              		.loc 1 243 7 is_stmt 0 view .LVU762
 3712 0141 89E9     		movl	%ebp, %ecx
 3713 0143 83E001   		andl	$1, %eax
 3714 0146 84C9     		testb	%cl, %cl
 3715 0148 75BE     		jne	.L103
 3716              		.loc 1 254 5 is_stmt 1 view .LVU763
 3717              		.loc 1 254 8 is_stmt 0 view .LVU764
 3718 014a 84C0     		testb	%al, %al
 3719 014c 7442     		je	.L88
 3720              		.loc 1 255 6 is_stmt 1 view .LVU765
 3721 014e 68000900 		pushl	$2304
 3721      00
 3722              		.cfi_remember_state
 3723              		.cfi_def_cfa_offset 52
 3724 0153 68000B00 		pushl	$2816
 3724      00
 3725              		.cfi_def_cfa_offset 56
 3726 0158 56       		pushl	%esi
 3727              		.cfi_def_cfa_offset 60
 3728 0159 57       		pushl	%edi
 3729              		.cfi_def_cfa_offset 64
 3730 015a E8FCFFFF 		call	clASetTargetPosition@PLT
 3730      FF
 3731              	.LVL236:
 3732              		.loc 1 256 6 view .LVU766
 3733 015f D9830000 		flds	.LC1@GOTOFF(%ebx)
 3733      0000
 3734 0165 EBBC     		jmp	.L96
 3735 0167 8DB42600 		.p2align 4,,10
 3735      00000066 
 3735      90
 3736              		.p2align 3
 3737              	.L86:
 3738              		.cfi_restore_state
 3739              		.loc 1 249 6 view .LVU767
 3740 0170 6800F9FF 		pushl	$-1792
 3740      FF
 3741              		.cfi_def_cfa_offset 52
 3742 0175 6800FBFF 		pushl	$-1280
 3742      FF
 3743              		.cfi_def_cfa_offset 56
 3744              	.LVL237:
 3745              	.L97:
 3746              		.loc 1 259 6 is_stmt 0 view .LVU768
 3747 017a 56       		pushl	%esi
 3748              		.cfi_def_cfa_offset 60
 3749 017b 57       		pushl	%edi
GAS LISTING /tmp/ccffpNMU.s 			page 73


 3750              		.cfi_def_cfa_offset 64
 3751 017c E8FCFFFF 		call	clASetTargetPosition@PLT
 3751      FF
 3752              	.LVL238:
 3753              		.loc 1 260 6 is_stmt 1 view .LVU769
 3754 0181 D9830000 		flds	.LC0@GOTOFF(%ebx)
 3754      0000
 3755 0187 EB9A     		jmp	.L96
 3756              	.LVL239:
 3757 0189 8DB42600 		.p2align 4,,10
 3757      000000
 3758              		.p2align 3
 3759              	.L88:
 3760              		.cfi_def_cfa_offset 48
 3761              		.loc 1 259 6 view .LVU770
 3762 0190 6800F7FF 		pushl	$-2304
 3762      FF
 3763              		.cfi_remember_state
 3764              		.cfi_def_cfa_offset 52
 3765 0195 6800FDFF 		pushl	$-768
 3765      FF
 3766              		.cfi_def_cfa_offset 56
 3767 019a EBDE     		jmp	.L97
 3768              	.LVL240:
 3769 019c 8D742600 		.p2align 4,,10
 3770              		.p2align 3
 3771              	.L102:
 3772              		.cfi_restore_state
 3773              		.loc 1 259 6 is_stmt 0 view .LVU771
 3774 01a0 83C601   		addl	$1, %esi
 3775              	.LVL241:
 3776              		.loc 1 259 6 view .LVU772
 3777              	.LBE791:
 3778              		.loc 1 241 2 discriminator 2 view .LVU773
 3779 01a3 83FE03   		cmpl	$3, %esi
 3780 01a6 0F8550FF 		jne	.L84
 3780      FFFF
 3781              	.LBE794:
 3782              		.loc 1 266 2 is_stmt 1 view .LVU774
 3783              	.LVL242:
 3784              	.LBB795:
 3785              	.LBI795:
 3786              		.loc 2 282 20 view .LVU775
 3787              	.LBB796:
 3788              		.loc 2 284 3 view .LVU776
 3789              	.LBB797:
 3790              	.LBI797:
 3791              		.loc 3 353 20 view .LVU777
 3792              	.LBE797:
 3793              	.LBE796:
 3794              	.LBE795:
 3795              		.loc 3 355 3 view .LVU778
 3796              	.LBB812:
 3797              	.LBB809:
 3798              	.LBB800:
 3799              	.LBB798:
 3800              	.LBI798:
GAS LISTING /tmp/ccffpNMU.s 			page 74


 3801              		.loc 4 362 20 view .LVU779
 3802              	.LBB799:
 3803              		.loc 4 364 3 view .LVU780
 3804              		.loc 4 364 16 is_stmt 0 view .LVU781
 3805 01ac 8B442404 		movl	4(%esp), %eax
 3806 01b0 C7000100 		movl	$1, (%eax)
 3806      0000
 3807              	.LBE799:
 3808              	.LBE798:
 3809              	.LBE800:
 3810              	.LBE809:
 3811              	.LBE812:
 3812              		.loc 3 356 34 is_stmt 1 view .LVU782
 3813              		.loc 3 357 20 view .LVU783
 3814              	.LBB813:
 3815              	.LBB810:
 3816              		.loc 2 285 3 view .LVU784
 3817              	.LVL243:
 3818              	.LBB801:
 3819              	.LBI801:
 3820              		.loc 2 266 20 view .LVU785
 3821              	.LBB802:
 3822              		.loc 2 268 21 view .LVU786
 3823              		.loc 2 270 3 view .LVU787
 3824              		.loc 2 270 6 is_stmt 0 view .LVU788
 3825 01b6 8B442408 		movl	8(%esp), %eax
 3826 01ba 8B4008   		movl	8(%eax), %eax
 3827 01bd 85C0     		testl	%eax, %eax
 3828 01bf 7E3F     		jle	.L104
 3829              	.L91:
 3830              	.LVL244:
 3831              		.loc 2 270 6 view .LVU789
 3832              	.LBE802:
 3833              	.LBE801:
 3834              		.loc 2 286 3 is_stmt 1 view .LVU790
 3835 01c1 E8FCFFFF 		call	chSchRescheduleS@PLT
 3835      FF
 3836              	.LVL245:
 3837              		.loc 2 287 3 view .LVU791
 3838              	.LBB804:
 3839              	.LBI804:
 3840              		.loc 3 365 20 view .LVU792
 3841              	.LBB805:
 3842              		.loc 3 367 22 view .LVU793
 3843              		.loc 3 368 33 view .LVU794
 3844              		.loc 3 374 3 view .LVU795
 3845              		.loc 3 374 3 view .LVU796
 3846              		.loc 3 378 3 view .LVU797
 3847              	.LBB806:
 3848              	.LBI806:
 3849              		.loc 4 371 20 view .LVU798
 3850              	.LBB807:
 3851              		.loc 4 373 3 view .LVU799
 3852              		.loc 4 373 16 is_stmt 0 view .LVU800
 3853 01c6 8B442404 		movl	4(%esp), %eax
 3854 01ca C7000000 		movl	$0, (%eax)
 3854      0000
GAS LISTING /tmp/ccffpNMU.s 			page 75


 3855              	.LVL246:
 3856              		.loc 4 373 16 view .LVU801
 3857              	.LBE807:
 3858              	.LBE806:
 3859              	.LBE805:
 3860              	.LBE804:
 3861              	.LBE810:
 3862              	.LBE813:
 3863              		.loc 1 267 2 is_stmt 1 view .LVU802
 3864 01d0 8B442408 		movl	8(%esp), %eax
 3865 01d4 89442434 		movl	%eax, 52(%esp)
 3866              	.LVL247:
 3867              		.loc 1 267 2 is_stmt 0 view .LVU803
 3868 01d8 8B44240C 		movl	12(%esp), %eax
 3869 01dc 89442430 		movl	%eax, 48(%esp)
 3870              	.LVL248:
 3871              		.loc 1 269 1 view .LVU804
 3872 01e0 83C41C   		addl	$28, %esp
 3873              		.cfi_remember_state
 3874              		.cfi_def_cfa_offset 20
 3875 01e3 5B       		popl	%ebx
 3876              		.cfi_restore 3
 3877              		.cfi_def_cfa_offset 16
 3878 01e4 5E       		popl	%esi
 3879              		.cfi_restore 6
 3880              		.cfi_def_cfa_offset 12
 3881 01e5 5F       		popl	%edi
 3882              		.cfi_restore 7
 3883              		.cfi_def_cfa_offset 8
 3884 01e6 5D       		popl	%ebp
 3885              		.cfi_restore 5
 3886              		.cfi_def_cfa_offset 4
 3887              		.loc 1 267 2 view .LVU805
 3888 01e7 E9FCFFFF 		jmp	aniStandardTime
 3888      FF
 3889              	.LVL249:
 3890              	.L98:
 3891              		.cfi_restore_state
 3892              	.LBB814:
 3893              	.LBB745:
 3894              	.LBB740:
 3895              	.LBB729:
 3896              		.loc 2 271 5 is_stmt 1 view .LVU806
 3897 01ec 83EC0C   		subl	$12, %esp
 3898              		.cfi_def_cfa_offset 60
 3899 01ef FF742414 		pushl	20(%esp)
 3900              		.cfi_def_cfa_offset 64
 3901 01f3 E8FCFFFF 		call	chSemSignalI@PLT
 3901      FF
 3902              	.LVL250:
 3903              		.loc 2 271 5 is_stmt 0 view .LVU807
 3904 01f8 83C410   		addl	$16, %esp
 3905              		.cfi_def_cfa_offset 48
 3906 01fb E93DFEFF 		jmp	.L75
 3906      FF
 3907              	.LVL251:
 3908              	.L104:
GAS LISTING /tmp/ccffpNMU.s 			page 76


 3909              		.loc 2 271 5 view .LVU808
 3910              	.LBE729:
 3911              	.LBE740:
 3912              	.LBE745:
 3913              	.LBE814:
 3914              	.LBB815:
 3915              	.LBB811:
 3916              	.LBB808:
 3917              	.LBB803:
 3918              		.loc 2 271 5 is_stmt 1 view .LVU809
 3919 0200 83EC0C   		subl	$12, %esp
 3920              		.cfi_def_cfa_offset 60
 3921 0203 FF742414 		pushl	20(%esp)
 3922              		.cfi_def_cfa_offset 64
 3923 0207 E8FCFFFF 		call	chSemSignalI@PLT
 3923      FF
 3924              	.LVL252:
 3925 020c 83C410   		addl	$16, %esp
 3926              		.cfi_def_cfa_offset 48
 3927 020f EBB0     		jmp	.L91
 3928              	.LVL253:
 3929              	.L101:
 3930              		.loc 2 271 5 is_stmt 0 view .LVU810
 3931              	.LBE803:
 3932              	.LBE808:
 3933              	.LBE811:
 3934              	.LBE815:
 3935              	.LBB816:
 3936              	.LBB781:
 3937              	.LBB777:
 3938              	.LBB768:
 3939              		.loc 2 271 5 is_stmt 1 view .LVU811
 3940 0211 83EC0C   		subl	$12, %esp
 3941              		.cfi_def_cfa_offset 60
 3942 0214 FF742414 		pushl	20(%esp)
 3943              		.cfi_def_cfa_offset 64
 3944 0218 E8FCFFFF 		call	chSemSignalI@PLT
 3944      FF
 3945              	.LVL254:
 3946              		.loc 2 271 5 is_stmt 0 view .LVU812
 3947 021d 83C410   		addl	$16, %esp
 3948              		.cfi_def_cfa_offset 48
 3949 0220 E9B7FEFF 		jmp	.L83
 3949      FF
 3950              	.LBE768:
 3951              	.LBE777:
 3952              	.LBE781:
 3953              	.LBE816:
 3954              		.cfi_endproc
 3955              	.LFE229:
 3956              		.size	aniDiamonds2, .-aniDiamonds2
 3957              		.section	.text.aniSquares,"ax",@progbits
 3958              		.p2align 4,,15
 3959              		.globl	aniSquares
 3960              		.type	aniSquares, @function
 3961              	aniSquares:
 3962              	.LVL255:
GAS LISTING /tmp/ccffpNMU.s 			page 77


 3963              	.LFB230:
 3964              		.loc 1 271 91 is_stmt 1 view -0
 3965              		.cfi_startproc
 3966              		.loc 1 271 91 is_stmt 0 view .LVU814
 3967 0000 55       		pushl	%ebp
 3968              		.cfi_def_cfa_offset 8
 3969              		.cfi_offset 5, -8
 3970 0001 57       		pushl	%edi
 3971              		.cfi_def_cfa_offset 12
 3972              		.cfi_offset 7, -12
 3973 0002 56       		pushl	%esi
 3974              		.cfi_def_cfa_offset 16
 3975              		.cfi_offset 6, -16
 3976 0003 53       		pushl	%ebx
 3977              		.cfi_def_cfa_offset 20
 3978              		.cfi_offset 3, -20
 3979 0004 E8FCFFFF 		call	__x86.get_pc_thunk.bx
 3979      FF
 3980 0009 81C30200 		addl	$_GLOBAL_OFFSET_TABLE_, %ebx
 3980      0000
 3981 000f 83EC3C   		subl	$60, %esp
 3982              		.cfi_def_cfa_offset 80
 3983              		.loc 1 272 2 is_stmt 1 view .LVU815
 3984              	.LVL256:
 3985              	.LBB860:
 3986              	.LBI860:
 3987              		.loc 2 282 20 view .LVU816
 3988              	.LBB861:
 3989              		.loc 2 284 3 view .LVU817
 3990              	.LBB862:
 3991              	.LBI862:
 3992              		.loc 3 353 20 view .LVU818
 3993              	.LBE862:
 3994              	.LBE861:
 3995              	.LBE860:
 3996              		.loc 3 355 3 view .LVU819
 3997              	.LBB882:
 3998              	.LBB878:
 3999              	.LBB865:
 4000              	.LBB863:
 4001              	.LBI863:
 4002              		.loc 4 362 20 view .LVU820
 4003              	.LBB864:
 4004              		.loc 4 364 3 view .LVU821
 4005              		.loc 4 364 16 is_stmt 0 view .LVU822
 4006 0012 8B830000 		movl	port_irq_sts@GOT(%ebx), %eax
 4006      0000
 4007 0018 8944242C 		movl	%eax, 44(%esp)
 4008 001c C7000100 		movl	$1, (%eax)
 4008      0000
 4009              	.LBE864:
 4010              	.LBE863:
 4011              	.LBE865:
 4012              	.LBE878:
 4013              	.LBE882:
 4014              		.loc 3 356 34 is_stmt 1 view .LVU823
 4015              		.loc 3 357 20 view .LVU824
GAS LISTING /tmp/ccffpNMU.s 			page 78


 4016              	.LBB883:
 4017              	.LBB879:
 4018              		.loc 2 285 3 view .LVU825
 4019              	.LVL257:
 4020              	.LBB866:
 4021              	.LBI866:
 4022              		.loc 2 266 20 view .LVU826
 4023              	.LBB867:
 4024              		.loc 2 268 21 view .LVU827
 4025              		.loc 2 270 3 view .LVU828
 4026              		.loc 2 270 6 is_stmt 0 view .LVU829
 4027 0022 8B442454 		movl	84(%esp), %eax
 4028 0026 8B4808   		movl	8(%eax), %ecx
 4029 0029 85C9     		testl	%ecx, %ecx
 4030 002b 0F8EEE02 		jle	.L130
 4030      0000
 4031              	.L106:
 4032              	.LVL258:
 4033              		.loc 2 270 6 view .LVU830
 4034              	.LBE867:
 4035              	.LBE866:
 4036              		.loc 2 286 3 is_stmt 1 view .LVU831
 4037 0031 E8FCFFFF 		call	chSchRescheduleS@PLT
 4037      FF
 4038              	.LVL259:
 4039              		.loc 2 287 3 view .LVU832
 4040              	.LBB869:
 4041              	.LBI869:
 4042              		.loc 3 365 20 view .LVU833
 4043              	.LBB870:
 4044              		.loc 3 367 22 view .LVU834
 4045              		.loc 3 368 33 view .LVU835
 4046              		.loc 3 374 3 view .LVU836
 4047              		.loc 3 374 3 view .LVU837
 4048              		.loc 3 378 3 view .LVU838
 4049              	.LBB871:
 4050              	.LBI871:
 4051              		.loc 4 371 20 view .LVU839
 4052              	.LBB872:
 4053              		.loc 4 373 3 view .LVU840
 4054              		.loc 4 373 16 is_stmt 0 view .LVU841
 4055 0036 8B44242C 		movl	44(%esp), %eax
 4056              	.LBE872:
 4057              	.LBE871:
 4058              	.LBE870:
 4059              	.LBE869:
 4060              	.LBE879:
 4061              	.LBE883:
 4062              	.LBB884:
 4063              	.LBB885:
 4064              		.loc 2 143 10 view .LVU842
 4065 003a 83EC0C   		subl	$12, %esp
 4066              		.cfi_def_cfa_offset 92
 4067 003d 31ED     		xorl	%ebp, %ebp
 4068              	.LBE885:
 4069              	.LBE884:
 4070              	.LBB889:
GAS LISTING /tmp/ccffpNMU.s 			page 79


 4071              	.LBB880:
 4072              	.LBB876:
 4073              	.LBB875:
 4074              	.LBB874:
 4075              	.LBB873:
 4076              		.loc 4 373 16 view .LVU843
 4077 003f C7000000 		movl	$0, (%eax)
 4077      0000
 4078              	.LVL260:
 4079              		.loc 4 373 16 view .LVU844
 4080              	.LBE873:
 4081              	.LBE874:
 4082              	.LBE875:
 4083              	.LBE876:
 4084              	.LBE880:
 4085              	.LBE889:
 4086              		.loc 1 273 2 is_stmt 1 view .LVU845
 4087              		.loc 1 274 2 view .LVU846
 4088              	.LBB890:
 4089              	.LBI884:
 4090              		.loc 2 141 21 view .LVU847
 4091              	.LBB886:
 4092              		.loc 2 143 3 view .LVU848
 4093              		.loc 2 143 10 is_stmt 0 view .LVU849
 4094 0045 FF74245C 		pushl	92(%esp)
 4095              		.cfi_def_cfa_offset 96
 4096 0049 E8FCFFFF 		call	chSemWait@PLT
 4096      FF
 4097              	.LVL261:
 4098              		.loc 2 143 10 view .LVU850
 4099              	.LBE886:
 4100              	.LBE890:
 4101              		.loc 1 276 2 is_stmt 1 view .LVU851
 4102              		.loc 1 278 2 view .LVU852
 4103              	.LBB891:
 4104              	.LBB887:
 4105              		.loc 2 143 10 is_stmt 0 view .LVU853
 4106 004e 83C410   		addl	$16, %esp
 4107              		.cfi_def_cfa_offset 80
 4108 0051 896C240C 		movl	%ebp, 12(%esp)
 4109              	.LVL262:
 4110              	.L107:
 4111              		.loc 2 143 10 view .LVU854
 4112 0055 8B4C240C 		movl	12(%esp), %ecx
 4113 0059 B8000200 		movl	$512, %eax
 4113      00
 4114              	.LBE887:
 4115              	.LBE891:
 4116              		.loc 1 271 91 view .LVU855
 4117 005e 31F6     		xorl	%esi, %esi
 4118 0060 29C8     		subl	%ecx, %eax
 4119 0062 89442420 		movl	%eax, 32(%esp)
 4120 0066 89C8     		movl	%ecx, %eax
 4121 0068 F7D8     		negl	%eax
 4122 006a 89442414 		movl	%eax, 20(%esp)
 4123 006e 8D810002 		leal	512(%ecx), %eax
 4123      0000
GAS LISTING /tmp/ccffpNMU.s 			page 80


 4124 0074 89442424 		movl	%eax, 36(%esp)
 4125 0078 8D810004 		leal	1024(%ecx), %eax
 4125      0000
 4126 007e 89442428 		movl	%eax, 40(%esp)
 4127 0082 8D8100FE 		leal	-512(%ecx), %eax
 4127      FFFF
 4128 0088 89442410 		movl	%eax, 16(%esp)
 4129 008c B800FEFF 		movl	$-512, %eax
 4129      FF
 4130 0091 29C8     		subl	%ecx, %eax
 4131 0093 89442418 		movl	%eax, 24(%esp)
 4132 0097 B8000400 		movl	$1024, %eax
 4132      00
 4133 009c 29C8     		subl	%ecx, %eax
 4134 009e 8944241C 		movl	%eax, 28(%esp)
 4135              	.LVL263:
 4136              	.L116:
 4137              		.loc 1 271 91 view .LVU856
 4138 00a2 89F7     		movl	%esi, %edi
 4139 00a4 31ED     		xorl	%ebp, %ebp
 4140 00a6 83E701   		andl	$1, %edi
 4141 00a9 89F8     		movl	%edi, %eax
 4142 00ab 89EF     		movl	%ebp, %edi
 4143 00ad 89C5     		movl	%eax, %ebp
 4144 00af EB29     		jmp	.L112
 4145              	.LVL264:
 4146              		.p2align 4,,10
 4147 00b1 8DB42600 		.p2align 3
 4147      000000
 4148              	.L132:
 4149              	.LBB892:
 4150              	.LBB893:
 4151              		.loc 1 284 6 is_stmt 1 view .LVU857
 4152              		.loc 1 284 9 is_stmt 0 view .LVU858
 4153 00b8 84D2     		testb	%dl, %dl
 4154 00ba 0F84C001 		je	.L109
 4154      0000
 4155              		.loc 1 285 7 is_stmt 1 view .LVU859
 4156 00c0 FF742418 		pushl	24(%esp)
 4157              		.cfi_def_cfa_offset 84
 4158 00c4 FF742420 		pushl	32(%esp)
 4159              		.cfi_def_cfa_offset 88
 4160 00c8 56       		pushl	%esi
 4161              		.cfi_def_cfa_offset 92
 4162 00c9 57       		pushl	%edi
 4163              		.cfi_def_cfa_offset 96
 4164 00ca E8FCFFFF 		call	clASetTargetPosition@PLT
 4164      FF
 4165              	.LVL265:
 4166 00cf 83C410   		addl	$16, %esp
 4167              		.cfi_def_cfa_offset 80
 4168              	.LVL266:
 4169              	.L110:
 4170              		.loc 1 285 7 is_stmt 0 view .LVU860
 4171 00d2 83C701   		addl	$1, %edi
 4172              	.LVL267:
 4173              		.loc 1 281 4 discriminator 2 view .LVU861
GAS LISTING /tmp/ccffpNMU.s 			page 81


 4174 00d5 83FF08   		cmpl	$8, %edi
 4175 00d8 742D     		je	.L131
 4176              	.L112:
 4177              	.LVL268:
 4178              		.loc 1 282 5 is_stmt 1 view .LVU862
 4179 00da 89FA     		movl	%edi, %edx
 4180              		.loc 1 282 8 is_stmt 0 view .LVU863
 4181 00dc 89E8     		movl	%ebp, %eax
 4182 00de 83E201   		andl	$1, %edx
 4183 00e1 84C0     		testb	%al, %al
 4184 00e3 75D3     		jne	.L132
 4185              		.loc 1 290 6 is_stmt 1 view .LVU864
 4186              		.loc 1 290 9 is_stmt 0 view .LVU865
 4187 00e5 84D2     		testb	%dl, %dl
 4188 00e7 0F84B301 		je	.L111
 4188      0000
 4189              		.loc 1 291 7 is_stmt 1 view .LVU866
 4190 00ed FF742424 		pushl	36(%esp)
 4191              		.cfi_def_cfa_offset 84
 4192 00f1 FF74242C 		pushl	44(%esp)
 4193              		.cfi_def_cfa_offset 88
 4194 00f5 56       		pushl	%esi
 4195              		.cfi_def_cfa_offset 92
 4196 00f6 57       		pushl	%edi
 4197              		.cfi_def_cfa_offset 96
 4198 00f7 83C701   		addl	$1, %edi
 4199              	.LVL269:
 4200              		.loc 1 291 7 is_stmt 0 view .LVU867
 4201 00fa E8FCFFFF 		call	clASetTargetPosition@PLT
 4201      FF
 4202              	.LVL270:
 4203 00ff 83C410   		addl	$16, %esp
 4204              		.cfi_def_cfa_offset 80
 4205              		.loc 1 281 4 view .LVU868
 4206 0102 83FF08   		cmpl	$8, %edi
 4207 0105 75D3     		jne	.L112
 4208              	.L131:
 4209              	.LVL271:
 4210              		.loc 1 281 4 view .LVU869
 4211 0107 83C601   		addl	$1, %esi
 4212              	.LVL272:
 4213              		.loc 1 281 4 view .LVU870
 4214              	.LBE893:
 4215              		.loc 1 280 3 discriminator 2 view .LVU871
 4216 010a 83FE03   		cmpl	$3, %esi
 4217 010d 7593     		jne	.L116
 4218              	.LBE892:
 4219              		.loc 1 300 3 is_stmt 1 view .LVU872
 4220              	.LVL273:
 4221              	.LBB895:
 4222              	.LBI895:
 4223              		.loc 2 282 20 view .LVU873
 4224              	.LBB896:
 4225              		.loc 2 284 3 view .LVU874
 4226              	.LBB897:
 4227              	.LBI897:
 4228              		.loc 3 353 20 view .LVU875
GAS LISTING /tmp/ccffpNMU.s 			page 82


 4229              	.LBE897:
 4230              	.LBE896:
 4231              	.LBE895:
 4232              		.loc 3 355 3 view .LVU876
 4233              	.LBB917:
 4234              	.LBB913:
 4235              	.LBB900:
 4236              	.LBB898:
 4237              	.LBI898:
 4238              		.loc 4 362 20 view .LVU877
 4239              	.LBB899:
 4240              		.loc 4 364 3 view .LVU878
 4241              		.loc 4 364 16 is_stmt 0 view .LVU879
 4242 010f 8B44242C 		movl	44(%esp), %eax
 4243 0113 C7000100 		movl	$1, (%eax)
 4243      0000
 4244              	.LBE899:
 4245              	.LBE898:
 4246              	.LBE900:
 4247              	.LBE913:
 4248              	.LBE917:
 4249              		.loc 3 356 34 is_stmt 1 view .LVU880
 4250              		.loc 3 357 20 view .LVU881
 4251              	.LBB918:
 4252              	.LBB914:
 4253              		.loc 2 285 3 view .LVU882
 4254              	.LVL274:
 4255              	.LBB901:
 4256              	.LBI901:
 4257              		.loc 2 266 20 view .LVU883
 4258              	.LBB902:
 4259              		.loc 2 268 21 view .LVU884
 4260              		.loc 2 270 3 view .LVU885
 4261              		.loc 2 270 6 is_stmt 0 view .LVU886
 4262 0119 8B442454 		movl	84(%esp), %eax
 4263 011d 8B5008   		movl	8(%eax), %edx
 4264 0120 85D2     		testl	%edx, %edx
 4265 0122 0F8EE301 		jle	.L133
 4265      0000
 4266              	.L114:
 4267              	.LVL275:
 4268              		.loc 2 270 6 view .LVU887
 4269              	.LBE902:
 4270              	.LBE901:
 4271              		.loc 2 286 3 is_stmt 1 view .LVU888
 4272 0128 E8FCFFFF 		call	chSchRescheduleS@PLT
 4272      FF
 4273              	.LVL276:
 4274              		.loc 2 287 3 view .LVU889
 4275              	.LBB904:
 4276              	.LBI904:
 4277              		.loc 3 365 20 view .LVU890
 4278              	.LBB905:
 4279              		.loc 3 367 22 view .LVU891
 4280              		.loc 3 368 33 view .LVU892
 4281              		.loc 3 374 3 view .LVU893
 4282              		.loc 3 374 3 view .LVU894
GAS LISTING /tmp/ccffpNMU.s 			page 83


 4283              		.loc 3 378 3 view .LVU895
 4284              	.LBB906:
 4285              	.LBI906:
 4286              		.loc 4 371 20 view .LVU896
 4287              	.LBB907:
 4288              		.loc 4 373 3 view .LVU897
 4289              		.loc 4 373 16 is_stmt 0 view .LVU898
 4290 012d 8B44242C 		movl	44(%esp), %eax
 4291              	.LBE907:
 4292              	.LBE906:
 4293              	.LBE905:
 4294              	.LBE904:
 4295              	.LBE914:
 4296              	.LBE918:
 4297              	.LBB919:
 4298              	.LBB920:
 4299              		.loc 2 143 10 view .LVU899
 4300 0131 83EC0C   		subl	$12, %esp
 4301              		.cfi_def_cfa_offset 92
 4302              	.LBE920:
 4303              	.LBE919:
 4304              	.LBB922:
 4305              	.LBB915:
 4306              	.LBB911:
 4307              	.LBB910:
 4308              	.LBB909:
 4309              	.LBB908:
 4310              		.loc 4 373 16 view .LVU900
 4311 0134 C7000000 		movl	$0, (%eax)
 4311      0000
 4312              	.LVL277:
 4313              		.loc 4 373 16 view .LVU901
 4314              	.LBE908:
 4315              	.LBE909:
 4316              	.LBE910:
 4317              	.LBE911:
 4318              	.LBE915:
 4319              	.LBE922:
 4320              		.loc 1 301 3 is_stmt 1 view .LVU902
 4321              	.LBB923:
 4322              	.LBI919:
 4323              		.loc 2 141 21 view .LVU903
 4324              	.LBB921:
 4325              		.loc 2 143 3 view .LVU904
 4326              		.loc 2 143 10 is_stmt 0 view .LVU905
 4327 013a FF74245C 		pushl	92(%esp)
 4328              		.cfi_def_cfa_offset 96
 4329 013e E8FCFFFF 		call	chSemWait@PLT
 4329      FF
 4330              	.LVL278:
 4331              		.loc 2 143 10 view .LVU906
 4332              	.LBE921:
 4333              	.LBE923:
 4334              		.loc 1 302 3 is_stmt 1 view .LVU907
 4335              		.loc 1 304 3 view .LVU908
 4336 0143 C70424A0 		movl	$4000, (%esp)
 4336      0F0000
GAS LISTING /tmp/ccffpNMU.s 			page 84


 4337 014a E8FCFFFF 		call	chThdSleep@PLT
 4337      FF
 4338              	.LVL279:
 4339              		.loc 1 304 3 is_stmt 0 view .LVU909
 4340 014f 8B442420 		movl	32(%esp), %eax
 4341 0153 8944241C 		movl	%eax, 28(%esp)
 4342              		.loc 1 278 8 view .LVU910
 4343 0157 83C410   		addl	$16, %esp
 4344              		.cfi_def_cfa_offset 80
 4345 015a 3D00F8FF 		cmpl	$-2048, %eax
 4345      FF
 4346 015f 0F85F0FE 		jne	.L107
 4346      FFFF
 4347              	.L115:
 4348              	.LVL280:
 4349              		.loc 1 278 8 view .LVU911
 4350 0165 8B4C240C 		movl	12(%esp), %ecx
 4351 0169 B8000200 		movl	$512, %eax
 4351      00
 4352              	.LBB924:
 4353              	.LBB888:
 4354              		.loc 2 143 10 view .LVU912
 4355 016e 31F6     		xorl	%esi, %esi
 4356 0170 29C8     		subl	%ecx, %eax
 4357 0172 89442420 		movl	%eax, 32(%esp)
 4358 0176 89C8     		movl	%ecx, %eax
 4359 0178 F7D8     		negl	%eax
 4360 017a 89442414 		movl	%eax, 20(%esp)
 4361 017e 8D810002 		leal	512(%ecx), %eax
 4361      0000
 4362 0184 89442410 		movl	%eax, 16(%esp)
 4363 0188 8D810004 		leal	1024(%ecx), %eax
 4363      0000
 4364 018e 89442424 		movl	%eax, 36(%esp)
 4365 0192 8D8100FE 		leal	-512(%ecx), %eax
 4365      FFFF
 4366 0198 89442428 		movl	%eax, 40(%esp)
 4367 019c B800FEFF 		movl	$-512, %eax
 4367      FF
 4368 01a1 29C8     		subl	%ecx, %eax
 4369 01a3 89442418 		movl	%eax, 24(%esp)
 4370 01a7 B8000400 		movl	$1024, %eax
 4370      00
 4371 01ac 29C8     		subl	%ecx, %eax
 4372 01ae 8944241C 		movl	%eax, 28(%esp)
 4373              	.LVL281:
 4374              	.L125:
 4375              		.loc 2 143 10 view .LVU913
 4376 01b2 89F7     		movl	%esi, %edi
 4377 01b4 31ED     		xorl	%ebp, %ebp
 4378 01b6 83E701   		andl	$1, %edi
 4379 01b9 89F8     		movl	%edi, %eax
 4380 01bb 89EF     		movl	%ebp, %edi
 4381 01bd 89C5     		movl	%eax, %ebp
 4382 01bf EB29     		jmp	.L121
 4383              	.LVL282:
 4384              		.p2align 4,,10
GAS LISTING /tmp/ccffpNMU.s 			page 85


 4385 01c1 8DB42600 		.p2align 3
 4385      000000
 4386              	.L135:
 4387              		.loc 2 143 10 view .LVU914
 4388              	.LBE888:
 4389              	.LBE924:
 4390              	.LBB925:
 4391              	.LBB926:
 4392              		.loc 1 314 6 is_stmt 1 view .LVU915
 4393              		.loc 1 314 9 is_stmt 0 view .LVU916
 4394 01c8 84D2     		testb	%dl, %dl
 4395 01ca 0F84F000 		je	.L118
 4395      0000
 4396              		.loc 1 315 7 is_stmt 1 view .LVU917
 4397 01d0 FF742418 		pushl	24(%esp)
 4398              		.cfi_def_cfa_offset 84
 4399 01d4 FF742420 		pushl	32(%esp)
 4400              		.cfi_def_cfa_offset 88
 4401 01d8 56       		pushl	%esi
 4402              		.cfi_def_cfa_offset 92
 4403 01d9 57       		pushl	%edi
 4404              		.cfi_def_cfa_offset 96
 4405 01da E8FCFFFF 		call	clASetTargetPosition@PLT
 4405      FF
 4406              	.LVL283:
 4407 01df 83C410   		addl	$16, %esp
 4408              		.cfi_def_cfa_offset 80
 4409              	.LVL284:
 4410              	.L119:
 4411              		.loc 1 315 7 is_stmt 0 view .LVU918
 4412 01e2 83C701   		addl	$1, %edi
 4413              	.LVL285:
 4414              		.loc 1 311 4 discriminator 2 view .LVU919
 4415 01e5 83FF08   		cmpl	$8, %edi
 4416 01e8 742D     		je	.L134
 4417              	.L121:
 4418              	.LVL286:
 4419              		.loc 1 312 5 is_stmt 1 view .LVU920
 4420 01ea 89FA     		movl	%edi, %edx
 4421              		.loc 1 312 8 is_stmt 0 view .LVU921
 4422 01ec 89E8     		movl	%ebp, %eax
 4423 01ee 83E201   		andl	$1, %edx
 4424 01f1 84C0     		testb	%al, %al
 4425 01f3 75D3     		jne	.L135
 4426              		.loc 1 320 6 is_stmt 1 view .LVU922
 4427              		.loc 1 320 9 is_stmt 0 view .LVU923
 4428 01f5 84D2     		testb	%dl, %dl
 4429 01f7 0F84E300 		je	.L120
 4429      0000
 4430              		.loc 1 321 7 is_stmt 1 view .LVU924
 4431 01fd FF742410 		pushl	16(%esp)
 4432              		.cfi_def_cfa_offset 84
 4433 0201 FF742428 		pushl	40(%esp)
 4434              		.cfi_def_cfa_offset 88
 4435 0205 56       		pushl	%esi
 4436              		.cfi_def_cfa_offset 92
 4437 0206 57       		pushl	%edi
GAS LISTING /tmp/ccffpNMU.s 			page 86


 4438              		.cfi_def_cfa_offset 96
 4439 0207 83C701   		addl	$1, %edi
 4440              	.LVL287:
 4441              		.loc 1 321 7 is_stmt 0 view .LVU925
 4442 020a E8FCFFFF 		call	clASetTargetPosition@PLT
 4442      FF
 4443              	.LVL288:
 4444 020f 83C410   		addl	$16, %esp
 4445              		.cfi_def_cfa_offset 80
 4446              		.loc 1 311 4 view .LVU926
 4447 0212 83FF08   		cmpl	$8, %edi
 4448 0215 75D3     		jne	.L121
 4449              	.L134:
 4450              	.LVL289:
 4451              		.loc 1 311 4 view .LVU927
 4452 0217 83C601   		addl	$1, %esi
 4453              	.LVL290:
 4454              		.loc 1 311 4 view .LVU928
 4455              	.LBE926:
 4456              		.loc 1 310 3 discriminator 2 view .LVU929
 4457 021a 83FE03   		cmpl	$3, %esi
 4458 021d 7593     		jne	.L125
 4459              	.LBE925:
 4460              		.loc 1 330 3 is_stmt 1 view .LVU930
 4461              	.LVL291:
 4462              	.LBB928:
 4463              	.LBI928:
 4464              		.loc 2 282 20 view .LVU931
 4465              	.LBB929:
 4466              		.loc 2 284 3 view .LVU932
 4467              	.LBB930:
 4468              	.LBI930:
 4469              		.loc 3 353 20 view .LVU933
 4470              	.LBE930:
 4471              	.LBE929:
 4472              	.LBE928:
 4473              		.loc 3 355 3 view .LVU934
 4474              	.LBB950:
 4475              	.LBB946:
 4476              	.LBB933:
 4477              	.LBB931:
 4478              	.LBI931:
 4479              		.loc 4 362 20 view .LVU935
 4480              	.LBB932:
 4481              		.loc 4 364 3 view .LVU936
 4482              		.loc 4 364 16 is_stmt 0 view .LVU937
 4483 021f 8B44242C 		movl	44(%esp), %eax
 4484 0223 C7000100 		movl	$1, (%eax)
 4484      0000
 4485              	.LBE932:
 4486              	.LBE931:
 4487              	.LBE933:
 4488              	.LBE946:
 4489              	.LBE950:
 4490              		.loc 3 356 34 is_stmt 1 view .LVU938
 4491              		.loc 3 357 20 view .LVU939
 4492              	.LBB951:
GAS LISTING /tmp/ccffpNMU.s 			page 87


 4493              	.LBB947:
 4494              		.loc 2 285 3 view .LVU940
 4495              	.LVL292:
 4496              	.LBB934:
 4497              	.LBI934:
 4498              		.loc 2 266 20 view .LVU941
 4499              	.LBB935:
 4500              		.loc 2 268 21 view .LVU942
 4501              		.loc 2 270 3 view .LVU943
 4502              		.loc 2 270 6 is_stmt 0 view .LVU944
 4503 0229 8B442454 		movl	84(%esp), %eax
 4504 022d 8B4008   		movl	8(%eax), %eax
 4505 0230 85C0     		testl	%eax, %eax
 4506 0232 0F8EBF00 		jle	.L136
 4506      0000
 4507              	.L123:
 4508              	.LVL293:
 4509              		.loc 2 270 6 view .LVU945
 4510              	.LBE935:
 4511              	.LBE934:
 4512              		.loc 2 286 3 is_stmt 1 view .LVU946
 4513 0238 E8FCFFFF 		call	chSchRescheduleS@PLT
 4513      FF
 4514              	.LVL294:
 4515              		.loc 2 287 3 view .LVU947
 4516              	.LBB937:
 4517              	.LBI937:
 4518              		.loc 3 365 20 view .LVU948
 4519              	.LBB938:
 4520              		.loc 3 367 22 view .LVU949
 4521              		.loc 3 368 33 view .LVU950
 4522              		.loc 3 374 3 view .LVU951
 4523              		.loc 3 374 3 view .LVU952
 4524              		.loc 3 378 3 view .LVU953
 4525              	.LBB939:
 4526              	.LBI939:
 4527              		.loc 4 371 20 view .LVU954
 4528              	.LBB940:
 4529              		.loc 4 373 3 view .LVU955
 4530              		.loc 4 373 16 is_stmt 0 view .LVU956
 4531 023d 8B44242C 		movl	44(%esp), %eax
 4532              	.LBE940:
 4533              	.LBE939:
 4534              	.LBE938:
 4535              	.LBE937:
 4536              	.LBE947:
 4537              	.LBE951:
 4538              	.LBB952:
 4539              	.LBB953:
 4540              		.loc 2 143 10 view .LVU957
 4541 0241 83EC0C   		subl	$12, %esp
 4542              		.cfi_def_cfa_offset 92
 4543              	.LBE953:
 4544              	.LBE952:
 4545              	.LBB955:
 4546              	.LBB948:
 4547              	.LBB944:
GAS LISTING /tmp/ccffpNMU.s 			page 88


 4548              	.LBB943:
 4549              	.LBB942:
 4550              	.LBB941:
 4551              		.loc 4 373 16 view .LVU958
 4552 0244 C7000000 		movl	$0, (%eax)
 4552      0000
 4553              	.LVL295:
 4554              		.loc 4 373 16 view .LVU959
 4555              	.LBE941:
 4556              	.LBE942:
 4557              	.LBE943:
 4558              	.LBE944:
 4559              	.LBE948:
 4560              	.LBE955:
 4561              		.loc 1 331 3 is_stmt 1 view .LVU960
 4562              		.loc 1 332 3 view .LVU961
 4563              	.LBB956:
 4564              	.LBI952:
 4565              		.loc 2 141 21 view .LVU962
 4566              	.LBB954:
 4567              		.loc 2 143 3 view .LVU963
 4568              		.loc 2 143 10 is_stmt 0 view .LVU964
 4569 024a FF74245C 		pushl	92(%esp)
 4570              		.cfi_def_cfa_offset 96
 4571 024e E8FCFFFF 		call	chSemWait@PLT
 4571      FF
 4572              	.LVL296:
 4573              		.loc 2 143 10 view .LVU965
 4574              	.LBE954:
 4575              	.LBE956:
 4576              		.loc 1 333 3 is_stmt 1 view .LVU966
 4577 0253 C70424D0 		movl	$2000, (%esp)
 4577      070000
 4578 025a E8FCFFFF 		call	chThdSleep@PLT
 4578      FF
 4579              	.LVL297:
 4580              		.loc 1 333 3 is_stmt 0 view .LVU967
 4581 025f 8B442420 		movl	32(%esp), %eax
 4582 0263 8944241C 		movl	%eax, 28(%esp)
 4583              		.loc 1 308 8 view .LVU968
 4584 0267 83C410   		addl	$16, %esp
 4585              		.cfi_def_cfa_offset 80
 4586 026a 85C0     		testl	%eax, %eax
 4587 026c 0F85F3FE 		jne	.L115
 4587      FFFF
 4588              		.loc 1 336 1 view .LVU969
 4589 0272 83C43C   		addl	$60, %esp
 4590              		.cfi_remember_state
 4591              		.cfi_def_cfa_offset 20
 4592 0275 5B       		popl	%ebx
 4593              		.cfi_restore 3
 4594              		.cfi_def_cfa_offset 16
 4595 0276 5E       		popl	%esi
 4596              		.cfi_restore 6
 4597              		.cfi_def_cfa_offset 12
 4598 0277 5F       		popl	%edi
 4599              		.cfi_restore 7
GAS LISTING /tmp/ccffpNMU.s 			page 89


 4600              		.cfi_def_cfa_offset 8
 4601 0278 5D       		popl	%ebp
 4602              		.cfi_restore 5
 4603              		.cfi_def_cfa_offset 4
 4604 0279 C3       		ret
 4605              	.LVL298:
 4606 027a 8DB60000 		.p2align 4,,10
 4606      0000
 4607              		.p2align 3
 4608              	.L109:
 4609              		.cfi_restore_state
 4610              	.LBB957:
 4611              	.LBB894:
 4612              		.loc 1 287 7 is_stmt 1 view .LVU970
 4613 0280 FF742410 		pushl	16(%esp)
 4614              		.cfi_def_cfa_offset 84
 4615 0284 FF742410 		pushl	16(%esp)
 4616              		.cfi_def_cfa_offset 88
 4617 0288 56       		pushl	%esi
 4618              		.cfi_def_cfa_offset 92
 4619 0289 57       		pushl	%edi
 4620              		.cfi_def_cfa_offset 96
 4621 028a E8FCFFFF 		call	clASetTargetPosition@PLT
 4621      FF
 4622              	.LVL299:
 4623 028f 83C410   		addl	$16, %esp
 4624              		.cfi_def_cfa_offset 80
 4625 0292 E93BFEFF 		jmp	.L110
 4625      FF
 4626 0297 8DB42600 		.p2align 4,,10
 4626      00000066 
 4626      90
 4627              		.p2align 3
 4628              	.L111:
 4629              		.loc 1 294 7 view .LVU971
 4630 02a0 FF742420 		pushl	32(%esp)
 4631              		.cfi_def_cfa_offset 84
 4632 02a4 FF742418 		pushl	24(%esp)
 4633              		.cfi_def_cfa_offset 88
 4634 02a8 56       		pushl	%esi
 4635              		.cfi_def_cfa_offset 92
 4636 02a9 57       		pushl	%edi
 4637              		.cfi_def_cfa_offset 96
 4638 02aa E8FCFFFF 		call	clASetTargetPosition@PLT
 4638      FF
 4639              	.LVL300:
 4640 02af 83C410   		addl	$16, %esp
 4641              		.cfi_def_cfa_offset 80
 4642 02b2 E91BFEFF 		jmp	.L110
 4642      FF
 4643              	.LVL301:
 4644 02b7 8DB42600 		.p2align 4,,10
 4644      00000066 
 4644      90
 4645              		.p2align 3
 4646              	.L118:
 4647              		.loc 1 294 7 is_stmt 0 view .LVU972
GAS LISTING /tmp/ccffpNMU.s 			page 90


 4648              	.LBE894:
 4649              	.LBE957:
 4650              	.LBB958:
 4651              	.LBB927:
 4652              		.loc 1 317 7 is_stmt 1 view .LVU973
 4653 02c0 FF742428 		pushl	40(%esp)
 4654              		.cfi_def_cfa_offset 84
 4655 02c4 FF742410 		pushl	16(%esp)
 4656              		.cfi_def_cfa_offset 88
 4657 02c8 56       		pushl	%esi
 4658              		.cfi_def_cfa_offset 92
 4659 02c9 57       		pushl	%edi
 4660              		.cfi_def_cfa_offset 96
 4661 02ca E8FCFFFF 		call	clASetTargetPosition@PLT
 4661      FF
 4662              	.LVL302:
 4663 02cf 83C410   		addl	$16, %esp
 4664              		.cfi_def_cfa_offset 80
 4665 02d2 E90BFFFF 		jmp	.L119
 4665      FF
 4666 02d7 8DB42600 		.p2align 4,,10
 4666      00000066 
 4666      90
 4667              		.p2align 3
 4668              	.L120:
 4669              		.loc 1 324 7 view .LVU974
 4670 02e0 FF742420 		pushl	32(%esp)
 4671              		.cfi_def_cfa_offset 84
 4672 02e4 FF742418 		pushl	24(%esp)
 4673              		.cfi_def_cfa_offset 88
 4674 02e8 56       		pushl	%esi
 4675              		.cfi_def_cfa_offset 92
 4676 02e9 57       		pushl	%edi
 4677              		.cfi_def_cfa_offset 96
 4678 02ea E8FCFFFF 		call	clASetTargetPosition@PLT
 4678      FF
 4679              	.LVL303:
 4680 02ef 83C410   		addl	$16, %esp
 4681              		.cfi_def_cfa_offset 80
 4682 02f2 E9EBFEFF 		jmp	.L119
 4682      FF
 4683              	.LVL304:
 4684              	.L136:
 4685              		.loc 1 324 7 is_stmt 0 view .LVU975
 4686              	.LBE927:
 4687              	.LBE958:
 4688              	.LBB959:
 4689              	.LBB949:
 4690              	.LBB945:
 4691              	.LBB936:
 4692              		.loc 2 271 5 is_stmt 1 view .LVU976
 4693 02f7 83EC0C   		subl	$12, %esp
 4694              		.cfi_def_cfa_offset 92
 4695 02fa FF742460 		pushl	96(%esp)
 4696              		.cfi_def_cfa_offset 96
 4697 02fe E8FCFFFF 		call	chSemSignalI@PLT
 4697      FF
GAS LISTING /tmp/ccffpNMU.s 			page 91


 4698              	.LVL305:
 4699 0303 83C410   		addl	$16, %esp
 4700              		.cfi_def_cfa_offset 80
 4701 0306 E92DFFFF 		jmp	.L123
 4701      FF
 4702              	.LVL306:
 4703              	.L133:
 4704              		.loc 2 271 5 is_stmt 0 view .LVU977
 4705              	.LBE936:
 4706              	.LBE945:
 4707              	.LBE949:
 4708              	.LBE959:
 4709              	.LBB960:
 4710              	.LBB916:
 4711              	.LBB912:
 4712              	.LBB903:
 4713              		.loc 2 271 5 is_stmt 1 view .LVU978
 4714 030b 83EC0C   		subl	$12, %esp
 4715              		.cfi_def_cfa_offset 92
 4716 030e FF742460 		pushl	96(%esp)
 4717              		.cfi_def_cfa_offset 96
 4718 0312 E8FCFFFF 		call	chSemSignalI@PLT
 4718      FF
 4719              	.LVL307:
 4720              		.loc 2 271 5 is_stmt 0 view .LVU979
 4721 0317 83C410   		addl	$16, %esp
 4722              		.cfi_def_cfa_offset 80
 4723 031a E909FEFF 		jmp	.L114
 4723      FF
 4724              	.LVL308:
 4725              	.L130:
 4726              		.loc 2 271 5 view .LVU980
 4727              	.LBE903:
 4728              	.LBE912:
 4729              	.LBE916:
 4730              	.LBE960:
 4731              	.LBB961:
 4732              	.LBB881:
 4733              	.LBB877:
 4734              	.LBB868:
 4735              		.loc 2 271 5 is_stmt 1 view .LVU981
 4736 031f 83EC0C   		subl	$12, %esp
 4737              		.cfi_def_cfa_offset 92
 4738 0322 FF742460 		pushl	96(%esp)
 4739              		.cfi_def_cfa_offset 96
 4740 0326 E8FCFFFF 		call	chSemSignalI@PLT
 4740      FF
 4741              	.LVL309:
 4742              		.loc 2 271 5 is_stmt 0 view .LVU982
 4743 032b 83C410   		addl	$16, %esp
 4744              		.cfi_def_cfa_offset 80
 4745 032e E9FEFCFF 		jmp	.L106
 4745      FF
 4746              	.LBE868:
 4747              	.LBE877:
 4748              	.LBE881:
 4749              	.LBE961:
GAS LISTING /tmp/ccffpNMU.s 			page 92


 4750              		.cfi_endproc
 4751              	.LFE230:
 4752              		.size	aniSquares, .-aniSquares
 4753              		.section	.text.aniStairs,"ax",@progbits
 4754              		.p2align 4,,15
 4755              		.globl	aniStairs
 4756              		.type	aniStairs, @function
 4757              	aniStairs:
 4758              	.LVL310:
 4759              	.LFB231:
 4760              		.loc 1 338 90 is_stmt 1 view -0
 4761              		.cfi_startproc
 4762              		.loc 1 338 90 is_stmt 0 view .LVU984
 4763 0000 55       		pushl	%ebp
 4764              		.cfi_def_cfa_offset 8
 4765              		.cfi_offset 5, -8
 4766 0001 57       		pushl	%edi
 4767              		.cfi_def_cfa_offset 12
 4768              		.cfi_offset 7, -12
 4769 0002 56       		pushl	%esi
 4770              		.cfi_def_cfa_offset 16
 4771              		.cfi_offset 6, -16
 4772              	.LBB1033:
 4773              	.LBB1034:
 4774              		.loc 2 143 10 view .LVU985
 4775 0003 31F6     		xorl	%esi, %esi
 4776              	.LBE1034:
 4777              	.LBE1033:
 4778              		.loc 1 338 90 view .LVU986
 4779 0005 53       		pushl	%ebx
 4780              		.cfi_def_cfa_offset 20
 4781              		.cfi_offset 3, -20
 4782 0006 E8FCFFFF 		call	__x86.get_pc_thunk.bx
 4782      FF
 4783 000b 81C30200 		addl	$_GLOBAL_OFFSET_TABLE_, %ebx
 4783      0000
 4784 0011 83EC18   		subl	$24, %esp
 4785              		.cfi_def_cfa_offset 44
 4786              		.loc 1 339 2 is_stmt 1 view .LVU987
 4787              	.LVL311:
 4788              		.loc 1 340 2 view .LVU988
 4789              		.loc 1 342 2 view .LVU989
 4790              	.LBB1038:
 4791              	.LBI1033:
 4792              		.loc 2 141 21 view .LVU990
 4793              	.LBB1035:
 4794              		.loc 2 143 3 view .LVU991
 4795              		.loc 2 143 10 is_stmt 0 view .LVU992
 4796 0014 FF74242C 		pushl	44(%esp)
 4797              		.cfi_def_cfa_offset 48
 4798 0018 E8FCFFFF 		call	chSemWait@PLT
 4798      FF
 4799              	.LVL312:
 4800              		.loc 2 143 10 view .LVU993
 4801              	.LBE1035:
 4802              	.LBE1038:
 4803              		.loc 1 344 2 is_stmt 1 view .LVU994
GAS LISTING /tmp/ccffpNMU.s 			page 93


 4804              	.LBB1039:
 4805              		.loc 1 344 7 view .LVU995
 4806              		.loc 1 344 7 is_stmt 0 view .LVU996
 4807              	.LBE1039:
 4808              	.LBB1041:
 4809              	.LBB1036:
 4810              		.loc 2 143 10 view .LVU997
 4811 001d 83C410   		addl	$16, %esp
 4812              		.cfi_def_cfa_offset 32
 4813              	.LVL313:
 4814              	.L138:
 4815              		.loc 2 143 10 view .LVU998
 4816 0020 89F5     		movl	%esi, %ebp
 4817              	.LBE1036:
 4818              	.LBE1041:
 4819              		.loc 1 338 90 view .LVU999
 4820 0022 31FF     		xorl	%edi, %edi
 4821 0024 83E501   		andl	$1, %ebp
 4822 0027 EB27     		jmp	.L143
 4823              	.LVL314:
 4824 0029 8DB42600 		.p2align 4,,10
 4824      000000
 4825              		.p2align 3
 4826              	.L166:
 4827              	.LBB1042:
 4828              	.LBB1040:
 4829              		.loc 1 347 5 is_stmt 1 view .LVU1000
 4830              		.loc 1 347 8 is_stmt 0 view .LVU1001
 4831 0030 84D2     		testb	%dl, %dl
 4832 0032 742B     		je	.L164
 4833              	.LVL315:
 4834              	.L142:
 4835              		.loc 1 357 6 is_stmt 1 view .LVU1002
 4836 0034 68000400 		pushl	$1024
 4836      00
 4837              		.cfi_def_cfa_offset 36
 4838 0039 68000200 		pushl	$512
 4838      00
 4839              		.cfi_def_cfa_offset 40
 4840 003e 56       		pushl	%esi
 4841              		.cfi_def_cfa_offset 44
 4842 003f 57       		pushl	%edi
 4843              		.cfi_def_cfa_offset 48
 4844 0040 83C701   		addl	$1, %edi
 4845              	.LVL316:
 4846              		.loc 1 357 6 is_stmt 0 view .LVU1003
 4847 0043 E8FCFFFF 		call	clASetTargetPosition@PLT
 4847      FF
 4848              	.LVL317:
 4849 0048 83C410   		addl	$16, %esp
 4850              		.cfi_def_cfa_offset 32
 4851              		.loc 1 345 3 view .LVU1004
 4852 004b 83FF08   		cmpl	$8, %edi
 4853 004e 7428     		je	.L165
 4854              	.L143:
 4855              	.LVL318:
 4856              		.loc 1 346 4 is_stmt 1 view .LVU1005
GAS LISTING /tmp/ccffpNMU.s 			page 94


 4857 0050 89FA     		movl	%edi, %edx
 4858              		.loc 1 346 7 is_stmt 0 view .LVU1006
 4859 0052 89E8     		movl	%ebp, %eax
 4860 0054 83E201   		andl	$1, %edx
 4861 0057 84C0     		testb	%al, %al
 4862 0059 75D5     		jne	.L166
 4863              		.loc 1 353 5 is_stmt 1 view .LVU1007
 4864              		.loc 1 353 8 is_stmt 0 view .LVU1008
 4865 005b 84D2     		testb	%dl, %dl
 4866 005d 74D5     		je	.L142
 4867              	.LVL319:
 4868              	.L164:
 4869              		.loc 1 354 6 is_stmt 1 view .LVU1009
 4870 005f 68000600 		pushl	$1536
 4870      00
 4871              		.cfi_def_cfa_offset 36
 4872 0064 6A00     		pushl	$0
 4873              		.cfi_def_cfa_offset 40
 4874 0066 56       		pushl	%esi
 4875              		.cfi_def_cfa_offset 44
 4876 0067 57       		pushl	%edi
 4877              		.cfi_def_cfa_offset 48
 4878 0068 83C701   		addl	$1, %edi
 4879 006b E8FCFFFF 		call	clASetTargetPosition@PLT
 4879      FF
 4880              	.LVL320:
 4881 0070 83C410   		addl	$16, %esp
 4882              		.cfi_def_cfa_offset 32
 4883              		.loc 1 345 3 is_stmt 0 view .LVU1010
 4884 0073 83FF08   		cmpl	$8, %edi
 4885 0076 75D8     		jne	.L143
 4886              	.L165:
 4887              	.LVL321:
 4888              		.loc 1 345 3 view .LVU1011
 4889 0078 83C601   		addl	$1, %esi
 4890              	.LVL322:
 4891              		.loc 1 345 3 view .LVU1012
 4892              	.LBE1040:
 4893              		.loc 1 344 2 discriminator 2 view .LVU1013
 4894 007b 83FE03   		cmpl	$3, %esi
 4895 007e 75A0     		jne	.L138
 4896              	.LBE1042:
 4897              		.loc 1 363 2 is_stmt 1 view .LVU1014
 4898              	.LVL323:
 4899              	.LBB1043:
 4900              	.LBI1043:
 4901              		.loc 2 282 20 view .LVU1015
 4902              	.LBB1044:
 4903              		.loc 2 284 3 view .LVU1016
 4904              	.LBB1045:
 4905              	.LBI1045:
 4906              		.loc 3 353 20 view .LVU1017
 4907              	.LBE1045:
 4908              	.LBE1044:
 4909              	.LBE1043:
 4910              		.loc 3 355 3 view .LVU1018
 4911              	.LBB1075:
GAS LISTING /tmp/ccffpNMU.s 			page 95


 4912              	.LBB1071:
 4913              	.LBB1052:
 4914              	.LBB1046:
 4915              	.LBI1046:
 4916              		.loc 4 362 20 view .LVU1019
 4917              	.LBB1047:
 4918              		.loc 4 364 3 view .LVU1020
 4919              	.LBE1047:
 4920              	.LBE1046:
 4921              	.LBE1052:
 4922              	.LBB1053:
 4923              	.LBB1054:
 4924              		.loc 2 270 6 is_stmt 0 view .LVU1021
 4925 0080 8B442424 		movl	36(%esp), %eax
 4926              	.LBE1054:
 4927              	.LBE1053:
 4928              	.LBB1058:
 4929              	.LBB1050:
 4930              	.LBB1048:
 4931              		.loc 4 364 16 view .LVU1022
 4932 0084 8BAB0000 		movl	port_irq_sts@GOT(%ebx), %ebp
 4932      0000
 4933              	.LBE1048:
 4934              	.LBE1050:
 4935              	.LBE1058:
 4936              	.LBB1059:
 4937              	.LBB1055:
 4938              		.loc 2 270 6 view .LVU1023
 4939 008a 8B7808   		movl	8(%eax), %edi
 4940              	.LBE1055:
 4941              	.LBE1059:
 4942              	.LBB1060:
 4943              	.LBB1051:
 4944              	.LBB1049:
 4945              		.loc 4 364 16 view .LVU1024
 4946 008d C7450001 		movl	$1, 0(%ebp)
 4946      000000
 4947              	.LBE1049:
 4948              	.LBE1051:
 4949              	.LBE1060:
 4950              	.LBE1071:
 4951              	.LBE1075:
 4952              		.loc 3 356 34 is_stmt 1 view .LVU1025
 4953              		.loc 3 357 20 view .LVU1026
 4954              	.LBB1076:
 4955              	.LBB1072:
 4956              		.loc 2 285 3 view .LVU1027
 4957              	.LVL324:
 4958              	.LBB1061:
 4959              	.LBI1053:
 4960              		.loc 2 266 20 view .LVU1028
 4961              	.LBB1056:
 4962              		.loc 2 268 21 view .LVU1029
 4963              		.loc 2 270 3 view .LVU1030
 4964              		.loc 2 270 6 is_stmt 0 view .LVU1031
 4965 0094 85FF     		testl	%edi, %edi
 4966 0096 0F8E4601 		jle	.L167
GAS LISTING /tmp/ccffpNMU.s 			page 96


 4966      0000
 4967              	.L145:
 4968              	.LVL325:
 4969              		.loc 2 270 6 view .LVU1032
 4970              	.LBE1056:
 4971              	.LBE1061:
 4972              		.loc 2 286 3 is_stmt 1 view .LVU1033
 4973 009c E8FCFFFF 		call	chSchRescheduleS@PLT
 4973      FF
 4974              	.LVL326:
 4975              		.loc 2 287 3 view .LVU1034
 4976              	.LBB1062:
 4977              	.LBI1062:
 4978              		.loc 3 365 20 view .LVU1035
 4979              	.LBB1063:
 4980              		.loc 3 367 22 view .LVU1036
 4981              		.loc 3 368 33 view .LVU1037
 4982              		.loc 3 374 3 view .LVU1038
 4983              		.loc 3 374 3 view .LVU1039
 4984              		.loc 3 378 3 view .LVU1040
 4985              	.LBB1064:
 4986              	.LBI1064:
 4987              		.loc 4 371 20 view .LVU1041
 4988              	.LBB1065:
 4989              		.loc 4 373 3 view .LVU1042
 4990              	.LBE1065:
 4991              	.LBE1064:
 4992              	.LBE1063:
 4993              	.LBE1062:
 4994              	.LBE1072:
 4995              	.LBE1076:
 4996              	.LBB1077:
 4997              	.LBB1078:
 4998              		.loc 2 143 10 is_stmt 0 view .LVU1043
 4999 00a1 83EC0C   		subl	$12, %esp
 5000              		.cfi_def_cfa_offset 44
 5001              	.LBE1078:
 5002              	.LBE1077:
 5003              	.LBB1082:
 5004              	.LBB1073:
 5005              	.LBB1069:
 5006              	.LBB1068:
 5007              	.LBB1067:
 5008              	.LBB1066:
 5009              		.loc 4 373 16 view .LVU1044
 5010 00a4 C7450000 		movl	$0, 0(%ebp)
 5010      000000
 5011              	.LVL327:
 5012              		.loc 4 373 16 view .LVU1045
 5013              	.LBE1066:
 5014              	.LBE1067:
 5015              	.LBE1068:
 5016              	.LBE1069:
 5017              	.LBE1073:
 5018              	.LBE1082:
 5019              		.loc 1 364 2 is_stmt 1 view .LVU1046
 5020              	.LBB1083:
GAS LISTING /tmp/ccffpNMU.s 			page 97


 5021              	.LBI1077:
 5022              		.loc 2 141 21 view .LVU1047
 5023              	.LBB1079:
 5024              		.loc 2 143 3 view .LVU1048
 5025              		.loc 2 143 10 is_stmt 0 view .LVU1049
 5026 00ab 31F6     		xorl	%esi, %esi
 5027 00ad FF74242C 		pushl	44(%esp)
 5028              		.cfi_def_cfa_offset 48
 5029 00b1 E8FCFFFF 		call	chSemWait@PLT
 5029      FF
 5030              	.LVL328:
 5031              		.loc 2 143 10 view .LVU1050
 5032              	.LBE1079:
 5033              	.LBE1083:
 5034              		.loc 1 366 2 is_stmt 1 view .LVU1051
 5035              	.LBB1084:
 5036              		.loc 1 366 7 view .LVU1052
 5037              		.loc 1 366 7 is_stmt 0 view .LVU1053
 5038              	.LBE1084:
 5039              	.LBB1086:
 5040              	.LBB1080:
 5041              		.loc 2 143 10 view .LVU1054
 5042 00b6 83C410   		addl	$16, %esp
 5043              		.cfi_def_cfa_offset 32
 5044              	.LVL329:
 5045              	.L146:
 5046              		.loc 2 143 10 view .LVU1055
 5047              	.LBE1080:
 5048              	.LBE1086:
 5049              	.LBB1087:
 5050              	.LBB1037:
 5051 00b9 31FF     		xorl	%edi, %edi
 5052              	.LVL330:
 5053 00bb 8D742600 		.p2align 4,,10
 5053      90
 5054              		.p2align 3
 5055              	.L147:
 5056              		.loc 2 143 10 view .LVU1056
 5057              	.LBE1037:
 5058              	.LBE1087:
 5059              	.LBB1088:
 5060              	.LBB1085:
 5061              		.loc 1 368 4 is_stmt 1 discriminator 3 view .LVU1057
 5062 00c0 68000200 		pushl	$512
 5062      00
 5063              		.cfi_def_cfa_offset 36
 5064 00c5 68000200 		pushl	$512
 5064      00
 5065              		.cfi_def_cfa_offset 40
 5066 00ca 56       		pushl	%esi
 5067              		.cfi_def_cfa_offset 44
 5068 00cb 57       		pushl	%edi
 5069              		.cfi_def_cfa_offset 48
 5070 00cc 83C701   		addl	$1, %edi
 5071              	.LVL331:
 5072              		.loc 1 368 4 is_stmt 0 discriminator 3 view .LVU1058
 5073 00cf E8FCFFFF 		call	clASetTargetRelative@PLT
GAS LISTING /tmp/ccffpNMU.s 			page 98


 5073      FF
 5074              	.LVL332:
 5075              		.loc 1 367 3 discriminator 3 view .LVU1059
 5076 00d4 83C410   		addl	$16, %esp
 5077              		.cfi_def_cfa_offset 32
 5078 00d7 83FF08   		cmpl	$8, %edi
 5079 00da 75E4     		jne	.L147
 5080              	.LVL333:
 5081              		.loc 1 367 3 discriminator 3 view .LVU1060
 5082 00dc 83C601   		addl	$1, %esi
 5083              	.LVL334:
 5084              		.loc 1 367 3 discriminator 3 view .LVU1061
 5085              	.LBE1085:
 5086              		.loc 1 366 2 discriminator 2 view .LVU1062
 5087 00df 83FE03   		cmpl	$3, %esi
 5088 00e2 75D5     		jne	.L146
 5089              	.LBE1088:
 5090              		.loc 1 371 2 is_stmt 1 view .LVU1063
 5091              	.LVL335:
 5092              	.LBB1089:
 5093              	.LBI1089:
 5094              		.loc 2 282 20 view .LVU1064
 5095              	.LBB1090:
 5096              		.loc 2 284 3 view .LVU1065
 5097              	.LBB1091:
 5098              	.LBI1091:
 5099              		.loc 3 353 20 view .LVU1066
 5100              	.LBE1091:
 5101              	.LBE1090:
 5102              	.LBE1089:
 5103              		.loc 3 355 3 view .LVU1067
 5104              	.LBB1116:
 5105              	.LBB1112:
 5106              	.LBB1096:
 5107              	.LBB1092:
 5108              	.LBI1092:
 5109              		.loc 4 362 20 view .LVU1068
 5110              	.LBB1093:
 5111              		.loc 4 364 3 view .LVU1069
 5112              	.LBE1093:
 5113              	.LBE1092:
 5114              	.LBE1096:
 5115              	.LBB1097:
 5116              	.LBB1098:
 5117              		.loc 2 270 6 is_stmt 0 view .LVU1070
 5118 00e4 8B442424 		movl	36(%esp), %eax
 5119              	.LBE1098:
 5120              	.LBE1097:
 5121              	.LBB1101:
 5122              	.LBB1095:
 5123              	.LBB1094:
 5124              		.loc 4 364 16 view .LVU1071
 5125 00e8 C7450001 		movl	$1, 0(%ebp)
 5125      000000
 5126              	.LBE1094:
 5127              	.LBE1095:
 5128              	.LBE1101:
GAS LISTING /tmp/ccffpNMU.s 			page 99


 5129              	.LBE1112:
 5130              	.LBE1116:
 5131              		.loc 3 356 34 is_stmt 1 view .LVU1072
 5132              		.loc 3 357 20 view .LVU1073
 5133              	.LBB1117:
 5134              	.LBB1113:
 5135              		.loc 2 285 3 view .LVU1074
 5136              	.LVL336:
 5137              	.LBB1102:
 5138              	.LBI1097:
 5139              		.loc 2 266 20 view .LVU1075
 5140              	.LBB1099:
 5141              		.loc 2 268 21 view .LVU1076
 5142              		.loc 2 270 3 view .LVU1077
 5143              		.loc 2 270 6 is_stmt 0 view .LVU1078
 5144 00ef 8B7008   		movl	8(%eax), %esi
 5145 00f2 85F6     		testl	%esi, %esi
 5146 00f4 0F8E3501 		jle	.L168
 5146      0000
 5147              	.L149:
 5148              	.LVL337:
 5149              		.loc 2 270 6 view .LVU1079
 5150              	.LBE1099:
 5151              	.LBE1102:
 5152              		.loc 2 286 3 is_stmt 1 view .LVU1080
 5153 00fa E8FCFFFF 		call	chSchRescheduleS@PLT
 5153      FF
 5154              	.LVL338:
 5155              		.loc 2 287 3 view .LVU1081
 5156              	.LBB1103:
 5157              	.LBI1103:
 5158              		.loc 3 365 20 view .LVU1082
 5159              	.LBB1104:
 5160              		.loc 3 367 22 view .LVU1083
 5161              		.loc 3 368 33 view .LVU1084
 5162              		.loc 3 374 3 view .LVU1085
 5163              		.loc 3 374 3 view .LVU1086
 5164              		.loc 3 378 3 view .LVU1087
 5165              	.LBB1105:
 5166              	.LBI1105:
 5167              		.loc 4 371 20 view .LVU1088
 5168              	.LBB1106:
 5169              		.loc 4 373 3 view .LVU1089
 5170              	.LBE1106:
 5171              	.LBE1105:
 5172              	.LBE1104:
 5173              	.LBE1103:
 5174              	.LBE1113:
 5175              	.LBE1117:
 5176              	.LBB1118:
 5177              	.LBB1119:
 5178              		.loc 2 143 10 is_stmt 0 view .LVU1090
 5179 00ff 83EC0C   		subl	$12, %esp
 5180              		.cfi_def_cfa_offset 44
 5181              	.LBE1119:
 5182              	.LBE1118:
 5183              	.LBB1123:
GAS LISTING /tmp/ccffpNMU.s 			page 100


 5184              	.LBB1114:
 5185              	.LBB1110:
 5186              	.LBB1109:
 5187              	.LBB1108:
 5188              	.LBB1107:
 5189              		.loc 4 373 16 view .LVU1091
 5190 0102 C7450000 		movl	$0, 0(%ebp)
 5190      000000
 5191              	.LVL339:
 5192              		.loc 4 373 16 view .LVU1092
 5193              	.LBE1107:
 5194              	.LBE1108:
 5195              	.LBE1109:
 5196              	.LBE1110:
 5197              	.LBE1114:
 5198              	.LBE1123:
 5199              		.loc 1 372 2 is_stmt 1 view .LVU1093
 5200              	.LBB1124:
 5201              	.LBI1118:
 5202              		.loc 2 141 21 view .LVU1094
 5203              	.LBB1120:
 5204              		.loc 2 143 3 view .LVU1095
 5205              		.loc 2 143 10 is_stmt 0 view .LVU1096
 5206 0109 31F6     		xorl	%esi, %esi
 5207 010b FF74242C 		pushl	44(%esp)
 5208              		.cfi_def_cfa_offset 48
 5209 010f E8FCFFFF 		call	chSemWait@PLT
 5209      FF
 5210              	.LVL340:
 5211              		.loc 2 143 10 view .LVU1097
 5212              	.LBE1120:
 5213              	.LBE1124:
 5214              		.loc 1 374 2 is_stmt 1 view .LVU1098
 5215              	.LBB1125:
 5216              		.loc 1 374 7 view .LVU1099
 5217              		.loc 1 374 7 is_stmt 0 view .LVU1100
 5218              	.LBE1125:
 5219              	.LBB1127:
 5220              	.LBB1121:
 5221              		.loc 2 143 10 view .LVU1101
 5222 0114 83C410   		addl	$16, %esp
 5223              		.cfi_def_cfa_offset 32
 5224              	.LVL341:
 5225              	.L150:
 5226              		.loc 2 143 10 view .LVU1102
 5227              	.LBE1121:
 5228              	.LBE1127:
 5229              	.LBB1128:
 5230              	.LBB1081:
 5231 0117 31FF     		xorl	%edi, %edi
 5232              	.LVL342:
 5233 0119 8DB42600 		.p2align 4,,10
 5233      000000
 5234              		.p2align 3
 5235              	.L151:
 5236              		.loc 2 143 10 view .LVU1103
 5237              	.LBE1081:
GAS LISTING /tmp/ccffpNMU.s 			page 101


 5238              	.LBE1128:
 5239              	.LBB1129:
 5240              	.LBB1126:
 5241              		.loc 1 376 4 is_stmt 1 discriminator 3 view .LVU1104
 5242 0120 68000200 		pushl	$512
 5242      00
 5243              		.cfi_def_cfa_offset 36
 5244 0125 68000200 		pushl	$512
 5244      00
 5245              		.cfi_def_cfa_offset 40
 5246 012a 56       		pushl	%esi
 5247              		.cfi_def_cfa_offset 44
 5248 012b 57       		pushl	%edi
 5249              		.cfi_def_cfa_offset 48
 5250 012c 83C701   		addl	$1, %edi
 5251              	.LVL343:
 5252              		.loc 1 376 4 is_stmt 0 discriminator 3 view .LVU1105
 5253 012f E8FCFFFF 		call	clASetTargetRelative@PLT
 5253      FF
 5254              	.LVL344:
 5255              		.loc 1 375 3 discriminator 3 view .LVU1106
 5256 0134 83C410   		addl	$16, %esp
 5257              		.cfi_def_cfa_offset 32
 5258 0137 83FF08   		cmpl	$8, %edi
 5259 013a 75E4     		jne	.L151
 5260              	.LVL345:
 5261              		.loc 1 375 3 discriminator 3 view .LVU1107
 5262 013c 83C601   		addl	$1, %esi
 5263              	.LVL346:
 5264              		.loc 1 375 3 discriminator 3 view .LVU1108
 5265              	.LBE1126:
 5266              		.loc 1 374 2 discriminator 2 view .LVU1109
 5267 013f 83FE03   		cmpl	$3, %esi
 5268 0142 75D3     		jne	.L150
 5269              	.LBE1129:
 5270              		.loc 1 379 2 is_stmt 1 view .LVU1110
 5271              	.LVL347:
 5272              	.LBB1130:
 5273              	.LBI1130:
 5274              		.loc 2 282 20 view .LVU1111
 5275              	.LBB1131:
 5276              		.loc 2 284 3 view .LVU1112
 5277              	.LBB1132:
 5278              	.LBI1132:
 5279              		.loc 3 353 20 view .LVU1113
 5280              	.LBE1132:
 5281              	.LBE1131:
 5282              	.LBE1130:
 5283              		.loc 3 355 3 view .LVU1114
 5284              	.LBB1148:
 5285              	.LBB1145:
 5286              	.LBB1137:
 5287              	.LBB1133:
 5288              	.LBI1133:
 5289              		.loc 4 362 20 view .LVU1115
 5290              	.LBB1134:
 5291              		.loc 4 364 3 view .LVU1116
GAS LISTING /tmp/ccffpNMU.s 			page 102


 5292              	.LBE1134:
 5293              	.LBE1133:
 5294              	.LBE1137:
 5295              	.LBB1138:
 5296              	.LBB1139:
 5297              		.loc 2 270 6 is_stmt 0 view .LVU1117
 5298 0144 8B442424 		movl	36(%esp), %eax
 5299              	.LBE1139:
 5300              	.LBE1138:
 5301              	.LBB1142:
 5302              	.LBB1136:
 5303              	.LBB1135:
 5304              		.loc 4 364 16 view .LVU1118
 5305 0148 C7450001 		movl	$1, 0(%ebp)
 5305      000000
 5306              	.LBE1135:
 5307              	.LBE1136:
 5308              	.LBE1142:
 5309              	.LBE1145:
 5310              	.LBE1148:
 5311              		.loc 3 356 34 is_stmt 1 view .LVU1119
 5312              		.loc 3 357 20 view .LVU1120
 5313              	.LBB1149:
 5314              	.LBB1146:
 5315              		.loc 2 285 3 view .LVU1121
 5316              	.LVL348:
 5317              	.LBB1143:
 5318              	.LBI1138:
 5319              		.loc 2 266 20 view .LVU1122
 5320              	.LBB1140:
 5321              		.loc 2 268 21 view .LVU1123
 5322              		.loc 2 270 3 view .LVU1124
 5323              		.loc 2 270 6 is_stmt 0 view .LVU1125
 5324 014f 8B4808   		movl	8(%eax), %ecx
 5325 0152 85C9     		testl	%ecx, %ecx
 5326 0154 0F8EC100 		jle	.L169
 5326      0000
 5327              	.L153:
 5328              	.LVL349:
 5329              		.loc 2 270 6 view .LVU1126
 5330              	.LBE1140:
 5331              	.LBE1143:
 5332              		.loc 2 286 3 is_stmt 1 view .LVU1127
 5333 015a E8FCFFFF 		call	chSchRescheduleS@PLT
 5333      FF
 5334              	.LVL350:
 5335              		.loc 2 287 3 view .LVU1128
 5336              	.LBE1146:
 5337              	.LBE1149:
 5338              		.loc 3 367 22 view .LVU1129
 5339              		.loc 3 368 33 view .LVU1130
 5340              		.loc 3 374 3 view .LVU1131
 5341              		.loc 3 374 3 view .LVU1132
 5342              		.loc 3 378 3 view .LVU1133
 5343              		.loc 4 373 3 view .LVU1134
 5344              		.loc 1 380 2 view .LVU1135
 5345              	.LBB1150:
GAS LISTING /tmp/ccffpNMU.s 			page 103


 5346              	.LBI1150:
 5347              		.loc 2 282 20 view .LVU1136
 5348              	.LBB1151:
 5349              		.loc 2 284 3 view .LVU1137
 5350              	.LBB1152:
 5351              	.LBI1152:
 5352              		.loc 3 353 20 view .LVU1138
 5353              	.LBE1152:
 5354              	.LBE1151:
 5355              	.LBE1150:
 5356              		.loc 3 355 3 view .LVU1139
 5357              	.LBB1177:
 5358              	.LBB1173:
 5359              	.LBB1157:
 5360              	.LBB1153:
 5361              	.LBI1153:
 5362              		.loc 4 362 20 view .LVU1140
 5363              	.LBB1154:
 5364              		.loc 4 364 3 view .LVU1141
 5365              	.LBE1154:
 5366              	.LBE1153:
 5367              	.LBE1157:
 5368              	.LBB1158:
 5369              	.LBB1159:
 5370              		.loc 2 270 6 is_stmt 0 view .LVU1142
 5371 015f 8B442424 		movl	36(%esp), %eax
 5372              	.LBE1159:
 5373              	.LBE1158:
 5374              	.LBB1162:
 5375              	.LBB1156:
 5376              	.LBB1155:
 5377              		.loc 4 364 16 view .LVU1143
 5378 0163 C7450001 		movl	$1, 0(%ebp)
 5378      000000
 5379              	.LBE1155:
 5380              	.LBE1156:
 5381              	.LBE1162:
 5382              	.LBE1173:
 5383              	.LBE1177:
 5384              		.loc 3 356 34 is_stmt 1 view .LVU1144
 5385              		.loc 3 357 20 view .LVU1145
 5386              	.LBB1178:
 5387              	.LBB1174:
 5388              		.loc 2 285 3 view .LVU1146
 5389              	.LVL351:
 5390              	.LBB1163:
 5391              	.LBI1158:
 5392              		.loc 2 266 20 view .LVU1147
 5393              	.LBB1160:
 5394              		.loc 2 268 21 view .LVU1148
 5395              		.loc 2 270 3 view .LVU1149
 5396              		.loc 2 270 6 is_stmt 0 view .LVU1150
 5397 016a 8B5008   		movl	8(%eax), %edx
 5398 016d 85D2     		testl	%edx, %edx
 5399 016f 0F8E9200 		jle	.L170
 5399      0000
 5400              	.L154:
GAS LISTING /tmp/ccffpNMU.s 			page 104


 5401              	.LVL352:
 5402              		.loc 2 270 6 view .LVU1151
 5403              	.LBE1160:
 5404              	.LBE1163:
 5405              		.loc 2 286 3 is_stmt 1 view .LVU1152
 5406 0175 E8FCFFFF 		call	chSchRescheduleS@PLT
 5406      FF
 5407              	.LVL353:
 5408              		.loc 2 287 3 view .LVU1153
 5409              	.LBB1164:
 5410              	.LBI1164:
 5411              		.loc 3 365 20 view .LVU1154
 5412              	.LBB1165:
 5413              		.loc 3 367 22 view .LVU1155
 5414              		.loc 3 368 33 view .LVU1156
 5415              		.loc 3 374 3 view .LVU1157
 5416              		.loc 3 374 3 view .LVU1158
 5417              		.loc 3 378 3 view .LVU1159
 5418              	.LBB1166:
 5419              	.LBI1166:
 5420              		.loc 4 371 20 view .LVU1160
 5421              	.LBB1167:
 5422              		.loc 4 373 3 view .LVU1161
 5423              	.LBE1167:
 5424              	.LBE1166:
 5425              	.LBE1165:
 5426              	.LBE1164:
 5427              	.LBE1174:
 5428              	.LBE1178:
 5429              	.LBB1179:
 5430              	.LBB1180:
 5431              		.loc 2 143 10 is_stmt 0 view .LVU1162
 5432 017a 83EC0C   		subl	$12, %esp
 5433              		.cfi_def_cfa_offset 44
 5434              	.LBE1180:
 5435              	.LBE1179:
 5436              	.LBB1183:
 5437              	.LBB1175:
 5438              	.LBB1171:
 5439              	.LBB1170:
 5440              	.LBB1169:
 5441              	.LBB1168:
 5442              		.loc 4 373 16 view .LVU1163
 5443 017d C7450000 		movl	$0, 0(%ebp)
 5443      000000
 5444              	.LVL354:
 5445              		.loc 4 373 16 view .LVU1164
 5446              	.LBE1168:
 5447              	.LBE1169:
 5448              	.LBE1170:
 5449              	.LBE1171:
 5450              	.LBE1175:
 5451              	.LBE1183:
 5452              		.loc 1 381 2 is_stmt 1 view .LVU1165
 5453              	.LBB1184:
 5454              	.LBI1179:
 5455              		.loc 2 141 21 view .LVU1166
GAS LISTING /tmp/ccffpNMU.s 			page 105


 5456              	.LBB1181:
 5457              		.loc 2 143 3 view .LVU1167
 5458              		.loc 2 143 10 is_stmt 0 view .LVU1168
 5459 0184 31F6     		xorl	%esi, %esi
 5460 0186 FF74242C 		pushl	44(%esp)
 5461              		.cfi_def_cfa_offset 48
 5462 018a E8FCFFFF 		call	chSemWait@PLT
 5462      FF
 5463              	.LVL355:
 5464              		.loc 2 143 10 view .LVU1169
 5465              	.LBE1181:
 5466              	.LBE1184:
 5467              		.loc 1 383 2 is_stmt 1 view .LVU1170
 5468              	.LBB1185:
 5469              		.loc 1 383 7 view .LVU1171
 5470              		.loc 1 383 7 is_stmt 0 view .LVU1172
 5471              	.LBE1185:
 5472              	.LBB1187:
 5473              	.LBB1182:
 5474              		.loc 2 143 10 view .LVU1173
 5475 018f 83C410   		addl	$16, %esp
 5476              		.cfi_def_cfa_offset 32
 5477              	.LVL356:
 5478              	.L155:
 5479              		.loc 2 143 10 view .LVU1174
 5480              	.LBE1182:
 5481              	.LBE1187:
 5482              	.LBB1188:
 5483              	.LBB1122:
 5484 0192 31FF     		xorl	%edi, %edi
 5485              	.LVL357:
 5486              		.p2align 4,,10
 5487 0194 8D742600 		.p2align 3
 5488              	.L156:
 5489              		.loc 2 143 10 view .LVU1175
 5490              	.LBE1122:
 5491              	.LBE1188:
 5492              	.LBB1189:
 5493              	.LBB1186:
 5494              		.loc 1 385 4 is_stmt 1 discriminator 3 view .LVU1176
 5495 0198 68000200 		pushl	$512
 5495      00
 5496              		.cfi_def_cfa_offset 36
 5497 019d 68000200 		pushl	$512
 5497      00
 5498              		.cfi_def_cfa_offset 40
 5499 01a2 56       		pushl	%esi
 5500              		.cfi_def_cfa_offset 44
 5501 01a3 57       		pushl	%edi
 5502              		.cfi_def_cfa_offset 48
 5503 01a4 83C701   		addl	$1, %edi
 5504              	.LVL358:
 5505              		.loc 1 385 4 is_stmt 0 discriminator 3 view .LVU1177
 5506 01a7 E8FCFFFF 		call	clASetTargetRelative@PLT
 5506      FF
 5507              	.LVL359:
 5508              		.loc 1 384 3 discriminator 3 view .LVU1178
GAS LISTING /tmp/ccffpNMU.s 			page 106


 5509 01ac 83C410   		addl	$16, %esp
 5510              		.cfi_def_cfa_offset 32
 5511 01af 83FF08   		cmpl	$8, %edi
 5512 01b2 75E4     		jne	.L156
 5513              	.LVL360:
 5514              		.loc 1 384 3 discriminator 3 view .LVU1179
 5515 01b4 83C601   		addl	$1, %esi
 5516              	.LVL361:
 5517              		.loc 1 384 3 discriminator 3 view .LVU1180
 5518              	.LBE1186:
 5519              		.loc 1 383 2 discriminator 2 view .LVU1181
 5520 01b7 83FE03   		cmpl	$3, %esi
 5521 01ba 75D6     		jne	.L155
 5522              	.LBE1189:
 5523              		.loc 1 388 2 is_stmt 1 view .LVU1182
 5524              	.LVL362:
 5525              	.LBB1190:
 5526              	.LBI1190:
 5527              		.loc 2 282 20 view .LVU1183
 5528              	.LBB1191:
 5529              		.loc 2 284 3 view .LVU1184
 5530              	.LBB1192:
 5531              	.LBI1192:
 5532              		.loc 3 353 20 view .LVU1185
 5533              	.LBE1192:
 5534              	.LBE1191:
 5535              	.LBE1190:
 5536              		.loc 3 355 3 view .LVU1186
 5537              	.LBB1212:
 5538              	.LBB1209:
 5539              	.LBB1197:
 5540              	.LBB1193:
 5541              	.LBI1193:
 5542              		.loc 4 362 20 view .LVU1187
 5543              	.LBB1194:
 5544              		.loc 4 364 3 view .LVU1188
 5545              	.LBE1194:
 5546              	.LBE1193:
 5547              	.LBE1197:
 5548              	.LBB1198:
 5549              	.LBB1199:
 5550              		.loc 2 270 6 is_stmt 0 view .LVU1189
 5551 01bc 8B442424 		movl	36(%esp), %eax
 5552              	.LBE1199:
 5553              	.LBE1198:
 5554              	.LBB1202:
 5555              	.LBB1196:
 5556              	.LBB1195:
 5557              		.loc 4 364 16 view .LVU1190
 5558 01c0 C7450001 		movl	$1, 0(%ebp)
 5558      000000
 5559              	.LBE1195:
 5560              	.LBE1196:
 5561              	.LBE1202:
 5562              	.LBE1209:
 5563              	.LBE1212:
 5564              		.loc 3 356 34 is_stmt 1 view .LVU1191
GAS LISTING /tmp/ccffpNMU.s 			page 107


 5565              		.loc 3 357 20 view .LVU1192
 5566              	.LBB1213:
 5567              	.LBB1210:
 5568              		.loc 2 285 3 view .LVU1193
 5569              	.LVL363:
 5570              	.LBB1203:
 5571              	.LBI1198:
 5572              		.loc 2 266 20 view .LVU1194
 5573              	.LBB1200:
 5574              		.loc 2 268 21 view .LVU1195
 5575              		.loc 2 270 3 view .LVU1196
 5576              		.loc 2 270 6 is_stmt 0 view .LVU1197
 5577 01c7 8B4008   		movl	8(%eax), %eax
 5578 01ca 85C0     		testl	%eax, %eax
 5579 01cc 7E28     		jle	.L171
 5580              	.L158:
 5581              	.LVL364:
 5582              		.loc 2 270 6 view .LVU1198
 5583              	.LBE1200:
 5584              	.LBE1203:
 5585              		.loc 2 286 3 is_stmt 1 view .LVU1199
 5586 01ce E8FCFFFF 		call	chSchRescheduleS@PLT
 5586      FF
 5587              	.LVL365:
 5588              		.loc 2 287 3 view .LVU1200
 5589              	.LBB1204:
 5590              	.LBI1204:
 5591              		.loc 3 365 20 view .LVU1201
 5592              	.LBB1205:
 5593              		.loc 3 367 22 view .LVU1202
 5594              		.loc 3 368 33 view .LVU1203
 5595              		.loc 3 374 3 view .LVU1204
 5596              		.loc 3 374 3 view .LVU1205
 5597              		.loc 3 378 3 view .LVU1206
 5598              	.LBB1206:
 5599              	.LBI1206:
 5600              		.loc 4 371 20 view .LVU1207
 5601              	.LBB1207:
 5602              		.loc 4 373 3 view .LVU1208
 5603              		.loc 4 373 16 is_stmt 0 view .LVU1209
 5604 01d3 C7450000 		movl	$0, 0(%ebp)
 5604      000000
 5605              	.LVL366:
 5606              		.loc 4 373 16 view .LVU1210
 5607              	.LBE1207:
 5608              	.LBE1206:
 5609              	.LBE1205:
 5610              	.LBE1204:
 5611              	.LBE1210:
 5612              	.LBE1213:
 5613              		.loc 1 390 1 view .LVU1211
 5614 01da 83C40C   		addl	$12, %esp
 5615              		.cfi_remember_state
 5616              		.cfi_def_cfa_offset 20
 5617 01dd 5B       		popl	%ebx
 5618              		.cfi_restore 3
 5619              		.cfi_def_cfa_offset 16
GAS LISTING /tmp/ccffpNMU.s 			page 108


 5620 01de 5E       		popl	%esi
 5621              		.cfi_restore 6
 5622              		.cfi_def_cfa_offset 12
 5623 01df 5F       		popl	%edi
 5624              		.cfi_restore 7
 5625              		.cfi_def_cfa_offset 8
 5626 01e0 5D       		popl	%ebp
 5627              		.cfi_restore 5
 5628              		.cfi_def_cfa_offset 4
 5629 01e1 C3       		ret
 5630              	.LVL367:
 5631              	.L167:
 5632              		.cfi_restore_state
 5633              	.LBB1214:
 5634              	.LBB1074:
 5635              	.LBB1070:
 5636              	.LBB1057:
 5637              		.loc 2 271 5 is_stmt 1 view .LVU1212
 5638 01e2 83EC0C   		subl	$12, %esp
 5639              		.cfi_def_cfa_offset 44
 5640 01e5 FF742430 		pushl	48(%esp)
 5641              		.cfi_def_cfa_offset 48
 5642 01e9 E8FCFFFF 		call	chSemSignalI@PLT
 5642      FF
 5643              	.LVL368:
 5644              		.loc 2 271 5 is_stmt 0 view .LVU1213
 5645 01ee 83C410   		addl	$16, %esp
 5646              		.cfi_def_cfa_offset 32
 5647 01f1 E9A6FEFF 		jmp	.L145
 5647      FF
 5648              	.LVL369:
 5649              	.L171:
 5650              		.loc 2 271 5 view .LVU1214
 5651              	.LBE1057:
 5652              	.LBE1070:
 5653              	.LBE1074:
 5654              	.LBE1214:
 5655              	.LBB1215:
 5656              	.LBB1211:
 5657              	.LBB1208:
 5658              	.LBB1201:
 5659              		.loc 2 271 5 is_stmt 1 view .LVU1215
 5660 01f6 83EC0C   		subl	$12, %esp
 5661              		.cfi_def_cfa_offset 44
 5662 01f9 FF742430 		pushl	48(%esp)
 5663              		.cfi_def_cfa_offset 48
 5664 01fd E8FCFFFF 		call	chSemSignalI@PLT
 5664      FF
 5665              	.LVL370:
 5666 0202 83C410   		addl	$16, %esp
 5667              		.cfi_def_cfa_offset 32
 5668 0205 EBC7     		jmp	.L158
 5669              	.LVL371:
 5670              	.L170:
 5671              		.loc 2 271 5 is_stmt 0 view .LVU1216
 5672              	.LBE1201:
 5673              	.LBE1208:
GAS LISTING /tmp/ccffpNMU.s 			page 109


 5674              	.LBE1211:
 5675              	.LBE1215:
 5676              	.LBB1216:
 5677              	.LBB1176:
 5678              	.LBB1172:
 5679              	.LBB1161:
 5680              		.loc 2 271 5 is_stmt 1 view .LVU1217
 5681 0207 83EC0C   		subl	$12, %esp
 5682              		.cfi_def_cfa_offset 44
 5683 020a FF742430 		pushl	48(%esp)
 5684              		.cfi_def_cfa_offset 48
 5685 020e E8FCFFFF 		call	chSemSignalI@PLT
 5685      FF
 5686              	.LVL372:
 5687              		.loc 2 271 5 is_stmt 0 view .LVU1218
 5688 0213 83C410   		addl	$16, %esp
 5689              		.cfi_def_cfa_offset 32
 5690 0216 E95AFFFF 		jmp	.L154
 5690      FF
 5691              	.LVL373:
 5692              	.L169:
 5693              		.loc 2 271 5 view .LVU1219
 5694              	.LBE1161:
 5695              	.LBE1172:
 5696              	.LBE1176:
 5697              	.LBE1216:
 5698              	.LBB1217:
 5699              	.LBB1147:
 5700              	.LBB1144:
 5701              	.LBB1141:
 5702              		.loc 2 271 5 is_stmt 1 view .LVU1220
 5703 021b 83EC0C   		subl	$12, %esp
 5704              		.cfi_def_cfa_offset 44
 5705 021e FF742430 		pushl	48(%esp)
 5706              		.cfi_def_cfa_offset 48
 5707 0222 E8FCFFFF 		call	chSemSignalI@PLT
 5707      FF
 5708              	.LVL374:
 5709              		.loc 2 271 5 is_stmt 0 view .LVU1221
 5710 0227 83C410   		addl	$16, %esp
 5711              		.cfi_def_cfa_offset 32
 5712 022a E92BFFFF 		jmp	.L153
 5712      FF
 5713              	.LVL375:
 5714              	.L168:
 5715              		.loc 2 271 5 view .LVU1222
 5716              	.LBE1141:
 5717              	.LBE1144:
 5718              	.LBE1147:
 5719              	.LBE1217:
 5720              	.LBB1218:
 5721              	.LBB1115:
 5722              	.LBB1111:
 5723              	.LBB1100:
 5724              		.loc 2 271 5 is_stmt 1 view .LVU1223
 5725 022f 83EC0C   		subl	$12, %esp
 5726              		.cfi_def_cfa_offset 44
GAS LISTING /tmp/ccffpNMU.s 			page 110


 5727 0232 FF742430 		pushl	48(%esp)
 5728              		.cfi_def_cfa_offset 48
 5729 0236 E8FCFFFF 		call	chSemSignalI@PLT
 5729      FF
 5730              	.LVL376:
 5731              		.loc 2 271 5 is_stmt 0 view .LVU1224
 5732 023b 83C410   		addl	$16, %esp
 5733              		.cfi_def_cfa_offset 32
 5734 023e E9B7FEFF 		jmp	.L149
 5734      FF
 5735              	.LBE1100:
 5736              	.LBE1111:
 5737              	.LBE1115:
 5738              	.LBE1218:
 5739              		.cfi_endproc
 5740              	.LFE231:
 5741              		.size	aniStairs, .-aniStairs
 5742              		.section	.text.aniFlower,"ax",@progbits
 5743              		.p2align 4,,15
 5744              		.globl	aniFlower
 5745              		.type	aniFlower, @function
 5746              	aniFlower:
 5747              	.LVL377:
 5748              	.LFB232:
 5749              		.loc 1 391 90 is_stmt 1 view -0
 5750              		.cfi_startproc
 5751              		.loc 1 391 90 is_stmt 0 view .LVU1226
 5752 0000 55       		pushl	%ebp
 5753              		.cfi_def_cfa_offset 8
 5754              		.cfi_offset 5, -8
 5755 0001 57       		pushl	%edi
 5756              		.cfi_def_cfa_offset 12
 5757              		.cfi_offset 7, -12
 5758 0002 56       		pushl	%esi
 5759              		.cfi_def_cfa_offset 16
 5760              		.cfi_offset 6, -16
 5761 0003 53       		pushl	%ebx
 5762              		.cfi_def_cfa_offset 20
 5763              		.cfi_offset 3, -20
 5764 0004 E8FCFFFF 		call	__x86.get_pc_thunk.bx
 5764      FF
 5765 0009 81C30200 		addl	$_GLOBAL_OFFSET_TABLE_, %ebx
 5765      0000
 5766 000f 83EC28   		subl	$40, %esp
 5767              		.cfi_def_cfa_offset 60
 5768              		.loc 1 392 2 is_stmt 1 view .LVU1227
 5769              	.LVL378:
 5770              		.loc 1 393 2 view .LVU1228
 5771              		.loc 1 395 2 view .LVU1229
 5772              	.LBB1246:
 5773              	.LBI1246:
 5774              		.loc 2 141 21 view .LVU1230
 5775              	.LBB1247:
 5776              		.loc 2 143 3 view .LVU1231
 5777              	.LBE1247:
 5778              	.LBE1246:
 5779              		.loc 1 391 90 is_stmt 0 view .LVU1232
GAS LISTING /tmp/ccffpNMU.s 			page 111


 5780 0012 8B74243C 		movl	60(%esp), %esi
 5781              	.LBB1249:
 5782              	.LBB1248:
 5783              		.loc 2 143 10 view .LVU1233
 5784 0016 56       		pushl	%esi
 5785              		.cfi_def_cfa_offset 64
 5786 0017 E8FCFFFF 		call	chSemWait@PLT
 5786      FF
 5787              	.LVL379:
 5788              		.loc 2 143 10 view .LVU1234
 5789              	.LBE1248:
 5790              	.LBE1249:
 5791              		.loc 1 397 2 is_stmt 1 view .LVU1235
 5792 001c 5A       		popl	%edx
 5793              		.cfi_def_cfa_offset 60
 5794 001d 59       		popl	%ecx
 5795              		.cfi_def_cfa_offset 56
 5796 001e 6800FEFF 		pushl	$-512
 5796      FF
 5797              		.cfi_def_cfa_offset 60
 5798 0023 68000200 		pushl	$512
 5798      00
 5799              		.cfi_def_cfa_offset 64
 5800 0028 E8FCFFFF 		call	clASetAllTargetpostion@PLT
 5800      FF
 5801              	.LVL380:
 5802              		.loc 1 398 2 view .LVU1236
 5803              	.LBB1250:
 5804              	.LBI1250:
 5805              		.loc 2 282 20 view .LVU1237
 5806              	.LBB1251:
 5807              		.loc 2 284 3 view .LVU1238
 5808              	.LBB1252:
 5809              	.LBI1252:
 5810              		.loc 3 353 20 view .LVU1239
 5811              	.LBE1252:
 5812              	.LBE1251:
 5813              	.LBE1250:
 5814              		.loc 3 355 3 view .LVU1240
 5815              	.LBB1282:
 5816              	.LBB1278:
 5817              	.LBB1259:
 5818              	.LBB1253:
 5819              	.LBI1253:
 5820              		.loc 4 362 20 view .LVU1241
 5821              	.LBB1254:
 5822              		.loc 4 364 3 view .LVU1242
 5823              	.LBE1254:
 5824              	.LBE1253:
 5825              	.LBE1259:
 5826              	.LBB1260:
 5827              	.LBB1261:
 5828              		.loc 2 270 6 is_stmt 0 view .LVU1243
 5829 002d 83C410   		addl	$16, %esp
 5830              		.cfi_def_cfa_offset 48
 5831 0030 8B442434 		movl	52(%esp), %eax
 5832              	.LBE1261:
GAS LISTING /tmp/ccffpNMU.s 			page 112


 5833              	.LBE1260:
 5834              	.LBB1265:
 5835              	.LBB1257:
 5836              	.LBB1255:
 5837              		.loc 4 364 16 view .LVU1244
 5838 0034 8BAB0000 		movl	port_irq_sts@GOT(%ebx), %ebp
 5838      0000
 5839              	.LBE1255:
 5840              	.LBE1257:
 5841              	.LBE1265:
 5842              	.LBB1266:
 5843              	.LBB1262:
 5844              		.loc 2 270 6 view .LVU1245
 5845 003a 8B7808   		movl	8(%eax), %edi
 5846              	.LBE1262:
 5847              	.LBE1266:
 5848              	.LBB1267:
 5849              	.LBB1258:
 5850              	.LBB1256:
 5851              		.loc 4 364 16 view .LVU1246
 5852 003d C7450001 		movl	$1, 0(%ebp)
 5852      000000
 5853              	.LBE1256:
 5854              	.LBE1258:
 5855              	.LBE1267:
 5856              	.LBE1278:
 5857              	.LBE1282:
 5858              		.loc 3 356 34 is_stmt 1 view .LVU1247
 5859              		.loc 3 357 20 view .LVU1248
 5860              	.LBB1283:
 5861              	.LBB1279:
 5862              		.loc 2 285 3 view .LVU1249
 5863              	.LBB1268:
 5864              	.LBI1260:
 5865              		.loc 2 266 20 view .LVU1250
 5866              	.LBB1263:
 5867              		.loc 2 268 21 view .LVU1251
 5868              		.loc 2 270 3 view .LVU1252
 5869              		.loc 2 270 6 is_stmt 0 view .LVU1253
 5870 0044 85FF     		testl	%edi, %edi
 5871 0046 0F8E7C01 		jle	.L178
 5871      0000
 5872              	.L173:
 5873              		.loc 2 270 6 view .LVU1254
 5874              	.LBE1263:
 5875              	.LBE1268:
 5876              		.loc 2 286 3 is_stmt 1 view .LVU1255
 5877 004c E8FCFFFF 		call	chSchRescheduleS@PLT
 5877      FF
 5878              	.LVL381:
 5879              		.loc 2 287 3 view .LVU1256
 5880              	.LBB1269:
 5881              	.LBI1269:
 5882              		.loc 3 365 20 view .LVU1257
 5883              	.LBB1270:
 5884              		.loc 3 367 22 view .LVU1258
 5885              		.loc 3 368 33 view .LVU1259
GAS LISTING /tmp/ccffpNMU.s 			page 113


 5886              		.loc 3 374 3 view .LVU1260
 5887              		.loc 3 374 3 view .LVU1261
 5888              		.loc 3 378 3 view .LVU1262
 5889              	.LBB1271:
 5890              	.LBI1271:
 5891              		.loc 4 371 20 view .LVU1263
 5892              	.LBB1272:
 5893              		.loc 4 373 3 view .LVU1264
 5894              	.LBE1272:
 5895              	.LBE1271:
 5896              	.LBE1270:
 5897              	.LBE1269:
 5898              	.LBE1279:
 5899              	.LBE1283:
 5900              	.LBB1284:
 5901              	.LBB1285:
 5902              		.loc 2 143 10 is_stmt 0 view .LVU1265
 5903 0051 83EC0C   		subl	$12, %esp
 5904              		.cfi_def_cfa_offset 60
 5905              	.LBE1285:
 5906              	.LBE1284:
 5907              	.LBB1288:
 5908              	.LBB1280:
 5909              	.LBB1276:
 5910              	.LBB1275:
 5911              	.LBB1274:
 5912              	.LBB1273:
 5913              		.loc 4 373 16 view .LVU1266
 5914 0054 C7450000 		movl	$0, 0(%ebp)
 5914      000000
 5915              	.LVL382:
 5916              		.loc 4 373 16 view .LVU1267
 5917              	.LBE1273:
 5918              	.LBE1274:
 5919              	.LBE1275:
 5920              	.LBE1276:
 5921              	.LBE1280:
 5922              	.LBE1288:
 5923              		.loc 1 400 2 is_stmt 1 view .LVU1268
 5924              	.LBB1289:
 5925              	.LBI1284:
 5926              		.loc 2 141 21 view .LVU1269
 5927              	.LBB1286:
 5928              		.loc 2 143 3 view .LVU1270
 5929              		.loc 2 143 10 is_stmt 0 view .LVU1271
 5930 005b 56       		pushl	%esi
 5931              		.cfi_def_cfa_offset 64
 5932 005c BE030000 		movl	$3, %esi
 5932      00
 5933 0061 E8FCFFFF 		call	chSemWait@PLT
 5933      FF
 5934              	.LVL383:
 5935              		.loc 2 143 10 view .LVU1272
 5936              	.LBE1286:
 5937              	.LBE1289:
 5938              		.loc 1 401 2 is_stmt 1 view .LVU1273
 5939              		.loc 1 402 2 view .LVU1274
GAS LISTING /tmp/ccffpNMU.s 			page 114


 5940              	.LBB1290:
 5941              		.loc 1 402 7 view .LVU1275
 5942              		.loc 1 402 7 is_stmt 0 view .LVU1276
 5943              	.LBE1290:
 5944              		.loc 1 401 8 view .LVU1277
 5945 0066 D9830000 		flds	.LC2@GOTOFF(%ebx)
 5945      0000
 5946              	.LBB1291:
 5947              	.LBB1287:
 5948              		.loc 2 143 10 view .LVU1278
 5949 006c 83C410   		addl	$16, %esp
 5950              		.cfi_def_cfa_offset 48
 5951              	.LVL384:
 5952              	.L174:
 5953              		.loc 2 143 10 view .LVU1279
 5954              	.LBE1287:
 5955              	.LBE1291:
 5956              	.LBB1292:
 5957              		.loc 1 403 3 is_stmt 1 discriminator 3 view .LVU1280
 5958 006f 83EC08   		subl	$8, %esp
 5959              		.cfi_def_cfa_offset 56
 5960 0072 BF070000 		movl	$7, %edi
 5960      00
 5961 0077 D9542404 		fsts	4(%esp)
 5962 007b 29F7     		subl	%esi, %edi
 5963 007d D91424   		fsts	(%esp)
 5964 0080 D95C2414 		fstps	20(%esp)
 5965 0084 6A01     		pushl	$1
 5966              		.cfi_def_cfa_offset 60
 5967 0086 56       		pushl	%esi
 5968              		.cfi_def_cfa_offset 64
 5969 0087 E8FCFFFF 		call	clASetMaxSpeed@PLT
 5969      FF
 5970              	.LVL385:
 5971              		.loc 1 404 3 discriminator 3 view .LVU1281
 5972 008c D944241C 		flds	28(%esp)
 5973 0090 83EC08   		subl	$8, %esp
 5974              		.cfi_def_cfa_offset 72
 5975 0093 D9542404 		fsts	4(%esp)
 5976 0097 D91424   		fsts	(%esp)
 5977 009a D95C2424 		fstps	36(%esp)
 5978              	.LVL386:
 5979              		.loc 1 404 3 is_stmt 0 discriminator 3 view .LVU1282
 5980 009e 6A01     		pushl	$1
 5981              		.cfi_def_cfa_offset 76
 5982 00a0 57       		pushl	%edi
 5983              		.cfi_def_cfa_offset 80
 5984 00a1 E8FCFFFF 		call	clASetMaxSpeed@PLT
 5984      FF
 5985              	.LVL387:
 5986              		.loc 1 405 3 is_stmt 1 discriminator 3 view .LVU1283
 5987 00a6 83C420   		addl	$32, %esp
 5988              		.cfi_def_cfa_offset 48
 5989 00a9 6800EEFF 		pushl	$-4608
 5989      FF
 5990              		.cfi_def_cfa_offset 52
 5991 00ae 68001200 		pushl	$4608
GAS LISTING /tmp/ccffpNMU.s 			page 115


 5991      00
 5992              		.cfi_def_cfa_offset 56
 5993 00b3 6A01     		pushl	$1
 5994              		.cfi_def_cfa_offset 60
 5995 00b5 56       		pushl	%esi
 5996              		.cfi_def_cfa_offset 64
 5997 00b6 E8FCFFFF 		call	clASetTargetPosition@PLT
 5997      FF
 5998              	.LVL388:
 5999              		.loc 1 406 3 discriminator 3 view .LVU1284
 6000 00bb 68000E00 		pushl	$3584
 6000      00
 6001              		.cfi_def_cfa_offset 68
 6002 00c0 6800F2FF 		pushl	$-3584
 6002      FF
 6003              		.cfi_def_cfa_offset 72
 6004 00c5 6A01     		pushl	$1
 6005              		.cfi_def_cfa_offset 76
 6006 00c7 57       		pushl	%edi
 6007              		.cfi_def_cfa_offset 80
 6008 00c8 E8FCFFFF 		call	clASetTargetPosition@PLT
 6008      FF
 6009              	.LVL389:
 6010              		.loc 1 407 3 discriminator 3 view .LVU1285
 6011 00cd D944242C 		flds	44(%esp)
 6012 00d1 D8A30000 		fsubs	.LC3@GOTOFF(%ebx)
 6012      0000
 6013 00d7 83C418   		addl	$24, %esp
 6014              		.cfi_def_cfa_offset 56
 6015 00da D9542404 		fsts	4(%esp)
 6016 00de D91424   		fsts	(%esp)
 6017 00e1 D95C2414 		fstps	20(%esp)
 6018 00e5 6A00     		pushl	$0
 6019              		.cfi_def_cfa_offset 60
 6020 00e7 56       		pushl	%esi
 6021              		.cfi_def_cfa_offset 64
 6022 00e8 E8FCFFFF 		call	clASetMaxSpeed@PLT
 6022      FF
 6023              	.LVL390:
 6024              		.loc 1 408 3 discriminator 3 view .LVU1286
 6025 00ed D944241C 		flds	28(%esp)
 6026 00f1 83EC08   		subl	$8, %esp
 6027              		.cfi_def_cfa_offset 72
 6028 00f4 D9542404 		fsts	4(%esp)
 6029 00f8 D91424   		fsts	(%esp)
 6030 00fb D95C2424 		fstps	36(%esp)
 6031 00ff 6A00     		pushl	$0
 6032              		.cfi_def_cfa_offset 76
 6033 0101 57       		pushl	%edi
 6034              		.cfi_def_cfa_offset 80
 6035 0102 E8FCFFFF 		call	clASetMaxSpeed@PLT
 6035      FF
 6036              	.LVL391:
 6037              		.loc 1 409 3 discriminator 3 view .LVU1287
 6038 0107 83C420   		addl	$32, %esp
 6039              		.cfi_def_cfa_offset 48
 6040 010a 6800EEFF 		pushl	$-4608
GAS LISTING /tmp/ccffpNMU.s 			page 116


 6040      FF
 6041              		.cfi_def_cfa_offset 52
 6042 010f 68001200 		pushl	$4608
 6042      00
 6043              		.cfi_def_cfa_offset 56
 6044 0114 6A00     		pushl	$0
 6045              		.cfi_def_cfa_offset 60
 6046 0116 56       		pushl	%esi
 6047              		.cfi_def_cfa_offset 64
 6048 0117 E8FCFFFF 		call	clASetTargetPosition@PLT
 6048      FF
 6049              	.LVL392:
 6050              		.loc 1 410 3 discriminator 3 view .LVU1288
 6051 011c 68000E00 		pushl	$3584
 6051      00
 6052              		.cfi_def_cfa_offset 68
 6053 0121 6800F2FF 		pushl	$-3584
 6053      FF
 6054              		.cfi_def_cfa_offset 72
 6055 0126 6A00     		pushl	$0
 6056              		.cfi_def_cfa_offset 76
 6057 0128 57       		pushl	%edi
 6058              		.cfi_def_cfa_offset 80
 6059 0129 E8FCFFFF 		call	clASetTargetPosition@PLT
 6059      FF
 6060              	.LVL393:
 6061              		.loc 1 411 3 discriminator 3 view .LVU1289
 6062 012e 83C418   		addl	$24, %esp
 6063              		.cfi_def_cfa_offset 56
 6064 0131 D9442414 		flds	20(%esp)
 6065 0135 D9542404 		fsts	4(%esp)
 6066 0139 D91424   		fsts	(%esp)
 6067 013c D95C2414 		fstps	20(%esp)
 6068 0140 6A02     		pushl	$2
 6069              		.cfi_def_cfa_offset 60
 6070 0142 56       		pushl	%esi
 6071              		.cfi_def_cfa_offset 64
 6072 0143 E8FCFFFF 		call	clASetMaxSpeed@PLT
 6072      FF
 6073              	.LVL394:
 6074              		.loc 1 412 3 discriminator 3 view .LVU1290
 6075 0148 D944241C 		flds	28(%esp)
 6076 014c 83EC08   		subl	$8, %esp
 6077              		.cfi_def_cfa_offset 72
 6078 014f D9542404 		fsts	4(%esp)
 6079 0153 D91424   		fsts	(%esp)
 6080 0156 D95C2424 		fstps	36(%esp)
 6081 015a 6A02     		pushl	$2
 6082              		.cfi_def_cfa_offset 76
 6083 015c 57       		pushl	%edi
 6084              		.cfi_def_cfa_offset 80
 6085 015d E8FCFFFF 		call	clASetMaxSpeed@PLT
 6085      FF
 6086              	.LVL395:
 6087              		.loc 1 413 3 discriminator 3 view .LVU1291
 6088 0162 83C420   		addl	$32, %esp
 6089              		.cfi_def_cfa_offset 48
GAS LISTING /tmp/ccffpNMU.s 			page 117


 6090 0165 6800EEFF 		pushl	$-4608
 6090      FF
 6091              		.cfi_def_cfa_offset 52
 6092 016a 68001200 		pushl	$4608
 6092      00
 6093              		.cfi_def_cfa_offset 56
 6094 016f 6A02     		pushl	$2
 6095              		.cfi_def_cfa_offset 60
 6096 0171 56       		pushl	%esi
 6097              		.cfi_def_cfa_offset 64
 6098 0172 83EE01   		subl	$1, %esi
 6099              	.LVL396:
 6100              		.loc 1 413 3 is_stmt 0 discriminator 3 view .LVU1292
 6101 0175 E8FCFFFF 		call	clASetTargetPosition@PLT
 6101      FF
 6102              	.LVL397:
 6103              		.loc 1 414 3 is_stmt 1 discriminator 3 view .LVU1293
 6104 017a 68000E00 		pushl	$3584
 6104      00
 6105              		.cfi_def_cfa_offset 68
 6106 017f 6800F2FF 		pushl	$-3584
 6106      FF
 6107              		.cfi_def_cfa_offset 72
 6108 0184 6A02     		pushl	$2
 6109              		.cfi_def_cfa_offset 76
 6110 0186 57       		pushl	%edi
 6111              		.cfi_def_cfa_offset 80
 6112 0187 E8FCFFFF 		call	clASetTargetPosition@PLT
 6112      FF
 6113              	.LVL398:
 6114              		.loc 1 415 3 discriminator 3 view .LVU1294
 6115              		.loc 1 402 2 is_stmt 0 discriminator 3 view .LVU1295
 6116 018c 83C420   		addl	$32, %esp
 6117              		.cfi_def_cfa_offset 48
 6118 018f 83FEFF   		cmpl	$-1, %esi
 6119 0192 D944240C 		flds	12(%esp)
 6120 0196 0F85D3FE 		jne	.L174
 6120      FFFF
 6121 019c DDD8     		fstp	%st(0)
 6122              	.LBE1292:
 6123              		.loc 1 417 2 is_stmt 1 view .LVU1296
 6124              	.LVL399:
 6125              	.LBB1293:
 6126              	.LBI1293:
 6127              		.loc 2 282 20 view .LVU1297
 6128              	.LBB1294:
 6129              		.loc 2 284 3 view .LVU1298
 6130              	.LBB1295:
 6131              	.LBI1295:
 6132              		.loc 3 353 20 view .LVU1299
 6133              	.LBE1295:
 6134              	.LBE1294:
 6135              	.LBE1293:
 6136              		.loc 3 355 3 view .LVU1300
 6137              	.LBB1315:
 6138              	.LBB1312:
 6139              	.LBB1300:
GAS LISTING /tmp/ccffpNMU.s 			page 118


 6140              	.LBB1296:
 6141              	.LBI1296:
 6142              		.loc 4 362 20 view .LVU1301
 6143              	.LBB1297:
 6144              		.loc 4 364 3 view .LVU1302
 6145              	.LBE1297:
 6146              	.LBE1296:
 6147              	.LBE1300:
 6148              	.LBB1301:
 6149              	.LBB1302:
 6150              		.loc 2 270 6 is_stmt 0 view .LVU1303
 6151 019e 8B442434 		movl	52(%esp), %eax
 6152              	.LBE1302:
 6153              	.LBE1301:
 6154              	.LBB1305:
 6155              	.LBB1299:
 6156              	.LBB1298:
 6157              		.loc 4 364 16 view .LVU1304
 6158 01a2 C7450001 		movl	$1, 0(%ebp)
 6158      000000
 6159              	.LBE1298:
 6160              	.LBE1299:
 6161              	.LBE1305:
 6162              	.LBE1312:
 6163              	.LBE1315:
 6164              		.loc 3 356 34 is_stmt 1 view .LVU1305
 6165              		.loc 3 357 20 view .LVU1306
 6166              	.LBB1316:
 6167              	.LBB1313:
 6168              		.loc 2 285 3 view .LVU1307
 6169              	.LVL400:
 6170              	.LBB1306:
 6171              	.LBI1301:
 6172              		.loc 2 266 20 view .LVU1308
 6173              	.LBB1303:
 6174              		.loc 2 268 21 view .LVU1309
 6175              		.loc 2 270 3 view .LVU1310
 6176              		.loc 2 270 6 is_stmt 0 view .LVU1311
 6177 01a9 8B4008   		movl	8(%eax), %eax
 6178 01ac 85C0     		testl	%eax, %eax
 6179 01ae 7E30     		jle	.L179
 6180              	.L175:
 6181              	.LVL401:
 6182              		.loc 2 270 6 view .LVU1312
 6183              	.LBE1303:
 6184              	.LBE1306:
 6185              		.loc 2 286 3 is_stmt 1 view .LVU1313
 6186 01b0 E8FCFFFF 		call	chSchRescheduleS@PLT
 6186      FF
 6187              	.LVL402:
 6188              		.loc 2 287 3 view .LVU1314
 6189              	.LBB1307:
 6190              	.LBI1307:
 6191              		.loc 3 365 20 view .LVU1315
 6192              	.LBB1308:
 6193              		.loc 3 367 22 view .LVU1316
 6194              		.loc 3 368 33 view .LVU1317
GAS LISTING /tmp/ccffpNMU.s 			page 119


 6195              		.loc 3 374 3 view .LVU1318
 6196              		.loc 3 374 3 view .LVU1319
 6197              		.loc 3 378 3 view .LVU1320
 6198              	.LBB1309:
 6199              	.LBI1309:
 6200              		.loc 4 371 20 view .LVU1321
 6201              	.LBB1310:
 6202              		.loc 4 373 3 view .LVU1322
 6203              		.loc 4 373 16 is_stmt 0 view .LVU1323
 6204 01b5 C7450000 		movl	$0, 0(%ebp)
 6204      000000
 6205              	.LVL403:
 6206              		.loc 4 373 16 view .LVU1324
 6207              	.LBE1310:
 6208              	.LBE1309:
 6209              	.LBE1308:
 6210              	.LBE1307:
 6211              	.LBE1313:
 6212              	.LBE1316:
 6213              		.loc 1 466 1 view .LVU1325
 6214 01bc 83C41C   		addl	$28, %esp
 6215              		.cfi_remember_state
 6216              		.cfi_def_cfa_offset 20
 6217 01bf 5B       		popl	%ebx
 6218              		.cfi_restore 3
 6219              		.cfi_def_cfa_offset 16
 6220 01c0 5E       		popl	%esi
 6221              		.cfi_restore 6
 6222              		.cfi_def_cfa_offset 12
 6223 01c1 5F       		popl	%edi
 6224              		.cfi_restore 7
 6225              		.cfi_def_cfa_offset 8
 6226 01c2 5D       		popl	%ebp
 6227              		.cfi_restore 5
 6228              		.cfi_def_cfa_offset 4
 6229 01c3 C3       		ret
 6230              	.LVL404:
 6231              		.p2align 4,,10
 6232 01c4 8D742600 		.p2align 3
 6233              	.L178:
 6234              		.cfi_restore_state
 6235              	.LBB1317:
 6236              	.LBB1281:
 6237              	.LBB1277:
 6238              	.LBB1264:
 6239              		.loc 2 271 5 is_stmt 1 view .LVU1326
 6240 01c8 83EC0C   		subl	$12, %esp
 6241              		.cfi_def_cfa_offset 60
 6242 01cb FF742440 		pushl	64(%esp)
 6243              		.cfi_def_cfa_offset 64
 6244 01cf E8FCFFFF 		call	chSemSignalI@PLT
 6244      FF
 6245              	.LVL405:
 6246              		.loc 2 271 5 is_stmt 0 view .LVU1327
 6247 01d4 83C410   		addl	$16, %esp
 6248              		.cfi_def_cfa_offset 48
 6249 01d7 E970FEFF 		jmp	.L173
GAS LISTING /tmp/ccffpNMU.s 			page 120


 6249      FF
 6250              	.LVL406:
 6251 01dc 8D742600 		.p2align 4,,10
 6252              		.p2align 3
 6253              	.L179:
 6254              		.loc 2 271 5 view .LVU1328
 6255              	.LBE1264:
 6256              	.LBE1277:
 6257              	.LBE1281:
 6258              	.LBE1317:
 6259              	.LBB1318:
 6260              	.LBB1314:
 6261              	.LBB1311:
 6262              	.LBB1304:
 6263              		.loc 2 271 5 is_stmt 1 view .LVU1329
 6264 01e0 83EC0C   		subl	$12, %esp
 6265              		.cfi_def_cfa_offset 60
 6266 01e3 FF742440 		pushl	64(%esp)
 6267              		.cfi_def_cfa_offset 64
 6268 01e7 E8FCFFFF 		call	chSemSignalI@PLT
 6268      FF
 6269              	.LVL407:
 6270 01ec 83C410   		addl	$16, %esp
 6271              		.cfi_def_cfa_offset 48
 6272 01ef EBBF     		jmp	.L175
 6273              	.LBE1304:
 6274              	.LBE1311:
 6275              	.LBE1314:
 6276              	.LBE1318:
 6277              		.cfi_endproc
 6278              	.LFE232:
 6279              		.size	aniFlower, .-aniFlower
 6280              		.section	.bss.counter.7190,"aw",@nobits
 6281              		.type	counter.7190, @object
 6282              		.size	counter.7190, 1
 6283              	counter.7190:
 6284 0000 00       		.zero	1
 6285              		.section	.data.turns.7185,"aw"
 6286              		.type	turns.7185, @object
 6287              		.size	turns.7185, 1
 6288              	turns.7185:
 6289 0000 01       		.byte	1
 6290              		.section	.bss.prevmin.7184,"aw",@nobits
 6291              		.type	prevmin.7184, @object
 6292              		.size	prevmin.7184, 1
 6293              	prevmin.7184:
 6294 0000 00       		.zero	1
 6295              		.section	.bss.prevmin.7179,"aw",@nobits
 6296              		.type	prevmin.7179, @object
 6297              		.size	prevmin.7179, 1
 6298              	prevmin.7179:
 6299 0000 00       		.zero	1
 6300              		.globl	myTimeDigits
 6301              		.section	.bss.myTimeDigits,"aw",@nobits
 6302              		.align 4
 6303              		.type	myTimeDigits, @object
 6304              		.size	myTimeDigits, 4
GAS LISTING /tmp/ccffpNMU.s 			page 121


 6305              	myTimeDigits:
 6306 0000 00000000 		.zero	4
 6307              		.globl	myTime
 6308              		.section	.bss.myTime,"aw",@nobits
 6309              		.align 4
 6310              		.type	myTime, @object
 6311              		.size	myTime, 12
 6312              	myTime:
 6313 0000 00000000 		.zero	12
 6313      00000000 
 6313      00000000 
 6314              		.section	.rodata.cst4,"aM",@progbits,4
 6315              		.align 4
 6316              	.LC0:
 6317 0000 00004843 		.long	1128792064
 6318              		.align 4
 6319              	.LC1:
 6320 0004 00001643 		.long	1125515264
 6321              		.align 4
 6322              	.LC2:
 6323 0008 0000F042 		.long	1123024896
 6324              		.align 4
 6325              	.LC3:
 6326 000c 00002041 		.long	1092616192
 6327              		.section	.text.__x86.get_pc_thunk.bx,"axG",@progbits,__x86.get_pc_thunk.bx,comdat
 6328              		.globl	__x86.get_pc_thunk.bx
 6329              		.hidden	__x86.get_pc_thunk.bx
 6330              		.type	__x86.get_pc_thunk.bx, @function
 6331              	__x86.get_pc_thunk.bx:
 6332              	.LFB233:
 6333              		.cfi_startproc
 6334 0000 8B1C24   		movl	(%esp), %ebx
 6335 0003 C3       		ret
 6336              		.cfi_endproc
 6337              	.LFE233:
 6338              		.text
 6339              	.Letext0:
 6340              		.file 5 "/usr/lib/gcc/x86_64-linux-gnu/8/include/stddef.h"
 6341              		.file 6 "/usr/include/i386-linux-gnu/bits/types.h"
 6342              		.file 7 "/usr/include/i386-linux-gnu/bits/stdint-intn.h"
 6343              		.file 8 "/usr/include/i386-linux-gnu/bits/stdint-uintn.h"
 6344              		.file 9 "../../../os/common/ports/SIMIA32/compilers/GCC/chtypes.h"
 6345              		.file 10 "../../../os/rt/include/chsystypes.h"
 6346              		.file 11 "../../../os/rt/include/chschd.h"
 6347              		.file 12 "../../../os/rt/include/chtime.h"
 6348              		.file 13 "../../../os/rt/include/chtm.h"
 6349              		.file 14 "../../../os/rt/include/chsem.h"
 6350              		.file 15 "../../../os/rt/include/chmtx.h"
 6351              		.file 16 "../../../os/rt/include/chregistry.h"
 6352              		.file 17 "../../../os/rt/include/chevents.h"
 6353              		.file 18 "../../../os/common/oslib/include/chmemcore.h"
 6354              		.file 19 "../../../os/common/oslib/include/chmempools.h"
 6355              		.file 20 "../../../os/common/oslib/include/chfactory.h"
 6356              		.file 21 "/usr/include/netinet/in.h"
 6357              		.file 22 "/usr/include/unistd.h"
 6358              		.file 23 "/usr/include/i386-linux-gnu/bits/getopt_core.h"
 6359              		.file 24 "/usr/include/i386-linux-gnu/bits/types/struct_FILE.h"
GAS LISTING /tmp/ccffpNMU.s 			page 122


 6360              		.file 25 "/usr/include/i386-linux-gnu/bits/types/FILE.h"
 6361              		.file 26 "/usr/include/stdio.h"
 6362              		.file 27 "/usr/include/i386-linux-gnu/bits/sys_errlist.h"
 6363              		.file 28 "../../../os/hal/include/hal_queues.h"
 6364              		.file 29 "../../../os/hal/ports/simulator/hal_pal_lld.h"
 6365              		.file 30 "../../../os/hal/include/hal_serial.h"
 6366              		.file 31 "../../../os/hal/ports/simulator/posix/hal_serial_lld.h"
 6367              		.file 32 "/usr/include/time.h"
 6368              		.file 33 "/usr/include/i386-linux-gnu/sys/time.h"
 6369              		.file 34 "Smalltime.h"
 6370              		.file 35 "/usr/include/math.h"
 6371              		.file 36 "accelStepper.h"
 6372              		.file 37 "clock.h"
 6373              		.file 38 "../../../os/rt/include/chthreads.h"
 6374              		.file 39 "digits.h"
 6375              		.section	.debug_info,"",@progbits
 6376              	.Ldebug_info0:
 6377 0000 54360000 		.long	0x3654
 6378 0004 0400     		.value	0x4
 6379 0006 00000000 		.long	.Ldebug_abbrev0
 6380 000a 04       		.byte	0x4
 6381 000b 01       		.uleb128 0x1
 6382 000c 83070000 		.long	.LASF336
 6383 0010 0C       		.byte	0xc
 6384 0011 4F010000 		.long	.LASF337
 6385 0015 F70A0000 		.long	.LASF338
 6386 0019 F80F0000 		.long	.Ldebug_ranges0+0xff8
 6387 001d 00000000 		.long	0
 6388 0021 00000000 		.long	.Ldebug_line0
 6389 0025 02       		.uleb128 0x2
 6390 0026 04       		.byte	0x4
 6391 0027 05       		.byte	0x5
 6392 0028 696E7400 		.string	"int"
 6393 002c 03       		.uleb128 0x3
 6394 002d 17000000 		.long	.LASF8
 6395 0031 05       		.byte	0x5
 6396 0032 D8       		.byte	0xd8
 6397 0033 17       		.byte	0x17
 6398 0034 3D000000 		.long	0x3d
 6399 0038 04       		.uleb128 0x4
 6400 0039 2C000000 		.long	0x2c
 6401 003d 05       		.uleb128 0x5
 6402 003e 04       		.byte	0x4
 6403 003f 07       		.byte	0x7
 6404 0040 60080000 		.long	.LASF0
 6405 0044 05       		.uleb128 0x5
 6406 0045 04       		.byte	0x4
 6407 0046 05       		.byte	0x5
 6408 0047 17020000 		.long	.LASF1
 6409 004b 05       		.uleb128 0x5
 6410 004c 08       		.byte	0x8
 6411 004d 05       		.byte	0x5
 6412 004e 20070000 		.long	.LASF2
 6413 0052 05       		.uleb128 0x5
 6414 0053 0C       		.byte	0xc
 6415 0054 04       		.byte	0x4
 6416 0055 24090000 		.long	.LASF3
GAS LISTING /tmp/ccffpNMU.s 			page 123


 6417 0059 05       		.uleb128 0x5
 6418 005a 10       		.byte	0x10
 6419 005b 04       		.byte	0x4
 6420 005c 9D0D0000 		.long	.LASF4
 6421 0060 05       		.uleb128 0x5
 6422 0061 01       		.byte	0x1
 6423 0062 08       		.byte	0x8
 6424 0063 5A030000 		.long	.LASF5
 6425 0067 05       		.uleb128 0x5
 6426 0068 02       		.byte	0x2
 6427 0069 07       		.byte	0x7
 6428 006a D70D0000 		.long	.LASF6
 6429 006e 05       		.uleb128 0x5
 6430 006f 04       		.byte	0x4
 6431 0070 07       		.byte	0x7
 6432 0071 B1050000 		.long	.LASF7
 6433 0075 03       		.uleb128 0x3
 6434 0076 B1090000 		.long	.LASF9
 6435 007a 06       		.byte	0x6
 6436 007b 25       		.byte	0x25
 6437 007c 15       		.byte	0x15
 6438 007d 81000000 		.long	0x81
 6439 0081 05       		.uleb128 0x5
 6440 0082 01       		.byte	0x1
 6441 0083 06       		.byte	0x6
 6442 0084 0B030000 		.long	.LASF10
 6443 0088 03       		.uleb128 0x3
 6444 0089 CB010000 		.long	.LASF11
 6445 008d 06       		.byte	0x6
 6446 008e 26       		.byte	0x26
 6447 008f 17       		.byte	0x17
 6448 0090 60000000 		.long	0x60
 6449 0094 05       		.uleb128 0x5
 6450 0095 02       		.byte	0x2
 6451 0096 05       		.byte	0x5
 6452 0097 E10B0000 		.long	.LASF12
 6453 009b 03       		.uleb128 0x3
 6454 009c 0E040000 		.long	.LASF13
 6455 00a0 06       		.byte	0x6
 6456 00a1 28       		.byte	0x28
 6457 00a2 1C       		.byte	0x1c
 6458 00a3 67000000 		.long	0x67
 6459 00a7 03       		.uleb128 0x3
 6460 00a8 3F0E0000 		.long	.LASF14
 6461 00ac 06       		.byte	0x6
 6462 00ad 29       		.byte	0x29
 6463 00ae 14       		.byte	0x14
 6464 00af 25000000 		.long	0x25
 6465 00b3 03       		.uleb128 0x3
 6466 00b4 FB060000 		.long	.LASF15
 6467 00b8 06       		.byte	0x6
 6468 00b9 2A       		.byte	0x2a
 6469 00ba 16       		.byte	0x16
 6470 00bb 3D000000 		.long	0x3d
 6471 00bf 03       		.uleb128 0x3
 6472 00c0 90050000 		.long	.LASF16
 6473 00c4 06       		.byte	0x6
GAS LISTING /tmp/ccffpNMU.s 			page 124


 6474 00c5 30       		.byte	0x30
 6475 00c6 2E       		.byte	0x2e
 6476 00c7 CB000000 		.long	0xcb
 6477 00cb 05       		.uleb128 0x5
 6478 00cc 08       		.byte	0x8
 6479 00cd 07       		.byte	0x7
 6480 00ce BF090000 		.long	.LASF17
 6481 00d2 03       		.uleb128 0x3
 6482 00d3 50060000 		.long	.LASF18
 6483 00d7 06       		.byte	0x6
 6484 00d8 42       		.byte	0x42
 6485 00d9 25       		.byte	0x25
 6486 00da 4B000000 		.long	0x4b
 6487 00de 03       		.uleb128 0x3
 6488 00df F6090000 		.long	.LASF19
 6489 00e3 06       		.byte	0x6
 6490 00e4 98       		.byte	0x98
 6491 00e5 19       		.byte	0x19
 6492 00e6 44000000 		.long	0x44
 6493 00ea 03       		.uleb128 0x3
 6494 00eb 400B0000 		.long	.LASF20
 6495 00ef 06       		.byte	0x6
 6496 00f0 99       		.byte	0x99
 6497 00f1 1B       		.byte	0x1b
 6498 00f2 D2000000 		.long	0xd2
 6499 00f6 06       		.uleb128 0x6
 6500 00f7 04       		.byte	0x4
 6501 00f8 07       		.uleb128 0x7
 6502 00f9 04       		.byte	0x4
 6503 00fa FE000000 		.long	0xfe
 6504 00fe 05       		.uleb128 0x5
 6505 00ff 01       		.byte	0x1
 6506 0100 06       		.byte	0x6
 6507 0101 E7030000 		.long	.LASF21
 6508 0105 08       		.uleb128 0x8
 6509 0106 FE000000 		.long	0xfe
 6510 010a 03       		.uleb128 0x3
 6511 010b 10000000 		.long	.LASF22
 6512 010f 07       		.byte	0x7
 6513 0110 18       		.byte	0x18
 6514 0111 12       		.byte	0x12
 6515 0112 75000000 		.long	0x75
 6516 0116 03       		.uleb128 0x3
 6517 0117 8B000000 		.long	.LASF23
 6518 011b 07       		.byte	0x7
 6519 011c 1A       		.byte	0x1a
 6520 011d 13       		.byte	0x13
 6521 011e A7000000 		.long	0xa7
 6522 0122 08       		.uleb128 0x8
 6523 0123 16010000 		.long	0x116
 6524 0127 03       		.uleb128 0x3
 6525 0128 1E030000 		.long	.LASF24
 6526 012c 08       		.byte	0x8
 6527 012d 18       		.byte	0x18
 6528 012e 13       		.byte	0x13
 6529 012f 88000000 		.long	0x88
 6530 0133 08       		.uleb128 0x8
GAS LISTING /tmp/ccffpNMU.s 			page 125


 6531 0134 27010000 		.long	0x127
 6532 0138 03       		.uleb128 0x3
 6533 0139 ED090000 		.long	.LASF25
 6534 013d 08       		.byte	0x8
 6535 013e 19       		.byte	0x19
 6536 013f 14       		.byte	0x14
 6537 0140 9B000000 		.long	0x9b
 6538 0144 03       		.uleb128 0x3
 6539 0145 680D0000 		.long	.LASF26
 6540 0149 08       		.byte	0x8
 6541 014a 1A       		.byte	0x1a
 6542 014b 14       		.byte	0x14
 6543 014c B3000000 		.long	0xb3
 6544 0150 03       		.uleb128 0x3
 6545 0151 F80B0000 		.long	.LASF27
 6546 0155 08       		.byte	0x8
 6547 0156 1B       		.byte	0x1b
 6548 0157 14       		.byte	0x14
 6549 0158 BF000000 		.long	0xbf
 6550 015c 03       		.uleb128 0x3
 6551 015d 6D080000 		.long	.LASF28
 6552 0161 09       		.byte	0x9
 6553 0162 45       		.byte	0x45
 6554 0163 1D       		.byte	0x1d
 6555 0164 44010000 		.long	0x144
 6556 0168 03       		.uleb128 0x3
 6557 0169 99030000 		.long	.LASF29
 6558 016d 09       		.byte	0x9
 6559 016e 47       		.byte	0x47
 6560 016f 1D       		.byte	0x1d
 6561 0170 44010000 		.long	0x144
 6562 0174 03       		.uleb128 0x3
 6563 0175 6D0B0000 		.long	.LASF30
 6564 0179 09       		.byte	0x9
 6565 017a 48       		.byte	0x48
 6566 017b 1D       		.byte	0x1d
 6567 017c 27010000 		.long	0x127
 6568 0180 03       		.uleb128 0x3
 6569 0181 78020000 		.long	.LASF31
 6570 0185 09       		.byte	0x9
 6571 0186 49       		.byte	0x49
 6572 0187 1D       		.byte	0x1d
 6573 0188 27010000 		.long	0x127
 6574 018c 03       		.uleb128 0x3
 6575 018d F20C0000 		.long	.LASF32
 6576 0191 09       		.byte	0x9
 6577 0192 4A       		.byte	0x4a
 6578 0193 1D       		.byte	0x1d
 6579 0194 27010000 		.long	0x127
 6580 0198 03       		.uleb128 0x3
 6581 0199 51000000 		.long	.LASF33
 6582 019d 09       		.byte	0x9
 6583 019e 4C       		.byte	0x4c
 6584 019f 1D       		.byte	0x1d
 6585 01a0 44010000 		.long	0x144
 6586 01a4 03       		.uleb128 0x3
 6587 01a5 070A0000 		.long	.LASF34
GAS LISTING /tmp/ccffpNMU.s 			page 126


 6588 01a9 09       		.byte	0x9
 6589 01aa 4D       		.byte	0x4d
 6590 01ab 1D       		.byte	0x1d
 6591 01ac 16010000 		.long	0x116
 6592 01b0 03       		.uleb128 0x3
 6593 01b1 48030000 		.long	.LASF35
 6594 01b5 09       		.byte	0x9
 6595 01b6 4F       		.byte	0x4f
 6596 01b7 1D       		.byte	0x1d
 6597 01b8 44010000 		.long	0x144
 6598 01bc 03       		.uleb128 0x3
 6599 01bd 1E0A0000 		.long	.LASF36
 6600 01c1 09       		.byte	0x9
 6601 01c2 50       		.byte	0x50
 6602 01c3 1D       		.byte	0x1d
 6603 01c4 44010000 		.long	0x144
 6604 01c8 03       		.uleb128 0x3
 6605 01c9 E1040000 		.long	.LASF37
 6606 01cd 09       		.byte	0x9
 6607 01ce 51       		.byte	0x51
 6608 01cf 1D       		.byte	0x1d
 6609 01d0 16010000 		.long	0x116
 6610 01d4 03       		.uleb128 0x3
 6611 01d5 AB060000 		.long	.LASF38
 6612 01d9 09       		.byte	0x9
 6613 01da 52       		.byte	0x52
 6614 01db 1D       		.byte	0x1d
 6615 01dc 44010000 		.long	0x144
 6616 01e0 03       		.uleb128 0x3
 6617 01e1 1B090000 		.long	.LASF39
 6618 01e5 0A       		.byte	0xa
 6619 01e6 34       		.byte	0x34
 6620 01e7 1A       		.byte	0x1a
 6621 01e8 EC010000 		.long	0x1ec
 6622 01ec 09       		.uleb128 0x9
 6623 01ed F9050000 		.long	.LASF57
 6624 01f1 44       		.byte	0x44
 6625 01f2 0B       		.byte	0xb
 6626 01f3 8E       		.byte	0x8e
 6627 01f4 08       		.byte	0x8
 6628 01f5 DC020000 		.long	0x2dc
 6629 01f9 0A       		.uleb128 0xa
 6630 01fa 670A0000 		.long	.LASF40
 6631 01fe 0B       		.byte	0xb
 6632 01ff 8F       		.byte	0x8f
 6633 0200 19       		.byte	0x19
 6634 0201 15030000 		.long	0x315
 6635 0205 00       		.byte	0
 6636 0206 0A       		.uleb128 0xa
 6637 0207 9E010000 		.long	.LASF41
 6638 020b 0B       		.byte	0xb
 6639 020c 90       		.byte	0x90
 6640 020d 19       		.byte	0x19
 6641 020e 98010000 		.long	0x198
 6642 0212 08       		.byte	0x8
 6643 0213 0B       		.uleb128 0xb
 6644 0214 63747800 		.string	"ctx"
GAS LISTING /tmp/ccffpNMU.s 			page 127


 6645 0218 0B       		.byte	0xb
 6646 0219 91       		.byte	0x91
 6647 021a 19       		.byte	0x19
 6648 021b C8050000 		.long	0x5c8
 6649 021f 0C       		.byte	0xc
 6650 0220 0A       		.uleb128 0xa
 6651 0221 430D0000 		.long	.LASF42
 6652 0225 0B       		.byte	0xb
 6653 0226 93       		.byte	0x93
 6654 0227 1A       		.byte	0x1a
 6655 0228 E8020000 		.long	0x2e8
 6656 022c 10       		.byte	0x10
 6657 022d 0A       		.uleb128 0xa
 6658 022e 80060000 		.long	.LASF43
 6659 0232 0B       		.byte	0xb
 6660 0233 94       		.byte	0x94
 6661 0234 1A       		.byte	0x1a
 6662 0235 E8020000 		.long	0x2e8
 6663 0239 14       		.byte	0x14
 6664 023a 0A       		.uleb128 0xa
 6665 023b C20B0000 		.long	.LASF44
 6666 023f 0B       		.byte	0xb
 6667 0240 9B       		.byte	0x9b
 6668 0241 1A       		.byte	0x1a
 6669 0242 06070000 		.long	0x706
 6670 0246 18       		.byte	0x18
 6671 0247 0A       		.uleb128 0xa
 6672 0248 D50A0000 		.long	.LASF45
 6673 024c 0B       		.byte	0xb
 6674 024d A4       		.byte	0xa4
 6675 024e 1A       		.byte	0x1a
 6676 024f 16070000 		.long	0x716
 6677 0253 1C       		.byte	0x1c
 6678 0254 0A       		.uleb128 0xa
 6679 0255 31010000 		.long	.LASF46
 6680 0259 0B       		.byte	0xb
 6681 025a A9       		.byte	0xa9
 6682 025b 19       		.byte	0x19
 6683 025c 80010000 		.long	0x180
 6684 0260 20       		.byte	0x20
 6685 0261 0A       		.uleb128 0xa
 6686 0262 4A040000 		.long	.LASF47
 6687 0266 0B       		.byte	0xb
 6688 0267 AD       		.byte	0xad
 6689 0268 19       		.byte	0x19
 6690 0269 74010000 		.long	0x174
 6691 026d 21       		.byte	0x21
 6692 026e 0A       		.uleb128 0xa
 6693 026f 620A0000 		.long	.LASF48
 6694 0273 0B       		.byte	0xb
 6695 0274 B2       		.byte	0xb2
 6696 0275 19       		.byte	0x19
 6697 0276 8C010000 		.long	0x18c
 6698 027a 22       		.byte	0x22
 6699 027b 0C       		.uleb128 0xc
 6700 027c 7500     		.string	"u"
 6701 027e 0B       		.byte	0xb
GAS LISTING /tmp/ccffpNMU.s 			page 128


 6702 027f 0301     		.value	0x103
 6703 0281 19       		.byte	0x19
 6704 0282 2C060000 		.long	0x62c
 6705 0286 24       		.byte	0x24
 6706 0287 0D       		.uleb128 0xd
 6707 0288 C80C0000 		.long	.LASF49
 6708 028c 0B       		.byte	0xb
 6709 028d 0801     		.value	0x108
 6710 028f 19       		.byte	0x19
 6711 0290 EE020000 		.long	0x2ee
 6712 0294 28       		.byte	0x28
 6713 0295 0D       		.uleb128 0xd
 6714 0296 2F0C0000 		.long	.LASF50
 6715 029a 0B       		.byte	0xb
 6716 029b 0E01     		.value	0x10e
 6717 029d 19       		.byte	0x19
 6718 029e 15030000 		.long	0x315
 6719 02a2 2C       		.byte	0x2c
 6720 02a3 0D       		.uleb128 0xd
 6721 02a4 92020000 		.long	.LASF51
 6722 02a8 0B       		.byte	0xb
 6723 02a9 1401     		.value	0x114
 6724 02ab 19       		.byte	0x19
 6725 02ac B0010000 		.long	0x1b0
 6726 02b0 34       		.byte	0x34
 6727 02b1 0D       		.uleb128 0xd
 6728 02b2 11070000 		.long	.LASF52
 6729 02b6 0B       		.byte	0xb
 6730 02b7 1B01     		.value	0x11b
 6731 02b9 1A       		.byte	0x1a
 6732 02ba 00070000 		.long	0x700
 6733 02be 38       		.byte	0x38
 6734 02bf 0D       		.uleb128 0xd
 6735 02c0 96060000 		.long	.LASF53
 6736 02c4 0B       		.byte	0xb
 6737 02c5 1F01     		.value	0x11f
 6738 02c7 19       		.byte	0x19
 6739 02c8 98010000 		.long	0x198
 6740 02cc 3C       		.byte	0x3c
 6741 02cd 0D       		.uleb128 0xd
 6742 02ce 78040000 		.long	.LASF54
 6743 02d2 0B       		.byte	0xb
 6744 02d3 2601     		.value	0x126
 6745 02d5 1A       		.byte	0x1a
 6746 02d6 F6000000 		.long	0xf6
 6747 02da 40       		.byte	0x40
 6748 02db 00       		.byte	0
 6749 02dc 03       		.uleb128 0x3
 6750 02dd 37090000 		.long	.LASF55
 6751 02e1 0A       		.byte	0xa
 6752 02e2 39       		.byte	0x39
 6753 02e3 14       		.byte	0x14
 6754 02e4 E8020000 		.long	0x2e8
 6755 02e8 07       		.uleb128 0x7
 6756 02e9 04       		.byte	0x4
 6757 02ea E0010000 		.long	0x1e0
 6758 02ee 03       		.uleb128 0x3
GAS LISTING /tmp/ccffpNMU.s 			page 129


 6759 02ef 140D0000 		.long	.LASF56
 6760 02f3 0A       		.byte	0xa
 6761 02f4 3E       		.byte	0x3e
 6762 02f5 20       		.byte	0x20
 6763 02f6 FA020000 		.long	0x2fa
 6764 02fa 09       		.uleb128 0x9
 6765 02fb CB060000 		.long	.LASF58
 6766 02ff 04       		.byte	0x4
 6767 0300 0B       		.byte	0xb
 6768 0301 7C       		.byte	0x7c
 6769 0302 08       		.byte	0x8
 6770 0303 15030000 		.long	0x315
 6771 0307 0A       		.uleb128 0xa
 6772 0308 9F0E0000 		.long	.LASF59
 6773 030c 0B       		.byte	0xb
 6774 030d 7D       		.byte	0x7d
 6775 030e 1A       		.byte	0x1a
 6776 030f E8020000 		.long	0x2e8
 6777 0313 00       		.byte	0
 6778 0314 00       		.byte	0
 6779 0315 03       		.uleb128 0x3
 6780 0316 9B020000 		.long	.LASF60
 6781 031a 0A       		.byte	0xa
 6782 031b 45       		.byte	0x45
 6783 031c 21       		.byte	0x21
 6784 031d 21030000 		.long	0x321
 6785 0321 09       		.uleb128 0x9
 6786 0322 0D0A0000 		.long	.LASF61
 6787 0326 08       		.byte	0x8
 6788 0327 0B       		.byte	0xb
 6789 0328 83       		.byte	0x83
 6790 0329 08       		.byte	0x8
 6791 032a 49030000 		.long	0x349
 6792 032e 0A       		.uleb128 0xa
 6793 032f 9F0E0000 		.long	.LASF59
 6794 0333 0B       		.byte	0xb
 6795 0334 84       		.byte	0x84
 6796 0335 1A       		.byte	0x1a
 6797 0336 E8020000 		.long	0x2e8
 6798 033a 00       		.byte	0
 6799 033b 0A       		.uleb128 0xa
 6800 033c B00E0000 		.long	.LASF62
 6801 0340 0B       		.byte	0xb
 6802 0341 85       		.byte	0x85
 6803 0342 1A       		.byte	0x1a
 6804 0343 E8020000 		.long	0x2e8
 6805 0347 04       		.byte	0x4
 6806 0348 00       		.byte	0
 6807 0349 03       		.uleb128 0x3
 6808 034a 73060000 		.long	.LASF63
 6809 034e 0A       		.byte	0xa
 6810 034f 4C       		.byte	0x4c
 6811 0350 1E       		.byte	0x1e
 6812 0351 55030000 		.long	0x355
 6813 0355 0E       		.uleb128 0xe
 6814 0356 22050000 		.long	.LASF64
 6815 035a 1C       		.byte	0x1c
GAS LISTING /tmp/ccffpNMU.s 			page 130


 6816 035b 0B       		.byte	0xb
 6817 035c 5E01     		.value	0x15e
 6818 035e 08       		.byte	0x8
 6819 035f B8030000 		.long	0x3b8
 6820 0363 0D       		.uleb128 0xd
 6821 0364 670A0000 		.long	.LASF40
 6822 0368 0B       		.byte	0xb
 6823 0369 5F01     		.value	0x15f
 6824 036b 19       		.byte	0x19
 6825 036c 15030000 		.long	0x315
 6826 0370 00       		.byte	0
 6827 0371 0D       		.uleb128 0xd
 6828 0372 9E010000 		.long	.LASF41
 6829 0376 0B       		.byte	0xb
 6830 0377 6001     		.value	0x160
 6831 0379 19       		.byte	0x19
 6832 037a 98010000 		.long	0x198
 6833 037e 08       		.byte	0x8
 6834 037f 0C       		.uleb128 0xc
 6835 0380 63747800 		.string	"ctx"
 6836 0384 0B       		.byte	0xb
 6837 0385 6201     		.value	0x162
 6838 0387 19       		.byte	0x19
 6839 0388 C8050000 		.long	0x5c8
 6840 038c 0C       		.byte	0xc
 6841 038d 0D       		.uleb128 0xd
 6842 038e 430D0000 		.long	.LASF42
 6843 0392 0B       		.byte	0xb
 6844 0393 6501     		.value	0x165
 6845 0395 1A       		.byte	0x1a
 6846 0396 E8020000 		.long	0x2e8
 6847 039a 10       		.byte	0x10
 6848 039b 0D       		.uleb128 0xd
 6849 039c 80060000 		.long	.LASF43
 6850 03a0 0B       		.byte	0xb
 6851 03a1 6601     		.value	0x166
 6852 03a3 1A       		.byte	0x1a
 6853 03a4 E8020000 		.long	0x2e8
 6854 03a8 14       		.byte	0x14
 6855 03a9 0D       		.uleb128 0xd
 6856 03aa 9C080000 		.long	.LASF65
 6857 03ae 0B       		.byte	0xb
 6858 03af 6901     		.value	0x169
 6859 03b1 1A       		.byte	0x1a
 6860 03b2 E8020000 		.long	0x2e8
 6861 03b6 18       		.byte	0x18
 6862 03b7 00       		.byte	0
 6863 03b8 03       		.uleb128 0x3
 6864 03b9 A4000000 		.long	.LASF66
 6865 03bd 0A       		.byte	0xa
 6866 03be 51       		.byte	0x51
 6867 03bf 10       		.byte	0x10
 6868 03c0 C4030000 		.long	0x3c4
 6869 03c4 07       		.uleb128 0x7
 6870 03c5 04       		.byte	0x4
 6871 03c6 CA030000 		.long	0x3ca
 6872 03ca 0F       		.uleb128 0xf
GAS LISTING /tmp/ccffpNMU.s 			page 131


 6873 03cb D5030000 		.long	0x3d5
 6874 03cf 10       		.uleb128 0x10
 6875 03d0 F6000000 		.long	0xf6
 6876 03d4 00       		.byte	0
 6877 03d5 03       		.uleb128 0x3
 6878 03d6 63060000 		.long	.LASF67
 6879 03da 0A       		.byte	0xa
 6880 03db 56       		.byte	0x56
 6881 03dc 21       		.byte	0x21
 6882 03dd E1030000 		.long	0x3e1
 6883 03e1 0E       		.uleb128 0xe
 6884 03e2 99090000 		.long	.LASF68
 6885 03e6 14       		.byte	0x14
 6886 03e7 0B       		.byte	0xb
 6887 03e8 3901     		.value	0x139
 6888 03ea 08       		.byte	0x8
 6889 03eb 36040000 		.long	0x436
 6890 03ef 0D       		.uleb128 0xd
 6891 03f0 9F0E0000 		.long	.LASF59
 6892 03f4 0B       		.byte	0xb
 6893 03f5 3A01     		.value	0x13a
 6894 03f7 1A       		.byte	0x1a
 6895 03f8 1C070000 		.long	0x71c
 6896 03fc 00       		.byte	0
 6897 03fd 0D       		.uleb128 0xd
 6898 03fe B00E0000 		.long	.LASF62
 6899 0402 0B       		.byte	0xb
 6900 0403 3B01     		.value	0x13b
 6901 0405 1A       		.byte	0x1a
 6902 0406 1C070000 		.long	0x71c
 6903 040a 04       		.byte	0x4
 6904 040b 0D       		.uleb128 0xd
 6905 040c 4F0A0000 		.long	.LASF69
 6906 0410 0B       		.byte	0xb
 6907 0411 3C01     		.value	0x13c
 6908 0413 19       		.byte	0x19
 6909 0414 23050000 		.long	0x523
 6910 0418 08       		.byte	0x8
 6911 0419 0D       		.uleb128 0xd
 6912 041a 010C0000 		.long	.LASF70
 6913 041e 0B       		.byte	0xb
 6914 041f 3D01     		.value	0x13d
 6915 0421 19       		.byte	0x19
 6916 0422 B8030000 		.long	0x3b8
 6917 0426 0C       		.byte	0xc
 6918 0427 0C       		.uleb128 0xc
 6919 0428 70617200 		.string	"par"
 6920 042c 0B       		.byte	0xb
 6921 042d 3F01     		.value	0x13f
 6922 042f 1A       		.byte	0x1a
 6923 0430 F6000000 		.long	0xf6
 6924 0434 10       		.byte	0x10
 6925 0435 00       		.byte	0
 6926 0436 03       		.uleb128 0x3
 6927 0437 11060000 		.long	.LASF71
 6928 043b 0A       		.byte	0xa
 6929 043c 5B       		.byte	0x5b
GAS LISTING /tmp/ccffpNMU.s 			page 132


 6930 043d 28       		.byte	0x28
 6931 043e 42040000 		.long	0x442
 6932 0442 0E       		.uleb128 0xe
 6933 0443 CB000000 		.long	.LASF72
 6934 0447 10       		.byte	0x10
 6935 0448 0B       		.byte	0xb
 6936 0449 4901     		.value	0x149
 6937 044b 08       		.byte	0x8
 6938 044c 89040000 		.long	0x489
 6939 0450 0D       		.uleb128 0xd
 6940 0451 9F0E0000 		.long	.LASF59
 6941 0455 0B       		.byte	0xb
 6942 0456 4A01     		.value	0x14a
 6943 0458 1A       		.byte	0x1a
 6944 0459 1C070000 		.long	0x71c
 6945 045d 00       		.byte	0
 6946 045e 0D       		.uleb128 0xd
 6947 045f B00E0000 		.long	.LASF62
 6948 0463 0B       		.byte	0xb
 6949 0464 4C01     		.value	0x14c
 6950 0466 1A       		.byte	0x1a
 6951 0467 1C070000 		.long	0x71c
 6952 046b 04       		.byte	0x4
 6953 046c 0D       		.uleb128 0xd
 6954 046d 4F0A0000 		.long	.LASF69
 6955 0471 0B       		.byte	0xb
 6956 0472 4E01     		.value	0x14e
 6957 0474 19       		.byte	0x19
 6958 0475 23050000 		.long	0x523
 6959 0479 08       		.byte	0x8
 6960 047a 0D       		.uleb128 0xd
 6961 047b DB010000 		.long	.LASF73
 6962 047f 0B       		.byte	0xb
 6963 0480 5001     		.value	0x150
 6964 0482 19       		.byte	0x19
 6965 0483 1E050000 		.long	0x51e
 6966 0487 0C       		.byte	0xc
 6967 0488 00       		.byte	0
 6968 0489 03       		.uleb128 0x3
 6969 048a A2030000 		.long	.LASF74
 6970 048e 0A       		.byte	0xa
 6971 048f 60       		.byte	0x60
 6972 0490 20       		.byte	0x20
 6973 0491 95040000 		.long	0x495
 6974 0495 0E       		.uleb128 0xe
 6975 0496 5C0C0000 		.long	.LASF75
 6976 049a 04       		.byte	0x4
 6977 049b 0B       		.byte	0xb
 6978 049c 7001     		.value	0x170
 6979 049e 08       		.byte	0x8
 6980 049f B2040000 		.long	0x4b2
 6981 04a3 0D       		.uleb128 0xd
 6982 04a4 8F030000 		.long	.LASF76
 6983 04a8 0B       		.byte	0xb
 6984 04a9 7801     		.value	0x178
 6985 04ab 24       		.byte	0x24
 6986 04ac 0C070000 		.long	0x70c
GAS LISTING /tmp/ccffpNMU.s 			page 133


 6987 04b0 00       		.byte	0
 6988 04b1 00       		.byte	0
 6989 04b2 03       		.uleb128 0x3
 6990 04b3 F80D0000 		.long	.LASF77
 6991 04b7 0A       		.byte	0xa
 6992 04b8 65       		.byte	0x65
 6993 04b9 1A       		.byte	0x1a
 6994 04ba BE040000 		.long	0x4be
 6995 04be 0E       		.uleb128 0xe
 6996 04bf 300D0000 		.long	.LASF78
 6997 04c3 78       		.byte	0x78
 6998 04c4 0B       		.byte	0xb
 6999 04c5 9001     		.value	0x190
 7000 04c7 08       		.byte	0x8
 7001 04c8 12050000 		.long	0x512
 7002 04cc 0D       		.uleb128 0xd
 7003 04cd 670B0000 		.long	.LASF79
 7004 04d1 0B       		.byte	0xb
 7005 04d2 9401     		.value	0x194
 7006 04d4 19       		.byte	0x19
 7007 04d5 49030000 		.long	0x349
 7008 04d9 00       		.byte	0
 7009 04da 0D       		.uleb128 0xd
 7010 04db B60C0000 		.long	.LASF80
 7011 04df 0B       		.byte	0xb
 7012 04e0 9801     		.value	0x198
 7013 04e2 19       		.byte	0x19
 7014 04e3 36040000 		.long	0x436
 7015 04e7 1C       		.byte	0x1c
 7016 04e8 0C       		.uleb128 0xc
 7017 04e9 64626700 		.string	"dbg"
 7018 04ed 0B       		.byte	0xb
 7019 04ee 9C01     		.value	0x19c
 7020 04f0 19       		.byte	0x19
 7021 04f1 89040000 		.long	0x489
 7022 04f5 2C       		.byte	0x2c
 7023 04f6 0D       		.uleb128 0xd
 7024 04f7 A20A0000 		.long	.LASF81
 7025 04fb 0B       		.byte	0xb
 7026 04fc A001     		.value	0x1a0
 7027 04fe 19       		.byte	0x19
 7028 04ff E0010000 		.long	0x1e0
 7029 0503 30       		.byte	0x30
 7030 0504 0C       		.uleb128 0xc
 7031 0505 746D00   		.string	"tm"
 7032 0508 0B       		.byte	0xb
 7033 0509 A501     		.value	0x1a5
 7034 050b 19       		.byte	0x19
 7035 050c 20060000 		.long	0x620
 7036 0510 74       		.byte	0x74
 7037 0511 00       		.byte	0
 7038 0512 03       		.uleb128 0x3
 7039 0513 35000000 		.long	.LASF82
 7040 0517 0C       		.byte	0xc
 7041 0518 8E       		.byte	0x8e
 7042 0519 12       		.byte	0x12
 7043 051a 38010000 		.long	0x138
GAS LISTING /tmp/ccffpNMU.s 			page 134


 7044 051e 04       		.uleb128 0x4
 7045 051f 12050000 		.long	0x512
 7046 0523 03       		.uleb128 0x3
 7047 0524 36070000 		.long	.LASF83
 7048 0528 0C       		.byte	0xc
 7049 0529 98       		.byte	0x98
 7050 052a 12       		.byte	0x12
 7051 052b 44010000 		.long	0x144
 7052 052f 03       		.uleb128 0x3
 7053 0530 E2080000 		.long	.LASF84
 7054 0534 0C       		.byte	0xc
 7055 0535 B5       		.byte	0xb5
 7056 0536 12       		.byte	0x12
 7057 0537 50010000 		.long	0x150
 7058 053b 11       		.uleb128 0x11
 7059 053c 10       		.byte	0x10
 7060 053d 04       		.byte	0x4
 7061 053e 91       		.byte	0x91
 7062 053f 09       		.byte	0x9
 7063 0540 50050000 		.long	0x550
 7064 0544 0B       		.uleb128 0xb
 7065 0545 6100     		.string	"a"
 7066 0547 04       		.byte	0x4
 7067 0548 92       		.byte	0x92
 7068 0549 0B       		.byte	0xb
 7069 054a 50050000 		.long	0x550
 7070 054e 00       		.byte	0
 7071 054f 00       		.byte	0
 7072 0550 12       		.uleb128 0x12
 7073 0551 27010000 		.long	0x127
 7074 0555 60050000 		.long	0x560
 7075 0559 13       		.uleb128 0x13
 7076 055a 3D000000 		.long	0x3d
 7077 055e 0F       		.byte	0xf
 7078 055f 00       		.byte	0
 7079 0560 14       		.uleb128 0x14
 7080 0561 5D040000 		.long	.LASF339
 7081 0565 04       		.byte	0x4
 7082 0566 93       		.byte	0x93
 7083 0567 03       		.byte	0x3
 7084 0568 3B050000 		.long	0x53b
 7085 056c 10       		.byte	0x10
 7086 056d 03       		.uleb128 0x3
 7087 056e F10D0000 		.long	.LASF85
 7088 0572 04       		.byte	0x4
 7089 0573 98       		.byte	0x98
 7090 0574 0F       		.byte	0xf
 7091 0575 F6000000 		.long	0xf6
 7092 0579 09       		.uleb128 0x9
 7093 057a 61090000 		.long	.LASF86
 7094 057e 14       		.byte	0x14
 7095 057f 04       		.byte	0x4
 7096 0580 A7       		.byte	0xa7
 7097 0581 08       		.byte	0x8
 7098 0582 C8050000 		.long	0x5c8
 7099 0586 0B       		.uleb128 0xb
 7100 0587 65627800 		.string	"ebx"
GAS LISTING /tmp/ccffpNMU.s 			page 135


 7101 058b 04       		.byte	0x4
 7102 058c A8       		.byte	0xa8
 7103 058d 0B       		.byte	0xb
 7104 058e 6D050000 		.long	0x56d
 7105 0592 00       		.byte	0
 7106 0593 0B       		.uleb128 0xb
 7107 0594 65646900 		.string	"edi"
 7108 0598 04       		.byte	0x4
 7109 0599 A9       		.byte	0xa9
 7110 059a 0B       		.byte	0xb
 7111 059b 6D050000 		.long	0x56d
 7112 059f 04       		.byte	0x4
 7113 05a0 0B       		.uleb128 0xb
 7114 05a1 65736900 		.string	"esi"
 7115 05a5 04       		.byte	0x4
 7116 05a6 AA       		.byte	0xaa
 7117 05a7 0B       		.byte	0xb
 7118 05a8 6D050000 		.long	0x56d
 7119 05ac 08       		.byte	0x8
 7120 05ad 0B       		.uleb128 0xb
 7121 05ae 65627000 		.string	"ebp"
 7122 05b2 04       		.byte	0x4
 7123 05b3 AB       		.byte	0xab
 7124 05b4 0B       		.byte	0xb
 7125 05b5 6D050000 		.long	0x56d
 7126 05b9 0C       		.byte	0xc
 7127 05ba 0B       		.uleb128 0xb
 7128 05bb 65697000 		.string	"eip"
 7129 05bf 04       		.byte	0x4
 7130 05c0 AC       		.byte	0xac
 7131 05c1 0B       		.byte	0xb
 7132 05c2 6D050000 		.long	0x56d
 7133 05c6 10       		.byte	0x10
 7134 05c7 00       		.byte	0
 7135 05c8 09       		.uleb128 0x9
 7136 05c9 FA0C0000 		.long	.LASF87
 7137 05cd 04       		.byte	0x4
 7138 05ce 04       		.byte	0x4
 7139 05cf B4       		.byte	0xb4
 7140 05d0 08       		.byte	0x8
 7141 05d1 E2050000 		.long	0x5e2
 7142 05d5 0B       		.uleb128 0xb
 7143 05d6 737000   		.string	"sp"
 7144 05d9 04       		.byte	0x4
 7145 05da B5       		.byte	0xb5
 7146 05db 17       		.byte	0x17
 7147 05dc E2050000 		.long	0x5e2
 7148 05e0 00       		.byte	0
 7149 05e1 00       		.byte	0
 7150 05e2 07       		.uleb128 0x7
 7151 05e3 04       		.byte	0x4
 7152 05e4 79050000 		.long	0x579
 7153 05e8 15       		.uleb128 0x15
 7154 05e9 C0080000 		.long	.LASF89
 7155 05ed 04       		.byte	0x4
 7156 05ee 1E01     		.value	0x11e
 7157 05f0 0D       		.byte	0xd
GAS LISTING /tmp/ccffpNMU.s 			page 136


 7158 05f1 F5050000 		.long	0x5f5
 7159 05f5 05       		.uleb128 0x5
 7160 05f6 01       		.byte	0x1
 7161 05f7 02       		.byte	0x2
 7162 05f8 CB030000 		.long	.LASF88
 7163 05fc 15       		.uleb128 0x15
 7164 05fd 25040000 		.long	.LASF90
 7165 0601 04       		.byte	0x4
 7166 0602 1F01     		.value	0x11f
 7167 0604 11       		.byte	0x11
 7168 0605 68010000 		.long	0x168
 7169 0609 11       		.uleb128 0x11
 7170 060a 04       		.byte	0x4
 7171 060b 0D       		.byte	0xd
 7172 060c 38       		.byte	0x38
 7173 060d 09       		.byte	0x9
 7174 060e 20060000 		.long	0x620
 7175 0612 0A       		.uleb128 0xa
 7176 0613 B3080000 		.long	.LASF91
 7177 0617 0D       		.byte	0xd
 7178 0618 3C       		.byte	0x3c
 7179 0619 19       		.byte	0x19
 7180 061a 5C010000 		.long	0x15c
 7181 061e 00       		.byte	0
 7182 061f 00       		.byte	0
 7183 0620 03       		.uleb128 0x3
 7184 0621 A90B0000 		.long	.LASF92
 7185 0625 0D       		.byte	0xd
 7186 0626 3D       		.byte	0x3d
 7187 0627 03       		.byte	0x3
 7188 0628 09060000 		.long	0x609
 7189 062c 16       		.uleb128 0x16
 7190 062d 04       		.byte	0x4
 7191 062e 0B       		.byte	0xb
 7192 062f C6       		.byte	0xc6
 7193 0630 03       		.byte	0x3
 7194 0631 97060000 		.long	0x697
 7195 0635 17       		.uleb128 0x17
 7196 0636 C80D0000 		.long	.LASF93
 7197 063a 0B       		.byte	0xb
 7198 063b CD       		.byte	0xcd
 7199 063c 19       		.byte	0x19
 7200 063d A4010000 		.long	0x1a4
 7201 0641 17       		.uleb128 0x17
 7202 0642 C2010000 		.long	.LASF94
 7203 0646 0B       		.byte	0xb
 7204 0647 D4       		.byte	0xd4
 7205 0648 19       		.byte	0x19
 7206 0649 A4010000 		.long	0x1a4
 7207 064d 17       		.uleb128 0x17
 7208 064e 1E040000 		.long	.LASF95
 7209 0652 0B       		.byte	0xb
 7210 0653 DB       		.byte	0xdb
 7211 0654 1A       		.byte	0x1a
 7212 0655 F6000000 		.long	0xf6
 7213 0659 17       		.uleb128 0x17
 7214 065a 54030000 		.long	.LASF96
GAS LISTING /tmp/ccffpNMU.s 			page 137


 7215 065e 0B       		.byte	0xb
 7216 065f E2       		.byte	0xe2
 7217 0660 1A       		.byte	0x1a
 7218 0661 97060000 		.long	0x697
 7219 0665 17       		.uleb128 0x17
 7220 0666 4A090000 		.long	.LASF97
 7221 066a 0B       		.byte	0xb
 7222 066b E7       		.byte	0xe7
 7223 066c 19       		.byte	0x19
 7224 066d A4010000 		.long	0x1a4
 7225 0671 17       		.uleb128 0x17
 7226 0672 2E000000 		.long	.LASF98
 7227 0676 0B       		.byte	0xb
 7228 0677 F0       		.byte	0xf0
 7229 0678 1A       		.byte	0x1a
 7230 0679 C5060000 		.long	0x6c5
 7231 067d 17       		.uleb128 0x17
 7232 067e 05050000 		.long	.LASF99
 7233 0682 0B       		.byte	0xb
 7234 0683 F9       		.byte	0xf9
 7235 0684 1A       		.byte	0x1a
 7236 0685 00070000 		.long	0x700
 7237 0689 18       		.uleb128 0x18
 7238 068a 17030000 		.long	.LASF100
 7239 068e 0B       		.byte	0xb
 7240 068f 0101     		.value	0x101
 7241 0691 19       		.byte	0x19
 7242 0692 B0010000 		.long	0x1b0
 7243 0696 00       		.byte	0
 7244 0697 07       		.uleb128 0x7
 7245 0698 04       		.byte	0x4
 7246 0699 DC020000 		.long	0x2dc
 7247 069d 09       		.uleb128 0x9
 7248 069e EC050000 		.long	.LASF101
 7249 06a2 0C       		.byte	0xc
 7250 06a3 0E       		.byte	0xe
 7251 06a4 34       		.byte	0x34
 7252 06a5 10       		.byte	0x10
 7253 06a6 C5060000 		.long	0x6c5
 7254 06aa 0A       		.uleb128 0xa
 7255 06ab 670A0000 		.long	.LASF40
 7256 06af 0E       		.byte	0xe
 7257 06b0 35       		.byte	0x35
 7258 06b1 19       		.byte	0x19
 7259 06b2 15030000 		.long	0x315
 7260 06b6 00       		.byte	0
 7261 06b7 0B       		.uleb128 0xb
 7262 06b8 636E7400 		.string	"cnt"
 7263 06bc 0E       		.byte	0xe
 7264 06bd 37       		.byte	0x37
 7265 06be 19       		.byte	0x19
 7266 06bf C8010000 		.long	0x1c8
 7267 06c3 08       		.byte	0x8
 7268 06c4 00       		.byte	0
 7269 06c5 07       		.uleb128 0x7
 7270 06c6 04       		.byte	0x4
 7271 06c7 9D060000 		.long	0x69d
GAS LISTING /tmp/ccffpNMU.s 			page 138


 7272 06cb 09       		.uleb128 0x9
 7273 06cc 060C0000 		.long	.LASF102
 7274 06d0 10       		.byte	0x10
 7275 06d1 0F       		.byte	0xf
 7276 06d2 39       		.byte	0x39
 7277 06d3 08       		.byte	0x8
 7278 06d4 00070000 		.long	0x700
 7279 06d8 0A       		.uleb128 0xa
 7280 06d9 670A0000 		.long	.LASF40
 7281 06dd 0F       		.byte	0xf
 7282 06de 3A       		.byte	0x3a
 7283 06df 19       		.byte	0x19
 7284 06e0 15030000 		.long	0x315
 7285 06e4 00       		.byte	0
 7286 06e5 0A       		.uleb128 0xa
 7287 06e6 4B000000 		.long	.LASF103
 7288 06ea 0F       		.byte	0xf
 7289 06eb 3C       		.byte	0x3c
 7290 06ec 1A       		.byte	0x1a
 7291 06ed E8020000 		.long	0x2e8
 7292 06f1 08       		.byte	0x8
 7293 06f2 0A       		.uleb128 0xa
 7294 06f3 9F0E0000 		.long	.LASF59
 7295 06f7 0F       		.byte	0xf
 7296 06f8 3E       		.byte	0x3e
 7297 06f9 1A       		.byte	0x1a
 7298 06fa A7080000 		.long	0x8a7
 7299 06fe 0C       		.byte	0xc
 7300 06ff 00       		.byte	0
 7301 0700 07       		.uleb128 0x7
 7302 0701 04       		.byte	0x4
 7303 0702 CB060000 		.long	0x6cb
 7304 0706 07       		.uleb128 0x7
 7305 0707 04       		.byte	0x4
 7306 0708 05010000 		.long	0x105
 7307 070c 04       		.uleb128 0x4
 7308 070d 06070000 		.long	0x706
 7309 0711 08       		.uleb128 0x8
 7310 0712 06070000 		.long	0x706
 7311 0716 07       		.uleb128 0x7
 7312 0717 04       		.byte	0x4
 7313 0718 60050000 		.long	0x560
 7314 071c 07       		.uleb128 0x7
 7315 071d 04       		.byte	0x4
 7316 071e D5030000 		.long	0x3d5
 7317 0722 19       		.uleb128 0x19
 7318 0723 636800   		.string	"ch"
 7319 0726 0B       		.byte	0xb
 7320 0727 C701     		.value	0x1c7
 7321 0729 14       		.byte	0x14
 7322 072a B2040000 		.long	0x4b2
 7323 072e 1A       		.uleb128 0x1a
 7324 072f 60050000 		.long	0x560
 7325 0733 10       		.byte	0x10
 7326 0734 3A070000 		.long	0x73a
 7327 0738 1B       		.uleb128 0x1b
 7328 0739 00       		.byte	0
GAS LISTING /tmp/ccffpNMU.s 			page 139


 7329 073a 15       		.uleb128 0x15
 7330 073b 27060000 		.long	.LASF104
 7331 073f 03       		.byte	0x3
 7332 0740 1701     		.value	0x117
 7333 0742 13       		.byte	0x13
 7334 0743 2E070000 		.long	0x72e
 7335 0747 11       		.uleb128 0x11
 7336 0748 16       		.byte	0x16
 7337 0749 10       		.byte	0x10
 7338 074a 34       		.byte	0x34
 7339 074b 09       		.byte	0x9
 7340 074c 3B080000 		.long	0x83b
 7341 0750 0A       		.uleb128 0xa
 7342 0751 C10E0000 		.long	.LASF105
 7343 0755 10       		.byte	0x10
 7344 0756 35       		.byte	0x35
 7345 0757 0D       		.byte	0xd
 7346 0758 3B080000 		.long	0x83b
 7347 075c 00       		.byte	0
 7348 075d 0A       		.uleb128 0xa
 7349 075e 4A020000 		.long	.LASF106
 7350 0762 10       		.byte	0x10
 7351 0763 36       		.byte	0x36
 7352 0764 0D       		.byte	0xd
 7353 0765 27010000 		.long	0x127
 7354 0769 04       		.byte	0x4
 7355 076a 0A       		.uleb128 0xa
 7356 076b BA090000 		.long	.LASF107
 7357 076f 10       		.byte	0x10
 7358 0770 37       		.byte	0x37
 7359 0771 0D       		.byte	0xd
 7360 0772 27010000 		.long	0x127
 7361 0776 05       		.byte	0x5
 7362 0777 0A       		.uleb128 0xa
 7363 0778 AD0A0000 		.long	.LASF108
 7364 077c 10       		.byte	0x10
 7365 077d 38       		.byte	0x38
 7366 077e 0D       		.byte	0xd
 7367 077f 38010000 		.long	0x138
 7368 0783 06       		.byte	0x6
 7369 0784 0A       		.uleb128 0xa
 7370 0785 B4040000 		.long	.LASF109
 7371 0789 10       		.byte	0x10
 7372 078a 39       		.byte	0x39
 7373 078b 0D       		.byte	0xd
 7374 078c 27010000 		.long	0x127
 7375 0790 08       		.byte	0x8
 7376 0791 0A       		.uleb128 0xa
 7377 0792 360E0000 		.long	.LASF110
 7378 0796 10       		.byte	0x10
 7379 0797 3A       		.byte	0x3a
 7380 0798 0D       		.byte	0xd
 7381 0799 27010000 		.long	0x127
 7382 079d 09       		.byte	0x9
 7383 079e 0A       		.uleb128 0xa
 7384 079f C3050000 		.long	.LASF111
 7385 07a3 10       		.byte	0x10
GAS LISTING /tmp/ccffpNMU.s 			page 140


 7386 07a4 3B       		.byte	0x3b
 7387 07a5 0D       		.byte	0xd
 7388 07a6 27010000 		.long	0x127
 7389 07aa 0A       		.byte	0xa
 7390 07ab 0A       		.uleb128 0xa
 7391 07ac 1E000000 		.long	.LASF112
 7392 07b0 10       		.byte	0x10
 7393 07b1 3C       		.byte	0x3c
 7394 07b2 0D       		.byte	0xd
 7395 07b3 27010000 		.long	0x127
 7396 07b7 0B       		.byte	0xb
 7397 07b8 0A       		.uleb128 0xa
 7398 07b9 00000000 		.long	.LASF113
 7399 07bd 10       		.byte	0x10
 7400 07be 3D       		.byte	0x3d
 7401 07bf 0D       		.byte	0xd
 7402 07c0 27010000 		.long	0x127
 7403 07c4 0C       		.byte	0xc
 7404 07c5 0A       		.uleb128 0xa
 7405 07c6 56080000 		.long	.LASF114
 7406 07ca 10       		.byte	0x10
 7407 07cb 3E       		.byte	0x3e
 7408 07cc 0D       		.byte	0xd
 7409 07cd 27010000 		.long	0x127
 7410 07d1 0D       		.byte	0xd
 7411 07d2 0A       		.uleb128 0xa
 7412 07d3 7E010000 		.long	.LASF115
 7413 07d7 10       		.byte	0x10
 7414 07d8 3F       		.byte	0x3f
 7415 07d9 0D       		.byte	0xd
 7416 07da 27010000 		.long	0x127
 7417 07de 0E       		.byte	0xe
 7418 07df 0A       		.uleb128 0xa
 7419 07e0 FE090000 		.long	.LASF116
 7420 07e4 10       		.byte	0x10
 7421 07e5 40       		.byte	0x40
 7422 07e6 0D       		.byte	0xd
 7423 07e7 27010000 		.long	0x127
 7424 07eb 0F       		.byte	0xf
 7425 07ec 0A       		.uleb128 0xa
 7426 07ed B2060000 		.long	.LASF117
 7427 07f1 10       		.byte	0x10
 7428 07f2 41       		.byte	0x41
 7429 07f3 0D       		.byte	0xd
 7430 07f4 27010000 		.long	0x127
 7431 07f8 10       		.byte	0x10
 7432 07f9 0A       		.uleb128 0xa
 7433 07fa 9B050000 		.long	.LASF118
 7434 07fe 10       		.byte	0x10
 7435 07ff 42       		.byte	0x42
 7436 0800 0D       		.byte	0xd
 7437 0801 27010000 		.long	0x127
 7438 0805 11       		.byte	0x11
 7439 0806 0A       		.uleb128 0xa
 7440 0807 710E0000 		.long	.LASF119
 7441 080b 10       		.byte	0x10
 7442 080c 43       		.byte	0x43
GAS LISTING /tmp/ccffpNMU.s 			page 141


 7443 080d 0D       		.byte	0xd
 7444 080e 27010000 		.long	0x127
 7445 0812 12       		.byte	0x12
 7446 0813 0A       		.uleb128 0xa
 7447 0814 41040000 		.long	.LASF120
 7448 0818 10       		.byte	0x10
 7449 0819 44       		.byte	0x44
 7450 081a 0D       		.byte	0xd
 7451 081b 27010000 		.long	0x127
 7452 081f 13       		.byte	0x13
 7453 0820 0A       		.uleb128 0xa
 7454 0821 3F000000 		.long	.LASF121
 7455 0825 10       		.byte	0x10
 7456 0826 45       		.byte	0x45
 7457 0827 0D       		.byte	0xd
 7458 0828 27010000 		.long	0x127
 7459 082c 14       		.byte	0x14
 7460 082d 0A       		.uleb128 0xa
 7461 082e D8040000 		.long	.LASF122
 7462 0832 10       		.byte	0x10
 7463 0833 46       		.byte	0x46
 7464 0834 0D       		.byte	0xd
 7465 0835 27010000 		.long	0x127
 7466 0839 15       		.byte	0x15
 7467 083a 00       		.byte	0
 7468 083b 12       		.uleb128 0x12
 7469 083c FE000000 		.long	0xfe
 7470 0840 4B080000 		.long	0x84b
 7471 0844 13       		.uleb128 0x13
 7472 0845 3D000000 		.long	0x3d
 7473 0849 03       		.byte	0x3
 7474 084a 00       		.byte	0
 7475 084b 03       		.uleb128 0x3
 7476 084c 040E0000 		.long	.LASF123
 7477 0850 10       		.byte	0x10
 7478 0851 47       		.byte	0x47
 7479 0852 03       		.byte	0x3
 7480 0853 47070000 		.long	0x747
 7481 0857 08       		.uleb128 0x8
 7482 0858 4B080000 		.long	0x84b
 7483 085c 1C       		.uleb128 0x1c
 7484 085d 6D000000 		.long	.LASF124
 7485 0861 10       		.byte	0x10
 7486 0862 6C       		.byte	0x6c
 7487 0863 1D       		.byte	0x1d
 7488 0864 57080000 		.long	0x857
 7489 0868 03       		.uleb128 0x3
 7490 0869 A40E0000 		.long	.LASF125
 7491 086d 0E       		.byte	0xe
 7492 086e 38       		.byte	0x38
 7493 086f 03       		.byte	0x3
 7494 0870 9D060000 		.long	0x69d
 7495 0874 09       		.uleb128 0x9
 7496 0875 770C0000 		.long	.LASF126
 7497 0879 0C       		.byte	0xc
 7498 087a 02       		.byte	0x2
 7499 087b 4B       		.byte	0x4b
GAS LISTING /tmp/ccffpNMU.s 			page 142


 7500 087c 10       		.byte	0x10
 7501 087d 8F080000 		.long	0x88f
 7502 0881 0B       		.uleb128 0xb
 7503 0882 73656D00 		.string	"sem"
 7504 0886 02       		.byte	0x2
 7505 0887 4C       		.byte	0x4c
 7506 0888 19       		.byte	0x19
 7507 0889 68080000 		.long	0x868
 7508 088d 00       		.byte	0
 7509 088e 00       		.byte	0
 7510 088f 03       		.uleb128 0x3
 7511 0890 3C0A0000 		.long	.LASF127
 7512 0894 02       		.byte	0x2
 7513 0895 4D       		.byte	0x4d
 7514 0896 03       		.byte	0x3
 7515 0897 74080000 		.long	0x874
 7516 089b 03       		.uleb128 0x3
 7517 089c DE0C0000 		.long	.LASF128
 7518 08a0 0F       		.byte	0xf
 7519 08a1 34       		.byte	0x34
 7520 08a2 19       		.byte	0x19
 7521 08a3 CB060000 		.long	0x6cb
 7522 08a7 07       		.uleb128 0x7
 7523 08a8 04       		.byte	0x4
 7524 08a9 9B080000 		.long	0x89b
 7525 08ad 03       		.uleb128 0x3
 7526 08ae 99040000 		.long	.LASF129
 7527 08b2 11       		.byte	0x11
 7528 08b3 34       		.byte	0x34
 7529 08b4 1F       		.byte	0x1f
 7530 08b5 B9080000 		.long	0x8b9
 7531 08b9 09       		.uleb128 0x9
 7532 08ba B90D0000 		.long	.LASF130
 7533 08be 14       		.byte	0x14
 7534 08bf 11       		.byte	0x11
 7535 08c0 39       		.byte	0x39
 7536 08c1 08       		.byte	0x8
 7537 08c2 08090000 		.long	0x908
 7538 08c6 0A       		.uleb128 0xa
 7539 08c7 9F0E0000 		.long	.LASF59
 7540 08cb 11       		.byte	0x11
 7541 08cc 3A       		.byte	0x3a
 7542 08cd 1A       		.byte	0x1a
 7543 08ce 08090000 		.long	0x908
 7544 08d2 00       		.byte	0
 7545 08d3 0A       		.uleb128 0xa
 7546 08d4 D10B0000 		.long	.LASF131
 7547 08d8 11       		.byte	0x11
 7548 08d9 3D       		.byte	0x3d
 7549 08da 1A       		.byte	0x1a
 7550 08db E8020000 		.long	0x2e8
 7551 08df 04       		.byte	0x4
 7552 08e0 0A       		.uleb128 0xa
 7553 08e1 980E0000 		.long	.LASF132
 7554 08e5 11       		.byte	0x11
 7555 08e6 3F       		.byte	0x3f
 7556 08e7 19       		.byte	0x19
GAS LISTING /tmp/ccffpNMU.s 			page 143


 7557 08e8 B0010000 		.long	0x1b0
 7558 08ec 08       		.byte	0x8
 7559 08ed 0A       		.uleb128 0xa
 7560 08ee 4A040000 		.long	.LASF47
 7561 08f2 11       		.byte	0x11
 7562 08f3 41       		.byte	0x41
 7563 08f4 19       		.byte	0x19
 7564 08f5 BC010000 		.long	0x1bc
 7565 08f9 0C       		.byte	0xc
 7566 08fa 0A       		.uleb128 0xa
 7567 08fb 30090000 		.long	.LASF133
 7568 08ff 11       		.byte	0x11
 7569 0900 43       		.byte	0x43
 7570 0901 19       		.byte	0x19
 7571 0902 BC010000 		.long	0x1bc
 7572 0906 10       		.byte	0x10
 7573 0907 00       		.byte	0
 7574 0908 07       		.uleb128 0x7
 7575 0909 04       		.byte	0x4
 7576 090a AD080000 		.long	0x8ad
 7577 090e 09       		.uleb128 0x9
 7578 090f EB0B0000 		.long	.LASF134
 7579 0913 04       		.byte	0x4
 7580 0914 11       		.byte	0x11
 7581 0915 4A       		.byte	0x4a
 7582 0916 10       		.byte	0x10
 7583 0917 29090000 		.long	0x929
 7584 091b 0A       		.uleb128 0xa
 7585 091c 9F0E0000 		.long	.LASF59
 7586 0920 11       		.byte	0x11
 7587 0921 4B       		.byte	0x4b
 7588 0922 1A       		.byte	0x1a
 7589 0923 08090000 		.long	0x908
 7590 0927 00       		.byte	0
 7591 0928 00       		.byte	0
 7592 0929 03       		.uleb128 0x3
 7593 092a 74070000 		.long	.LASF135
 7594 092e 11       		.byte	0x11
 7595 092f 4E       		.byte	0x4e
 7596 0930 03       		.byte	0x3
 7597 0931 0E090000 		.long	0x90e
 7598 0935 03       		.uleb128 0x3
 7599 0936 00090000 		.long	.LASF136
 7600 093a 12       		.byte	0x12
 7601 093b 4B       		.byte	0x4b
 7602 093c 11       		.byte	0x11
 7603 093d 41090000 		.long	0x941
 7604 0941 07       		.uleb128 0x7
 7605 0942 04       		.byte	0x4
 7606 0943 47090000 		.long	0x947
 7607 0947 1D       		.uleb128 0x1d
 7608 0948 F6000000 		.long	0xf6
 7609 094c 5B090000 		.long	0x95b
 7610 0950 10       		.uleb128 0x10
 7611 0951 2C000000 		.long	0x2c
 7612 0955 10       		.uleb128 0x10
 7613 0956 3D000000 		.long	0x3d
GAS LISTING /tmp/ccffpNMU.s 			page 144


 7614 095a 00       		.byte	0
 7615 095b 11       		.uleb128 0x11
 7616 095c 08       		.byte	0x8
 7617 095d 12       		.byte	0x12
 7618 095e 55       		.byte	0x55
 7619 095f 09       		.byte	0x9
 7620 0960 7F090000 		.long	0x97f
 7621 0964 0A       		.uleb128 0xa
 7622 0965 54050000 		.long	.LASF137
 7623 0969 12       		.byte	0x12
 7624 096a 59       		.byte	0x59
 7625 096b 0C       		.byte	0xc
 7626 096c 7F090000 		.long	0x97f
 7627 0970 00       		.byte	0
 7628 0971 0A       		.uleb128 0xa
 7629 0972 27000000 		.long	.LASF138
 7630 0976 12       		.byte	0x12
 7631 0977 5D       		.byte	0x5d
 7632 0978 0C       		.byte	0xc
 7633 0979 7F090000 		.long	0x97f
 7634 097d 04       		.byte	0x4
 7635 097e 00       		.byte	0
 7636 097f 07       		.uleb128 0x7
 7637 0980 04       		.byte	0x4
 7638 0981 27010000 		.long	0x127
 7639 0985 03       		.uleb128 0x3
 7640 0986 F8020000 		.long	.LASF139
 7641 098a 12       		.byte	0x12
 7642 098b 5E       		.byte	0x5e
 7643 098c 03       		.byte	0x3
 7644 098d 5B090000 		.long	0x95b
 7645 0991 1C       		.uleb128 0x1c
 7646 0992 660E0000 		.long	.LASF140
 7647 0996 12       		.byte	0x12
 7648 0997 69       		.byte	0x69
 7649 0998 12       		.byte	0x12
 7650 0999 85090000 		.long	0x985
 7651 099d 09       		.uleb128 0x9
 7652 099e BF060000 		.long	.LASF141
 7653 09a2 04       		.byte	0x4
 7654 09a3 13       		.byte	0x13
 7655 09a4 3C       		.byte	0x3c
 7656 09a5 08       		.byte	0x8
 7657 09a6 B8090000 		.long	0x9b8
 7658 09aa 0A       		.uleb128 0xa
 7659 09ab 9F0E0000 		.long	.LASF59
 7660 09af 13       		.byte	0x13
 7661 09b0 3D       		.byte	0x3d
 7662 09b1 1A       		.byte	0x1a
 7663 09b2 B8090000 		.long	0x9b8
 7664 09b6 00       		.byte	0
 7665 09b7 00       		.byte	0
 7666 09b8 07       		.uleb128 0x7
 7667 09b9 04       		.byte	0x4
 7668 09ba 9D090000 		.long	0x99d
 7669 09be 11       		.uleb128 0x11
 7670 09bf 10       		.byte	0x10
GAS LISTING /tmp/ccffpNMU.s 			page 145


 7671 09c0 13       		.byte	0x13
 7672 09c1 44       		.byte	0x44
 7673 09c2 09       		.byte	0x9
 7674 09c3 FC090000 		.long	0x9fc
 7675 09c7 0A       		.uleb128 0xa
 7676 09c8 9F0E0000 		.long	.LASF59
 7677 09cc 13       		.byte	0x13
 7678 09cd 45       		.byte	0x45
 7679 09ce 1A       		.byte	0x1a
 7680 09cf B8090000 		.long	0x9b8
 7681 09d3 00       		.byte	0
 7682 09d4 0A       		.uleb128 0xa
 7683 09d5 AA0C0000 		.long	.LASF142
 7684 09d9 13       		.byte	0x13
 7685 09da 46       		.byte	0x46
 7686 09db 19       		.byte	0x19
 7687 09dc 2C000000 		.long	0x2c
 7688 09e0 04       		.byte	0x4
 7689 09e1 0A       		.uleb128 0xa
 7690 09e2 04080000 		.long	.LASF143
 7691 09e6 13       		.byte	0x13
 7692 09e7 48       		.byte	0x48
 7693 09e8 19       		.byte	0x19
 7694 09e9 3D000000 		.long	0x3d
 7695 09ed 08       		.byte	0x8
 7696 09ee 0A       		.uleb128 0xa
 7697 09ef 76000000 		.long	.LASF144
 7698 09f3 13       		.byte	0x13
 7699 09f4 49       		.byte	0x49
 7700 09f5 19       		.byte	0x19
 7701 09f6 35090000 		.long	0x935
 7702 09fa 0C       		.byte	0xc
 7703 09fb 00       		.byte	0
 7704 09fc 03       		.uleb128 0x3
 7705 09fd E90A0000 		.long	.LASF145
 7706 0a01 13       		.byte	0x13
 7707 0a02 4B       		.byte	0x4b
 7708 0a03 03       		.byte	0x3
 7709 0a04 BE090000 		.long	0x9be
 7710 0a08 09       		.uleb128 0x9
 7711 0a09 13010000 		.long	.LASF146
 7712 0a0d 10       		.byte	0x10
 7713 0a0e 14       		.byte	0x14
 7714 0a0f 97       		.byte	0x97
 7715 0a10 10       		.byte	0x10
 7716 0a11 3D0A0000 		.long	0xa3d
 7717 0a15 0A       		.uleb128 0xa
 7718 0a16 9F0E0000 		.long	.LASF59
 7719 0a1a 14       		.byte	0x14
 7720 0a1b 9B       		.byte	0x9b
 7721 0a1c 1A       		.byte	0x1a
 7722 0a1d 3D0A0000 		.long	0xa3d
 7723 0a21 00       		.byte	0
 7724 0a22 0A       		.uleb128 0xa
 7725 0a23 620A0000 		.long	.LASF48
 7726 0a27 14       		.byte	0x14
 7727 0a28 9F       		.byte	0x9f
GAS LISTING /tmp/ccffpNMU.s 			page 146


 7728 0a29 19       		.byte	0x19
 7729 0a2a D4010000 		.long	0x1d4
 7730 0a2e 04       		.byte	0x4
 7731 0a2f 0A       		.uleb128 0xa
 7732 0a30 C20B0000 		.long	.LASF44
 7733 0a34 14       		.byte	0x14
 7734 0a35 A1       		.byte	0xa1
 7735 0a36 19       		.byte	0x19
 7736 0a37 430A0000 		.long	0xa43
 7737 0a3b 08       		.byte	0x8
 7738 0a3c 00       		.byte	0
 7739 0a3d 07       		.uleb128 0x7
 7740 0a3e 04       		.byte	0x4
 7741 0a3f 080A0000 		.long	0xa08
 7742 0a43 12       		.uleb128 0x12
 7743 0a44 FE000000 		.long	0xfe
 7744 0a48 530A0000 		.long	0xa53
 7745 0a4c 13       		.uleb128 0x13
 7746 0a4d 3D000000 		.long	0x3d
 7747 0a51 07       		.byte	0x7
 7748 0a52 00       		.byte	0
 7749 0a53 03       		.uleb128 0x3
 7750 0a54 D00C0000 		.long	.LASF147
 7751 0a58 14       		.byte	0x14
 7752 0a59 A5       		.byte	0xa5
 7753 0a5a 03       		.byte	0x3
 7754 0a5b 080A0000 		.long	0xa08
 7755 0a5f 09       		.uleb128 0x9
 7756 0a60 B50E0000 		.long	.LASF148
 7757 0a64 04       		.byte	0x4
 7758 0a65 14       		.byte	0x14
 7759 0a66 AA       		.byte	0xaa
 7760 0a67 10       		.byte	0x10
 7761 0a68 7A0A0000 		.long	0xa7a
 7762 0a6c 0A       		.uleb128 0xa
 7763 0a6d 9F0E0000 		.long	.LASF59
 7764 0a71 14       		.byte	0x14
 7765 0a72 AB       		.byte	0xab
 7766 0a73 1A       		.byte	0x1a
 7767 0a74 7A0A0000 		.long	0xa7a
 7768 0a78 00       		.byte	0
 7769 0a79 00       		.byte	0
 7770 0a7a 07       		.uleb128 0x7
 7771 0a7b 04       		.byte	0x4
 7772 0a7c 530A0000 		.long	0xa53
 7773 0a80 03       		.uleb128 0x3
 7774 0a81 6C0C0000 		.long	.LASF149
 7775 0a85 14       		.byte	0x14
 7776 0a86 AC       		.byte	0xac
 7777 0a87 03       		.byte	0x3
 7778 0a88 5F0A0000 		.long	0xa5f
 7779 0a8c 0E       		.uleb128 0xe
 7780 0a8d 4D070000 		.long	.LASF150
 7781 0a91 44       		.byte	0x44
 7782 0a92 14       		.byte	0x14
 7783 0a93 1501     		.value	0x115
 7784 0a95 10       		.byte	0x10
GAS LISTING /tmp/ccffpNMU.s 			page 147


 7785 0a96 0B0B0000 		.long	0xb0b
 7786 0a9a 0C       		.uleb128 0xc
 7787 0a9b 6D747800 		.string	"mtx"
 7788 0a9f 14       		.byte	0x14
 7789 0aa0 1A01     		.value	0x11a
 7790 0aa2 19       		.byte	0x19
 7791 0aa3 9B080000 		.long	0x89b
 7792 0aa7 00       		.byte	0
 7793 0aa8 0D       		.uleb128 0xd
 7794 0aa9 75010000 		.long	.LASF151
 7795 0aad 14       		.byte	0x14
 7796 0aae 2101     		.value	0x121
 7797 0ab0 19       		.byte	0x19
 7798 0ab1 800A0000 		.long	0xa80
 7799 0ab5 10       		.byte	0x10
 7800 0ab6 0D       		.uleb128 0xd
 7801 0ab7 D2020000 		.long	.LASF152
 7802 0abb 14       		.byte	0x14
 7803 0abc 2501     		.value	0x125
 7804 0abe 19       		.byte	0x19
 7805 0abf FC090000 		.long	0x9fc
 7806 0ac3 14       		.byte	0x14
 7807 0ac4 0D       		.uleb128 0xd
 7808 0ac5 85090000 		.long	.LASF153
 7809 0ac9 14       		.byte	0x14
 7810 0aca 2A01     		.value	0x12a
 7811 0acc 19       		.byte	0x19
 7812 0acd 800A0000 		.long	0xa80
 7813 0ad1 24       		.byte	0x24
 7814 0ad2 0D       		.uleb128 0xd
 7815 0ad3 FA030000 		.long	.LASF154
 7816 0ad7 14       		.byte	0x14
 7817 0ad8 3001     		.value	0x130
 7818 0ada 19       		.byte	0x19
 7819 0adb 800A0000 		.long	0xa80
 7820 0adf 28       		.byte	0x28
 7821 0ae0 0D       		.uleb128 0xd
 7822 0ae1 30050000 		.long	.LASF155
 7823 0ae5 14       		.byte	0x14
 7824 0ae6 3401     		.value	0x134
 7825 0ae8 19       		.byte	0x19
 7826 0ae9 FC090000 		.long	0x9fc
 7827 0aed 2C       		.byte	0x2c
 7828 0aee 0D       		.uleb128 0xd
 7829 0aef 890A0000 		.long	.LASF156
 7830 0af3 14       		.byte	0x14
 7831 0af4 3A01     		.value	0x13a
 7832 0af6 19       		.byte	0x19
 7833 0af7 800A0000 		.long	0xa80
 7834 0afb 3C       		.byte	0x3c
 7835 0afc 0D       		.uleb128 0xd
 7836 0afd 59060000 		.long	.LASF157
 7837 0b01 14       		.byte	0x14
 7838 0b02 4001     		.value	0x140
 7839 0b04 19       		.byte	0x19
 7840 0b05 800A0000 		.long	0xa80
 7841 0b09 40       		.byte	0x40
GAS LISTING /tmp/ccffpNMU.s 			page 148


 7842 0b0a 00       		.byte	0
 7843 0b0b 1E       		.uleb128 0x1e
 7844 0b0c 6D090000 		.long	.LASF158
 7845 0b10 14       		.byte	0x14
 7846 0b11 4201     		.value	0x142
 7847 0b13 03       		.byte	0x3
 7848 0b14 8C0A0000 		.long	0xa8c
 7849 0b18 15       		.uleb128 0x15
 7850 0b19 7E0A0000 		.long	.LASF159
 7851 0b1d 14       		.byte	0x14
 7852 0b1e 4D01     		.value	0x14d
 7853 0b20 1A       		.byte	0x1a
 7854 0b21 0B0B0000 		.long	0xb0b
 7855 0b25 12       		.uleb128 0x12
 7856 0b26 FE000000 		.long	0xfe
 7857 0b2a 350B0000 		.long	0xb35
 7858 0b2e 13       		.uleb128 0x13
 7859 0b2f 3D000000 		.long	0x3d
 7860 0b33 27       		.byte	0x27
 7861 0b34 00       		.byte	0
 7862 0b35 16       		.uleb128 0x16
 7863 0b36 10       		.byte	0x10
 7864 0b37 15       		.byte	0x15
 7865 0b38 D5       		.byte	0xd5
 7866 0b39 05       		.byte	0x5
 7867 0b3a 630B0000 		.long	0xb63
 7868 0b3e 17       		.uleb128 0x17
 7869 0b3f 06070000 		.long	.LASF160
 7870 0b43 15       		.byte	0x15
 7871 0b44 D7       		.byte	0xd7
 7872 0b45 0A       		.byte	0xa
 7873 0b46 50050000 		.long	0x550
 7874 0b4a 17       		.uleb128 0x17
 7875 0b4b 5C0D0000 		.long	.LASF161
 7876 0b4f 15       		.byte	0x15
 7877 0b50 D8       		.byte	0xd8
 7878 0b51 0B       		.byte	0xb
 7879 0b52 630B0000 		.long	0xb63
 7880 0b56 17       		.uleb128 0x17
 7881 0b57 5A0E0000 		.long	.LASF162
 7882 0b5b 15       		.byte	0x15
 7883 0b5c D9       		.byte	0xd9
 7884 0b5d 0B       		.byte	0xb
 7885 0b5e 730B0000 		.long	0xb73
 7886 0b62 00       		.byte	0
 7887 0b63 12       		.uleb128 0x12
 7888 0b64 38010000 		.long	0x138
 7889 0b68 730B0000 		.long	0xb73
 7890 0b6c 13       		.uleb128 0x13
 7891 0b6d 3D000000 		.long	0x3d
 7892 0b71 07       		.byte	0x7
 7893 0b72 00       		.byte	0
 7894 0b73 12       		.uleb128 0x12
 7895 0b74 44010000 		.long	0x144
 7896 0b78 830B0000 		.long	0xb83
 7897 0b7c 13       		.uleb128 0x13
 7898 0b7d 3D000000 		.long	0x3d
GAS LISTING /tmp/ccffpNMU.s 			page 149


 7899 0b81 03       		.byte	0x3
 7900 0b82 00       		.byte	0
 7901 0b83 09       		.uleb128 0x9
 7902 0b84 F7080000 		.long	.LASF163
 7903 0b88 10       		.byte	0x10
 7904 0b89 15       		.byte	0x15
 7905 0b8a D3       		.byte	0xd3
 7906 0b8b 08       		.byte	0x8
 7907 0b8c 9E0B0000 		.long	0xb9e
 7908 0b90 0A       		.uleb128 0xa
 7909 0b91 BA0B0000 		.long	.LASF164
 7910 0b95 15       		.byte	0x15
 7911 0b96 DA       		.byte	0xda
 7912 0b97 09       		.byte	0x9
 7913 0b98 350B0000 		.long	0xb35
 7914 0b9c 00       		.byte	0
 7915 0b9d 00       		.byte	0
 7916 0b9e 08       		.uleb128 0x8
 7917 0b9f 830B0000 		.long	0xb83
 7918 0ba3 1C       		.uleb128 0x1c
 7919 0ba4 C5040000 		.long	.LASF165
 7920 0ba8 15       		.byte	0x15
 7921 0ba9 E3       		.byte	0xe3
 7922 0baa 1E       		.byte	0x1e
 7923 0bab 9E0B0000 		.long	0xb9e
 7924 0baf 1C       		.uleb128 0x1c
 7925 0bb0 BA000000 		.long	.LASF166
 7926 0bb4 15       		.byte	0x15
 7927 0bb5 E4       		.byte	0xe4
 7928 0bb6 1E       		.byte	0x1e
 7929 0bb7 9E0B0000 		.long	0xb9e
 7930 0bbb 07       		.uleb128 0x7
 7931 0bbc 04       		.byte	0x4
 7932 0bbd F8000000 		.long	0xf8
 7933 0bc1 15       		.uleb128 0x15
 7934 0bc2 08020000 		.long	.LASF167
 7935 0bc6 16       		.byte	0x16
 7936 0bc7 1F02     		.value	0x21f
 7937 0bc9 0F       		.byte	0xf
 7938 0bca BB0B0000 		.long	0xbbb
 7939 0bce 1C       		.uleb128 0x1c
 7940 0bcf B20D0000 		.long	.LASF168
 7941 0bd3 17       		.byte	0x17
 7942 0bd4 24       		.byte	0x24
 7943 0bd5 0E       		.byte	0xe
 7944 0bd6 F8000000 		.long	0xf8
 7945 0bda 1C       		.uleb128 0x1c
 7946 0bdb 5C050000 		.long	.LASF169
 7947 0bdf 17       		.byte	0x17
 7948 0be0 32       		.byte	0x32
 7949 0be1 0C       		.byte	0xc
 7950 0be2 25000000 		.long	0x25
 7951 0be6 1C       		.uleb128 0x1c
 7952 0be7 770A0000 		.long	.LASF170
 7953 0beb 17       		.byte	0x17
 7954 0bec 37       		.byte	0x37
 7955 0bed 0C       		.byte	0xc
GAS LISTING /tmp/ccffpNMU.s 			page 150


 7956 0bee 25000000 		.long	0x25
 7957 0bf2 1C       		.uleb128 0x1c
 7958 0bf3 AA090000 		.long	.LASF171
 7959 0bf7 17       		.byte	0x17
 7960 0bf8 3B       		.byte	0x3b
 7961 0bf9 0C       		.byte	0xc
 7962 0bfa 25000000 		.long	0x25
 7963 0bfe 09       		.uleb128 0x9
 7964 0bff 26030000 		.long	.LASF172
 7965 0c03 94       		.byte	0x94
 7966 0c04 18       		.byte	0x18
 7967 0c05 31       		.byte	0x31
 7968 0c06 08       		.byte	0x8
 7969 0c07 850D0000 		.long	0xd85
 7970 0c0b 0A       		.uleb128 0xa
 7971 0c0c AC080000 		.long	.LASF173
 7972 0c10 18       		.byte	0x18
 7973 0c11 33       		.byte	0x33
 7974 0c12 07       		.byte	0x7
 7975 0c13 25000000 		.long	0x25
 7976 0c17 00       		.byte	0
 7977 0c18 0A       		.uleb128 0xa
 7978 0c19 50040000 		.long	.LASF174
 7979 0c1d 18       		.byte	0x18
 7980 0c1e 36       		.byte	0x36
 7981 0c1f 09       		.byte	0x9
 7982 0c20 F8000000 		.long	0xf8
 7983 0c24 04       		.byte	0x4
 7984 0c25 0A       		.uleb128 0xa
 7985 0c26 070D0000 		.long	.LASF175
 7986 0c2a 18       		.byte	0x18
 7987 0c2b 37       		.byte	0x37
 7988 0c2c 09       		.byte	0x9
 7989 0c2d F8000000 		.long	0xf8
 7990 0c31 08       		.byte	0x8
 7991 0c32 0A       		.uleb128 0xa
 7992 0c33 03060000 		.long	.LASF176
 7993 0c37 18       		.byte	0x18
 7994 0c38 38       		.byte	0x38
 7995 0c39 09       		.byte	0x9
 7996 0c3a F8000000 		.long	0xf8
 7997 0c3e 0C       		.byte	0xc
 7998 0c3f 0A       		.uleb128 0xa
 7999 0c40 22010000 		.long	.LASF177
 8000 0c44 18       		.byte	0x18
 8001 0c45 39       		.byte	0x39
 8002 0c46 09       		.byte	0x9
 8003 0c47 F8000000 		.long	0xf8
 8004 0c4b 10       		.byte	0x10
 8005 0c4c 0A       		.uleb128 0xa
 8006 0c4d 190E0000 		.long	.LASF178
 8007 0c51 18       		.byte	0x18
 8008 0c52 3A       		.byte	0x3a
 8009 0c53 09       		.byte	0x9
 8010 0c54 F8000000 		.long	0xf8
 8011 0c58 14       		.byte	0x14
 8012 0c59 0A       		.uleb128 0xa
GAS LISTING /tmp/ccffpNMU.s 			page 151


 8013 0c5a 66070000 		.long	.LASF179
 8014 0c5e 18       		.byte	0x18
 8015 0c5f 3B       		.byte	0x3b
 8016 0c60 09       		.byte	0x9
 8017 0c61 F8000000 		.long	0xf8
 8018 0c65 18       		.byte	0x18
 8019 0c66 0A       		.uleb128 0xa
 8020 0c67 49080000 		.long	.LASF180
 8021 0c6b 18       		.byte	0x18
 8022 0c6c 3C       		.byte	0x3c
 8023 0c6d 09       		.byte	0x9
 8024 0c6e F8000000 		.long	0xf8
 8025 0c72 1C       		.byte	0x1c
 8026 0c73 0A       		.uleb128 0xa
 8027 0c74 9D0B0000 		.long	.LASF181
 8028 0c78 18       		.byte	0x18
 8029 0c79 3D       		.byte	0x3d
 8030 0c7a 09       		.byte	0x9
 8031 0c7b F8000000 		.long	0xf8
 8032 0c7f 20       		.byte	0x20
 8033 0c80 0A       		.uleb128 0xa
 8034 0c81 5C010000 		.long	.LASF182
 8035 0c85 18       		.byte	0x18
 8036 0c86 40       		.byte	0x40
 8037 0c87 09       		.byte	0x9
 8038 0c88 F8000000 		.long	0xf8
 8039 0c8c 24       		.byte	0x24
 8040 0c8d 0A       		.uleb128 0xa
 8041 0c8e B50A0000 		.long	.LASF183
 8042 0c92 18       		.byte	0x18
 8043 0c93 41       		.byte	0x41
 8044 0c94 09       		.byte	0x9
 8045 0c95 F8000000 		.long	0xf8
 8046 0c99 28       		.byte	0x28
 8047 0c9a 0A       		.uleb128 0xa
 8048 0c9b AD000000 		.long	.LASF184
 8049 0c9f 18       		.byte	0x18
 8050 0ca0 42       		.byte	0x42
 8051 0ca1 09       		.byte	0x9
 8052 0ca2 F8000000 		.long	0xf8
 8053 0ca6 2C       		.byte	0x2c
 8054 0ca7 0A       		.uleb128 0xa
 8055 0ca8 BC040000 		.long	.LASF185
 8056 0cac 18       		.byte	0x18
 8057 0cad 44       		.byte	0x44
 8058 0cae 16       		.byte	0x16
 8059 0caf 9E0D0000 		.long	0xd9e
 8060 0cb3 30       		.byte	0x30
 8061 0cb4 0A       		.uleb128 0xa
 8062 0cb5 88010000 		.long	.LASF186
 8063 0cb9 18       		.byte	0x18
 8064 0cba 46       		.byte	0x46
 8065 0cbb 14       		.byte	0x14
 8066 0cbc A40D0000 		.long	0xda4
 8067 0cc0 34       		.byte	0x34
 8068 0cc1 0A       		.uleb128 0xa
 8069 0cc2 870D0000 		.long	.LASF187
GAS LISTING /tmp/ccffpNMU.s 			page 152


 8070 0cc6 18       		.byte	0x18
 8071 0cc7 48       		.byte	0x48
 8072 0cc8 07       		.byte	0x7
 8073 0cc9 25000000 		.long	0x25
 8074 0ccd 38       		.byte	0x38
 8075 0cce 0A       		.uleb128 0xa
 8076 0ccf D8050000 		.long	.LASF188
 8077 0cd3 18       		.byte	0x18
 8078 0cd4 49       		.byte	0x49
 8079 0cd5 07       		.byte	0x7
 8080 0cd6 25000000 		.long	0x25
 8081 0cda 3C       		.byte	0x3c
 8082 0cdb 0A       		.uleb128 0xa
 8083 0cdc 75080000 		.long	.LASF189
 8084 0ce0 18       		.byte	0x18
 8085 0ce1 4A       		.byte	0x4a
 8086 0ce2 0B       		.byte	0xb
 8087 0ce3 DE000000 		.long	0xde
 8088 0ce7 40       		.byte	0x40
 8089 0ce8 0A       		.uleb128 0xa
 8090 0ce9 A3010000 		.long	.LASF190
 8091 0ced 18       		.byte	0x18
 8092 0cee 4D       		.byte	0x4d
 8093 0cef 12       		.byte	0x12
 8094 0cf0 67000000 		.long	0x67
 8095 0cf4 44       		.byte	0x44
 8096 0cf5 0A       		.uleb128 0xa
 8097 0cf6 4D0C0000 		.long	.LASF191
 8098 0cfa 18       		.byte	0x18
 8099 0cfb 4E       		.byte	0x4e
 8100 0cfc 0F       		.byte	0xf
 8101 0cfd 81000000 		.long	0x81
 8102 0d01 46       		.byte	0x46
 8103 0d02 0A       		.uleb128 0xa
 8104 0d03 C50A0000 		.long	.LASF192
 8105 0d07 18       		.byte	0x18
 8106 0d08 4F       		.byte	0x4f
 8107 0d09 08       		.byte	0x8
 8108 0d0a AA0D0000 		.long	0xdaa
 8109 0d0e 47       		.byte	0x47
 8110 0d0f 0A       		.uleb128 0xa
 8111 0d10 37010000 		.long	.LASF193
 8112 0d14 18       		.byte	0x18
 8113 0d15 51       		.byte	0x51
 8114 0d16 0F       		.byte	0xf
 8115 0d17 BA0D0000 		.long	0xdba
 8116 0d1b 48       		.byte	0x48
 8117 0d1c 0A       		.uleb128 0xa
 8118 0d1d 39050000 		.long	.LASF194
 8119 0d21 18       		.byte	0x18
 8120 0d22 59       		.byte	0x59
 8121 0d23 0D       		.byte	0xd
 8122 0d24 EA000000 		.long	0xea
 8123 0d28 4C       		.byte	0x4c
 8124 0d29 0A       		.uleb128 0xa
 8125 0d2a EE080000 		.long	.LASF195
 8126 0d2e 18       		.byte	0x18
GAS LISTING /tmp/ccffpNMU.s 			page 153


 8127 0d2f 5B       		.byte	0x5b
 8128 0d30 17       		.byte	0x17
 8129 0d31 C50D0000 		.long	0xdc5
 8130 0d35 54       		.byte	0x54
 8131 0d36 0A       		.uleb128 0xa
 8132 0d37 A70D0000 		.long	.LASF196
 8133 0d3b 18       		.byte	0x18
 8134 0d3c 5C       		.byte	0x5c
 8135 0d3d 19       		.byte	0x19
 8136 0d3e D00D0000 		.long	0xdd0
 8137 0d42 58       		.byte	0x58
 8138 0d43 0A       		.uleb128 0xa
 8139 0d44 81030000 		.long	.LASF197
 8140 0d48 18       		.byte	0x18
 8141 0d49 5D       		.byte	0x5d
 8142 0d4a 14       		.byte	0x14
 8143 0d4b A40D0000 		.long	0xda4
 8144 0d4f 5C       		.byte	0x5c
 8145 0d50 0A       		.uleb128 0xa
 8146 0d51 550A0000 		.long	.LASF198
 8147 0d55 18       		.byte	0x18
 8148 0d56 5E       		.byte	0x5e
 8149 0d57 09       		.byte	0x9
 8150 0d58 F6000000 		.long	0xf6
 8151 0d5c 60       		.byte	0x60
 8152 0d5d 0A       		.uleb128 0xa
 8153 0d5e 95080000 		.long	.LASF199
 8154 0d62 18       		.byte	0x18
 8155 0d63 5F       		.byte	0x5f
 8156 0d64 0A       		.byte	0xa
 8157 0d65 2C000000 		.long	0x2c
 8158 0d69 64       		.byte	0x64
 8159 0d6a 0A       		.uleb128 0xa
 8160 0d6b BA080000 		.long	.LASF200
 8161 0d6f 18       		.byte	0x18
 8162 0d70 60       		.byte	0x60
 8163 0d71 07       		.byte	0x7
 8164 0d72 25000000 		.long	0x25
 8165 0d76 68       		.byte	0x68
 8166 0d77 0A       		.uleb128 0xa
 8167 0d78 47060000 		.long	.LASF201
 8168 0d7c 18       		.byte	0x18
 8169 0d7d 62       		.byte	0x62
 8170 0d7e 08       		.byte	0x8
 8171 0d7f 250B0000 		.long	0xb25
 8172 0d83 6C       		.byte	0x6c
 8173 0d84 00       		.byte	0
 8174 0d85 03       		.uleb128 0x3
 8175 0d86 12020000 		.long	.LASF202
 8176 0d8a 19       		.byte	0x19
 8177 0d8b 07       		.byte	0x7
 8178 0d8c 19       		.byte	0x19
 8179 0d8d FE0B0000 		.long	0xbfe
 8180 0d91 1F       		.uleb128 0x1f
 8181 0d92 03040000 		.long	.LASF340
 8182 0d96 18       		.byte	0x18
 8183 0d97 2B       		.byte	0x2b
GAS LISTING /tmp/ccffpNMU.s 			page 154


 8184 0d98 0E       		.byte	0xe
 8185 0d99 20       		.uleb128 0x20
 8186 0d9a 6D020000 		.long	.LASF203
 8187 0d9e 07       		.uleb128 0x7
 8188 0d9f 04       		.byte	0x4
 8189 0da0 990D0000 		.long	0xd99
 8190 0da4 07       		.uleb128 0x7
 8191 0da5 04       		.byte	0x4
 8192 0da6 FE0B0000 		.long	0xbfe
 8193 0daa 12       		.uleb128 0x12
 8194 0dab FE000000 		.long	0xfe
 8195 0daf BA0D0000 		.long	0xdba
 8196 0db3 13       		.uleb128 0x13
 8197 0db4 3D000000 		.long	0x3d
 8198 0db8 00       		.byte	0
 8199 0db9 00       		.byte	0
 8200 0dba 07       		.uleb128 0x7
 8201 0dbb 04       		.byte	0x4
 8202 0dbc 910D0000 		.long	0xd91
 8203 0dc0 20       		.uleb128 0x20
 8204 0dc1 7F000000 		.long	.LASF204
 8205 0dc5 07       		.uleb128 0x7
 8206 0dc6 04       		.byte	0x4
 8207 0dc7 C00D0000 		.long	0xdc0
 8208 0dcb 20       		.uleb128 0x20
 8209 0dcc 3A030000 		.long	.LASF205
 8210 0dd0 07       		.uleb128 0x7
 8211 0dd1 04       		.byte	0x4
 8212 0dd2 CB0D0000 		.long	0xdcb
 8213 0dd6 1C       		.uleb128 0x1c
 8214 0dd7 72040000 		.long	.LASF206
 8215 0ddb 1A       		.byte	0x1a
 8216 0ddc 89       		.byte	0x89
 8217 0ddd 0E       		.byte	0xe
 8218 0dde E20D0000 		.long	0xde2
 8219 0de2 07       		.uleb128 0x7
 8220 0de3 04       		.byte	0x4
 8221 0de4 850D0000 		.long	0xd85
 8222 0de8 1C       		.uleb128 0x1c
 8223 0de9 EA0D0000 		.long	.LASF207
 8224 0ded 1A       		.byte	0x1a
 8225 0dee 8A       		.byte	0x8a
 8226 0def 0E       		.byte	0xe
 8227 0df0 E20D0000 		.long	0xde2
 8228 0df4 1C       		.uleb128 0x1c
 8229 0df5 DA0B0000 		.long	.LASF208
 8230 0df9 1A       		.byte	0x1a
 8231 0dfa 8B       		.byte	0x8b
 8232 0dfb 0E       		.byte	0xe
 8233 0dfc E20D0000 		.long	0xde2
 8234 0e00 1C       		.uleb128 0x1c
 8235 0e01 AF010000 		.long	.LASF209
 8236 0e05 1B       		.byte	0x1b
 8237 0e06 1A       		.byte	0x1a
 8238 0e07 0C       		.byte	0xc
 8239 0e08 25000000 		.long	0x25
 8240 0e0c 12       		.uleb128 0x12
GAS LISTING /tmp/ccffpNMU.s 			page 155


 8241 0e0d 11070000 		.long	0x711
 8242 0e11 170E0000 		.long	0xe17
 8243 0e15 1B       		.uleb128 0x1b
 8244 0e16 00       		.byte	0
 8245 0e17 08       		.uleb128 0x8
 8246 0e18 0C0E0000 		.long	0xe0c
 8247 0e1c 1C       		.uleb128 0x1c
 8248 0e1d 8D040000 		.long	.LASF210
 8249 0e21 1B       		.byte	0x1b
 8250 0e22 1B       		.byte	0x1b
 8251 0e23 1A       		.byte	0x1a
 8252 0e24 170E0000 		.long	0xe17
 8253 0e28 1D       		.uleb128 0x1d
 8254 0e29 2C000000 		.long	0x2c
 8255 0e2d 410E0000 		.long	0xe41
 8256 0e31 10       		.uleb128 0x10
 8257 0e32 F6000000 		.long	0xf6
 8258 0e36 10       		.uleb128 0x10
 8259 0e37 410E0000 		.long	0xe41
 8260 0e3b 10       		.uleb128 0x10
 8261 0e3c 2C000000 		.long	0x2c
 8262 0e40 00       		.byte	0
 8263 0e41 07       		.uleb128 0x7
 8264 0e42 04       		.byte	0x4
 8265 0e43 33010000 		.long	0x133
 8266 0e47 07       		.uleb128 0x7
 8267 0e48 04       		.byte	0x4
 8268 0e49 280E0000 		.long	0xe28
 8269 0e4d 1D       		.uleb128 0x1d
 8270 0e4e 2C000000 		.long	0x2c
 8271 0e52 660E0000 		.long	0xe66
 8272 0e56 10       		.uleb128 0x10
 8273 0e57 F6000000 		.long	0xf6
 8274 0e5b 10       		.uleb128 0x10
 8275 0e5c 7F090000 		.long	0x97f
 8276 0e60 10       		.uleb128 0x10
 8277 0e61 2C000000 		.long	0x2c
 8278 0e65 00       		.byte	0
 8279 0e66 07       		.uleb128 0x7
 8280 0e67 04       		.byte	0x4
 8281 0e68 4D0E0000 		.long	0xe4d
 8282 0e6c 1D       		.uleb128 0x1d
 8283 0e6d A4010000 		.long	0x1a4
 8284 0e71 800E0000 		.long	0xe80
 8285 0e75 10       		.uleb128 0x10
 8286 0e76 F6000000 		.long	0xf6
 8287 0e7a 10       		.uleb128 0x10
 8288 0e7b 27010000 		.long	0x127
 8289 0e7f 00       		.byte	0
 8290 0e80 07       		.uleb128 0x7
 8291 0e81 04       		.byte	0x4
 8292 0e82 6C0E0000 		.long	0xe6c
 8293 0e86 1D       		.uleb128 0x1d
 8294 0e87 A4010000 		.long	0x1a4
 8295 0e8b 950E0000 		.long	0xe95
 8296 0e8f 10       		.uleb128 0x10
 8297 0e90 F6000000 		.long	0xf6
GAS LISTING /tmp/ccffpNMU.s 			page 156


 8298 0e94 00       		.byte	0
 8299 0e95 07       		.uleb128 0x7
 8300 0e96 04       		.byte	0x4
 8301 0e97 860E0000 		.long	0xe86
 8302 0e9b 1D       		.uleb128 0x1d
 8303 0e9c A4010000 		.long	0x1a4
 8304 0ea0 B40E0000 		.long	0xeb4
 8305 0ea4 10       		.uleb128 0x10
 8306 0ea5 F6000000 		.long	0xf6
 8307 0ea9 10       		.uleb128 0x10
 8308 0eaa 27010000 		.long	0x127
 8309 0eae 10       		.uleb128 0x10
 8310 0eaf 23050000 		.long	0x523
 8311 0eb3 00       		.byte	0
 8312 0eb4 07       		.uleb128 0x7
 8313 0eb5 04       		.byte	0x4
 8314 0eb6 9B0E0000 		.long	0xe9b
 8315 0eba 1D       		.uleb128 0x1d
 8316 0ebb A4010000 		.long	0x1a4
 8317 0ebf CE0E0000 		.long	0xece
 8318 0ec3 10       		.uleb128 0x10
 8319 0ec4 F6000000 		.long	0xf6
 8320 0ec8 10       		.uleb128 0x10
 8321 0ec9 23050000 		.long	0x523
 8322 0ecd 00       		.byte	0
 8323 0ece 07       		.uleb128 0x7
 8324 0ecf 04       		.byte	0x4
 8325 0ed0 BA0E0000 		.long	0xeba
 8326 0ed4 1D       		.uleb128 0x1d
 8327 0ed5 2C000000 		.long	0x2c
 8328 0ed9 F20E0000 		.long	0xef2
 8329 0edd 10       		.uleb128 0x10
 8330 0ede F6000000 		.long	0xf6
 8331 0ee2 10       		.uleb128 0x10
 8332 0ee3 410E0000 		.long	0xe41
 8333 0ee7 10       		.uleb128 0x10
 8334 0ee8 2C000000 		.long	0x2c
 8335 0eec 10       		.uleb128 0x10
 8336 0eed 23050000 		.long	0x523
 8337 0ef1 00       		.byte	0
 8338 0ef2 07       		.uleb128 0x7
 8339 0ef3 04       		.byte	0x4
 8340 0ef4 D40E0000 		.long	0xed4
 8341 0ef8 1D       		.uleb128 0x1d
 8342 0ef9 2C000000 		.long	0x2c
 8343 0efd 160F0000 		.long	0xf16
 8344 0f01 10       		.uleb128 0x10
 8345 0f02 F6000000 		.long	0xf6
 8346 0f06 10       		.uleb128 0x10
 8347 0f07 7F090000 		.long	0x97f
 8348 0f0b 10       		.uleb128 0x10
 8349 0f0c 2C000000 		.long	0x2c
 8350 0f10 10       		.uleb128 0x10
 8351 0f11 23050000 		.long	0x523
 8352 0f15 00       		.byte	0
 8353 0f16 07       		.uleb128 0x7
 8354 0f17 04       		.byte	0x4
GAS LISTING /tmp/ccffpNMU.s 			page 157


 8355 0f18 F80E0000 		.long	0xef8
 8356 0f1c 1D       		.uleb128 0x1d
 8357 0f1d A4010000 		.long	0x1a4
 8358 0f21 350F0000 		.long	0xf35
 8359 0f25 10       		.uleb128 0x10
 8360 0f26 F6000000 		.long	0xf6
 8361 0f2a 10       		.uleb128 0x10
 8362 0f2b 3D000000 		.long	0x3d
 8363 0f2f 10       		.uleb128 0x10
 8364 0f30 F6000000 		.long	0xf6
 8365 0f34 00       		.byte	0
 8366 0f35 07       		.uleb128 0x7
 8367 0f36 04       		.byte	0x4
 8368 0f37 1C0F0000 		.long	0xf1c
 8369 0f3b 03       		.uleb128 0x3
 8370 0f3c 8B0C0000 		.long	.LASF211
 8371 0f40 1C       		.byte	0x1c
 8372 0f41 3A       		.byte	0x3a
 8373 0f42 19       		.byte	0x19
 8374 0f43 470F0000 		.long	0xf47
 8375 0f47 09       		.uleb128 0x9
 8376 0f48 02030000 		.long	.LASF212
 8377 0f4c 24       		.byte	0x24
 8378 0f4d 1C       		.byte	0x1c
 8379 0f4e 4B       		.byte	0x4b
 8380 0f4f 08       		.byte	0x8
 8381 0f50 BD0F0000 		.long	0xfbd
 8382 0f54 0A       		.uleb128 0xa
 8383 0f55 5D0B0000 		.long	.LASF213
 8384 0f59 1C       		.byte	0x1c
 8385 0f5a 4C       		.byte	0x4c
 8386 0f5b 19       		.byte	0x19
 8387 0f5c 15030000 		.long	0x315
 8388 0f60 00       		.byte	0
 8389 0f61 0A       		.uleb128 0xa
 8390 0f62 6D0A0000 		.long	.LASF214
 8391 0f66 1C       		.byte	0x1c
 8392 0f67 4D       		.byte	0x4d
 8393 0f68 19       		.byte	0x19
 8394 0f69 38000000 		.long	0x38
 8395 0f6d 08       		.byte	0x8
 8396 0f6e 0A       		.uleb128 0xa
 8397 0f6f F6010000 		.long	.LASF215
 8398 0f73 1C       		.byte	0x1c
 8399 0f74 4E       		.byte	0x4e
 8400 0f75 1A       		.byte	0x1a
 8401 0f76 7F090000 		.long	0x97f
 8402 0f7a 0C       		.byte	0xc
 8403 0f7b 0A       		.uleb128 0xa
 8404 0f7c D5010000 		.long	.LASF216
 8405 0f80 1C       		.byte	0x1c
 8406 0f81 4F       		.byte	0x4f
 8407 0f82 1A       		.byte	0x1a
 8408 0f83 7F090000 		.long	0x97f
 8409 0f87 10       		.byte	0x10
 8410 0f88 0A       		.uleb128 0xa
 8411 0f89 CF0D0000 		.long	.LASF217
GAS LISTING /tmp/ccffpNMU.s 			page 158


 8412 0f8d 1C       		.byte	0x1c
 8413 0f8e 51       		.byte	0x51
 8414 0f8f 1A       		.byte	0x1a
 8415 0f90 7F090000 		.long	0x97f
 8416 0f94 14       		.byte	0x14
 8417 0f95 0A       		.uleb128 0xa
 8418 0f96 35020000 		.long	.LASF218
 8419 0f9a 1C       		.byte	0x1c
 8420 0f9b 52       		.byte	0x52
 8421 0f9c 1A       		.byte	0x1a
 8422 0f9d 7F090000 		.long	0x97f
 8423 0fa1 18       		.byte	0x18
 8424 0fa2 0A       		.uleb128 0xa
 8425 0fa3 FF010000 		.long	.LASF219
 8426 0fa7 1C       		.byte	0x1c
 8427 0fa8 53       		.byte	0x53
 8428 0fa9 19       		.byte	0x19
 8429 0faa BD0F0000 		.long	0xfbd
 8430 0fae 1C       		.byte	0x1c
 8431 0faf 0A       		.uleb128 0xa
 8432 0fb0 68030000 		.long	.LASF220
 8433 0fb4 1C       		.byte	0x1c
 8434 0fb5 54       		.byte	0x54
 8435 0fb6 1A       		.byte	0x1a
 8436 0fb7 F6000000 		.long	0xf6
 8437 0fbb 20       		.byte	0x20
 8438 0fbc 00       		.byte	0
 8439 0fbd 03       		.uleb128 0x3
 8440 0fbe 10080000 		.long	.LASF221
 8441 0fc2 1C       		.byte	0x1c
 8442 0fc3 41       		.byte	0x41
 8443 0fc4 10       		.byte	0x10
 8444 0fc5 C90F0000 		.long	0xfc9
 8445 0fc9 07       		.uleb128 0x7
 8446 0fca 04       		.byte	0x4
 8447 0fcb CF0F0000 		.long	0xfcf
 8448 0fcf 0F       		.uleb128 0xf
 8449 0fd0 DA0F0000 		.long	0xfda
 8450 0fd4 10       		.uleb128 0x10
 8451 0fd5 DA0F0000 		.long	0xfda
 8452 0fd9 00       		.byte	0
 8453 0fda 07       		.uleb128 0x7
 8454 0fdb 04       		.byte	0x4
 8455 0fdc 3B0F0000 		.long	0xf3b
 8456 0fe0 03       		.uleb128 0x3
 8457 0fe1 8F0D0000 		.long	.LASF222
 8458 0fe5 1C       		.byte	0x1c
 8459 0fe6 61       		.byte	0x61
 8460 0fe7 14       		.byte	0x14
 8461 0fe8 3B0F0000 		.long	0xf3b
 8462 0fec 03       		.uleb128 0x3
 8463 0fed 270E0000 		.long	.LASF223
 8464 0ff1 1C       		.byte	0x1c
 8465 0ff2 6D       		.byte	0x6d
 8466 0ff3 14       		.byte	0x14
 8467 0ff4 3B0F0000 		.long	0xf3b
 8468 0ff8 11       		.uleb128 0x11
GAS LISTING /tmp/ccffpNMU.s 			page 159


 8469 0ff9 0C       		.byte	0xc
 8470 0ffa 1D       		.byte	0x1d
 8471 0ffb 2E       		.byte	0x2e
 8472 0ffc 09       		.byte	0x9
 8473 0ffd 29100000 		.long	0x1029
 8474 1001 0A       		.uleb128 0xa
 8475 1002 60070000 		.long	.LASF224
 8476 1006 1D       		.byte	0x1d
 8477 1007 33       		.byte	0x33
 8478 1008 15       		.byte	0x15
 8479 1009 44010000 		.long	0x144
 8480 100d 00       		.byte	0
 8481 100e 0B       		.uleb128 0xb
 8482 100f 70696E00 		.string	"pin"
 8483 1013 1D       		.byte	0x1d
 8484 1014 39       		.byte	0x39
 8485 1015 15       		.byte	0x15
 8486 1016 44010000 		.long	0x144
 8487 101a 04       		.byte	0x4
 8488 101b 0B       		.uleb128 0xb
 8489 101c 64697200 		.string	"dir"
 8490 1020 1D       		.byte	0x1d
 8491 1021 3E       		.byte	0x3e
 8492 1022 15       		.byte	0x15
 8493 1023 44010000 		.long	0x144
 8494 1027 08       		.byte	0x8
 8495 1028 00       		.byte	0
 8496 1029 03       		.uleb128 0x3
 8497 102a 52090000 		.long	.LASF225
 8498 102e 1D       		.byte	0x1d
 8499 102f 3F       		.byte	0x3f
 8500 1030 03       		.byte	0x3
 8501 1031 F80F0000 		.long	0xff8
 8502 1035 11       		.uleb128 0x11
 8503 1036 18       		.byte	0x18
 8504 1037 1D       		.byte	0x1d
 8505 1038 48       		.byte	0x48
 8506 1039 09       		.byte	0x9
 8507 103a 59100000 		.long	0x1059
 8508 103e 0A       		.uleb128 0xa
 8509 103f BF020000 		.long	.LASF226
 8510 1043 1D       		.byte	0x1d
 8511 1044 4C       		.byte	0x4c
 8512 1045 15       		.byte	0x15
 8513 1046 29100000 		.long	0x1029
 8514 104a 00       		.byte	0
 8515 104b 0A       		.uleb128 0xa
 8516 104c 4C050000 		.long	.LASF227
 8517 1050 1D       		.byte	0x1d
 8518 1051 50       		.byte	0x50
 8519 1052 15       		.byte	0x15
 8520 1053 29100000 		.long	0x1029
 8521 1057 0C       		.byte	0xc
 8522 1058 00       		.byte	0
 8523 1059 03       		.uleb128 0x3
 8524 105a 960C0000 		.long	.LASF228
 8525 105e 1D       		.byte	0x1d
GAS LISTING /tmp/ccffpNMU.s 			page 160


 8526 105f 51       		.byte	0x51
 8527 1060 03       		.byte	0x3
 8528 1061 35100000 		.long	0x1035
 8529 1065 08       		.uleb128 0x8
 8530 1066 59100000 		.long	0x1059
 8531 106a 1C       		.uleb128 0x1c
 8532 106b 0C050000 		.long	.LASF229
 8533 106f 1D       		.byte	0x1d
 8534 1070 F8       		.byte	0xf8
 8535 1071 17       		.byte	0x17
 8536 1072 29100000 		.long	0x1029
 8537 1076 1C       		.uleb128 0x1c
 8538 1077 17050000 		.long	.LASF230
 8539 107b 1D       		.byte	0x1d
 8540 107c F9       		.byte	0xf9
 8541 107d 17       		.byte	0x17
 8542 107e 29100000 		.long	0x1029
 8543 1082 1C       		.uleb128 0x1c
 8544 1083 E5020000 		.long	.LASF231
 8545 1087 1D       		.byte	0x1d
 8546 1088 FA       		.byte	0xfa
 8547 1089 18       		.byte	0x18
 8548 108a 65100000 		.long	0x1065
 8549 108e 21       		.uleb128 0x21
 8550 108f 07       		.byte	0x7
 8551 1090 04       		.byte	0x4
 8552 1091 3D000000 		.long	0x3d
 8553 1095 1E       		.byte	0x1e
 8554 1096 58       		.byte	0x58
 8555 1097 0E       		.byte	0xe
 8556 1098 AF100000 		.long	0x10af
 8557 109c 22       		.uleb128 0x22
 8558 109d B1030000 		.long	.LASF232
 8559 10a1 00       		.byte	0
 8560 10a2 22       		.uleb128 0x22
 8561 10a3 490E0000 		.long	.LASF233
 8562 10a7 01       		.byte	0x1
 8563 10a8 22       		.uleb128 0x22
 8564 10a9 940B0000 		.long	.LASF234
 8565 10ad 02       		.byte	0x2
 8566 10ae 00       		.byte	0
 8567 10af 03       		.uleb128 0x3
 8568 10b0 750B0000 		.long	.LASF235
 8569 10b4 1E       		.byte	0x1e
 8570 10b5 5C       		.byte	0x5c
 8571 10b6 03       		.byte	0x3
 8572 10b7 8E100000 		.long	0x108e
 8573 10bb 03       		.uleb128 0x3
 8574 10bc DC0A0000 		.long	.LASF236
 8575 10c0 1E       		.byte	0x1e
 8576 10c1 61       		.byte	0x61
 8577 10c2 1D       		.byte	0x1d
 8578 10c3 C7100000 		.long	0x10c7
 8579 10c7 09       		.uleb128 0x9
 8580 10c8 DC0A0000 		.long	.LASF236
 8581 10cc A0       		.byte	0xa0
 8582 10cd 1E       		.byte	0x1e
GAS LISTING /tmp/ccffpNMU.s 			page 161


 8583 10ce 7B       		.byte	0x7b
 8584 10cf 08       		.byte	0x8
 8585 10d0 55110000 		.long	0x1155
 8586 10d4 0B       		.uleb128 0xb
 8587 10d5 766D7400 		.string	"vmt"
 8588 10d9 1E       		.byte	0x1e
 8589 10da 7D       		.byte	0x7d
 8590 10db 21       		.byte	0x21
 8591 10dc 02120000 		.long	0x1202
 8592 10e0 00       		.byte	0
 8593 10e1 0A       		.uleb128 0xa
 8594 10e2 3E080000 		.long	.LASF237
 8595 10e6 1E       		.byte	0x1e
 8596 10e7 7E       		.byte	0x7e
 8597 10e8 03       		.byte	0x3
 8598 10e9 29090000 		.long	0x929
 8599 10ed 04       		.byte	0x4
 8600 10ee 0A       		.uleb128 0xa
 8601 10ef 31010000 		.long	.LASF46
 8602 10f3 1E       		.byte	0x1e
 8603 10f4 7E       		.byte	0x7e
 8604 10f5 03       		.byte	0x3
 8605 10f6 AF100000 		.long	0x10af
 8606 10fa 08       		.byte	0x8
 8607 10fb 0A       		.uleb128 0xa
 8608 10fc 380C0000 		.long	.LASF238
 8609 1100 1E       		.byte	0x1e
 8610 1101 7E       		.byte	0x7e
 8611 1102 03       		.byte	0x3
 8612 1103 E00F0000 		.long	0xfe0
 8613 1107 0C       		.byte	0xc
 8614 1108 0A       		.uleb128 0xa
 8615 1109 B8020000 		.long	.LASF239
 8616 110d 1E       		.byte	0x1e
 8617 110e 7E       		.byte	0x7e
 8618 110f 03       		.byte	0x3
 8619 1110 EC0F0000 		.long	0xfec
 8620 1114 30       		.byte	0x30
 8621 1115 0B       		.uleb128 0xb
 8622 1116 696200   		.string	"ib"
 8623 1119 1E       		.byte	0x1e
 8624 111a 7E       		.byte	0x7e
 8625 111b 03       		.byte	0x3
 8626 111c 08120000 		.long	0x1208
 8627 1120 54       		.byte	0x54
 8628 1121 0B       		.uleb128 0xb
 8629 1122 6F6200   		.string	"ob"
 8630 1125 1E       		.byte	0x1e
 8631 1126 7E       		.byte	0x7e
 8632 1127 03       		.byte	0x3
 8633 1128 08120000 		.long	0x1208
 8634 112c 74       		.byte	0x74
 8635 112d 0A       		.uleb128 0xa
 8636 112e E2000000 		.long	.LASF240
 8637 1132 1E       		.byte	0x1e
 8638 1133 7E       		.byte	0x7e
 8639 1134 03       		.byte	0x3
GAS LISTING /tmp/ccffpNMU.s 			page 162


 8640 1135 25000000 		.long	0x25
 8641 1139 94       		.byte	0x94
 8642 113a 0A       		.uleb128 0xa
 8643 113b 7E040000 		.long	.LASF241
 8644 113f 1E       		.byte	0x1e
 8645 1140 7E       		.byte	0x7e
 8646 1141 03       		.byte	0x3
 8647 1142 25000000 		.long	0x25
 8648 1146 98       		.byte	0x98
 8649 1147 0A       		.uleb128 0xa
 8650 1148 20020000 		.long	.LASF242
 8651 114c 1E       		.byte	0x1e
 8652 114d 7E       		.byte	0x7e
 8653 114e 03       		.byte	0x3
 8654 114f 06070000 		.long	0x706
 8655 1153 9C       		.byte	0x9c
 8656 1154 00       		.byte	0
 8657 1155 23       		.uleb128 0x23
 8658 1156 53443100 		.string	"SD1"
 8659 115a 1F       		.byte	0x1f
 8660 115b 7A       		.byte	0x7a
 8661 115c 15       		.byte	0x15
 8662 115d BB100000 		.long	0x10bb
 8663 1161 23       		.uleb128 0x23
 8664 1162 53443200 		.string	"SD2"
 8665 1166 1F       		.byte	0x1f
 8666 1167 7D       		.byte	0x7d
 8667 1168 15       		.byte	0x15
 8668 1169 BB100000 		.long	0x10bb
 8669 116d 09       		.uleb128 0x9
 8670 116e 86060000 		.long	.LASF243
 8671 1172 28       		.byte	0x28
 8672 1173 1E       		.byte	0x1e
 8673 1174 70       		.byte	0x70
 8674 1175 08       		.byte	0x8
 8675 1176 FD110000 		.long	0x11fd
 8676 117a 0A       		.uleb128 0xa
 8677 117b 770D0000 		.long	.LASF244
 8678 117f 1E       		.byte	0x1e
 8679 1180 71       		.byte	0x71
 8680 1181 03       		.byte	0x3
 8681 1182 2C000000 		.long	0x2c
 8682 1186 00       		.byte	0
 8683 1187 0A       		.uleb128 0xa
 8684 1188 F6000000 		.long	.LASF245
 8685 118c 1E       		.byte	0x1e
 8686 118d 71       		.byte	0x71
 8687 118e 03       		.byte	0x3
 8688 118f 470E0000 		.long	0xe47
 8689 1193 04       		.byte	0x4
 8690 1194 0A       		.uleb128 0xa
 8691 1195 44080000 		.long	.LASF246
 8692 1199 1E       		.byte	0x1e
 8693 119a 71       		.byte	0x71
 8694 119b 03       		.byte	0x3
 8695 119c 660E0000 		.long	0xe66
 8696 11a0 08       		.byte	0x8
GAS LISTING /tmp/ccffpNMU.s 			page 163


 8697 11a1 0B       		.uleb128 0xb
 8698 11a2 70757400 		.string	"put"
 8699 11a6 1E       		.byte	0x1e
 8700 11a7 71       		.byte	0x71
 8701 11a8 03       		.byte	0x3
 8702 11a9 800E0000 		.long	0xe80
 8703 11ad 0C       		.byte	0xc
 8704 11ae 0B       		.uleb128 0xb
 8705 11af 67657400 		.string	"get"
 8706 11b3 1E       		.byte	0x1e
 8707 11b4 71       		.byte	0x71
 8708 11b5 03       		.byte	0x3
 8709 11b6 950E0000 		.long	0xe95
 8710 11ba 10       		.byte	0x10
 8711 11bb 0A       		.uleb128 0xa
 8712 11bc 3D010000 		.long	.LASF247
 8713 11c0 1E       		.byte	0x1e
 8714 11c1 71       		.byte	0x71
 8715 11c2 03       		.byte	0x3
 8716 11c3 B40E0000 		.long	0xeb4
 8717 11c7 14       		.byte	0x14
 8718 11c8 0A       		.uleb128 0xa
 8719 11c9 19040000 		.long	.LASF248
 8720 11cd 1E       		.byte	0x1e
 8721 11ce 71       		.byte	0x71
 8722 11cf 03       		.byte	0x3
 8723 11d0 CE0E0000 		.long	0xece
 8724 11d4 18       		.byte	0x18
 8725 11d5 0A       		.uleb128 0xa
 8726 11d6 93000000 		.long	.LASF249
 8727 11da 1E       		.byte	0x1e
 8728 11db 71       		.byte	0x71
 8729 11dc 03       		.byte	0x3
 8730 11dd F20E0000 		.long	0xef2
 8731 11e1 1C       		.byte	0x1c
 8732 11e2 0A       		.uleb128 0xa
 8733 11e3 E3010000 		.long	.LASF250
 8734 11e7 1E       		.byte	0x1e
 8735 11e8 71       		.byte	0x71
 8736 11e9 03       		.byte	0x3
 8737 11ea 160F0000 		.long	0xf16
 8738 11ee 20       		.byte	0x20
 8739 11ef 0B       		.uleb128 0xb
 8740 11f0 63746C00 		.string	"ctl"
 8741 11f4 1E       		.byte	0x1e
 8742 11f5 71       		.byte	0x71
 8743 11f6 03       		.byte	0x3
 8744 11f7 350F0000 		.long	0xf35
 8745 11fb 24       		.byte	0x24
 8746 11fc 00       		.byte	0
 8747 11fd 08       		.uleb128 0x8
 8748 11fe 6D110000 		.long	0x116d
 8749 1202 07       		.uleb128 0x7
 8750 1203 04       		.byte	0x4
 8751 1204 FD110000 		.long	0x11fd
 8752 1208 12       		.uleb128 0x12
 8753 1209 27010000 		.long	0x127
GAS LISTING /tmp/ccffpNMU.s 			page 164


 8754 120d 18120000 		.long	0x1218
 8755 1211 13       		.uleb128 0x13
 8756 1212 3D000000 		.long	0x3d
 8757 1216 1F       		.byte	0x1f
 8758 1217 00       		.byte	0
 8759 1218 12       		.uleb128 0x12
 8760 1219 F8000000 		.long	0xf8
 8761 121d 28120000 		.long	0x1228
 8762 1221 13       		.uleb128 0x13
 8763 1222 3D000000 		.long	0x3d
 8764 1226 01       		.byte	0x1
 8765 1227 00       		.byte	0
 8766 1228 1C       		.uleb128 0x1c
 8767 1229 C2030000 		.long	.LASF251
 8768 122d 20       		.byte	0x20
 8769 122e 9F       		.byte	0x9f
 8770 122f 0E       		.byte	0xe
 8771 1230 18120000 		.long	0x1218
 8772 1234 1C       		.uleb128 0x1c
 8773 1235 BD0C0000 		.long	.LASF252
 8774 1239 20       		.byte	0x20
 8775 123a A0       		.byte	0xa0
 8776 123b 0C       		.byte	0xc
 8777 123c 25000000 		.long	0x25
 8778 1240 1C       		.uleb128 0x1c
 8779 1241 2F030000 		.long	.LASF253
 8780 1245 20       		.byte	0x20
 8781 1246 A1       		.byte	0xa1
 8782 1247 11       		.byte	0x11
 8783 1248 44000000 		.long	0x44
 8784 124c 1C       		.uleb128 0x1c
 8785 124d 81080000 		.long	.LASF254
 8786 1251 20       		.byte	0x20
 8787 1252 A6       		.byte	0xa6
 8788 1253 0E       		.byte	0xe
 8789 1254 18120000 		.long	0x1218
 8790 1258 1C       		.uleb128 0x1c
 8791 1259 510E0000 		.long	.LASF255
 8792 125d 20       		.byte	0x20
 8793 125e AE       		.byte	0xae
 8794 125f 0C       		.byte	0xc
 8795 1260 25000000 		.long	0x25
 8796 1264 1C       		.uleb128 0x1c
 8797 1265 38040000 		.long	.LASF256
 8798 1269 20       		.byte	0x20
 8799 126a AF       		.byte	0xaf
 8800 126b 11       		.byte	0x11
 8801 126c 44000000 		.long	0x44
 8802 1270 09       		.uleb128 0x9
 8803 1271 38040000 		.long	.LASF256
 8804 1275 08       		.byte	0x8
 8805 1276 21       		.byte	0x21
 8806 1277 34       		.byte	0x34
 8807 1278 08       		.byte	0x8
 8808 1279 98120000 		.long	0x1298
 8809 127d 0A       		.uleb128 0xa
 8810 127e E5060000 		.long	.LASF257
GAS LISTING /tmp/ccffpNMU.s 			page 165


 8811 1282 21       		.byte	0x21
 8812 1283 36       		.byte	0x36
 8813 1284 09       		.byte	0x9
 8814 1285 25000000 		.long	0x25
 8815 1289 00       		.byte	0
 8816 128a 0A       		.uleb128 0xa
 8817 128b DC030000 		.long	.LASF258
 8818 128f 21       		.byte	0x21
 8819 1290 37       		.byte	0x37
 8820 1291 09       		.byte	0x9
 8821 1292 25000000 		.long	0x25
 8822 1296 04       		.byte	0x4
 8823 1297 00       		.byte	0
 8824 1298 07       		.uleb128 0x7
 8825 1299 04       		.byte	0x4
 8826 129a 70120000 		.long	0x1270
 8827 129e 24       		.uleb128 0x24
 8828 129f 98120000 		.long	0x1298
 8829 12a3 11       		.uleb128 0x11
 8830 12a4 0C       		.byte	0xc
 8831 12a5 22       		.byte	0x22
 8832 12a6 09       		.byte	0x9
 8833 12a7 09       		.byte	0x9
 8834 12a8 D4120000 		.long	0x12d4
 8835 12ac 0A       		.uleb128 0xa
 8836 12ad 710D0000 		.long	.LASF259
 8837 12b1 22       		.byte	0x22
 8838 12b2 0A       		.byte	0xa
 8839 12b3 0B       		.byte	0xb
 8840 12b4 44010000 		.long	0x144
 8841 12b8 00       		.byte	0
 8842 12b9 0A       		.uleb128 0xa
 8843 12ba A4080000 		.long	.LASF260
 8844 12be 22       		.byte	0x22
 8845 12bf 0B       		.byte	0xb
 8846 12c0 0B       		.byte	0xb
 8847 12c1 44010000 		.long	0x144
 8848 12c5 04       		.byte	0x4
 8849 12c6 0A       		.uleb128 0xa
 8850 12c7 1A080000 		.long	.LASF261
 8851 12cb 22       		.byte	0x22
 8852 12cc 0C       		.byte	0xc
 8853 12cd 0B       		.byte	0xb
 8854 12ce 44010000 		.long	0x144
 8855 12d2 08       		.byte	0x8
 8856 12d3 00       		.byte	0
 8857 12d4 03       		.uleb128 0x3
 8858 12d5 59000000 		.long	.LASF262
 8859 12d9 22       		.byte	0x22
 8860 12da 0D       		.byte	0xd
 8861 12db 03       		.byte	0x3
 8862 12dc A3120000 		.long	0x12a3
 8863 12e0 11       		.uleb128 0x11
 8864 12e1 04       		.byte	0x4
 8865 12e2 22       		.byte	0x22
 8866 12e3 0F       		.byte	0xf
 8867 12e4 09       		.byte	0x9
GAS LISTING /tmp/ccffpNMU.s 			page 166


 8868 12e5 1E130000 		.long	0x131e
 8869 12e9 0A       		.uleb128 0xa
 8870 12ea DB060000 		.long	.LASF263
 8871 12ee 22       		.byte	0x22
 8872 12ef 10       		.byte	0x10
 8873 12f0 0A       		.byte	0xa
 8874 12f1 27010000 		.long	0x127
 8875 12f5 00       		.byte	0
 8876 12f6 0A       		.uleb128 0xa
 8877 12f7 B8010000 		.long	.LASF264
 8878 12fb 22       		.byte	0x22
 8879 12fc 11       		.byte	0x11
 8880 12fd 0A       		.byte	0xa
 8881 12fe 27010000 		.long	0x127
 8882 1302 01       		.byte	0x1
 8883 1303 0A       		.uleb128 0xa
 8884 1304 64020000 		.long	.LASF265
 8885 1308 22       		.byte	0x22
 8886 1309 12       		.byte	0x12
 8887 130a 0A       		.byte	0xa
 8888 130b 27010000 		.long	0x127
 8889 130f 02       		.byte	0x2
 8890 1310 0A       		.uleb128 0xa
 8891 1311 3A0D0000 		.long	.LASF266
 8892 1315 22       		.byte	0x22
 8893 1316 13       		.byte	0x13
 8894 1317 0A       		.byte	0xa
 8895 1318 27010000 		.long	0x127
 8896 131c 03       		.byte	0x3
 8897 131d 00       		.byte	0
 8898 131e 03       		.uleb128 0x3
 8899 131f 920A0000 		.long	.LASF267
 8900 1323 22       		.byte	0x22
 8901 1324 14       		.byte	0x14
 8902 1325 03       		.byte	0x3
 8903 1326 E0120000 		.long	0x12e0
 8904 132a 15       		.uleb128 0x15
 8905 132b E5090000 		.long	.LASF268
 8906 132f 23       		.byte	0x23
 8907 1330 0503     		.value	0x305
 8908 1332 0C       		.byte	0xc
 8909 1333 25000000 		.long	0x25
 8910 1337 11       		.uleb128 0x11
 8911 1338 30       		.byte	0x30
 8912 1339 24       		.byte	0x24
 8913 133a 0F       		.byte	0xf
 8914 133b 09       		.byte	0x9
 8915 133c F6130000 		.long	0x13f6
 8916 1340 0A       		.uleb128 0xa
 8917 1341 E0050000 		.long	.LASF269
 8918 1345 24       		.byte	0x24
 8919 1346 11       		.byte	0x11
 8920 1347 0A       		.byte	0xa
 8921 1348 16010000 		.long	0x116
 8922 134c 00       		.byte	0
 8923 134d 0A       		.uleb128 0xa
 8924 134e CC0E0000 		.long	.LASF270
GAS LISTING /tmp/ccffpNMU.s 			page 167


 8925 1352 24       		.byte	0x24
 8926 1353 15       		.byte	0x15
 8927 1354 0A       		.byte	0xa
 8928 1355 16010000 		.long	0x116
 8929 1359 04       		.byte	0x4
 8930 135a 0A       		.uleb128 0xa
 8931 135b D1040000 		.long	.LASF271
 8932 135f 24       		.byte	0x24
 8933 1360 18       		.byte	0x18
 8934 1361 08       		.byte	0x8
 8935 1362 F6130000 		.long	0x13f6
 8936 1366 08       		.byte	0x8
 8937 1367 0A       		.uleb128 0xa
 8938 1368 68040000 		.long	.LASF272
 8939 136c 24       		.byte	0x24
 8940 136d 1A       		.byte	0x1a
 8941 136e 08       		.byte	0x8
 8942 136f F6130000 		.long	0x13f6
 8943 1373 0C       		.byte	0xc
 8944 1374 0A       		.uleb128 0xa
 8945 1375 EC030000 		.long	.LASF273
 8946 1379 24       		.byte	0x24
 8947 137a 1D       		.byte	0x1d
 8948 137b 08       		.byte	0x8
 8949 137c F6130000 		.long	0x13f6
 8950 1380 10       		.byte	0x10
 8951 1381 0A       		.uleb128 0xa
 8952 1382 8E090000 		.long	.LASF274
 8953 1386 24       		.byte	0x24
 8954 1387 1E       		.byte	0x1e
 8955 1388 08       		.byte	0x8
 8956 1389 F6130000 		.long	0x13f6
 8957 138d 14       		.byte	0x14
 8958 138e 0A       		.uleb128 0xa
 8959 138f 63050000 		.long	.LASF275
 8960 1393 24       		.byte	0x24
 8961 1394 21       		.byte	0x21
 8962 1395 0B       		.byte	0xb
 8963 1396 38010000 		.long	0x138
 8964 139a 18       		.byte	0x18
 8965 139b 0A       		.uleb128 0xa
 8966 139c 30080000 		.long	.LASF276
 8967 13a0 24       		.byte	0x24
 8968 13a1 23       		.byte	0x23
 8969 13a2 0B       		.byte	0xb
 8970 13a3 38010000 		.long	0x138
 8971 13a7 1A       		.byte	0x1a
 8972 13a8 0A       		.uleb128 0xa
 8973 13a9 22080000 		.long	.LASF277
 8974 13ad 24       		.byte	0x24
 8975 13ae 24       		.byte	0x24
 8976 13af 0A       		.byte	0xa
 8977 13b0 27010000 		.long	0x127
 8978 13b4 1C       		.byte	0x1c
 8979 13b5 0A       		.uleb128 0xa
 8980 13b6 D1030000 		.long	.LASF278
 8981 13ba 24       		.byte	0x24
GAS LISTING /tmp/ccffpNMU.s 			page 168


 8982 13bb 25       		.byte	0x25
 8983 13bc 09       		.byte	0x9
 8984 13bd 0A010000 		.long	0x10a
 8985 13c1 1D       		.byte	0x1d
 8986 13c2 0B       		.uleb128 0xb
 8987 13c3 5F6E00   		.string	"_n"
 8988 13c6 24       		.byte	0x24
 8989 13c7 28       		.byte	0x28
 8990 13c8 0A       		.byte	0xa
 8991 13c9 16010000 		.long	0x116
 8992 13cd 20       		.byte	0x20
 8993 13ce 0B       		.uleb128 0xb
 8994 13cf 5F633000 		.string	"_c0"
 8995 13d3 24       		.byte	0x24
 8996 13d4 2A       		.byte	0x2a
 8997 13d5 08       		.byte	0x8
 8998 13d6 F6130000 		.long	0x13f6
 8999 13da 24       		.byte	0x24
 9000 13db 0B       		.uleb128 0xb
 9001 13dc 5F636E00 		.string	"_cn"
 9002 13e0 24       		.byte	0x24
 9003 13e1 2D       		.byte	0x2d
 9004 13e2 08       		.byte	0x8
 9005 13e3 F6130000 		.long	0x13f6
 9006 13e7 28       		.byte	0x28
 9007 13e8 0A       		.uleb128 0xa
 9008 13e9 87040000 		.long	.LASF279
 9009 13ed 24       		.byte	0x24
 9010 13ee 30       		.byte	0x30
 9011 13ef 08       		.byte	0x8
 9012 13f0 F6130000 		.long	0x13f6
 9013 13f4 2C       		.byte	0x2c
 9014 13f5 00       		.byte	0
 9015 13f6 05       		.uleb128 0x5
 9016 13f7 04       		.byte	0x4
 9017 13f8 04       		.byte	0x4
 9018 13f9 0A080000 		.long	.LASF280
 9019 13fd 03       		.uleb128 0x3
 9020 13fe 7B0E0000 		.long	.LASF281
 9021 1402 24       		.byte	0x24
 9022 1403 32       		.byte	0x32
 9023 1404 03       		.byte	0x3
 9024 1405 37130000 		.long	0x1337
 9025 1409 11       		.uleb128 0x11
 9026 140a 74       		.byte	0x74
 9027 140b 25       		.byte	0x25
 9028 140c 1F       		.byte	0x1f
 9029 140d 09       		.byte	0x9
 9030 140e 6E140000 		.long	0x146e
 9031 1412 0A       		.uleb128 0xa
 9032 1413 E60C0000 		.long	.LASF282
 9033 1417 25       		.byte	0x25
 9034 1418 20       		.byte	0x20
 9035 1419 0F       		.byte	0xf
 9036 141a FD130000 		.long	0x13fd
 9037 141e 00       		.byte	0
 9038 141f 0A       		.uleb128 0xa
GAS LISTING /tmp/ccffpNMU.s 			page 169


 9039 1420 240C0000 		.long	.LASF283
 9040 1424 25       		.byte	0x25
 9041 1425 21       		.byte	0x21
 9042 1426 0F       		.byte	0xf
 9043 1427 FD130000 		.long	0x13fd
 9044 142b 30       		.byte	0x30
 9045 142c 0A       		.uleb128 0xa
 9046 142d 9F060000 		.long	.LASF284
 9047 1431 25       		.byte	0x25
 9048 1432 22       		.byte	0x22
 9049 1433 0A       		.byte	0xa
 9050 1434 16010000 		.long	0x116
 9051 1438 60       		.byte	0x60
 9052 1439 0A       		.uleb128 0xa
 9053 143a 230D0000 		.long	.LASF285
 9054 143e 25       		.byte	0x25
 9055 143f 23       		.byte	0x23
 9056 1440 0A       		.byte	0xa
 9057 1441 16010000 		.long	0x116
 9058 1445 64       		.byte	0x64
 9059 1446 0A       		.uleb128 0xa
 9060 1447 9A000000 		.long	.LASF286
 9061 144b 25       		.byte	0x25
 9062 144c 24       		.byte	0x24
 9063 144d 0A       		.byte	0xa
 9064 144e 16010000 		.long	0x116
 9065 1452 68       		.byte	0x68
 9066 1453 0A       		.uleb128 0xa
 9067 1454 0E0E0000 		.long	.LASF287
 9068 1458 25       		.byte	0x25
 9069 1459 25       		.byte	0x25
 9070 145a 0A       		.byte	0xa
 9071 145b 16010000 		.long	0x116
 9072 145f 6C       		.byte	0x6c
 9073 1460 0A       		.uleb128 0xa
 9074 1461 0D090000 		.long	.LASF288
 9075 1465 25       		.byte	0x25
 9076 1466 26       		.byte	0x26
 9077 1467 07       		.byte	0x7
 9078 1468 F5050000 		.long	0x5f5
 9079 146c 70       		.byte	0x70
 9080 146d 00       		.byte	0
 9081 146e 03       		.uleb128 0x3
 9082 146f 19070000 		.long	.LASF289
 9083 1473 25       		.byte	0x25
 9084 1474 28       		.byte	0x28
 9085 1475 03       		.byte	0x3
 9086 1476 09140000 		.long	0x1409
 9087 147a 12       		.uleb128 0x12
 9088 147b 6E140000 		.long	0x146e
 9089 147f 90140000 		.long	0x1490
 9090 1483 13       		.uleb128 0x13
 9091 1484 3D000000 		.long	0x3d
 9092 1488 07       		.byte	0x7
 9093 1489 13       		.uleb128 0x13
 9094 148a 3D000000 		.long	0x3d
 9095 148e 02       		.byte	0x2
GAS LISTING /tmp/ccffpNMU.s 			page 170


 9096 148f 00       		.byte	0
 9097 1490 1C       		.uleb128 0x1c
 9098 1491 F4060000 		.long	.LASF290
 9099 1495 25       		.byte	0x25
 9100 1496 2A       		.byte	0x2a
 9101 1497 0F       		.byte	0xf
 9102 1498 7A140000 		.long	0x147a
 9103 149c 25       		.uleb128 0x25
 9104 149d BB030000 		.long	.LASF291
 9105 14a1 01       		.byte	0x1
 9106 14a2 03       		.byte	0x3
 9107 14a3 0B       		.byte	0xb
 9108 14a4 D4120000 		.long	0x12d4
 9109 14a8 05       		.uleb128 0x5
 9110 14a9 03       		.byte	0x3
 9111 14aa 00000000 		.long	myTime
 9112 14ae 25       		.uleb128 0x25
 9113 14af 3D020000 		.long	.LASF292
 9114 14b3 01       		.byte	0x1
 9115 14b4 04       		.byte	0x4
 9116 14b5 11       		.byte	0x11
 9117 14b6 1E130000 		.long	0x131e
 9118 14ba 05       		.uleb128 0x5
 9119 14bb 03       		.byte	0x3
 9120 14bc 00000000 		.long	myTimeDigits
 9121 14c0 26       		.uleb128 0x26
 9122 14c1 7A050000 		.long	.LASF298
 9123 14c5 01       		.byte	0x1
 9124 14c6 8701     		.value	0x187
 9125 14c8 06       		.byte	0x6
 9126 14c9 00000000 		.long	.LFB232
 9127 14cd F1010000 		.long	.LFE232-.LFB232
 9128 14d1 01       		.uleb128 0x1
 9129 14d2 9C       		.byte	0x9c
 9130 14d3 7D170000 		.long	0x177d
 9131 14d7 27       		.uleb128 0x27
 9132 14d8 2B0A0000 		.long	.LASF293
 9133 14dc 01       		.byte	0x1
 9134 14dd 8701     		.value	0x187
 9135 14df 24       		.byte	0x24
 9136 14e0 7D170000 		.long	0x177d
 9137 14e4 02       		.uleb128 0x2
 9138 14e5 91       		.byte	0x91
 9139 14e6 00       		.sleb128 0
 9140 14e7 27       		.uleb128 0x27
 9141 14e8 D6090000 		.long	.LASF294
 9142 14ec 01       		.byte	0x1
 9143 14ed 8701     		.value	0x187
 9144 14ef 4A       		.byte	0x4a
 9145 14f0 7D170000 		.long	0x177d
 9146 14f4 02       		.uleb128 0x2
 9147 14f5 91       		.byte	0x91
 9148 14f6 04       		.sleb128 4
 9149 14f7 28       		.uleb128 0x28
 9150 14f8 71050000 		.long	.LASF295
 9151 14fc 01       		.byte	0x1
 9152 14fd 8801     		.value	0x188
GAS LISTING /tmp/ccffpNMU.s 			page 171


 9153 14ff 0A       		.byte	0xa
 9154 1500 16010000 		.long	0x116
 9155 1504 00       		.byte	0
 9156 1505 28       		.uleb128 0x28
 9157 1506 AA040000 		.long	.LASF296
 9158 150a 01       		.byte	0x1
 9159 150b 8901     		.value	0x189
 9160 150d 0A       		.byte	0xa
 9161 150e 16010000 		.long	0x116
 9162 1512 00       		.byte	0
 9163 1513 29       		.uleb128 0x29
 9164 1514 F2040000 		.long	.LASF297
 9165 1518 01       		.byte	0x1
 9166 1519 9101     		.value	0x191
 9167 151b 08       		.byte	0x8
 9168 151c F6130000 		.long	0x13f6
 9169 1520 0A000000 		.long	.LLST96
 9170 1524 00000000 		.long	.LVUS96
 9171 1528 2A       		.uleb128 0x2a
 9172 1529 780F0000 		.long	.Ldebug_ranges0+0xf78
 9173 152d B1150000 		.long	0x15b1
 9174 1531 2B       		.uleb128 0x2b
 9175 1532 6900     		.string	"i"
 9176 1534 01       		.byte	0x1
 9177 1535 9201     		.value	0x192
 9178 1537 0F       		.byte	0xf
 9179 1538 27010000 		.long	0x127
 9180 153c 55000000 		.long	.LLST100
 9181 1540 51000000 		.long	.LVUS100
 9182 1544 2C       		.uleb128 0x2c
 9183 1545 8C000000 		.long	.LVL385
 9184 1549 BA350000 		.long	0x35ba
 9185 154d 2C       		.uleb128 0x2c
 9186 154e A6000000 		.long	.LVL387
 9187 1552 BA350000 		.long	0x35ba
 9188 1556 2C       		.uleb128 0x2c
 9189 1557 BB000000 		.long	.LVL388
 9190 155b C6350000 		.long	0x35c6
 9191 155f 2C       		.uleb128 0x2c
 9192 1560 CD000000 		.long	.LVL389
 9193 1564 C6350000 		.long	0x35c6
 9194 1568 2C       		.uleb128 0x2c
 9195 1569 ED000000 		.long	.LVL390
 9196 156d BA350000 		.long	0x35ba
 9197 1571 2C       		.uleb128 0x2c
 9198 1572 07010000 		.long	.LVL391
 9199 1576 BA350000 		.long	0x35ba
 9200 157a 2C       		.uleb128 0x2c
 9201 157b 1C010000 		.long	.LVL392
 9202 157f C6350000 		.long	0x35c6
 9203 1583 2C       		.uleb128 0x2c
 9204 1584 2E010000 		.long	.LVL393
 9205 1588 C6350000 		.long	0x35c6
 9206 158c 2C       		.uleb128 0x2c
 9207 158d 48010000 		.long	.LVL394
 9208 1591 BA350000 		.long	0x35ba
 9209 1595 2C       		.uleb128 0x2c
GAS LISTING /tmp/ccffpNMU.s 			page 172


 9210 1596 62010000 		.long	.LVL395
 9211 159a BA350000 		.long	0x35ba
 9212 159e 2C       		.uleb128 0x2c
 9213 159f 7A010000 		.long	.LVL397
 9214 15a3 C6350000 		.long	0x35c6
 9215 15a7 2C       		.uleb128 0x2c
 9216 15a8 8C010000 		.long	.LVL398
 9217 15ac C6350000 		.long	0x35c6
 9218 15b0 00       		.byte	0
 9219 15b1 2D       		.uleb128 0x2d
 9220 15b2 51350000 		.long	0x3551
 9221 15b6 12000000 		.long	.LBI1246
 9222 15ba 03       		.byte	.LVU1230
 9223 15bb A80E0000 		.long	.Ldebug_ranges0+0xea8
 9224 15bf 01       		.byte	0x1
 9225 15c0 8B01     		.value	0x18b
 9226 15c2 02       		.byte	0x2
 9227 15c3 DE150000 		.long	0x15de
 9228 15c7 2E       		.uleb128 0x2e
 9229 15c8 62350000 		.long	0x3562
 9230 15cc 7A000000 		.long	.LLST97
 9231 15d0 78000000 		.long	.LVUS97
 9232 15d4 2C       		.uleb128 0x2c
 9233 15d5 1C000000 		.long	.LVL379
 9234 15d9 D2350000 		.long	0x35d2
 9235 15dd 00       		.byte	0
 9236 15de 2D       		.uleb128 0x2d
 9237 15df 19350000 		.long	0x3519
 9238 15e3 2D000000 		.long	.LBI1250
 9239 15e7 01       		.byte	.LVU1237
 9240 15e8 C00E0000 		.long	.Ldebug_ranges0+0xec0
 9241 15ec 01       		.byte	0x1
 9242 15ed 8E01     		.value	0x18e
 9243 15ef 02       		.byte	0x2
 9244 15f0 88160000 		.long	0x1688
 9245 15f4 2E       		.uleb128 0x2e
 9246 15f5 27350000 		.long	0x3527
 9247 15f9 94000000 		.long	.LLST98
 9248 15fd 8E000000 		.long	.LVUS98
 9249 1601 2D       		.uleb128 0x2d
 9250 1602 9C350000 		.long	0x359c
 9251 1606 2D000000 		.long	.LBI1252
 9252 160a 03       		.byte	.LVU1239
 9253 160b F00E0000 		.long	.Ldebug_ranges0+0xef0
 9254 160f 02       		.byte	0x2
 9255 1610 1C01     		.value	0x11c
 9256 1612 03       		.byte	0x3
 9257 1613 2A160000 		.long	0x162a
 9258 1617 2F       		.uleb128 0x2f
 9259 1618 B0350000 		.long	0x35b0
 9260 161c 2D000000 		.long	.LBI1253
 9261 1620 05       		.byte	.LVU1241
 9262 1621 F80E0000 		.long	.Ldebug_ranges0+0xef8
 9263 1625 03       		.byte	0x3
 9264 1626 6301     		.value	0x163
 9265 1628 03       		.byte	0x3
 9266 1629 00       		.byte	0
GAS LISTING /tmp/ccffpNMU.s 			page 173


 9267 162a 2D       		.uleb128 0x2d
 9268 162b 35350000 		.long	0x3535
 9269 162f 44000000 		.long	.LBI1260
 9270 1633 03       		.byte	.LVU1250
 9271 1634 180F0000 		.long	.Ldebug_ranges0+0xf18
 9272 1638 02       		.byte	0x2
 9273 1639 1D01     		.value	0x11d
 9274 163b 03       		.byte	0x3
 9275 163c 4F160000 		.long	0x164f
 9276 1640 30       		.uleb128 0x30
 9277 1641 43350000 		.long	0x3543
 9278 1645 2C       		.uleb128 0x2c
 9279 1646 D4010000 		.long	.LVL405
 9280 164a DE350000 		.long	0x35de
 9281 164e 00       		.byte	0
 9282 164f 2D       		.uleb128 0x2d
 9283 1650 6F350000 		.long	0x356f
 9284 1654 51000000 		.long	.LBI1269
 9285 1658 01       		.byte	.LVU1257
 9286 1659 400F0000 		.long	.Ldebug_ranges0+0xf40
 9287 165d 02       		.byte	0x2
 9288 165e 1F01     		.value	0x11f
 9289 1660 03       		.byte	0x3
 9290 1661 7E160000 		.long	0x167e
 9291 1665 31       		.uleb128 0x31
 9292 1666 400F0000 		.long	.Ldebug_ranges0+0xf40
 9293 166a 2F       		.uleb128 0x2f
 9294 166b A6350000 		.long	0x35a6
 9295 166f 51000000 		.long	.LBI1271
 9296 1673 07       		.byte	.LVU1263
 9297 1674 400F0000 		.long	.Ldebug_ranges0+0xf40
 9298 1678 03       		.byte	0x3
 9299 1679 7A01     		.value	0x17a
 9300 167b 03       		.byte	0x3
 9301 167c 00       		.byte	0
 9302 167d 00       		.byte	0
 9303 167e 2C       		.uleb128 0x2c
 9304 167f 51000000 		.long	.LVL381
 9305 1683 EA350000 		.long	0x35ea
 9306 1687 00       		.byte	0
 9307 1688 2D       		.uleb128 0x2d
 9308 1689 51350000 		.long	0x3551
 9309 168d 5B000000 		.long	.LBI1284
 9310 1691 02       		.byte	.LVU1269
 9311 1692 580F0000 		.long	.Ldebug_ranges0+0xf58
 9312 1696 01       		.byte	0x1
 9313 1697 9001     		.value	0x190
 9314 1699 02       		.byte	0x2
 9315 169a B5160000 		.long	0x16b5
 9316 169e 2E       		.uleb128 0x2e
 9317 169f 62350000 		.long	0x3562
 9318 16a3 C1000000 		.long	.LLST99
 9319 16a7 BF000000 		.long	.LVUS99
 9320 16ab 2C       		.uleb128 0x2c
 9321 16ac 66000000 		.long	.LVL383
 9322 16b0 D2350000 		.long	0x35d2
 9323 16b4 00       		.byte	0
GAS LISTING /tmp/ccffpNMU.s 			page 174


 9324 16b5 2D       		.uleb128 0x2d
 9325 16b6 19350000 		.long	0x3519
 9326 16ba 9E010000 		.long	.LBI1293
 9327 16be 01       		.byte	.LVU1297
 9328 16bf 900F0000 		.long	.Ldebug_ranges0+0xf90
 9329 16c3 01       		.byte	0x1
 9330 16c4 A101     		.value	0x1a1
 9331 16c6 02       		.byte	0x2
 9332 16c7 73170000 		.long	0x1773
 9333 16cb 2E       		.uleb128 0x2e
 9334 16cc 27350000 		.long	0x3527
 9335 16d0 D9000000 		.long	.LLST101
 9336 16d4 D5000000 		.long	.LVUS101
 9337 16d8 2D       		.uleb128 0x2d
 9338 16d9 9C350000 		.long	0x359c
 9339 16dd 9E010000 		.long	.LBI1295
 9340 16e1 03       		.byte	.LVU1299
 9341 16e2 B80F0000 		.long	.Ldebug_ranges0+0xfb8
 9342 16e6 02       		.byte	0x2
 9343 16e7 1C01     		.value	0x11c
 9344 16e9 03       		.byte	0x3
 9345 16ea 01170000 		.long	0x1701
 9346 16ee 2F       		.uleb128 0x2f
 9347 16ef B0350000 		.long	0x35b0
 9348 16f3 9E010000 		.long	.LBI1296
 9349 16f7 05       		.byte	.LVU1301
 9350 16f8 C00F0000 		.long	.Ldebug_ranges0+0xfc0
 9351 16fc 03       		.byte	0x3
 9352 16fd 6301     		.value	0x163
 9353 16ff 03       		.byte	0x3
 9354 1700 00       		.byte	0
 9355 1701 2D       		.uleb128 0x2d
 9356 1702 35350000 		.long	0x3535
 9357 1706 A9010000 		.long	.LBI1301
 9358 170a 03       		.byte	.LVU1308
 9359 170b D80F0000 		.long	.Ldebug_ranges0+0xfd8
 9360 170f 02       		.byte	0x2
 9361 1710 1D01     		.value	0x11d
 9362 1712 03       		.byte	0x3
 9363 1713 2E170000 		.long	0x172e
 9364 1717 2E       		.uleb128 0x2e
 9365 1718 43350000 		.long	0x3543
 9366 171c FD000000 		.long	.LLST102
 9367 1720 F9000000 		.long	.LVUS102
 9368 1724 2C       		.uleb128 0x2c
 9369 1725 EC010000 		.long	.LVL407
 9370 1729 DE350000 		.long	0x35de
 9371 172d 00       		.byte	0
 9372 172e 32       		.uleb128 0x32
 9373 172f 6F350000 		.long	0x356f
 9374 1733 B5010000 		.long	.LBI1307
 9375 1737 01       		.byte	.LVU1315
 9376 1738 B5010000 		.long	.LBB1307
 9377 173c 07000000 		.long	.LBE1307-.LBB1307
 9378 1740 02       		.byte	0x2
 9379 1741 1F01     		.value	0x11f
 9380 1743 03       		.byte	0x3
GAS LISTING /tmp/ccffpNMU.s 			page 175


 9381 1744 69170000 		.long	0x1769
 9382 1748 33       		.uleb128 0x33
 9383 1749 B5010000 		.long	.LBB1308
 9384 174d 07000000 		.long	.LBE1308-.LBB1308
 9385 1751 34       		.uleb128 0x34
 9386 1752 A6350000 		.long	0x35a6
 9387 1756 B5010000 		.long	.LBI1309
 9388 175a 07       		.byte	.LVU1321
 9389 175b B5010000 		.long	.LBB1309
 9390 175f 07000000 		.long	.LBE1309-.LBB1309
 9391 1763 03       		.byte	0x3
 9392 1764 7A01     		.value	0x17a
 9393 1766 03       		.byte	0x3
 9394 1767 00       		.byte	0
 9395 1768 00       		.byte	0
 9396 1769 2C       		.uleb128 0x2c
 9397 176a B5010000 		.long	.LVL402
 9398 176e EA350000 		.long	0x35ea
 9399 1772 00       		.byte	0
 9400 1773 2C       		.uleb128 0x2c
 9401 1774 2D000000 		.long	.LVL380
 9402 1778 F7350000 		.long	0x35f7
 9403 177c 00       		.byte	0
 9404 177d 07       		.uleb128 0x7
 9405 177e 04       		.byte	0x4
 9406 177f 8F080000 		.long	0x88f
 9407 1783 26       		.uleb128 0x26
 9408 1784 E30E0000 		.long	.LASF299
 9409 1788 01       		.byte	0x1
 9410 1789 5201     		.value	0x152
 9411 178b 06       		.byte	0x6
 9412 178c 00000000 		.long	.LFB231
 9413 1790 43020000 		.long	.LFE231-.LFB231
 9414 1794 01       		.uleb128 0x1
 9415 1795 9C       		.byte	0x9c
 9416 1796 F31C0000 		.long	0x1cf3
 9417 179a 27       		.uleb128 0x27
 9418 179b 2B0A0000 		.long	.LASF293
 9419 179f 01       		.byte	0x1
 9420 17a0 5201     		.value	0x152
 9421 17a2 24       		.byte	0x24
 9422 17a3 7D170000 		.long	0x177d
 9423 17a7 02       		.uleb128 0x2
 9424 17a8 91       		.byte	0x91
 9425 17a9 00       		.sleb128 0
 9426 17aa 27       		.uleb128 0x27
 9427 17ab D6090000 		.long	.LASF294
 9428 17af 01       		.byte	0x1
 9429 17b0 5201     		.value	0x152
 9430 17b2 4A       		.byte	0x4a
 9431 17b3 7D170000 		.long	0x177d
 9432 17b7 02       		.uleb128 0x2
 9433 17b8 91       		.byte	0x91
 9434 17b9 04       		.sleb128 4
 9435 17ba 28       		.uleb128 0x28
 9436 17bb 71050000 		.long	.LASF295
 9437 17bf 01       		.byte	0x1
GAS LISTING /tmp/ccffpNMU.s 			page 176


 9438 17c0 5301     		.value	0x153
 9439 17c2 0A       		.byte	0xa
 9440 17c3 16010000 		.long	0x116
 9441 17c7 00       		.byte	0
 9442 17c8 28       		.uleb128 0x28
 9443 17c9 AA040000 		.long	.LASF296
 9444 17cd 01       		.byte	0x1
 9445 17ce 5401     		.value	0x154
 9446 17d0 0A       		.byte	0xa
 9447 17d1 16010000 		.long	0x116
 9448 17d5 00       		.byte	0
 9449 17d6 2A       		.uleb128 0x2a
 9450 17d7 600B0000 		.long	.Ldebug_ranges0+0xb60
 9451 17db 22180000 		.long	0x1822
 9452 17df 2B       		.uleb128 0x2b
 9453 17e0 6A00     		.string	"j"
 9454 17e2 01       		.byte	0x1
 9455 17e3 5801     		.value	0x158
 9456 17e5 0F       		.byte	0xf
 9457 17e6 27010000 		.long	0x127
 9458 17ea 23010000 		.long	.LLST75
 9459 17ee 1D010000 		.long	.LVUS75
 9460 17f2 33       		.uleb128 0x33
 9461 17f3 30000000 		.long	.LBB1040
 9462 17f7 4B000000 		.long	.LBE1040-.LBB1040
 9463 17fb 2B       		.uleb128 0x2b
 9464 17fc 6900     		.string	"i"
 9465 17fe 01       		.byte	0x1
 9466 17ff 5901     		.value	0x159
 9467 1801 10       		.byte	0x10
 9468 1802 27010000 		.long	0x127
 9469 1806 55010000 		.long	.LLST76
 9470 180a 4F010000 		.long	.LVUS76
 9471 180e 2C       		.uleb128 0x2c
 9472 180f 48000000 		.long	.LVL317
 9473 1813 C6350000 		.long	0x35c6
 9474 1817 2C       		.uleb128 0x2c
 9475 1818 70000000 		.long	.LVL320
 9476 181c C6350000 		.long	0x35c6
 9477 1820 00       		.byte	0
 9478 1821 00       		.byte	0
 9479 1822 2A       		.uleb128 0x2a
 9480 1823 380C0000 		.long	.Ldebug_ranges0+0xc38
 9481 1827 65180000 		.long	0x1865
 9482 182b 2B       		.uleb128 0x2b
 9483 182c 6A00     		.string	"j"
 9484 182e 01       		.byte	0x1
 9485 182f 6E01     		.value	0x16e
 9486 1831 0F       		.byte	0xf
 9487 1832 27010000 		.long	0x127
 9488 1836 85010000 		.long	.LLST80
 9489 183a 7F010000 		.long	.LVUS80
 9490 183e 33       		.uleb128 0x33
 9491 183f C0000000 		.long	.LBB1085
 9492 1843 1F000000 		.long	.LBE1085-.LBB1085
 9493 1847 2B       		.uleb128 0x2b
 9494 1848 6900     		.string	"i"
GAS LISTING /tmp/ccffpNMU.s 			page 177


 9495 184a 01       		.byte	0x1
 9496 184b 6F01     		.value	0x16f
 9497 184d 10       		.byte	0x10
 9498 184e 27010000 		.long	0x127
 9499 1852 B5010000 		.long	.LLST81
 9500 1856 B1010000 		.long	.LVUS81
 9501 185a 2C       		.uleb128 0x2c
 9502 185b D4000000 		.long	.LVL332
 9503 185f 03360000 		.long	0x3603
 9504 1863 00       		.byte	0
 9505 1864 00       		.byte	0
 9506 1865 2A       		.uleb128 0x2a
 9507 1866 000D0000 		.long	.Ldebug_ranges0+0xd00
 9508 186a A8180000 		.long	0x18a8
 9509 186e 2B       		.uleb128 0x2b
 9510 186f 6A00     		.string	"j"
 9511 1871 01       		.byte	0x1
 9512 1872 7601     		.value	0x176
 9513 1874 0F       		.byte	0xf
 9514 1875 27010000 		.long	0x127
 9515 1879 DA010000 		.long	.LLST85
 9516 187d D4010000 		.long	.LVUS85
 9517 1881 33       		.uleb128 0x33
 9518 1882 20010000 		.long	.LBB1126
 9519 1886 1F000000 		.long	.LBE1126-.LBB1126
 9520 188a 2B       		.uleb128 0x2b
 9521 188b 6900     		.string	"i"
 9522 188d 01       		.byte	0x1
 9523 188e 7701     		.value	0x177
 9524 1890 10       		.byte	0x10
 9525 1891 27010000 		.long	0x127
 9526 1895 0A020000 		.long	.LLST86
 9527 1899 06020000 		.long	.LVUS86
 9528 189d 2C       		.uleb128 0x2c
 9529 189e 34010000 		.long	.LVL344
 9530 18a2 03360000 		.long	0x3603
 9531 18a6 00       		.byte	0
 9532 18a7 00       		.byte	0
 9533 18a8 2A       		.uleb128 0x2a
 9534 18a9 280E0000 		.long	.Ldebug_ranges0+0xe28
 9535 18ad EB180000 		.long	0x18eb
 9536 18b1 2B       		.uleb128 0x2b
 9537 18b2 6A00     		.string	"j"
 9538 18b4 01       		.byte	0x1
 9539 18b5 7F01     		.value	0x17f
 9540 18b7 0F       		.byte	0xf
 9541 18b8 27010000 		.long	0x127
 9542 18bc 2F020000 		.long	.LLST92
 9543 18c0 29020000 		.long	.LVUS92
 9544 18c4 33       		.uleb128 0x33
 9545 18c5 98010000 		.long	.LBB1186
 9546 18c9 1F000000 		.long	.LBE1186-.LBB1186
 9547 18cd 2B       		.uleb128 0x2b
 9548 18ce 6900     		.string	"i"
 9549 18d0 01       		.byte	0x1
 9550 18d1 8001     		.value	0x180
 9551 18d3 10       		.byte	0x10
GAS LISTING /tmp/ccffpNMU.s 			page 178


 9552 18d4 27010000 		.long	0x127
 9553 18d8 5F020000 		.long	.LLST93
 9554 18dc 5B020000 		.long	.LVUS93
 9555 18e0 2C       		.uleb128 0x2c
 9556 18e1 AC010000 		.long	.LVL359
 9557 18e5 03360000 		.long	0x3603
 9558 18e9 00       		.byte	0
 9559 18ea 00       		.byte	0
 9560 18eb 2D       		.uleb128 0x2d
 9561 18ec 51350000 		.long	0x3551
 9562 18f0 14000000 		.long	.LBI1033
 9563 18f4 03       		.byte	.LVU990
 9564 18f5 380B0000 		.long	.Ldebug_ranges0+0xb38
 9565 18f9 01       		.byte	0x1
 9566 18fa 5601     		.value	0x156
 9567 18fc 02       		.byte	0x2
 9568 18fd 18190000 		.long	0x1918
 9569 1901 2E       		.uleb128 0x2e
 9570 1902 62350000 		.long	0x3562
 9571 1906 80020000 		.long	.LLST74
 9572 190a 7E020000 		.long	.LVUS74
 9573 190e 2C       		.uleb128 0x2c
 9574 190f 1D000000 		.long	.LVL312
 9575 1913 D2350000 		.long	0x35d2
 9576 1917 00       		.byte	0
 9577 1918 2D       		.uleb128 0x2d
 9578 1919 19350000 		.long	0x3519
 9579 191d 80000000 		.long	.LBI1043
 9580 1921 01       		.byte	.LVU1015
 9581 1922 780B0000 		.long	.Ldebug_ranges0+0xb78
 9582 1926 01       		.byte	0x1
 9583 1927 6B01     		.value	0x16b
 9584 1929 02       		.byte	0x2
 9585 192a CA190000 		.long	0x19ca
 9586 192e 2E       		.uleb128 0x2e
 9587 192f 27350000 		.long	0x3527
 9588 1933 9A020000 		.long	.LLST77
 9589 1937 94020000 		.long	.LVUS77
 9590 193b 2D       		.uleb128 0x2d
 9591 193c 9C350000 		.long	0x359c
 9592 1940 80000000 		.long	.LBI1045
 9593 1944 03       		.byte	.LVU1017
 9594 1945 A80B0000 		.long	.Ldebug_ranges0+0xba8
 9595 1949 02       		.byte	0x2
 9596 194a 1C01     		.value	0x11c
 9597 194c 03       		.byte	0x3
 9598 194d 64190000 		.long	0x1964
 9599 1951 2F       		.uleb128 0x2f
 9600 1952 B0350000 		.long	0x35b0
 9601 1956 80000000 		.long	.LBI1046
 9602 195a 05       		.byte	.LVU1019
 9603 195b B00B0000 		.long	.Ldebug_ranges0+0xbb0
 9604 195f 03       		.byte	0x3
 9605 1960 6301     		.value	0x163
 9606 1962 03       		.byte	0x3
 9607 1963 00       		.byte	0
 9608 1964 2D       		.uleb128 0x2d
GAS LISTING /tmp/ccffpNMU.s 			page 179


 9609 1965 35350000 		.long	0x3535
 9610 1969 94000000 		.long	.LBI1053
 9611 196d 03       		.byte	.LVU1028
 9612 196e D00B0000 		.long	.Ldebug_ranges0+0xbd0
 9613 1972 02       		.byte	0x2
 9614 1973 1D01     		.value	0x11d
 9615 1975 03       		.byte	0x3
 9616 1976 91190000 		.long	0x1991
 9617 197a 2E       		.uleb128 0x2e
 9618 197b 43350000 		.long	0x3543
 9619 197f CB020000 		.long	.LLST78
 9620 1983 C5020000 		.long	.LVUS78
 9621 1987 2C       		.uleb128 0x2c
 9622 1988 EE010000 		.long	.LVL368
 9623 198c DE350000 		.long	0x35de
 9624 1990 00       		.byte	0
 9625 1991 2D       		.uleb128 0x2d
 9626 1992 6F350000 		.long	0x356f
 9627 1996 A1000000 		.long	.LBI1062
 9628 199a 01       		.byte	.LVU1035
 9629 199b F80B0000 		.long	.Ldebug_ranges0+0xbf8
 9630 199f 02       		.byte	0x2
 9631 19a0 1F01     		.value	0x11f
 9632 19a2 03       		.byte	0x3
 9633 19a3 C0190000 		.long	0x19c0
 9634 19a7 31       		.uleb128 0x31
 9635 19a8 F80B0000 		.long	.Ldebug_ranges0+0xbf8
 9636 19ac 2F       		.uleb128 0x2f
 9637 19ad A6350000 		.long	0x35a6
 9638 19b1 A1000000 		.long	.LBI1064
 9639 19b5 07       		.byte	.LVU1041
 9640 19b6 F80B0000 		.long	.Ldebug_ranges0+0xbf8
 9641 19ba 03       		.byte	0x3
 9642 19bb 7A01     		.value	0x17a
 9643 19bd 03       		.byte	0x3
 9644 19be 00       		.byte	0
 9645 19bf 00       		.byte	0
 9646 19c0 2C       		.uleb128 0x2c
 9647 19c1 A1000000 		.long	.LVL326
 9648 19c5 EA350000 		.long	0x35ea
 9649 19c9 00       		.byte	0
 9650 19ca 2D       		.uleb128 0x2d
 9651 19cb 51350000 		.long	0x3551
 9652 19cf AB000000 		.long	.LBI1077
 9653 19d3 02       		.byte	.LVU1047
 9654 19d4 100C0000 		.long	.Ldebug_ranges0+0xc10
 9655 19d8 01       		.byte	0x1
 9656 19d9 6C01     		.value	0x16c
 9657 19db 02       		.byte	0x2
 9658 19dc F7190000 		.long	0x19f7
 9659 19e0 2E       		.uleb128 0x2e
 9660 19e1 62350000 		.long	0x3562
 9661 19e5 F8020000 		.long	.LLST79
 9662 19e9 F6020000 		.long	.LVUS79
 9663 19ed 2C       		.uleb128 0x2c
 9664 19ee B6000000 		.long	.LVL328
 9665 19f2 D2350000 		.long	0x35d2
GAS LISTING /tmp/ccffpNMU.s 			page 180


 9666 19f6 00       		.byte	0
 9667 19f7 2D       		.uleb128 0x2d
 9668 19f8 19350000 		.long	0x3519
 9669 19fc E4000000 		.long	.LBI1089
 9670 1a00 01       		.byte	.LVU1064
 9671 1a01 500C0000 		.long	.Ldebug_ranges0+0xc50
 9672 1a05 01       		.byte	0x1
 9673 1a06 7301     		.value	0x173
 9674 1a08 02       		.byte	0x2
 9675 1a09 A91A0000 		.long	0x1aa9
 9676 1a0d 2E       		.uleb128 0x2e
 9677 1a0e 27350000 		.long	0x3527
 9678 1a12 12030000 		.long	.LLST82
 9679 1a16 0C030000 		.long	.LVUS82
 9680 1a1a 2D       		.uleb128 0x2d
 9681 1a1b 9C350000 		.long	0x359c
 9682 1a1f E4000000 		.long	.LBI1091
 9683 1a23 03       		.byte	.LVU1066
 9684 1a24 800C0000 		.long	.Ldebug_ranges0+0xc80
 9685 1a28 02       		.byte	0x2
 9686 1a29 1C01     		.value	0x11c
 9687 1a2b 03       		.byte	0x3
 9688 1a2c 431A0000 		.long	0x1a43
 9689 1a30 2F       		.uleb128 0x2f
 9690 1a31 B0350000 		.long	0x35b0
 9691 1a35 E4000000 		.long	.LBI1092
 9692 1a39 05       		.byte	.LVU1068
 9693 1a3a 880C0000 		.long	.Ldebug_ranges0+0xc88
 9694 1a3e 03       		.byte	0x3
 9695 1a3f 6301     		.value	0x163
 9696 1a41 03       		.byte	0x3
 9697 1a42 00       		.byte	0
 9698 1a43 2D       		.uleb128 0x2d
 9699 1a44 35350000 		.long	0x3535
 9700 1a48 EF000000 		.long	.LBI1097
 9701 1a4c 03       		.byte	.LVU1075
 9702 1a4d A00C0000 		.long	.Ldebug_ranges0+0xca0
 9703 1a51 02       		.byte	0x2
 9704 1a52 1D01     		.value	0x11d
 9705 1a54 03       		.byte	0x3
 9706 1a55 701A0000 		.long	0x1a70
 9707 1a59 2E       		.uleb128 0x2e
 9708 1a5a 43350000 		.long	0x3543
 9709 1a5e 43030000 		.long	.LLST83
 9710 1a62 3D030000 		.long	.LVUS83
 9711 1a66 2C       		.uleb128 0x2c
 9712 1a67 3B020000 		.long	.LVL376
 9713 1a6b DE350000 		.long	0x35de
 9714 1a6f 00       		.byte	0
 9715 1a70 2D       		.uleb128 0x2d
 9716 1a71 6F350000 		.long	0x356f
 9717 1a75 FF000000 		.long	.LBI1103
 9718 1a79 01       		.byte	.LVU1082
 9719 1a7a C00C0000 		.long	.Ldebug_ranges0+0xcc0
 9720 1a7e 02       		.byte	0x2
 9721 1a7f 1F01     		.value	0x11f
 9722 1a81 03       		.byte	0x3
GAS LISTING /tmp/ccffpNMU.s 			page 181


 9723 1a82 9F1A0000 		.long	0x1a9f
 9724 1a86 31       		.uleb128 0x31
 9725 1a87 C00C0000 		.long	.Ldebug_ranges0+0xcc0
 9726 1a8b 2F       		.uleb128 0x2f
 9727 1a8c A6350000 		.long	0x35a6
 9728 1a90 FF000000 		.long	.LBI1105
 9729 1a94 07       		.byte	.LVU1088
 9730 1a95 C00C0000 		.long	.Ldebug_ranges0+0xcc0
 9731 1a99 03       		.byte	0x3
 9732 1a9a 7A01     		.value	0x17a
 9733 1a9c 03       		.byte	0x3
 9734 1a9d 00       		.byte	0
 9735 1a9e 00       		.byte	0
 9736 1a9f 2C       		.uleb128 0x2c
 9737 1aa0 FF000000 		.long	.LVL338
 9738 1aa4 EA350000 		.long	0x35ea
 9739 1aa8 00       		.byte	0
 9740 1aa9 2D       		.uleb128 0x2d
 9741 1aaa 51350000 		.long	0x3551
 9742 1aae 09010000 		.long	.LBI1118
 9743 1ab2 02       		.byte	.LVU1094
 9744 1ab3 D80C0000 		.long	.Ldebug_ranges0+0xcd8
 9745 1ab7 01       		.byte	0x1
 9746 1ab8 7401     		.value	0x174
 9747 1aba 02       		.byte	0x2
 9748 1abb D61A0000 		.long	0x1ad6
 9749 1abf 2E       		.uleb128 0x2e
 9750 1ac0 62350000 		.long	0x3562
 9751 1ac4 70030000 		.long	.LLST84
 9752 1ac8 6E030000 		.long	.LVUS84
 9753 1acc 2C       		.uleb128 0x2c
 9754 1acd 14010000 		.long	.LVL340
 9755 1ad1 D2350000 		.long	0x35d2
 9756 1ad5 00       		.byte	0
 9757 1ad6 2D       		.uleb128 0x2d
 9758 1ad7 19350000 		.long	0x3519
 9759 1adb 44010000 		.long	.LBI1130
 9760 1adf 01       		.byte	.LVU1111
 9761 1ae0 180D0000 		.long	.Ldebug_ranges0+0xd18
 9762 1ae4 01       		.byte	0x1
 9763 1ae5 7B01     		.value	0x17b
 9764 1ae7 02       		.byte	0x2
 9765 1ae8 591B0000 		.long	0x1b59
 9766 1aec 2E       		.uleb128 0x2e
 9767 1aed 27350000 		.long	0x3527
 9768 1af1 8A030000 		.long	.LLST87
 9769 1af5 84030000 		.long	.LVUS87
 9770 1af9 2D       		.uleb128 0x2d
 9771 1afa 9C350000 		.long	0x359c
 9772 1afe 44010000 		.long	.LBI1132
 9773 1b02 03       		.byte	.LVU1113
 9774 1b03 400D0000 		.long	.Ldebug_ranges0+0xd40
 9775 1b07 02       		.byte	0x2
 9776 1b08 1C01     		.value	0x11c
 9777 1b0a 03       		.byte	0x3
 9778 1b0b 221B0000 		.long	0x1b22
 9779 1b0f 2F       		.uleb128 0x2f
GAS LISTING /tmp/ccffpNMU.s 			page 182


 9780 1b10 B0350000 		.long	0x35b0
 9781 1b14 44010000 		.long	.LBI1133
 9782 1b18 05       		.byte	.LVU1115
 9783 1b19 480D0000 		.long	.Ldebug_ranges0+0xd48
 9784 1b1d 03       		.byte	0x3
 9785 1b1e 6301     		.value	0x163
 9786 1b20 03       		.byte	0x3
 9787 1b21 00       		.byte	0
 9788 1b22 2D       		.uleb128 0x2d
 9789 1b23 35350000 		.long	0x3535
 9790 1b27 4F010000 		.long	.LBI1138
 9791 1b2b 03       		.byte	.LVU1122
 9792 1b2c 600D0000 		.long	.Ldebug_ranges0+0xd60
 9793 1b30 02       		.byte	0x2
 9794 1b31 1D01     		.value	0x11d
 9795 1b33 03       		.byte	0x3
 9796 1b34 4F1B0000 		.long	0x1b4f
 9797 1b38 2E       		.uleb128 0x2e
 9798 1b39 43350000 		.long	0x3543
 9799 1b3d BB030000 		.long	.LLST88
 9800 1b41 B5030000 		.long	.LVUS88
 9801 1b45 2C       		.uleb128 0x2c
 9802 1b46 27020000 		.long	.LVL374
 9803 1b4a DE350000 		.long	0x35de
 9804 1b4e 00       		.byte	0
 9805 1b4f 2C       		.uleb128 0x2c
 9806 1b50 5F010000 		.long	.LVL350
 9807 1b54 EA350000 		.long	0x35ea
 9808 1b58 00       		.byte	0
 9809 1b59 2D       		.uleb128 0x2d
 9810 1b5a 19350000 		.long	0x3519
 9811 1b5e 5F010000 		.long	.LBI1150
 9812 1b62 08       		.byte	.LVU1136
 9813 1b63 800D0000 		.long	.Ldebug_ranges0+0xd80
 9814 1b67 01       		.byte	0x1
 9815 1b68 7C01     		.value	0x17c
 9816 1b6a 02       		.byte	0x2
 9817 1b6b 0B1C0000 		.long	0x1c0b
 9818 1b6f 2E       		.uleb128 0x2e
 9819 1b70 27350000 		.long	0x3527
 9820 1b74 EC030000 		.long	.LLST89
 9821 1b78 E6030000 		.long	.LVUS89
 9822 1b7c 2D       		.uleb128 0x2d
 9823 1b7d 9C350000 		.long	0x359c
 9824 1b81 5F010000 		.long	.LBI1152
 9825 1b85 0A       		.byte	.LVU1138
 9826 1b86 B00D0000 		.long	.Ldebug_ranges0+0xdb0
 9827 1b8a 02       		.byte	0x2
 9828 1b8b 1C01     		.value	0x11c
 9829 1b8d 03       		.byte	0x3
 9830 1b8e A51B0000 		.long	0x1ba5
 9831 1b92 2F       		.uleb128 0x2f
 9832 1b93 B0350000 		.long	0x35b0
 9833 1b97 5F010000 		.long	.LBI1153
 9834 1b9b 0C       		.byte	.LVU1140
 9835 1b9c B80D0000 		.long	.Ldebug_ranges0+0xdb8
 9836 1ba0 03       		.byte	0x3
GAS LISTING /tmp/ccffpNMU.s 			page 183


 9837 1ba1 6301     		.value	0x163
 9838 1ba3 03       		.byte	0x3
 9839 1ba4 00       		.byte	0
 9840 1ba5 2D       		.uleb128 0x2d
 9841 1ba6 35350000 		.long	0x3535
 9842 1baa 6A010000 		.long	.LBI1158
 9843 1bae 03       		.byte	.LVU1147
 9844 1baf D00D0000 		.long	.Ldebug_ranges0+0xdd0
 9845 1bb3 02       		.byte	0x2
 9846 1bb4 1D01     		.value	0x11d
 9847 1bb6 03       		.byte	0x3
 9848 1bb7 D21B0000 		.long	0x1bd2
 9849 1bbb 2E       		.uleb128 0x2e
 9850 1bbc 43350000 		.long	0x3543
 9851 1bc0 1D040000 		.long	.LLST90
 9852 1bc4 17040000 		.long	.LVUS90
 9853 1bc8 2C       		.uleb128 0x2c
 9854 1bc9 13020000 		.long	.LVL372
 9855 1bcd DE350000 		.long	0x35de
 9856 1bd1 00       		.byte	0
 9857 1bd2 2D       		.uleb128 0x2d
 9858 1bd3 6F350000 		.long	0x356f
 9859 1bd7 7A010000 		.long	.LBI1164
 9860 1bdb 01       		.byte	.LVU1154
 9861 1bdc F00D0000 		.long	.Ldebug_ranges0+0xdf0
 9862 1be0 02       		.byte	0x2
 9863 1be1 1F01     		.value	0x11f
 9864 1be3 03       		.byte	0x3
 9865 1be4 011C0000 		.long	0x1c01
 9866 1be8 31       		.uleb128 0x31
 9867 1be9 F00D0000 		.long	.Ldebug_ranges0+0xdf0
 9868 1bed 2F       		.uleb128 0x2f
 9869 1bee A6350000 		.long	0x35a6
 9870 1bf2 7A010000 		.long	.LBI1166
 9871 1bf6 07       		.byte	.LVU1160
 9872 1bf7 F00D0000 		.long	.Ldebug_ranges0+0xdf0
 9873 1bfb 03       		.byte	0x3
 9874 1bfc 7A01     		.value	0x17a
 9875 1bfe 03       		.byte	0x3
 9876 1bff 00       		.byte	0
 9877 1c00 00       		.byte	0
 9878 1c01 2C       		.uleb128 0x2c
 9879 1c02 7A010000 		.long	.LVL353
 9880 1c06 EA350000 		.long	0x35ea
 9881 1c0a 00       		.byte	0
 9882 1c0b 2D       		.uleb128 0x2d
 9883 1c0c 51350000 		.long	0x3551
 9884 1c10 84010000 		.long	.LBI1179
 9885 1c14 02       		.byte	.LVU1166
 9886 1c15 080E0000 		.long	.Ldebug_ranges0+0xe08
 9887 1c19 01       		.byte	0x1
 9888 1c1a 7D01     		.value	0x17d
 9889 1c1c 02       		.byte	0x2
 9890 1c1d 381C0000 		.long	0x1c38
 9891 1c21 2E       		.uleb128 0x2e
 9892 1c22 62350000 		.long	0x3562
 9893 1c26 4A040000 		.long	.LLST91
GAS LISTING /tmp/ccffpNMU.s 			page 184


 9894 1c2a 48040000 		.long	.LVUS91
 9895 1c2e 2C       		.uleb128 0x2c
 9896 1c2f 8F010000 		.long	.LVL355
 9897 1c33 D2350000 		.long	0x35d2
 9898 1c37 00       		.byte	0
 9899 1c38 35       		.uleb128 0x35
 9900 1c39 19350000 		.long	0x3519
 9901 1c3d BC010000 		.long	.LBI1190
 9902 1c41 01       		.byte	.LVU1183
 9903 1c42 400E0000 		.long	.Ldebug_ranges0+0xe40
 9904 1c46 01       		.byte	0x1
 9905 1c47 8401     		.value	0x184
 9906 1c49 02       		.byte	0x2
 9907 1c4a 2E       		.uleb128 0x2e
 9908 1c4b 27350000 		.long	0x3527
 9909 1c4f 62040000 		.long	.LLST94
 9910 1c53 5E040000 		.long	.LVUS94
 9911 1c57 2D       		.uleb128 0x2d
 9912 1c58 9C350000 		.long	0x359c
 9913 1c5c BC010000 		.long	.LBI1192
 9914 1c60 03       		.byte	.LVU1185
 9915 1c61 680E0000 		.long	.Ldebug_ranges0+0xe68
 9916 1c65 02       		.byte	0x2
 9917 1c66 1C01     		.value	0x11c
 9918 1c68 03       		.byte	0x3
 9919 1c69 801C0000 		.long	0x1c80
 9920 1c6d 2F       		.uleb128 0x2f
 9921 1c6e B0350000 		.long	0x35b0
 9922 1c72 BC010000 		.long	.LBI1193
 9923 1c76 05       		.byte	.LVU1187
 9924 1c77 700E0000 		.long	.Ldebug_ranges0+0xe70
 9925 1c7b 03       		.byte	0x3
 9926 1c7c 6301     		.value	0x163
 9927 1c7e 03       		.byte	0x3
 9928 1c7f 00       		.byte	0
 9929 1c80 2D       		.uleb128 0x2d
 9930 1c81 35350000 		.long	0x3535
 9931 1c85 C7010000 		.long	.LBI1198
 9932 1c89 03       		.byte	.LVU1194
 9933 1c8a 880E0000 		.long	.Ldebug_ranges0+0xe88
 9934 1c8e 02       		.byte	0x2
 9935 1c8f 1D01     		.value	0x11d
 9936 1c91 03       		.byte	0x3
 9937 1c92 AD1C0000 		.long	0x1cad
 9938 1c96 2E       		.uleb128 0x2e
 9939 1c97 43350000 		.long	0x3543
 9940 1c9b 86040000 		.long	.LLST95
 9941 1c9f 82040000 		.long	.LVUS95
 9942 1ca3 2C       		.uleb128 0x2c
 9943 1ca4 02020000 		.long	.LVL370
 9944 1ca8 DE350000 		.long	0x35de
 9945 1cac 00       		.byte	0
 9946 1cad 32       		.uleb128 0x32
 9947 1cae 6F350000 		.long	0x356f
 9948 1cb2 D3010000 		.long	.LBI1204
 9949 1cb6 01       		.byte	.LVU1201
 9950 1cb7 D3010000 		.long	.LBB1204
GAS LISTING /tmp/ccffpNMU.s 			page 185


 9951 1cbb 07000000 		.long	.LBE1204-.LBB1204
 9952 1cbf 02       		.byte	0x2
 9953 1cc0 1F01     		.value	0x11f
 9954 1cc2 03       		.byte	0x3
 9955 1cc3 E81C0000 		.long	0x1ce8
 9956 1cc7 33       		.uleb128 0x33
 9957 1cc8 D3010000 		.long	.LBB1205
 9958 1ccc 07000000 		.long	.LBE1205-.LBB1205
 9959 1cd0 34       		.uleb128 0x34
 9960 1cd1 A6350000 		.long	0x35a6
 9961 1cd5 D3010000 		.long	.LBI1206
 9962 1cd9 07       		.byte	.LVU1207
 9963 1cda D3010000 		.long	.LBB1206
 9964 1cde 07000000 		.long	.LBE1206-.LBB1206
 9965 1ce2 03       		.byte	0x3
 9966 1ce3 7A01     		.value	0x17a
 9967 1ce5 03       		.byte	0x3
 9968 1ce6 00       		.byte	0
 9969 1ce7 00       		.byte	0
 9970 1ce8 2C       		.uleb128 0x2c
 9971 1ce9 D3010000 		.long	.LVL365
 9972 1ced EA350000 		.long	0x35ea
 9973 1cf1 00       		.byte	0
 9974 1cf2 00       		.byte	0
 9975 1cf3 26       		.uleb128 0x26
 9976 1cf4 6A010000 		.long	.LASF300
 9977 1cf8 01       		.byte	0x1
 9978 1cf9 0F01     		.value	0x10f
 9979 1cfb 06       		.byte	0x6
 9980 1cfc 00000000 		.long	.LFB230
 9981 1d00 33030000 		.long	.LFE230-.LFB230
 9982 1d04 01       		.uleb128 0x1
 9983 1d05 9C       		.byte	0x9c
 9984 1d06 C4200000 		.long	0x20c4
 9985 1d0a 27       		.uleb128 0x27
 9986 1d0b 2B0A0000 		.long	.LASF293
 9987 1d0f 01       		.byte	0x1
 9988 1d10 0F01     		.value	0x10f
 9989 1d12 25       		.byte	0x25
 9990 1d13 7D170000 		.long	0x177d
 9991 1d17 02       		.uleb128 0x2
 9992 1d18 91       		.byte	0x91
 9993 1d19 00       		.sleb128 0
 9994 1d1a 27       		.uleb128 0x27
 9995 1d1b D6090000 		.long	.LASF294
 9996 1d1f 01       		.byte	0x1
 9997 1d20 0F01     		.value	0x10f
 9998 1d22 4B       		.byte	0x4b
 9999 1d23 7D170000 		.long	0x177d
 10000 1d27 02       		.uleb128 0x2
 10001 1d28 91       		.byte	0x91
 10002 1d29 04       		.sleb128 4
 10003 1d2a 29       		.uleb128 0x29
 10004 1d2b 32040000 		.long	.LASF301
 10005 1d2f 01       		.byte	0x1
 10006 1d30 1101     		.value	0x111
 10007 1d32 10       		.byte	0x10
GAS LISTING /tmp/ccffpNMU.s 			page 186


 10008 1d33 22010000 		.long	0x122
 10009 1d37 A8040000 		.long	.LLST59
 10010 1d3b A6040000 		.long	.LVUS59
 10011 1d3f 29       		.uleb128 0x29
 10012 1d40 CF0A0000 		.long	.LASF302
 10013 1d44 01       		.byte	0x1
 10014 1d45 1401     		.value	0x114
 10015 1d47 0A       		.byte	0xa
 10016 1d48 27010000 		.long	0x127
 10017 1d4c C0040000 		.long	.LLST60
 10018 1d50 BE040000 		.long	.LVUS60
 10019 1d54 2A       		.uleb128 0x2a
 10020 1d55 B8090000 		.long	.Ldebug_ranges0+0x9b8
 10021 1d59 AE1D0000 		.long	0x1dae
 10022 1d5d 2B       		.uleb128 0x2b
 10023 1d5e 6A00     		.string	"j"
 10024 1d60 01       		.byte	0x1
 10025 1d61 1801     		.value	0x118
 10026 1d63 10       		.byte	0x10
 10027 1d64 27010000 		.long	0x127
 10028 1d68 DC040000 		.long	.LLST64
 10029 1d6c D4040000 		.long	.LVUS64
 10030 1d70 31       		.uleb128 0x31
 10031 1d71 D0090000 		.long	.Ldebug_ranges0+0x9d0
 10032 1d75 2B       		.uleb128 0x2b
 10033 1d76 6900     		.string	"i"
 10034 1d78 01       		.byte	0x1
 10035 1d79 1901     		.value	0x119
 10036 1d7b 11       		.byte	0x11
 10037 1d7c 27010000 		.long	0x127
 10038 1d80 1D050000 		.long	.LLST65
 10039 1d84 13050000 		.long	.LVUS65
 10040 1d88 2C       		.uleb128 0x2c
 10041 1d89 CF000000 		.long	.LVL265
 10042 1d8d C6350000 		.long	0x35c6
 10043 1d91 2C       		.uleb128 0x2c
 10044 1d92 FF000000 		.long	.LVL270
 10045 1d96 C6350000 		.long	0x35c6
 10046 1d9a 2C       		.uleb128 0x2c
 10047 1d9b 8F020000 		.long	.LVL299
 10048 1d9f C6350000 		.long	0x35c6
 10049 1da3 2C       		.uleb128 0x2c
 10050 1da4 AF020000 		.long	.LVL300
 10051 1da8 C6350000 		.long	0x35c6
 10052 1dac 00       		.byte	0
 10053 1dad 00       		.byte	0
 10054 1dae 2A       		.uleb128 0x2a
 10055 1daf 780A0000 		.long	.Ldebug_ranges0+0xa78
 10056 1db3 081E0000 		.long	0x1e08
 10057 1db7 2B       		.uleb128 0x2b
 10058 1db8 6A00     		.string	"j"
 10059 1dba 01       		.byte	0x1
 10060 1dbb 3601     		.value	0x136
 10061 1dbd 10       		.byte	0x10
 10062 1dbe 27010000 		.long	0x127
 10063 1dc2 67050000 		.long	.LLST69
 10064 1dc6 5F050000 		.long	.LVUS69
GAS LISTING /tmp/ccffpNMU.s 			page 187


 10065 1dca 31       		.uleb128 0x31
 10066 1dcb 900A0000 		.long	.Ldebug_ranges0+0xa90
 10067 1dcf 2B       		.uleb128 0x2b
 10068 1dd0 6900     		.string	"i"
 10069 1dd2 01       		.byte	0x1
 10070 1dd3 3701     		.value	0x137
 10071 1dd5 11       		.byte	0x11
 10072 1dd6 27010000 		.long	0x127
 10073 1dda A8050000 		.long	.LLST70
 10074 1dde 9E050000 		.long	.LVUS70
 10075 1de2 2C       		.uleb128 0x2c
 10076 1de3 DF010000 		.long	.LVL283
 10077 1de7 C6350000 		.long	0x35c6
 10078 1deb 2C       		.uleb128 0x2c
 10079 1dec 0F020000 		.long	.LVL288
 10080 1df0 C6350000 		.long	0x35c6
 10081 1df4 2C       		.uleb128 0x2c
 10082 1df5 CF020000 		.long	.LVL302
 10083 1df9 C6350000 		.long	0x35c6
 10084 1dfd 2C       		.uleb128 0x2c
 10085 1dfe EF020000 		.long	.LVL303
 10086 1e02 C6350000 		.long	0x35c6
 10087 1e06 00       		.byte	0
 10088 1e07 00       		.byte	0
 10089 1e08 2D       		.uleb128 0x2d
 10090 1e09 19350000 		.long	0x3519
 10091 1e0d 12000000 		.long	.LBI860
 10092 1e11 01       		.byte	.LVU816
 10093 1e12 18090000 		.long	.Ldebug_ranges0+0x918
 10094 1e16 01       		.byte	0x1
 10095 1e17 1001     		.value	0x110
 10096 1e19 02       		.byte	0x2
 10097 1e1a BE1E0000 		.long	0x1ebe
 10098 1e1e 2E       		.uleb128 0x2e
 10099 1e1f 27350000 		.long	0x3527
 10100 1e23 F0050000 		.long	.LLST61
 10101 1e27 EA050000 		.long	.LVUS61
 10102 1e2b 2D       		.uleb128 0x2d
 10103 1e2c 9C350000 		.long	0x359c
 10104 1e30 12000000 		.long	.LBI862
 10105 1e34 03       		.byte	.LVU818
 10106 1e35 48090000 		.long	.Ldebug_ranges0+0x948
 10107 1e39 02       		.byte	0x2
 10108 1e3a 1C01     		.value	0x11c
 10109 1e3c 03       		.byte	0x3
 10110 1e3d 581E0000 		.long	0x1e58
 10111 1e41 34       		.uleb128 0x34
 10112 1e42 B0350000 		.long	0x35b0
 10113 1e46 12000000 		.long	.LBI863
 10114 1e4a 05       		.byte	.LVU820
 10115 1e4b 12000000 		.long	.LBB863
 10116 1e4f 10000000 		.long	.LBE863-.LBB863
 10117 1e53 03       		.byte	0x3
 10118 1e54 6301     		.value	0x163
 10119 1e56 03       		.byte	0x3
 10120 1e57 00       		.byte	0
 10121 1e58 2D       		.uleb128 0x2d
GAS LISTING /tmp/ccffpNMU.s 			page 188


 10122 1e59 35350000 		.long	0x3535
 10123 1e5d 22000000 		.long	.LBI866
 10124 1e61 03       		.byte	.LVU826
 10125 1e62 60090000 		.long	.Ldebug_ranges0+0x960
 10126 1e66 02       		.byte	0x2
 10127 1e67 1D01     		.value	0x11d
 10128 1e69 03       		.byte	0x3
 10129 1e6a 851E0000 		.long	0x1e85
 10130 1e6e 2E       		.uleb128 0x2e
 10131 1e6f 43350000 		.long	0x3543
 10132 1e73 21060000 		.long	.LLST62
 10133 1e77 1B060000 		.long	.LVUS62
 10134 1e7b 2C       		.uleb128 0x2c
 10135 1e7c 2B030000 		.long	.LVL309
 10136 1e80 DE350000 		.long	0x35de
 10137 1e84 00       		.byte	0
 10138 1e85 2D       		.uleb128 0x2d
 10139 1e86 6F350000 		.long	0x356f
 10140 1e8a 36000000 		.long	.LBI869
 10141 1e8e 01       		.byte	.LVU833
 10142 1e8f 78090000 		.long	.Ldebug_ranges0+0x978
 10143 1e93 02       		.byte	0x2
 10144 1e94 1F01     		.value	0x11f
 10145 1e96 03       		.byte	0x3
 10146 1e97 B41E0000 		.long	0x1eb4
 10147 1e9b 31       		.uleb128 0x31
 10148 1e9c 78090000 		.long	.Ldebug_ranges0+0x978
 10149 1ea0 2F       		.uleb128 0x2f
 10150 1ea1 A6350000 		.long	0x35a6
 10151 1ea5 36000000 		.long	.LBI871
 10152 1ea9 07       		.byte	.LVU839
 10153 1eaa 78090000 		.long	.Ldebug_ranges0+0x978
 10154 1eae 03       		.byte	0x3
 10155 1eaf 7A01     		.value	0x17a
 10156 1eb1 03       		.byte	0x3
 10157 1eb2 00       		.byte	0
 10158 1eb3 00       		.byte	0
 10159 1eb4 2C       		.uleb128 0x2c
 10160 1eb5 36000000 		.long	.LVL259
 10161 1eb9 EA350000 		.long	0x35ea
 10162 1ebd 00       		.byte	0
 10163 1ebe 2D       		.uleb128 0x2d
 10164 1ebf 51350000 		.long	0x3551
 10165 1ec3 45000000 		.long	.LBI884
 10166 1ec7 03       		.byte	.LVU847
 10167 1ec8 90090000 		.long	.Ldebug_ranges0+0x990
 10168 1ecc 01       		.byte	0x1
 10169 1ecd 1201     		.value	0x112
 10170 1ecf 02       		.byte	0x2
 10171 1ed0 EB1E0000 		.long	0x1eeb
 10172 1ed4 2E       		.uleb128 0x2e
 10173 1ed5 62350000 		.long	0x3562
 10174 1ed9 4E060000 		.long	.LLST63
 10175 1edd 4C060000 		.long	.LVUS63
 10176 1ee1 2C       		.uleb128 0x2c
 10177 1ee2 4E000000 		.long	.LVL261
 10178 1ee6 D2350000 		.long	0x35d2
GAS LISTING /tmp/ccffpNMU.s 			page 189


 10179 1eea 00       		.byte	0
 10180 1eeb 2D       		.uleb128 0x2d
 10181 1eec 19350000 		.long	0x3519
 10182 1ef0 0F010000 		.long	.LBI895
 10183 1ef4 01       		.byte	.LVU873
 10184 1ef5 E8090000 		.long	.Ldebug_ranges0+0x9e8
 10185 1ef9 01       		.byte	0x1
 10186 1efa 2C01     		.value	0x12c
 10187 1efc 03       		.byte	0x3
 10188 1efd A11F0000 		.long	0x1fa1
 10189 1f01 2E       		.uleb128 0x2e
 10190 1f02 27350000 		.long	0x3527
 10191 1f06 68060000 		.long	.LLST66
 10192 1f0a 62060000 		.long	.LVUS66
 10193 1f0e 2D       		.uleb128 0x2d
 10194 1f0f 9C350000 		.long	0x359c
 10195 1f13 0F010000 		.long	.LBI897
 10196 1f17 03       		.byte	.LVU875
 10197 1f18 180A0000 		.long	.Ldebug_ranges0+0xa18
 10198 1f1c 02       		.byte	0x2
 10199 1f1d 1C01     		.value	0x11c
 10200 1f1f 03       		.byte	0x3
 10201 1f20 3B1F0000 		.long	0x1f3b
 10202 1f24 34       		.uleb128 0x34
 10203 1f25 B0350000 		.long	0x35b0
 10204 1f29 0F010000 		.long	.LBI898
 10205 1f2d 05       		.byte	.LVU877
 10206 1f2e 0F010000 		.long	.LBB898
 10207 1f32 0A000000 		.long	.LBE898-.LBB898
 10208 1f36 03       		.byte	0x3
 10209 1f37 6301     		.value	0x163
 10210 1f39 03       		.byte	0x3
 10211 1f3a 00       		.byte	0
 10212 1f3b 2D       		.uleb128 0x2d
 10213 1f3c 35350000 		.long	0x3535
 10214 1f40 19010000 		.long	.LBI901
 10215 1f44 03       		.byte	.LVU883
 10216 1f45 300A0000 		.long	.Ldebug_ranges0+0xa30
 10217 1f49 02       		.byte	0x2
 10218 1f4a 1D01     		.value	0x11d
 10219 1f4c 03       		.byte	0x3
 10220 1f4d 681F0000 		.long	0x1f68
 10221 1f51 2E       		.uleb128 0x2e
 10222 1f52 43350000 		.long	0x3543
 10223 1f56 99060000 		.long	.LLST67
 10224 1f5a 93060000 		.long	.LVUS67
 10225 1f5e 2C       		.uleb128 0x2c
 10226 1f5f 17030000 		.long	.LVL307
 10227 1f63 DE350000 		.long	0x35de
 10228 1f67 00       		.byte	0
 10229 1f68 2D       		.uleb128 0x2d
 10230 1f69 6F350000 		.long	0x356f
 10231 1f6d 2D010000 		.long	.LBI904
 10232 1f71 01       		.byte	.LVU890
 10233 1f72 480A0000 		.long	.Ldebug_ranges0+0xa48
 10234 1f76 02       		.byte	0x2
 10235 1f77 1F01     		.value	0x11f
GAS LISTING /tmp/ccffpNMU.s 			page 190


 10236 1f79 03       		.byte	0x3
 10237 1f7a 971F0000 		.long	0x1f97
 10238 1f7e 31       		.uleb128 0x31
 10239 1f7f 480A0000 		.long	.Ldebug_ranges0+0xa48
 10240 1f83 2F       		.uleb128 0x2f
 10241 1f84 A6350000 		.long	0x35a6
 10242 1f88 2D010000 		.long	.LBI906
 10243 1f8c 07       		.byte	.LVU896
 10244 1f8d 480A0000 		.long	.Ldebug_ranges0+0xa48
 10245 1f91 03       		.byte	0x3
 10246 1f92 7A01     		.value	0x17a
 10247 1f94 03       		.byte	0x3
 10248 1f95 00       		.byte	0
 10249 1f96 00       		.byte	0
 10250 1f97 2C       		.uleb128 0x2c
 10251 1f98 2D010000 		.long	.LVL276
 10252 1f9c EA350000 		.long	0x35ea
 10253 1fa0 00       		.byte	0
 10254 1fa1 2D       		.uleb128 0x2d
 10255 1fa2 51350000 		.long	0x3551
 10256 1fa6 3A010000 		.long	.LBI919
 10257 1faa 02       		.byte	.LVU903
 10258 1fab 600A0000 		.long	.Ldebug_ranges0+0xa60
 10259 1faf 01       		.byte	0x1
 10260 1fb0 2D01     		.value	0x12d
 10261 1fb2 03       		.byte	0x3
 10262 1fb3 CE1F0000 		.long	0x1fce
 10263 1fb7 2E       		.uleb128 0x2e
 10264 1fb8 62350000 		.long	0x3562
 10265 1fbc C6060000 		.long	.LLST68
 10266 1fc0 C4060000 		.long	.LVUS68
 10267 1fc4 2C       		.uleb128 0x2c
 10268 1fc5 43010000 		.long	.LVL278
 10269 1fc9 D2350000 		.long	0x35d2
 10270 1fcd 00       		.byte	0
 10271 1fce 2D       		.uleb128 0x2d
 10272 1fcf 19350000 		.long	0x3519
 10273 1fd3 1F020000 		.long	.LBI928
 10274 1fd7 01       		.byte	.LVU931
 10275 1fd8 A80A0000 		.long	.Ldebug_ranges0+0xaa8
 10276 1fdc 01       		.byte	0x1
 10277 1fdd 4A01     		.value	0x14a
 10278 1fdf 03       		.byte	0x3
 10279 1fe0 84200000 		.long	0x2084
 10280 1fe4 2E       		.uleb128 0x2e
 10281 1fe5 27350000 		.long	0x3527
 10282 1fe9 DE060000 		.long	.LLST71
 10283 1fed DA060000 		.long	.LVUS71
 10284 1ff1 2D       		.uleb128 0x2d
 10285 1ff2 9C350000 		.long	0x359c
 10286 1ff6 1F020000 		.long	.LBI930
 10287 1ffa 03       		.byte	.LVU933
 10288 1ffb D80A0000 		.long	.Ldebug_ranges0+0xad8
 10289 1fff 02       		.byte	0x2
 10290 2000 1C01     		.value	0x11c
 10291 2002 03       		.byte	0x3
 10292 2003 1E200000 		.long	0x201e
GAS LISTING /tmp/ccffpNMU.s 			page 191


 10293 2007 34       		.uleb128 0x34
 10294 2008 B0350000 		.long	0x35b0
 10295 200c 1F020000 		.long	.LBI931
 10296 2010 05       		.byte	.LVU935
 10297 2011 1F020000 		.long	.LBB931
 10298 2015 0A000000 		.long	.LBE931-.LBB931
 10299 2019 03       		.byte	0x3
 10300 201a 6301     		.value	0x163
 10301 201c 03       		.byte	0x3
 10302 201d 00       		.byte	0
 10303 201e 2D       		.uleb128 0x2d
 10304 201f 35350000 		.long	0x3535
 10305 2023 29020000 		.long	.LBI934
 10306 2027 03       		.byte	.LVU941
 10307 2028 F00A0000 		.long	.Ldebug_ranges0+0xaf0
 10308 202c 02       		.byte	0x2
 10309 202d 1D01     		.value	0x11d
 10310 202f 03       		.byte	0x3
 10311 2030 4B200000 		.long	0x204b
 10312 2034 2E       		.uleb128 0x2e
 10313 2035 43350000 		.long	0x3543
 10314 2039 02070000 		.long	.LLST72
 10315 203d FE060000 		.long	.LVUS72
 10316 2041 2C       		.uleb128 0x2c
 10317 2042 03030000 		.long	.LVL305
 10318 2046 DE350000 		.long	0x35de
 10319 204a 00       		.byte	0
 10320 204b 2D       		.uleb128 0x2d
 10321 204c 6F350000 		.long	0x356f
 10322 2050 3D020000 		.long	.LBI937
 10323 2054 01       		.byte	.LVU948
 10324 2055 080B0000 		.long	.Ldebug_ranges0+0xb08
 10325 2059 02       		.byte	0x2
 10326 205a 1F01     		.value	0x11f
 10327 205c 03       		.byte	0x3
 10328 205d 7A200000 		.long	0x207a
 10329 2061 31       		.uleb128 0x31
 10330 2062 080B0000 		.long	.Ldebug_ranges0+0xb08
 10331 2066 2F       		.uleb128 0x2f
 10332 2067 A6350000 		.long	0x35a6
 10333 206b 3D020000 		.long	.LBI939
 10334 206f 07       		.byte	.LVU954
 10335 2070 080B0000 		.long	.Ldebug_ranges0+0xb08
 10336 2074 03       		.byte	0x3
 10337 2075 7A01     		.value	0x17a
 10338 2077 03       		.byte	0x3
 10339 2078 00       		.byte	0
 10340 2079 00       		.byte	0
 10341 207a 2C       		.uleb128 0x2c
 10342 207b 3D020000 		.long	.LVL294
 10343 207f EA350000 		.long	0x35ea
 10344 2083 00       		.byte	0
 10345 2084 2D       		.uleb128 0x2d
 10346 2085 51350000 		.long	0x3551
 10347 2089 4A020000 		.long	.LBI952
 10348 208d 03       		.byte	.LVU962
 10349 208e 200B0000 		.long	.Ldebug_ranges0+0xb20
GAS LISTING /tmp/ccffpNMU.s 			page 192


 10350 2092 01       		.byte	0x1
 10351 2093 4C01     		.value	0x14c
 10352 2095 03       		.byte	0x3
 10353 2096 B1200000 		.long	0x20b1
 10354 209a 2E       		.uleb128 0x2e
 10355 209b 62350000 		.long	0x3562
 10356 209f 24070000 		.long	.LLST73
 10357 20a3 22070000 		.long	.LVUS73
 10358 20a7 2C       		.uleb128 0x2c
 10359 20a8 53020000 		.long	.LVL296
 10360 20ac D2350000 		.long	0x35d2
 10361 20b0 00       		.byte	0
 10362 20b1 2C       		.uleb128 0x2c
 10363 20b2 4F010000 		.long	.LVL279
 10364 20b6 0F360000 		.long	0x360f
 10365 20ba 2C       		.uleb128 0x2c
 10366 20bb 5F020000 		.long	.LVL297
 10367 20bf 0F360000 		.long	0x360f
 10368 20c3 00       		.byte	0
 10369 20c4 36       		.uleb128 0x36
 10370 20c5 AB020000 		.long	.LASF303
 10371 20c9 01       		.byte	0x1
 10372 20ca D7       		.byte	0xd7
 10373 20cb 06       		.byte	0x6
 10374 20cc 00000000 		.long	.LFB229
 10375 20d0 25020000 		.long	.LFE229-.LFB229
 10376 20d4 01       		.uleb128 0x1
 10377 20d5 9C       		.byte	0x9c
 10378 20d6 36240000 		.long	0x2436
 10379 20da 37       		.uleb128 0x37
 10380 20db 2B0A0000 		.long	.LASF293
 10381 20df 01       		.byte	0x1
 10382 20e0 D7       		.byte	0xd7
 10383 20e1 27       		.byte	0x27
 10384 20e2 7D170000 		.long	0x177d
 10385 20e6 3C070000 		.long	.LLST46
 10386 20ea 38070000 		.long	.LVUS46
 10387 20ee 37       		.uleb128 0x37
 10388 20ef D6090000 		.long	.LASF294
 10389 20f3 01       		.byte	0x1
 10390 20f4 D7       		.byte	0xd7
 10391 20f5 4D       		.byte	0x4d
 10392 20f6 7D170000 		.long	0x177d
 10393 20fa 60070000 		.long	.LLST47
 10394 20fe 5C070000 		.long	.LVUS47
 10395 2102 38       		.uleb128 0x38
 10396 2103 32040000 		.long	.LASF301
 10397 2107 01       		.byte	0x1
 10398 2108 D9       		.byte	0xd9
 10399 2109 10       		.byte	0x10
 10400 210a 22010000 		.long	0x122
 10401 210e 84070000 		.long	.LLST48
 10402 2112 80070000 		.long	.LVUS48
 10403 2116 2A       		.uleb128 0x2a
 10404 2117 F8070000 		.long	.Ldebug_ranges0+0x7f8
 10405 211b 60210000 		.long	0x2160
 10406 211f 39       		.uleb128 0x39
GAS LISTING /tmp/ccffpNMU.s 			page 193


 10407 2120 6A00     		.string	"j"
 10408 2122 01       		.byte	0x1
 10409 2123 DB       		.byte	0xdb
 10410 2124 0F       		.byte	0xf
 10411 2125 27010000 		.long	0x127
 10412 2129 AE070000 		.long	.LLST51
 10413 212d A8070000 		.long	.LVUS51
 10414 2131 33       		.uleb128 0x33
 10415 2132 70000000 		.long	.LBB757
 10416 2136 4E000000 		.long	.LBE757-.LBB757
 10417 213a 39       		.uleb128 0x39
 10418 213b 6900     		.string	"i"
 10419 213d 01       		.byte	0x1
 10420 213e DC       		.byte	0xdc
 10421 213f 10       		.byte	0x10
 10422 2140 27010000 		.long	0x127
 10423 2144 E0070000 		.long	.LLST52
 10424 2148 DA070000 		.long	.LVUS52
 10425 214c 2C       		.uleb128 0x2c
 10426 214d 88000000 		.long	.LVL218
 10427 2151 C6350000 		.long	0x35c6
 10428 2155 2C       		.uleb128 0x2c
 10429 2156 B3000000 		.long	.LVL221
 10430 215a C6350000 		.long	0x35c6
 10431 215e 00       		.byte	0
 10432 215f 00       		.byte	0
 10433 2160 2A       		.uleb128 0x2a
 10434 2161 A8080000 		.long	.Ldebug_ranges0+0x8a8
 10435 2165 BC210000 		.long	0x21bc
 10436 2169 39       		.uleb128 0x39
 10437 216a 6A00     		.string	"j"
 10438 216c 01       		.byte	0x1
 10439 216d F1       		.byte	0xf1
 10440 216e 0F       		.byte	0xf
 10441 216f 27010000 		.long	0x127
 10442 2173 10080000 		.long	.LLST55
 10443 2177 0A080000 		.long	.LVUS55
 10444 217b 33       		.uleb128 0x33
 10445 217c 08010000 		.long	.LBB791
 10446 2180 9B000000 		.long	.LBE791-.LBB791
 10447 2184 39       		.uleb128 0x39
 10448 2185 6900     		.string	"i"
 10449 2187 01       		.byte	0x1
 10450 2188 F2       		.byte	0xf2
 10451 2189 10       		.byte	0x10
 10452 218a 27010000 		.long	0x127
 10453 218e 44080000 		.long	.LLST56
 10454 2192 3C080000 		.long	.LVUS56
 10455 2196 2C       		.uleb128 0x2c
 10456 2197 1D010000 		.long	.LVL232
 10457 219b C6350000 		.long	0x35c6
 10458 219f 2C       		.uleb128 0x2c
 10459 21a0 37010000 		.long	.LVL234
 10460 21a4 BA350000 		.long	0x35ba
 10461 21a8 2C       		.uleb128 0x2c
 10462 21a9 5F010000 		.long	.LVL236
 10463 21ad C6350000 		.long	0x35c6
GAS LISTING /tmp/ccffpNMU.s 			page 194


 10464 21b1 2C       		.uleb128 0x2c
 10465 21b2 81010000 		.long	.LVL238
 10466 21b6 C6350000 		.long	0x35c6
 10467 21ba 00       		.byte	0
 10468 21bb 00       		.byte	0
 10469 21bc 3A       		.uleb128 0x3a
 10470 21bd 19350000 		.long	0x3519
 10471 21c1 1E000000 		.long	.LBI718
 10472 21c5 00       		.byte	.LVU658
 10473 21c6 40070000 		.long	.Ldebug_ranges0+0x740
 10474 21ca 01       		.byte	0x1
 10475 21cb D8       		.byte	0xd8
 10476 21cc 02       		.byte	0x2
 10477 21cd 6D220000 		.long	0x226d
 10478 21d1 2E       		.uleb128 0x2e
 10479 21d2 27350000 		.long	0x3527
 10480 21d6 81080000 		.long	.LLST49
 10481 21da 79080000 		.long	.LVUS49
 10482 21de 2D       		.uleb128 0x2d
 10483 21df 9C350000 		.long	0x359c
 10484 21e3 1E000000 		.long	.LBI720
 10485 21e7 02       		.byte	.LVU660
 10486 21e8 78070000 		.long	.Ldebug_ranges0+0x778
 10487 21ec 02       		.byte	0x2
 10488 21ed 1C01     		.value	0x11c
 10489 21ef 03       		.byte	0x3
 10490 21f0 07220000 		.long	0x2207
 10491 21f4 2F       		.uleb128 0x2f
 10492 21f5 B0350000 		.long	0x35b0
 10493 21f9 1E000000 		.long	.LBI721
 10494 21fd 04       		.byte	.LVU662
 10495 21fe 80070000 		.long	.Ldebug_ranges0+0x780
 10496 2202 03       		.byte	0x3
 10497 2203 6301     		.value	0x163
 10498 2205 03       		.byte	0x3
 10499 2206 00       		.byte	0
 10500 2207 2D       		.uleb128 0x2d
 10501 2208 35350000 		.long	0x3535
 10502 220c 35000000 		.long	.LBI726
 10503 2210 03       		.byte	.LVU671
 10504 2211 98070000 		.long	.Ldebug_ranges0+0x798
 10505 2215 02       		.byte	0x2
 10506 2216 1D01     		.value	0x11d
 10507 2218 03       		.byte	0x3
 10508 2219 34220000 		.long	0x2234
 10509 221d 2E       		.uleb128 0x2e
 10510 221e 43350000 		.long	0x3543
 10511 2222 BD080000 		.long	.LLST50
 10512 2226 B7080000 		.long	.LVUS50
 10513 222a 2C       		.uleb128 0x2c
 10514 222b F8010000 		.long	.LVL250
 10515 222f DE350000 		.long	0x35de
 10516 2233 00       		.byte	0
 10517 2234 2D       		.uleb128 0x2d
 10518 2235 6F350000 		.long	0x356f
 10519 2239 42000000 		.long	.LBI732
 10520 223d 01       		.byte	.LVU678
GAS LISTING /tmp/ccffpNMU.s 			page 195


 10521 223e B8070000 		.long	.Ldebug_ranges0+0x7b8
 10522 2242 02       		.byte	0x2
 10523 2243 1F01     		.value	0x11f
 10524 2245 03       		.byte	0x3
 10525 2246 63220000 		.long	0x2263
 10526 224a 31       		.uleb128 0x31
 10527 224b B8070000 		.long	.Ldebug_ranges0+0x7b8
 10528 224f 2F       		.uleb128 0x2f
 10529 2250 A6350000 		.long	0x35a6
 10530 2254 42000000 		.long	.LBI734
 10531 2258 07       		.byte	.LVU684
 10532 2259 B8070000 		.long	.Ldebug_ranges0+0x7b8
 10533 225d 03       		.byte	0x3
 10534 225e 7A01     		.value	0x17a
 10535 2260 03       		.byte	0x3
 10536 2261 00       		.byte	0
 10537 2262 00       		.byte	0
 10538 2263 2C       		.uleb128 0x2c
 10539 2264 42000000 		.long	.LVL211
 10540 2268 EA350000 		.long	0x35ea
 10541 226c 00       		.byte	0
 10542 226d 3A       		.uleb128 0x3a
 10543 226e 51350000 		.long	0x3551
 10544 2272 51000000 		.long	.LBI749
 10545 2276 03       		.byte	.LVU692
 10546 2277 D0070000 		.long	.Ldebug_ranges0+0x7d0
 10547 227b 01       		.byte	0x1
 10548 227c DA       		.byte	0xda
 10549 227d 02       		.byte	0x2
 10550 227e 91220000 		.long	0x2291
 10551 2282 30       		.uleb128 0x30
 10552 2283 62350000 		.long	0x3562
 10553 2287 2C       		.uleb128 0x2c
 10554 2288 5A000000 		.long	.LVL213
 10555 228c D2350000 		.long	0x35d2
 10556 2290 00       		.byte	0
 10557 2291 3A       		.uleb128 0x3a
 10558 2292 19350000 		.long	0x3519
 10559 2296 C3000000 		.long	.LBI760
 10560 229a 01       		.byte	.LVU716
 10561 229b 10080000 		.long	.Ldebug_ranges0+0x810
 10562 229f 01       		.byte	0x1
 10563 22a0 EF       		.byte	0xef
 10564 22a1 02       		.byte	0x2
 10565 22a2 46230000 		.long	0x2346
 10566 22a6 2E       		.uleb128 0x2e
 10567 22a7 27350000 		.long	0x3527
 10568 22ab ED080000 		.long	.LLST53
 10569 22af E7080000 		.long	.LVUS53
 10570 22b3 2D       		.uleb128 0x2d
 10571 22b4 9C350000 		.long	0x359c
 10572 22b8 C3000000 		.long	.LBI762
 10573 22bc 03       		.byte	.LVU718
 10574 22bd 40080000 		.long	.Ldebug_ranges0+0x840
 10575 22c1 02       		.byte	0x2
 10576 22c2 1C01     		.value	0x11c
 10577 22c4 03       		.byte	0x3
GAS LISTING /tmp/ccffpNMU.s 			page 196


 10578 22c5 E0220000 		.long	0x22e0
 10579 22c9 34       		.uleb128 0x34
 10580 22ca B0350000 		.long	0x35b0
 10581 22ce C3000000 		.long	.LBI763
 10582 22d2 05       		.byte	.LVU720
 10583 22d3 C3000000 		.long	.LBB763
 10584 22d7 0A000000 		.long	.LBE763-.LBB763
 10585 22db 03       		.byte	0x3
 10586 22dc 6301     		.value	0x163
 10587 22de 03       		.byte	0x3
 10588 22df 00       		.byte	0
 10589 22e0 2D       		.uleb128 0x2d
 10590 22e1 35350000 		.long	0x3535
 10591 22e5 CD000000 		.long	.LBI766
 10592 22e9 03       		.byte	.LVU726
 10593 22ea 58080000 		.long	.Ldebug_ranges0+0x858
 10594 22ee 02       		.byte	0x2
 10595 22ef 1D01     		.value	0x11d
 10596 22f1 03       		.byte	0x3
 10597 22f2 0D230000 		.long	0x230d
 10598 22f6 2E       		.uleb128 0x2e
 10599 22f7 43350000 		.long	0x3543
 10600 22fb 1E090000 		.long	.LLST54
 10601 22ff 18090000 		.long	.LVUS54
 10602 2303 2C       		.uleb128 0x2c
 10603 2304 1D020000 		.long	.LVL254
 10604 2308 DE350000 		.long	0x35de
 10605 230c 00       		.byte	0
 10606 230d 2D       		.uleb128 0x2d
 10607 230e 6F350000 		.long	0x356f
 10608 2312 E1000000 		.long	.LBI769
 10609 2316 01       		.byte	.LVU733
 10610 2317 70080000 		.long	.Ldebug_ranges0+0x870
 10611 231b 02       		.byte	0x2
 10612 231c 1F01     		.value	0x11f
 10613 231e 03       		.byte	0x3
 10614 231f 3C230000 		.long	0x233c
 10615 2323 31       		.uleb128 0x31
 10616 2324 70080000 		.long	.Ldebug_ranges0+0x870
 10617 2328 2F       		.uleb128 0x2f
 10618 2329 A6350000 		.long	0x35a6
 10619 232d E1000000 		.long	.LBI771
 10620 2331 07       		.byte	.LVU739
 10621 2332 70080000 		.long	.Ldebug_ranges0+0x870
 10622 2336 03       		.byte	0x3
 10623 2337 7A01     		.value	0x17a
 10624 2339 03       		.byte	0x3
 10625 233a 00       		.byte	0
 10626 233b 00       		.byte	0
 10627 233c 2C       		.uleb128 0x2c
 10628 233d E1000000 		.long	.LVL227
 10629 2341 EA350000 		.long	0x35ea
 10630 2345 00       		.byte	0
 10631 2346 3A       		.uleb128 0x3a
 10632 2347 51350000 		.long	0x3551
 10633 234b F0000000 		.long	.LBI784
 10634 234f 02       		.byte	.LVU746
GAS LISTING /tmp/ccffpNMU.s 			page 197


 10635 2350 88080000 		.long	.Ldebug_ranges0+0x888
 10636 2354 01       		.byte	0x1
 10637 2355 F0       		.byte	0xf0
 10638 2356 02       		.byte	0x2
 10639 2357 6A230000 		.long	0x236a
 10640 235b 30       		.uleb128 0x30
 10641 235c 62350000 		.long	0x3562
 10642 2360 2C       		.uleb128 0x2c
 10643 2361 F9000000 		.long	.LVL229
 10644 2365 D2350000 		.long	0x35d2
 10645 2369 00       		.byte	0
 10646 236a 2D       		.uleb128 0x2d
 10647 236b 19350000 		.long	0x3519
 10648 236f AC010000 		.long	.LBI795
 10649 2373 01       		.byte	.LVU775
 10650 2374 C0080000 		.long	.Ldebug_ranges0+0x8c0
 10651 2378 01       		.byte	0x1
 10652 2379 0A01     		.value	0x10a
 10653 237b 02       		.byte	0x2
 10654 237c 2C240000 		.long	0x242c
 10655 2380 2E       		.uleb128 0x2e
 10656 2381 27350000 		.long	0x3527
 10657 2385 4D090000 		.long	.LLST57
 10658 2389 49090000 		.long	.LVUS57
 10659 238d 2D       		.uleb128 0x2d
 10660 238e 9C350000 		.long	0x359c
 10661 2392 AC010000 		.long	.LBI797
 10662 2396 03       		.byte	.LVU777
 10663 2397 E8080000 		.long	.Ldebug_ranges0+0x8e8
 10664 239b 02       		.byte	0x2
 10665 239c 1C01     		.value	0x11c
 10666 239e 03       		.byte	0x3
 10667 239f BA230000 		.long	0x23ba
 10668 23a3 34       		.uleb128 0x34
 10669 23a4 B0350000 		.long	0x35b0
 10670 23a8 AC010000 		.long	.LBI798
 10671 23ac 05       		.byte	.LVU779
 10672 23ad AC010000 		.long	.LBB798
 10673 23b1 0A000000 		.long	.LBE798-.LBB798
 10674 23b5 03       		.byte	0x3
 10675 23b6 6301     		.value	0x163
 10676 23b8 03       		.byte	0x3
 10677 23b9 00       		.byte	0
 10678 23ba 2D       		.uleb128 0x2d
 10679 23bb 35350000 		.long	0x3535
 10680 23bf B6010000 		.long	.LBI801
 10681 23c3 03       		.byte	.LVU785
 10682 23c4 00090000 		.long	.Ldebug_ranges0+0x900
 10683 23c8 02       		.byte	0x2
 10684 23c9 1D01     		.value	0x11d
 10685 23cb 03       		.byte	0x3
 10686 23cc E7230000 		.long	0x23e7
 10687 23d0 2E       		.uleb128 0x2e
 10688 23d1 43350000 		.long	0x3543
 10689 23d5 71090000 		.long	.LLST58
 10690 23d9 6D090000 		.long	.LVUS58
 10691 23dd 2C       		.uleb128 0x2c
GAS LISTING /tmp/ccffpNMU.s 			page 198


 10692 23de 0C020000 		.long	.LVL252
 10693 23e2 DE350000 		.long	0x35de
 10694 23e6 00       		.byte	0
 10695 23e7 32       		.uleb128 0x32
 10696 23e8 6F350000 		.long	0x356f
 10697 23ec C6010000 		.long	.LBI804
 10698 23f0 01       		.byte	.LVU792
 10699 23f1 C6010000 		.long	.LBB804
 10700 23f5 0A000000 		.long	.LBE804-.LBB804
 10701 23f9 02       		.byte	0x2
 10702 23fa 1F01     		.value	0x11f
 10703 23fc 03       		.byte	0x3
 10704 23fd 22240000 		.long	0x2422
 10705 2401 33       		.uleb128 0x33
 10706 2402 C6010000 		.long	.LBB805
 10707 2406 0A000000 		.long	.LBE805-.LBB805
 10708 240a 34       		.uleb128 0x34
 10709 240b A6350000 		.long	0x35a6
 10710 240f C6010000 		.long	.LBI806
 10711 2413 07       		.byte	.LVU798
 10712 2414 C6010000 		.long	.LBB806
 10713 2418 0A000000 		.long	.LBE806-.LBB806
 10714 241c 03       		.byte	0x3
 10715 241d 7A01     		.value	0x17a
 10716 241f 03       		.byte	0x3
 10717 2420 00       		.byte	0
 10718 2421 00       		.byte	0
 10719 2422 2C       		.uleb128 0x2c
 10720 2423 C6010000 		.long	.LVL245
 10721 2427 EA350000 		.long	0x35ea
 10722 242b 00       		.byte	0
 10723 242c 3B       		.uleb128 0x3b
 10724 242d EC010000 		.long	.LVL249
 10725 2431 0A330000 		.long	0x330a
 10726 2435 00       		.byte	0
 10727 2436 36       		.uleb128 0x36
 10728 2437 D6080000 		.long	.LASF304
 10729 243b 01       		.byte	0x1
 10730 243c A4       		.byte	0xa4
 10731 243d 06       		.byte	0x6
 10732 243e 00000000 		.long	.LFB228
 10733 2442 D4010000 		.long	.LFE228-.LFB228
 10734 2446 01       		.uleb128 0x1
 10735 2447 9C       		.byte	0x9c
 10736 2448 95270000 		.long	0x2795
 10737 244c 37       		.uleb128 0x37
 10738 244d 2B0A0000 		.long	.LASF293
 10739 2451 01       		.byte	0x1
 10740 2452 A4       		.byte	0xa4
 10741 2453 26       		.byte	0x26
 10742 2454 7D170000 		.long	0x177d
 10743 2458 95090000 		.long	.LLST33
 10744 245c 91090000 		.long	.LVUS33
 10745 2460 37       		.uleb128 0x37
 10746 2461 D6090000 		.long	.LASF294
 10747 2465 01       		.byte	0x1
 10748 2466 A4       		.byte	0xa4
GAS LISTING /tmp/ccffpNMU.s 			page 199


 10749 2467 4C       		.byte	0x4c
 10750 2468 7D170000 		.long	0x177d
 10751 246c B9090000 		.long	.LLST34
 10752 2470 B5090000 		.long	.LVUS34
 10753 2474 38       		.uleb128 0x38
 10754 2475 32040000 		.long	.LASF301
 10755 2479 01       		.byte	0x1
 10756 247a A6       		.byte	0xa6
 10757 247b 10       		.byte	0x10
 10758 247c 22010000 		.long	0x122
 10759 2480 DD090000 		.long	.LLST35
 10760 2484 D9090000 		.long	.LVUS35
 10761 2488 2A       		.uleb128 0x2a
 10762 2489 20060000 		.long	.Ldebug_ranges0+0x620
 10763 248d D2240000 		.long	0x24d2
 10764 2491 39       		.uleb128 0x39
 10765 2492 6A00     		.string	"j"
 10766 2494 01       		.byte	0x1
 10767 2495 A8       		.byte	0xa8
 10768 2496 0F       		.byte	0xf
 10769 2497 27010000 		.long	0x127
 10770 249b 070A0000 		.long	.LLST38
 10771 249f 010A0000 		.long	.LVUS38
 10772 24a3 33       		.uleb128 0x33
 10773 24a4 70000000 		.long	.LBB617
 10774 24a8 4E000000 		.long	.LBE617-.LBB617
 10775 24ac 39       		.uleb128 0x39
 10776 24ad 6900     		.string	"i"
 10777 24af 01       		.byte	0x1
 10778 24b0 A9       		.byte	0xa9
 10779 24b1 10       		.byte	0x10
 10780 24b2 27010000 		.long	0x127
 10781 24b6 390A0000 		.long	.LLST39
 10782 24ba 330A0000 		.long	.LVUS39
 10783 24be 2C       		.uleb128 0x2c
 10784 24bf 88000000 		.long	.LVL172
 10785 24c3 C6350000 		.long	0x35c6
 10786 24c7 2C       		.uleb128 0x2c
 10787 24c8 B3000000 		.long	.LVL175
 10788 24cc C6350000 		.long	0x35c6
 10789 24d0 00       		.byte	0
 10790 24d1 00       		.byte	0
 10791 24d2 2A       		.uleb128 0x2a
 10792 24d3 D0060000 		.long	.Ldebug_ranges0+0x6d0
 10793 24d7 1C250000 		.long	0x251c
 10794 24db 39       		.uleb128 0x39
 10795 24dc 6A00     		.string	"j"
 10796 24de 01       		.byte	0x1
 10797 24df BE       		.byte	0xbe
 10798 24e0 0F       		.byte	0xf
 10799 24e1 27010000 		.long	0x127
 10800 24e5 690A0000 		.long	.LLST42
 10801 24e9 630A0000 		.long	.LVUS42
 10802 24ed 33       		.uleb128 0x33
 10803 24ee 08010000 		.long	.LBB651
 10804 24f2 4E000000 		.long	.LBE651-.LBB651
 10805 24f6 39       		.uleb128 0x39
GAS LISTING /tmp/ccffpNMU.s 			page 200


 10806 24f7 6900     		.string	"i"
 10807 24f9 01       		.byte	0x1
 10808 24fa BF       		.byte	0xbf
 10809 24fb 10       		.byte	0x10
 10810 24fc 27010000 		.long	0x127
 10811 2500 9B0A0000 		.long	.LLST43
 10812 2504 950A0000 		.long	.LVUS43
 10813 2508 2C       		.uleb128 0x2c
 10814 2509 20010000 		.long	.LVL188
 10815 250d C6350000 		.long	0x35c6
 10816 2511 2C       		.uleb128 0x2c
 10817 2512 4B010000 		.long	.LVL191
 10818 2516 C6350000 		.long	0x35c6
 10819 251a 00       		.byte	0
 10820 251b 00       		.byte	0
 10821 251c 3A       		.uleb128 0x3a
 10822 251d 19350000 		.long	0x3519
 10823 2521 1E000000 		.long	.LBI578
 10824 2525 00       		.byte	.LVU504
 10825 2526 68050000 		.long	.Ldebug_ranges0+0x568
 10826 252a 01       		.byte	0x1
 10827 252b A5       		.byte	0xa5
 10828 252c 02       		.byte	0x2
 10829 252d CD250000 		.long	0x25cd
 10830 2531 2E       		.uleb128 0x2e
 10831 2532 27350000 		.long	0x3527
 10832 2536 CD0A0000 		.long	.LLST36
 10833 253a C50A0000 		.long	.LVUS36
 10834 253e 2D       		.uleb128 0x2d
 10835 253f 9C350000 		.long	0x359c
 10836 2543 1E000000 		.long	.LBI580
 10837 2547 02       		.byte	.LVU506
 10838 2548 A0050000 		.long	.Ldebug_ranges0+0x5a0
 10839 254c 02       		.byte	0x2
 10840 254d 1C01     		.value	0x11c
 10841 254f 03       		.byte	0x3
 10842 2550 67250000 		.long	0x2567
 10843 2554 2F       		.uleb128 0x2f
 10844 2555 B0350000 		.long	0x35b0
 10845 2559 1E000000 		.long	.LBI581
 10846 255d 04       		.byte	.LVU508
 10847 255e A8050000 		.long	.Ldebug_ranges0+0x5a8
 10848 2562 03       		.byte	0x3
 10849 2563 6301     		.value	0x163
 10850 2565 03       		.byte	0x3
 10851 2566 00       		.byte	0
 10852 2567 2D       		.uleb128 0x2d
 10853 2568 35350000 		.long	0x3535
 10854 256c 35000000 		.long	.LBI586
 10855 2570 03       		.byte	.LVU517
 10856 2571 C0050000 		.long	.Ldebug_ranges0+0x5c0
 10857 2575 02       		.byte	0x2
 10858 2576 1D01     		.value	0x11d
 10859 2578 03       		.byte	0x3
 10860 2579 94250000 		.long	0x2594
 10861 257d 2E       		.uleb128 0x2e
 10862 257e 43350000 		.long	0x3543
GAS LISTING /tmp/ccffpNMU.s 			page 201


 10863 2582 090B0000 		.long	.LLST37
 10864 2586 030B0000 		.long	.LVUS37
 10865 258a 2C       		.uleb128 0x2c
 10866 258b A7010000 		.long	.LVL202
 10867 258f DE350000 		.long	0x35de
 10868 2593 00       		.byte	0
 10869 2594 2D       		.uleb128 0x2d
 10870 2595 6F350000 		.long	0x356f
 10871 2599 42000000 		.long	.LBI592
 10872 259d 01       		.byte	.LVU524
 10873 259e E0050000 		.long	.Ldebug_ranges0+0x5e0
 10874 25a2 02       		.byte	0x2
 10875 25a3 1F01     		.value	0x11f
 10876 25a5 03       		.byte	0x3
 10877 25a6 C3250000 		.long	0x25c3
 10878 25aa 31       		.uleb128 0x31
 10879 25ab E0050000 		.long	.Ldebug_ranges0+0x5e0
 10880 25af 2F       		.uleb128 0x2f
 10881 25b0 A6350000 		.long	0x35a6
 10882 25b4 42000000 		.long	.LBI594
 10883 25b8 07       		.byte	.LVU530
 10884 25b9 E0050000 		.long	.Ldebug_ranges0+0x5e0
 10885 25bd 03       		.byte	0x3
 10886 25be 7A01     		.value	0x17a
 10887 25c0 03       		.byte	0x3
 10888 25c1 00       		.byte	0
 10889 25c2 00       		.byte	0
 10890 25c3 2C       		.uleb128 0x2c
 10891 25c4 42000000 		.long	.LVL165
 10892 25c8 EA350000 		.long	0x35ea
 10893 25cc 00       		.byte	0
 10894 25cd 3A       		.uleb128 0x3a
 10895 25ce 51350000 		.long	0x3551
 10896 25d2 51000000 		.long	.LBI609
 10897 25d6 03       		.byte	.LVU538
 10898 25d7 F8050000 		.long	.Ldebug_ranges0+0x5f8
 10899 25db 01       		.byte	0x1
 10900 25dc A7       		.byte	0xa7
 10901 25dd 02       		.byte	0x2
 10902 25de F1250000 		.long	0x25f1
 10903 25e2 30       		.uleb128 0x30
 10904 25e3 62350000 		.long	0x3562
 10905 25e7 2C       		.uleb128 0x2c
 10906 25e8 5A000000 		.long	.LVL167
 10907 25ec D2350000 		.long	0x35d2
 10908 25f0 00       		.byte	0
 10909 25f1 3A       		.uleb128 0x3a
 10910 25f2 19350000 		.long	0x3519
 10911 25f6 C3000000 		.long	.LBI620
 10912 25fa 01       		.byte	.LVU562
 10913 25fb 38060000 		.long	.Ldebug_ranges0+0x638
 10914 25ff 01       		.byte	0x1
 10915 2600 BC       		.byte	0xbc
 10916 2601 02       		.byte	0x2
 10917 2602 A6260000 		.long	0x26a6
 10918 2606 2E       		.uleb128 0x2e
 10919 2607 27350000 		.long	0x3527
GAS LISTING /tmp/ccffpNMU.s 			page 202


 10920 260b 390B0000 		.long	.LLST40
 10921 260f 330B0000 		.long	.LVUS40
 10922 2613 2D       		.uleb128 0x2d
 10923 2614 9C350000 		.long	0x359c
 10924 2618 C3000000 		.long	.LBI622
 10925 261c 03       		.byte	.LVU564
 10926 261d 68060000 		.long	.Ldebug_ranges0+0x668
 10927 2621 02       		.byte	0x2
 10928 2622 1C01     		.value	0x11c
 10929 2624 03       		.byte	0x3
 10930 2625 40260000 		.long	0x2640
 10931 2629 34       		.uleb128 0x34
 10932 262a B0350000 		.long	0x35b0
 10933 262e C3000000 		.long	.LBI623
 10934 2632 05       		.byte	.LVU566
 10935 2633 C3000000 		.long	.LBB623
 10936 2637 0A000000 		.long	.LBE623-.LBB623
 10937 263b 03       		.byte	0x3
 10938 263c 6301     		.value	0x163
 10939 263e 03       		.byte	0x3
 10940 263f 00       		.byte	0
 10941 2640 2D       		.uleb128 0x2d
 10942 2641 35350000 		.long	0x3535
 10943 2645 CD000000 		.long	.LBI626
 10944 2649 03       		.byte	.LVU572
 10945 264a 80060000 		.long	.Ldebug_ranges0+0x680
 10946 264e 02       		.byte	0x2
 10947 264f 1D01     		.value	0x11d
 10948 2651 03       		.byte	0x3
 10949 2652 6D260000 		.long	0x266d
 10950 2656 2E       		.uleb128 0x2e
 10951 2657 43350000 		.long	0x3543
 10952 265b 6A0B0000 		.long	.LLST41
 10953 265f 640B0000 		.long	.LVUS41
 10954 2663 2C       		.uleb128 0x2c
 10955 2664 CC010000 		.long	.LVL206
 10956 2668 DE350000 		.long	0x35de
 10957 266c 00       		.byte	0
 10958 266d 2D       		.uleb128 0x2d
 10959 266e 6F350000 		.long	0x356f
 10960 2672 E1000000 		.long	.LBI629
 10961 2676 01       		.byte	.LVU579
 10962 2677 98060000 		.long	.Ldebug_ranges0+0x698
 10963 267b 02       		.byte	0x2
 10964 267c 1F01     		.value	0x11f
 10965 267e 03       		.byte	0x3
 10966 267f 9C260000 		.long	0x269c
 10967 2683 31       		.uleb128 0x31
 10968 2684 98060000 		.long	.Ldebug_ranges0+0x698
 10969 2688 2F       		.uleb128 0x2f
 10970 2689 A6350000 		.long	0x35a6
 10971 268d E1000000 		.long	.LBI631
 10972 2691 07       		.byte	.LVU585
 10973 2692 98060000 		.long	.Ldebug_ranges0+0x698
 10974 2696 03       		.byte	0x3
 10975 2697 7A01     		.value	0x17a
 10976 2699 03       		.byte	0x3
GAS LISTING /tmp/ccffpNMU.s 			page 203


 10977 269a 00       		.byte	0
 10978 269b 00       		.byte	0
 10979 269c 2C       		.uleb128 0x2c
 10980 269d E1000000 		.long	.LVL181
 10981 26a1 EA350000 		.long	0x35ea
 10982 26a5 00       		.byte	0
 10983 26a6 3A       		.uleb128 0x3a
 10984 26a7 51350000 		.long	0x3551
 10985 26ab F0000000 		.long	.LBI644
 10986 26af 02       		.byte	.LVU592
 10987 26b0 B0060000 		.long	.Ldebug_ranges0+0x6b0
 10988 26b4 01       		.byte	0x1
 10989 26b5 BD       		.byte	0xbd
 10990 26b6 02       		.byte	0x2
 10991 26b7 CA260000 		.long	0x26ca
 10992 26bb 30       		.uleb128 0x30
 10993 26bc 62350000 		.long	0x3562
 10994 26c0 2C       		.uleb128 0x2c
 10995 26c1 F9000000 		.long	.LVL183
 10996 26c5 D2350000 		.long	0x35d2
 10997 26c9 00       		.byte	0
 10998 26ca 3A       		.uleb128 0x3a
 10999 26cb 19350000 		.long	0x3519
 11000 26cf 5B010000 		.long	.LBI655
 11001 26d3 01       		.byte	.LVU616
 11002 26d4 E8060000 		.long	.Ldebug_ranges0+0x6e8
 11003 26d8 01       		.byte	0x1
 11004 26d9 D2       		.byte	0xd2
 11005 26da 02       		.byte	0x2
 11006 26db 8B270000 		.long	0x278b
 11007 26df 2E       		.uleb128 0x2e
 11008 26e0 27350000 		.long	0x3527
 11009 26e4 990B0000 		.long	.LLST44
 11010 26e8 950B0000 		.long	.LVUS44
 11011 26ec 2D       		.uleb128 0x2d
 11012 26ed 9C350000 		.long	0x359c
 11013 26f1 5B010000 		.long	.LBI657
 11014 26f5 03       		.byte	.LVU618
 11015 26f6 10070000 		.long	.Ldebug_ranges0+0x710
 11016 26fa 02       		.byte	0x2
 11017 26fb 1C01     		.value	0x11c
 11018 26fd 03       		.byte	0x3
 11019 26fe 19270000 		.long	0x2719
 11020 2702 34       		.uleb128 0x34
 11021 2703 B0350000 		.long	0x35b0
 11022 2707 5B010000 		.long	.LBI658
 11023 270b 05       		.byte	.LVU620
 11024 270c 5B010000 		.long	.LBB658
 11025 2710 0A000000 		.long	.LBE658-.LBB658
 11026 2714 03       		.byte	0x3
 11027 2715 6301     		.value	0x163
 11028 2717 03       		.byte	0x3
 11029 2718 00       		.byte	0
 11030 2719 2D       		.uleb128 0x2d
 11031 271a 35350000 		.long	0x3535
 11032 271e 65010000 		.long	.LBI661
 11033 2722 03       		.byte	.LVU626
GAS LISTING /tmp/ccffpNMU.s 			page 204


 11034 2723 28070000 		.long	.Ldebug_ranges0+0x728
 11035 2727 02       		.byte	0x2
 11036 2728 1D01     		.value	0x11d
 11037 272a 03       		.byte	0x3
 11038 272b 46270000 		.long	0x2746
 11039 272f 2E       		.uleb128 0x2e
 11040 2730 43350000 		.long	0x3543
 11041 2734 BD0B0000 		.long	.LLST45
 11042 2738 B90B0000 		.long	.LVUS45
 11043 273c 2C       		.uleb128 0x2c
 11044 273d BB010000 		.long	.LVL204
 11045 2741 DE350000 		.long	0x35de
 11046 2745 00       		.byte	0
 11047 2746 32       		.uleb128 0x32
 11048 2747 6F350000 		.long	0x356f
 11049 274b 75010000 		.long	.LBI664
 11050 274f 01       		.byte	.LVU633
 11051 2750 75010000 		.long	.LBB664
 11052 2754 0A000000 		.long	.LBE664-.LBB664
 11053 2758 02       		.byte	0x2
 11054 2759 1F01     		.value	0x11f
 11055 275b 03       		.byte	0x3
 11056 275c 81270000 		.long	0x2781
 11057 2760 33       		.uleb128 0x33
 11058 2761 75010000 		.long	.LBB665
 11059 2765 0A000000 		.long	.LBE665-.LBB665
 11060 2769 34       		.uleb128 0x34
 11061 276a A6350000 		.long	0x35a6
 11062 276e 75010000 		.long	.LBI666
 11063 2772 07       		.byte	.LVU639
 11064 2773 75010000 		.long	.LBB666
 11065 2777 0A000000 		.long	.LBE666-.LBB666
 11066 277b 03       		.byte	0x3
 11067 277c 7A01     		.value	0x17a
 11068 277e 03       		.byte	0x3
 11069 277f 00       		.byte	0
 11070 2780 00       		.byte	0
 11071 2781 2C       		.uleb128 0x2c
 11072 2782 75010000 		.long	.LVL197
 11073 2786 EA350000 		.long	0x35ea
 11074 278a 00       		.byte	0
 11075 278b 3B       		.uleb128 0x3b
 11076 278c 9B010000 		.long	.LVL201
 11077 2790 0A330000 		.long	0x330a
 11078 2794 00       		.byte	0
 11079 2795 36       		.uleb128 0x36
 11080 2796 A00C0000 		.long	.LASF305
 11081 279a 01       		.byte	0x1
 11082 279b 7D       		.byte	0x7d
 11083 279c 06       		.byte	0x6
 11084 279d 00000000 		.long	.LFB227
 11085 27a1 29020000 		.long	.LFE227-.LFB227
 11086 27a5 01       		.uleb128 0x1
 11087 27a6 9C       		.byte	0x9c
 11088 27a7 6C2B0000 		.long	0x2b6c
 11089 27ab 3C       		.uleb128 0x3c
 11090 27ac 2B0A0000 		.long	.LASF293
GAS LISTING /tmp/ccffpNMU.s 			page 205


 11091 27b0 01       		.byte	0x1
 11092 27b1 7D       		.byte	0x7d
 11093 27b2 24       		.byte	0x24
 11094 27b3 7D170000 		.long	0x177d
 11095 27b7 02       		.uleb128 0x2
 11096 27b8 91       		.byte	0x91
 11097 27b9 00       		.sleb128 0
 11098 27ba 3C       		.uleb128 0x3c
 11099 27bb D6090000 		.long	.LASF294
 11100 27bf 01       		.byte	0x1
 11101 27c0 7D       		.byte	0x7d
 11102 27c1 4A       		.byte	0x4a
 11103 27c2 7D170000 		.long	0x177d
 11104 27c6 02       		.uleb128 0x2
 11105 27c7 91       		.byte	0x91
 11106 27c8 04       		.sleb128 4
 11107 27c9 38       		.uleb128 0x38
 11108 27ca 42010000 		.long	.LASF306
 11109 27ce 01       		.byte	0x1
 11110 27cf 82       		.byte	0x82
 11111 27d0 10       		.byte	0x10
 11112 27d1 22010000 		.long	0x122
 11113 27d5 E10B0000 		.long	.LLST20
 11114 27d9 DD0B0000 		.long	.LVUS20
 11115 27dd 38       		.uleb128 0x38
 11116 27de 44070000 		.long	.LASF307
 11117 27e2 01       		.byte	0x1
 11118 27e3 83       		.byte	0x83
 11119 27e4 10       		.byte	0x10
 11120 27e5 22010000 		.long	0x122
 11121 27e9 070C0000 		.long	.LLST21
 11122 27ed 030C0000 		.long	.LVUS21
 11123 27f1 3D       		.uleb128 0x3d
 11124 27f2 C8000000 		.long	.LBB506
 11125 27f6 51000000 		.long	.LBE506-.LBB506
 11126 27fa 35280000 		.long	0x2835
 11127 27fe 39       		.uleb128 0x39
 11128 27ff 6900     		.string	"i"
 11129 2801 01       		.byte	0x1
 11130 2802 8B       		.byte	0x8b
 11131 2803 0F       		.byte	0xf
 11132 2804 27010000 		.long	0x127
 11133 2808 2B0C0000 		.long	.LLST28
 11134 280c 270C0000 		.long	.LVUS28
 11135 2810 2C       		.uleb128 0x2c
 11136 2811 D5000000 		.long	.LVL134
 11137 2815 0F360000 		.long	0x360f
 11138 2819 2C       		.uleb128 0x2c
 11139 281a E7000000 		.long	.LVL135
 11140 281e C6350000 		.long	0x35c6
 11141 2822 2C       		.uleb128 0x2c
 11142 2823 FC000000 		.long	.LVL136
 11143 2827 C6350000 		.long	0x35c6
 11144 282b 2C       		.uleb128 0x2c
 11145 282c 11010000 		.long	.LVL138
 11146 2830 C6350000 		.long	0x35c6
 11147 2834 00       		.byte	0
GAS LISTING /tmp/ccffpNMU.s 			page 206


 11148 2835 3D       		.uleb128 0x3d
 11149 2836 88010000 		.long	.LBB533
 11150 283a 51000000 		.long	.LBE533-.LBB533
 11151 283e 79280000 		.long	0x2879
 11152 2842 39       		.uleb128 0x39
 11153 2843 6900     		.string	"i"
 11154 2845 01       		.byte	0x1
 11155 2846 9A       		.byte	0x9a
 11156 2847 0F       		.byte	0xf
 11157 2848 27010000 		.long	0x127
 11158 284c 4E0C0000 		.long	.LLST32
 11159 2850 4A0C0000 		.long	.LVUS32
 11160 2854 2C       		.uleb128 0x2c
 11161 2855 95010000 		.long	.LVL149
 11162 2859 0F360000 		.long	0x360f
 11163 285d 2C       		.uleb128 0x2c
 11164 285e A7010000 		.long	.LVL150
 11165 2862 C6350000 		.long	0x35c6
 11166 2866 2C       		.uleb128 0x2c
 11167 2867 BC010000 		.long	.LVL151
 11168 286b C6350000 		.long	0x35c6
 11169 286f 2C       		.uleb128 0x2c
 11170 2870 D1010000 		.long	.LVL153
 11171 2874 C6350000 		.long	0x35c6
 11172 2878 00       		.byte	0
 11173 2879 3A       		.uleb128 0x3a
 11174 287a 51350000 		.long	0x3551
 11175 287e 12000000 		.long	.LBI444
 11176 2882 01       		.byte	.LVU366
 11177 2883 E0030000 		.long	.Ldebug_ranges0+0x3e0
 11178 2887 01       		.byte	0x1
 11179 2888 7F       		.byte	0x7f
 11180 2889 02       		.byte	0x2
 11181 288a A5280000 		.long	0x28a5
 11182 288e 2E       		.uleb128 0x2e
 11183 288f 62350000 		.long	0x3562
 11184 2893 730C0000 		.long	.LLST22
 11185 2897 710C0000 		.long	.LVUS22
 11186 289b 2C       		.uleb128 0x2c
 11187 289c 1F000000 		.long	.LVL119
 11188 28a0 D2350000 		.long	0x35d2
 11189 28a4 00       		.byte	0
 11190 28a5 3A       		.uleb128 0x3a
 11191 28a6 19350000 		.long	0x3519
 11192 28aa 30000000 		.long	.LBI448
 11193 28ae 01       		.byte	.LVU373
 11194 28af F8030000 		.long	.Ldebug_ranges0+0x3f8
 11195 28b3 01       		.byte	0x1
 11196 28b4 81       		.byte	0x81
 11197 28b5 02       		.byte	0x2
 11198 28b6 56290000 		.long	0x2956
 11199 28ba 2E       		.uleb128 0x2e
 11200 28bb 27350000 		.long	0x3527
 11201 28bf 8B0C0000 		.long	.LLST23
 11202 28c3 870C0000 		.long	.LVUS23
 11203 28c7 2D       		.uleb128 0x2d
 11204 28c8 9C350000 		.long	0x359c
GAS LISTING /tmp/ccffpNMU.s 			page 207


 11205 28cc 30000000 		.long	.LBI450
 11206 28d0 03       		.byte	.LVU375
 11207 28d1 28040000 		.long	.Ldebug_ranges0+0x428
 11208 28d5 02       		.byte	0x2
 11209 28d6 1C01     		.value	0x11c
 11210 28d8 03       		.byte	0x3
 11211 28d9 F0280000 		.long	0x28f0
 11212 28dd 2F       		.uleb128 0x2f
 11213 28de B0350000 		.long	0x35b0
 11214 28e2 30000000 		.long	.LBI451
 11215 28e6 05       		.byte	.LVU377
 11216 28e7 30040000 		.long	.Ldebug_ranges0+0x430
 11217 28eb 03       		.byte	0x3
 11218 28ec 6301     		.value	0x163
 11219 28ee 03       		.byte	0x3
 11220 28ef 00       		.byte	0
 11221 28f0 2D       		.uleb128 0x2d
 11222 28f1 35350000 		.long	0x3535
 11223 28f5 42000000 		.long	.LBI456
 11224 28f9 03       		.byte	.LVU385
 11225 28fa 48040000 		.long	.Ldebug_ranges0+0x448
 11226 28fe 02       		.byte	0x2
 11227 28ff 1D01     		.value	0x11d
 11228 2901 03       		.byte	0x3
 11229 2902 1D290000 		.long	0x291d
 11230 2906 2E       		.uleb128 0x2e
 11231 2907 43350000 		.long	0x3543
 11232 290b AD0C0000 		.long	.LLST24
 11233 290f A90C0000 		.long	.LVUS24
 11234 2913 2C       		.uleb128 0x2c
 11235 2914 F1010000 		.long	.LVL156
 11236 2918 DE350000 		.long	0x35de
 11237 291c 00       		.byte	0
 11238 291d 2D       		.uleb128 0x2d
 11239 291e 6F350000 		.long	0x356f
 11240 2922 4F000000 		.long	.LBI462
 11241 2926 01       		.byte	.LVU392
 11242 2927 68040000 		.long	.Ldebug_ranges0+0x468
 11243 292b 02       		.byte	0x2
 11244 292c 1F01     		.value	0x11f
 11245 292e 03       		.byte	0x3
 11246 292f 4C290000 		.long	0x294c
 11247 2933 31       		.uleb128 0x31
 11248 2934 68040000 		.long	.Ldebug_ranges0+0x468
 11249 2938 2F       		.uleb128 0x2f
 11250 2939 A6350000 		.long	0x35a6
 11251 293d 4F000000 		.long	.LBI464
 11252 2941 07       		.byte	.LVU398
 11253 2942 68040000 		.long	.Ldebug_ranges0+0x468
 11254 2946 03       		.byte	0x3
 11255 2947 7A01     		.value	0x17a
 11256 2949 03       		.byte	0x3
 11257 294a 00       		.byte	0
 11258 294b 00       		.byte	0
 11259 294c 2C       		.uleb128 0x2c
 11260 294d 4F000000 		.long	.LVL123
 11261 2951 EA350000 		.long	0x35ea
GAS LISTING /tmp/ccffpNMU.s 			page 208


 11262 2955 00       		.byte	0
 11263 2956 3A       		.uleb128 0x3a
 11264 2957 51350000 		.long	0x3551
 11265 295b 58000000 		.long	.LBI477
 11266 295f 04       		.byte	.LVU406
 11267 2960 80040000 		.long	.Ldebug_ranges0+0x480
 11268 2964 01       		.byte	0x1
 11269 2965 84       		.byte	0x84
 11270 2966 02       		.byte	0x2
 11271 2967 82290000 		.long	0x2982
 11272 296b 2E       		.uleb128 0x2e
 11273 296c 62350000 		.long	0x3562
 11274 2970 CD0C0000 		.long	.LLST25
 11275 2974 CB0C0000 		.long	.LVUS25
 11276 2978 2C       		.uleb128 0x2c
 11277 2979 61000000 		.long	.LVL125
 11278 297d D2350000 		.long	0x35d2
 11279 2981 00       		.byte	0
 11280 2982 3A       		.uleb128 0x3a
 11281 2983 19350000 		.long	0x3519
 11282 2987 9D000000 		.long	.LBI482
 11283 298b 01       		.byte	.LVU414
 11284 298c 98040000 		.long	.Ldebug_ranges0+0x498
 11285 2990 01       		.byte	0x1
 11286 2991 89       		.byte	0x89
 11287 2992 02       		.byte	0x2
 11288 2993 3F2A0000 		.long	0x2a3f
 11289 2997 2E       		.uleb128 0x2e
 11290 2998 27350000 		.long	0x3527
 11291 299c E70C0000 		.long	.LLST26
 11292 29a0 E10C0000 		.long	.LVUS26
 11293 29a4 2D       		.uleb128 0x2d
 11294 29a5 9C350000 		.long	0x359c
 11295 29a9 9D000000 		.long	.LBI484
 11296 29ad 03       		.byte	.LVU416
 11297 29ae C0040000 		.long	.Ldebug_ranges0+0x4c0
 11298 29b2 02       		.byte	0x2
 11299 29b3 1C01     		.value	0x11c
 11300 29b5 03       		.byte	0x3
 11301 29b6 CD290000 		.long	0x29cd
 11302 29ba 2F       		.uleb128 0x2f
 11303 29bb B0350000 		.long	0x35b0
 11304 29bf 9D000000 		.long	.LBI485
 11305 29c3 05       		.byte	.LVU418
 11306 29c4 C8040000 		.long	.Ldebug_ranges0+0x4c8
 11307 29c8 03       		.byte	0x3
 11308 29c9 6301     		.value	0x163
 11309 29cb 03       		.byte	0x3
 11310 29cc 00       		.byte	0
 11311 29cd 2D       		.uleb128 0x2d
 11312 29ce 35350000 		.long	0x3535
 11313 29d2 A6000000 		.long	.LBI490
 11314 29d6 03       		.byte	.LVU425
 11315 29d7 E0040000 		.long	.Ldebug_ranges0+0x4e0
 11316 29db 02       		.byte	0x2
 11317 29dc 1D01     		.value	0x11d
 11318 29de 03       		.byte	0x3
GAS LISTING /tmp/ccffpNMU.s 			page 209


 11319 29df FA290000 		.long	0x29fa
 11320 29e3 2E       		.uleb128 0x2e
 11321 29e4 43350000 		.long	0x3543
 11322 29e8 150D0000 		.long	.LLST27
 11323 29ec 110D0000 		.long	.LVUS27
 11324 29f0 2C       		.uleb128 0x2c
 11325 29f1 21020000 		.long	.LVL160
 11326 29f5 DE350000 		.long	0x35de
 11327 29f9 00       		.byte	0
 11328 29fa 32       		.uleb128 0x32
 11329 29fb 6F350000 		.long	0x356f
 11330 29ff B6000000 		.long	.LBI496
 11331 2a03 01       		.byte	.LVU432
 11332 2a04 B6000000 		.long	.LBB496
 11333 2a08 12000000 		.long	.LBE496-.LBB496
 11334 2a0c 02       		.byte	0x2
 11335 2a0d 1F01     		.value	0x11f
 11336 2a0f 03       		.byte	0x3
 11337 2a10 352A0000 		.long	0x2a35
 11338 2a14 33       		.uleb128 0x33
 11339 2a15 B6000000 		.long	.LBB497
 11340 2a19 12000000 		.long	.LBE497-.LBB497
 11341 2a1d 34       		.uleb128 0x34
 11342 2a1e A6350000 		.long	0x35a6
 11343 2a22 B6000000 		.long	.LBI498
 11344 2a26 07       		.byte	.LVU438
 11345 2a27 B6000000 		.long	.LBB498
 11346 2a2b 12000000 		.long	.LBE498-.LBB498
 11347 2a2f 03       		.byte	0x3
 11348 2a30 7A01     		.value	0x17a
 11349 2a32 03       		.byte	0x3
 11350 2a33 00       		.byte	0
 11351 2a34 00       		.byte	0
 11352 2a35 2C       		.uleb128 0x2c
 11353 2a36 B6000000 		.long	.LVL131
 11354 2a3a EA350000 		.long	0x35ea
 11355 2a3e 00       		.byte	0
 11356 2a3f 3E       		.uleb128 0x3e
 11357 2a40 51350000 		.long	0x3551
 11358 2a44 19010000 		.long	.LBI507
 11359 2a48 01       		.byte	.LVU450
 11360 2a49 19010000 		.long	.LBB507
 11361 2a4d 0C000000 		.long	.LBE507-.LBB507
 11362 2a51 01       		.byte	0x1
 11363 2a52 92       		.byte	0x92
 11364 2a53 02       		.byte	0x2
 11365 2a54 6F2A0000 		.long	0x2a6f
 11366 2a58 2E       		.uleb128 0x2e
 11367 2a59 62350000 		.long	0x3562
 11368 2a5d 350D0000 		.long	.LLST29
 11369 2a61 330D0000 		.long	.LVUS29
 11370 2a65 2C       		.uleb128 0x2c
 11371 2a66 25010000 		.long	.LVL140
 11372 2a6a D2350000 		.long	0x35d2
 11373 2a6e 00       		.byte	0
 11374 2a6f 3A       		.uleb128 0x3a
 11375 2a70 19350000 		.long	0x3519
GAS LISTING /tmp/ccffpNMU.s 			page 210


 11376 2a74 61010000 		.long	.LBI509
 11377 2a78 01       		.byte	.LVU458
 11378 2a79 00050000 		.long	.Ldebug_ranges0+0x500
 11379 2a7d 01       		.byte	0x1
 11380 2a7e 98       		.byte	0x98
 11381 2a7f 02       		.byte	0x2
 11382 2a80 2C2B0000 		.long	0x2b2c
 11383 2a84 2E       		.uleb128 0x2e
 11384 2a85 27350000 		.long	0x3527
 11385 2a89 4F0D0000 		.long	.LLST30
 11386 2a8d 490D0000 		.long	.LVUS30
 11387 2a91 2D       		.uleb128 0x2d
 11388 2a92 9C350000 		.long	0x359c
 11389 2a96 61010000 		.long	.LBI511
 11390 2a9a 03       		.byte	.LVU460
 11391 2a9b 28050000 		.long	.Ldebug_ranges0+0x528
 11392 2a9f 02       		.byte	0x2
 11393 2aa0 1C01     		.value	0x11c
 11394 2aa2 03       		.byte	0x3
 11395 2aa3 BA2A0000 		.long	0x2aba
 11396 2aa7 2F       		.uleb128 0x2f
 11397 2aa8 B0350000 		.long	0x35b0
 11398 2aac 61010000 		.long	.LBI512
 11399 2ab0 05       		.byte	.LVU462
 11400 2ab1 30050000 		.long	.Ldebug_ranges0+0x530
 11401 2ab5 03       		.byte	0x3
 11402 2ab6 6301     		.value	0x163
 11403 2ab8 03       		.byte	0x3
 11404 2ab9 00       		.byte	0
 11405 2aba 2D       		.uleb128 0x2d
 11406 2abb 35350000 		.long	0x3535
 11407 2abf 6A010000 		.long	.LBI517
 11408 2ac3 03       		.byte	.LVU469
 11409 2ac4 48050000 		.long	.Ldebug_ranges0+0x548
 11410 2ac8 02       		.byte	0x2
 11411 2ac9 1D01     		.value	0x11d
 11412 2acb 03       		.byte	0x3
 11413 2acc E72A0000 		.long	0x2ae7
 11414 2ad0 2E       		.uleb128 0x2e
 11415 2ad1 43350000 		.long	0x3543
 11416 2ad5 7D0D0000 		.long	.LLST31
 11417 2ad9 790D0000 		.long	.LVUS31
 11418 2add 2C       		.uleb128 0x2c
 11419 2ade 09020000 		.long	.LVL158
 11420 2ae2 DE350000 		.long	0x35de
 11421 2ae6 00       		.byte	0
 11422 2ae7 32       		.uleb128 0x32
 11423 2ae8 6F350000 		.long	0x356f
 11424 2aec 7A010000 		.long	.LBI523
 11425 2af0 01       		.byte	.LVU476
 11426 2af1 7A010000 		.long	.LBB523
 11427 2af5 0E000000 		.long	.LBE523-.LBB523
 11428 2af9 02       		.byte	0x2
 11429 2afa 1F01     		.value	0x11f
 11430 2afc 03       		.byte	0x3
 11431 2afd 222B0000 		.long	0x2b22
 11432 2b01 33       		.uleb128 0x33
GAS LISTING /tmp/ccffpNMU.s 			page 211


 11433 2b02 7A010000 		.long	.LBB524
 11434 2b06 0E000000 		.long	.LBE524-.LBB524
 11435 2b0a 34       		.uleb128 0x34
 11436 2b0b A6350000 		.long	0x35a6
 11437 2b0f 7A010000 		.long	.LBI525
 11438 2b13 07       		.byte	.LVU482
 11439 2b14 7A010000 		.long	.LBB525
 11440 2b18 0E000000 		.long	.LBE525-.LBB525
 11441 2b1c 03       		.byte	0x3
 11442 2b1d 7A01     		.value	0x17a
 11443 2b1f 03       		.byte	0x3
 11444 2b20 00       		.byte	0
 11445 2b21 00       		.byte	0
 11446 2b22 2C       		.uleb128 0x2c
 11447 2b23 7A010000 		.long	.LVL146
 11448 2b27 EA350000 		.long	0x35ea
 11449 2b2b 00       		.byte	0
 11450 2b2c 2C       		.uleb128 0x2c
 11451 2b2d 30000000 		.long	.LVL120
 11452 2b31 F7350000 		.long	0x35f7
 11453 2b35 2C       		.uleb128 0x2c
 11454 2b36 74000000 		.long	.LVL126
 11455 2b3a C6350000 		.long	0x35c6
 11456 2b3e 2C       		.uleb128 0x2c
 11457 2b3f 8A000000 		.long	.LVL127
 11458 2b43 C6350000 		.long	0x35c6
 11459 2b47 2C       		.uleb128 0x2c
 11460 2b48 9D000000 		.long	.LVL128
 11461 2b4c C6350000 		.long	0x35c6
 11462 2b50 2C       		.uleb128 0x2c
 11463 2b51 38010000 		.long	.LVL141
 11464 2b55 C6350000 		.long	0x35c6
 11465 2b59 2C       		.uleb128 0x2c
 11466 2b5a 4E010000 		.long	.LVL142
 11467 2b5e C6350000 		.long	0x35c6
 11468 2b62 2C       		.uleb128 0x2c
 11469 2b63 61010000 		.long	.LVL143
 11470 2b67 C6350000 		.long	0x35c6
 11471 2b6b 00       		.byte	0
 11472 2b6c 36       		.uleb128 0x36
 11473 2b6d D70E0000 		.long	.LASF308
 11474 2b71 01       		.byte	0x1
 11475 2b72 48       		.byte	0x48
 11476 2b73 06       		.byte	0x6
 11477 2b74 00000000 		.long	.LFB226
 11478 2b78 66030000 		.long	.LFE226-.LFB226
 11479 2b7c 01       		.uleb128 0x1
 11480 2b7d 9C       		.byte	0x9c
 11481 2b7e B42E0000 		.long	0x2eb4
 11482 2b82 3C       		.uleb128 0x3c
 11483 2b83 2B0A0000 		.long	.LASF293
 11484 2b87 01       		.byte	0x1
 11485 2b88 48       		.byte	0x48
 11486 2b89 26       		.byte	0x26
 11487 2b8a 7D170000 		.long	0x177d
 11488 2b8e 02       		.uleb128 0x2
 11489 2b8f 91       		.byte	0x91
GAS LISTING /tmp/ccffpNMU.s 			page 212


 11490 2b90 00       		.sleb128 0
 11491 2b91 3C       		.uleb128 0x3c
 11492 2b92 D6090000 		.long	.LASF294
 11493 2b96 01       		.byte	0x1
 11494 2b97 48       		.byte	0x48
 11495 2b98 4C       		.byte	0x4c
 11496 2b99 7D170000 		.long	0x177d
 11497 2b9d 02       		.uleb128 0x2
 11498 2b9e 91       		.byte	0x91
 11499 2b9f 04       		.sleb128 4
 11500 2ba0 3A       		.uleb128 0x3a
 11501 2ba1 51350000 		.long	0x3551
 11502 2ba5 12000000 		.long	.LBI339
 11503 2ba9 01       		.byte	.LVU252
 11504 2baa C0020000 		.long	.Ldebug_ranges0+0x2c0
 11505 2bae 01       		.byte	0x1
 11506 2baf 4A       		.byte	0x4a
 11507 2bb0 02       		.byte	0x2
 11508 2bb1 CC2B0000 		.long	0x2bcc
 11509 2bb5 2E       		.uleb128 0x2e
 11510 2bb6 62350000 		.long	0x3562
 11511 2bba 9D0D0000 		.long	.LLST14
 11512 2bbe 9B0D0000 		.long	.LVUS14
 11513 2bc2 2C       		.uleb128 0x2c
 11514 2bc3 20000000 		.long	.LVL66
 11515 2bc7 D2350000 		.long	0x35d2
 11516 2bcb 00       		.byte	0
 11517 2bcc 3A       		.uleb128 0x3a
 11518 2bcd 19350000 		.long	0x3519
 11519 2bd1 F4010000 		.long	.LBI343
 11520 2bd5 01       		.byte	.LVU282
 11521 2bd6 D8020000 		.long	.Ldebug_ranges0+0x2d8
 11522 2bda 01       		.byte	0x1
 11523 2bdb 67       		.byte	0x67
 11524 2bdc 02       		.byte	0x2
 11525 2bdd 7D2C0000 		.long	0x2c7d
 11526 2be1 2E       		.uleb128 0x2e
 11527 2be2 27350000 		.long	0x3527
 11528 2be6 B50D0000 		.long	.LLST15
 11529 2bea B10D0000 		.long	.LVUS15
 11530 2bee 2D       		.uleb128 0x2d
 11531 2bef 9C350000 		.long	0x359c
 11532 2bf3 F4010000 		.long	.LBI345
 11533 2bf7 03       		.byte	.LVU284
 11534 2bf8 08030000 		.long	.Ldebug_ranges0+0x308
 11535 2bfc 02       		.byte	0x2
 11536 2bfd 1C01     		.value	0x11c
 11537 2bff 03       		.byte	0x3
 11538 2c00 172C0000 		.long	0x2c17
 11539 2c04 2F       		.uleb128 0x2f
 11540 2c05 B0350000 		.long	0x35b0
 11541 2c09 F4010000 		.long	.LBI346
 11542 2c0d 05       		.byte	.LVU286
 11543 2c0e 10030000 		.long	.Ldebug_ranges0+0x310
 11544 2c12 03       		.byte	0x3
 11545 2c13 6301     		.value	0x163
 11546 2c15 03       		.byte	0x3
GAS LISTING /tmp/ccffpNMU.s 			page 213


 11547 2c16 00       		.byte	0
 11548 2c17 2D       		.uleb128 0x2d
 11549 2c18 35350000 		.long	0x3535
 11550 2c1c 06020000 		.long	.LBI351
 11551 2c20 03       		.byte	.LVU294
 11552 2c21 28030000 		.long	.Ldebug_ranges0+0x328
 11553 2c25 02       		.byte	0x2
 11554 2c26 1D01     		.value	0x11d
 11555 2c28 03       		.byte	0x3
 11556 2c29 442C0000 		.long	0x2c44
 11557 2c2d 2E       		.uleb128 0x2e
 11558 2c2e 43350000 		.long	0x3543
 11559 2c32 D70D0000 		.long	.LLST16
 11560 2c36 D30D0000 		.long	.LVUS16
 11561 2c3a 2C       		.uleb128 0x2c
 11562 2c3b 49030000 		.long	.LVL114
 11563 2c3f DE350000 		.long	0x35de
 11564 2c43 00       		.byte	0
 11565 2c44 2D       		.uleb128 0x2d
 11566 2c45 6F350000 		.long	0x356f
 11567 2c49 13020000 		.long	.LBI357
 11568 2c4d 01       		.byte	.LVU301
 11569 2c4e 48030000 		.long	.Ldebug_ranges0+0x348
 11570 2c52 02       		.byte	0x2
 11571 2c53 1F01     		.value	0x11f
 11572 2c55 03       		.byte	0x3
 11573 2c56 732C0000 		.long	0x2c73
 11574 2c5a 31       		.uleb128 0x31
 11575 2c5b 48030000 		.long	.Ldebug_ranges0+0x348
 11576 2c5f 2F       		.uleb128 0x2f
 11577 2c60 A6350000 		.long	0x35a6
 11578 2c64 13020000 		.long	.LBI359
 11579 2c68 07       		.byte	.LVU307
 11580 2c69 48030000 		.long	.Ldebug_ranges0+0x348
 11581 2c6d 03       		.byte	0x3
 11582 2c6e 7A01     		.value	0x17a
 11583 2c70 03       		.byte	0x3
 11584 2c71 00       		.byte	0
 11585 2c72 00       		.byte	0
 11586 2c73 2C       		.uleb128 0x2c
 11587 2c74 13020000 		.long	.LVL93
 11588 2c78 EA350000 		.long	0x35ea
 11589 2c7c 00       		.byte	0
 11590 2c7d 3A       		.uleb128 0x3a
 11591 2c7e 51350000 		.long	0x3551
 11592 2c82 1C020000 		.long	.LBI372
 11593 2c86 02       		.byte	.LVU313
 11594 2c87 60030000 		.long	.Ldebug_ranges0+0x360
 11595 2c8b 01       		.byte	0x1
 11596 2c8c 68       		.byte	0x68
 11597 2c8d 02       		.byte	0x2
 11598 2c8e A92C0000 		.long	0x2ca9
 11599 2c92 2E       		.uleb128 0x2e
 11600 2c93 62350000 		.long	0x3562
 11601 2c97 F70D0000 		.long	.LLST17
 11602 2c9b F50D0000 		.long	.LVUS17
 11603 2c9f 2C       		.uleb128 0x2c
GAS LISTING /tmp/ccffpNMU.s 			page 214


 11604 2ca0 22020000 		.long	.LVL95
 11605 2ca4 D2350000 		.long	0x35d2
 11606 2ca8 00       		.byte	0
 11607 2ca9 3A       		.uleb128 0x3a
 11608 2caa 19350000 		.long	0x3519
 11609 2cae 17030000 		.long	.LBI377
 11610 2cb2 01       		.byte	.LVU331
 11611 2cb3 78030000 		.long	.Ldebug_ranges0+0x378
 11612 2cb7 01       		.byte	0x1
 11613 2cb8 79       		.byte	0x79
 11614 2cb9 02       		.byte	0x2
 11615 2cba 662D0000 		.long	0x2d66
 11616 2cbe 2E       		.uleb128 0x2e
 11617 2cbf 27350000 		.long	0x3527
 11618 2cc3 0F0E0000 		.long	.LLST18
 11619 2cc7 0B0E0000 		.long	.LVUS18
 11620 2ccb 2D       		.uleb128 0x2d
 11621 2ccc 9C350000 		.long	0x359c
 11622 2cd0 17030000 		.long	.LBI379
 11623 2cd4 03       		.byte	.LVU333
 11624 2cd5 A0030000 		.long	.Ldebug_ranges0+0x3a0
 11625 2cd9 02       		.byte	0x2
 11626 2cda 1C01     		.value	0x11c
 11627 2cdc 03       		.byte	0x3
 11628 2cdd F42C0000 		.long	0x2cf4
 11629 2ce1 2F       		.uleb128 0x2f
 11630 2ce2 B0350000 		.long	0x35b0
 11631 2ce6 17030000 		.long	.LBI380
 11632 2cea 05       		.byte	.LVU335
 11633 2ceb A8030000 		.long	.Ldebug_ranges0+0x3a8
 11634 2cef 03       		.byte	0x3
 11635 2cf0 6301     		.value	0x163
 11636 2cf2 03       		.byte	0x3
 11637 2cf3 00       		.byte	0
 11638 2cf4 2D       		.uleb128 0x2d
 11639 2cf5 35350000 		.long	0x3535
 11640 2cf9 20030000 		.long	.LBI385
 11641 2cfd 03       		.byte	.LVU342
 11642 2cfe C0030000 		.long	.Ldebug_ranges0+0x3c0
 11643 2d02 02       		.byte	0x2
 11644 2d03 1D01     		.value	0x11d
 11645 2d05 03       		.byte	0x3
 11646 2d06 212D0000 		.long	0x2d21
 11647 2d0a 2E       		.uleb128 0x2e
 11648 2d0b 43350000 		.long	0x3543
 11649 2d0f 310E0000 		.long	.LLST19
 11650 2d13 2D0E0000 		.long	.LVUS19
 11651 2d17 2C       		.uleb128 0x2c
 11652 2d18 61030000 		.long	.LVL116
 11653 2d1c DE350000 		.long	0x35de
 11654 2d20 00       		.byte	0
 11655 2d21 32       		.uleb128 0x32
 11656 2d22 6F350000 		.long	0x356f
 11657 2d26 2C030000 		.long	.LBI391
 11658 2d2a 01       		.byte	.LVU349
 11659 2d2b 2C030000 		.long	.LBB391
 11660 2d2f 06000000 		.long	.LBE391-.LBB391
GAS LISTING /tmp/ccffpNMU.s 			page 215


 11661 2d33 02       		.byte	0x2
 11662 2d34 1F01     		.value	0x11f
 11663 2d36 03       		.byte	0x3
 11664 2d37 5C2D0000 		.long	0x2d5c
 11665 2d3b 33       		.uleb128 0x33
 11666 2d3c 2C030000 		.long	.LBB392
 11667 2d40 06000000 		.long	.LBE392-.LBB392
 11668 2d44 34       		.uleb128 0x34
 11669 2d45 A6350000 		.long	0x35a6
 11670 2d49 2C030000 		.long	.LBI393
 11671 2d4d 07       		.byte	.LVU355
 11672 2d4e 2C030000 		.long	.LBB393
 11673 2d52 06000000 		.long	.LBE393-.LBB393
 11674 2d56 03       		.byte	0x3
 11675 2d57 7A01     		.value	0x17a
 11676 2d59 03       		.byte	0x3
 11677 2d5a 00       		.byte	0
 11678 2d5b 00       		.byte	0
 11679 2d5c 2C       		.uleb128 0x2c
 11680 2d5d 2C030000 		.long	.LVL111
 11681 2d61 EA350000 		.long	0x35ea
 11682 2d65 00       		.byte	0
 11683 2d66 2C       		.uleb128 0x2c
 11684 2d67 30000000 		.long	.LVL67
 11685 2d6b C6350000 		.long	0x35c6
 11686 2d6f 2C       		.uleb128 0x2c
 11687 2d70 43000000 		.long	.LVL68
 11688 2d74 C6350000 		.long	0x35c6
 11689 2d78 2C       		.uleb128 0x2c
 11690 2d79 56000000 		.long	.LVL69
 11691 2d7d C6350000 		.long	0x35c6
 11692 2d81 2C       		.uleb128 0x2c
 11693 2d82 6C000000 		.long	.LVL70
 11694 2d86 C6350000 		.long	0x35c6
 11695 2d8a 2C       		.uleb128 0x2c
 11696 2d8b 7F000000 		.long	.LVL71
 11697 2d8f C6350000 		.long	0x35c6
 11698 2d93 2C       		.uleb128 0x2c
 11699 2d94 95000000 		.long	.LVL72
 11700 2d98 C6350000 		.long	0x35c6
 11701 2d9c 2C       		.uleb128 0x2c
 11702 2d9d A5000000 		.long	.LVL73
 11703 2da1 C6350000 		.long	0x35c6
 11704 2da5 2C       		.uleb128 0x2c
 11705 2da6 B8000000 		.long	.LVL74
 11706 2daa C6350000 		.long	0x35c6
 11707 2dae 2C       		.uleb128 0x2c
 11708 2daf CB000000 		.long	.LVL75
 11709 2db3 C6350000 		.long	0x35c6
 11710 2db7 2C       		.uleb128 0x2c
 11711 2db8 E1000000 		.long	.LVL76
 11712 2dbc C6350000 		.long	0x35c6
 11713 2dc0 2C       		.uleb128 0x2c
 11714 2dc1 F4000000 		.long	.LVL77
 11715 2dc5 C6350000 		.long	0x35c6
 11716 2dc9 2C       		.uleb128 0x2c
 11717 2dca 0A010000 		.long	.LVL78
GAS LISTING /tmp/ccffpNMU.s 			page 216


 11718 2dce C6350000 		.long	0x35c6
 11719 2dd2 2C       		.uleb128 0x2c
 11720 2dd3 1D010000 		.long	.LVL79
 11721 2dd7 C6350000 		.long	0x35c6
 11722 2ddb 2C       		.uleb128 0x2c
 11723 2ddc 33010000 		.long	.LVL80
 11724 2de0 C6350000 		.long	0x35c6
 11725 2de4 2C       		.uleb128 0x2c
 11726 2de5 46010000 		.long	.LVL81
 11727 2de9 C6350000 		.long	0x35c6
 11728 2ded 2C       		.uleb128 0x2c
 11729 2dee 59010000 		.long	.LVL82
 11730 2df2 C6350000 		.long	0x35c6
 11731 2df6 2C       		.uleb128 0x2c
 11732 2df7 69010000 		.long	.LVL83
 11733 2dfb C6350000 		.long	0x35c6
 11734 2dff 2C       		.uleb128 0x2c
 11735 2e00 7F010000 		.long	.LVL84
 11736 2e04 C6350000 		.long	0x35c6
 11737 2e08 2C       		.uleb128 0x2c
 11738 2e09 92010000 		.long	.LVL85
 11739 2e0d C6350000 		.long	0x35c6
 11740 2e11 2C       		.uleb128 0x2c
 11741 2e12 A8010000 		.long	.LVL86
 11742 2e16 C6350000 		.long	0x35c6
 11743 2e1a 2C       		.uleb128 0x2c
 11744 2e1b BB010000 		.long	.LVL87
 11745 2e1f C6350000 		.long	0x35c6
 11746 2e23 2C       		.uleb128 0x2c
 11747 2e24 CE010000 		.long	.LVL88
 11748 2e28 C6350000 		.long	0x35c6
 11749 2e2c 2C       		.uleb128 0x2c
 11750 2e2d DE010000 		.long	.LVL89
 11751 2e31 C6350000 		.long	0x35c6
 11752 2e35 2C       		.uleb128 0x2c
 11753 2e36 F4010000 		.long	.LVL90
 11754 2e3a C6350000 		.long	0x35c6
 11755 2e3e 2C       		.uleb128 0x2c
 11756 2e3f 2D020000 		.long	.LVL96
 11757 2e43 F7350000 		.long	0x35f7
 11758 2e47 2C       		.uleb128 0x2c
 11759 2e48 40020000 		.long	.LVL97
 11760 2e4c C6350000 		.long	0x35c6
 11761 2e50 2C       		.uleb128 0x2c
 11762 2e51 56020000 		.long	.LVL98
 11763 2e55 C6350000 		.long	0x35c6
 11764 2e59 2C       		.uleb128 0x2c
 11765 2e5a 69020000 		.long	.LVL99
 11766 2e5e C6350000 		.long	0x35c6
 11767 2e62 2C       		.uleb128 0x2c
 11768 2e63 7C020000 		.long	.LVL100
 11769 2e67 C6350000 		.long	0x35c6
 11770 2e6b 2C       		.uleb128 0x2c
 11771 2e6c 8C020000 		.long	.LVL101
 11772 2e70 C6350000 		.long	0x35c6
 11773 2e74 2C       		.uleb128 0x2c
 11774 2e75 A2020000 		.long	.LVL102
GAS LISTING /tmp/ccffpNMU.s 			page 217


 11775 2e79 C6350000 		.long	0x35c6
 11776 2e7d 2C       		.uleb128 0x2c
 11777 2e7e B5020000 		.long	.LVL103
 11778 2e82 C6350000 		.long	0x35c6
 11779 2e86 2C       		.uleb128 0x2c
 11780 2e87 CB020000 		.long	.LVL104
 11781 2e8b C6350000 		.long	0x35c6
 11782 2e8f 2C       		.uleb128 0x2c
 11783 2e90 DE020000 		.long	.LVL105
 11784 2e94 C6350000 		.long	0x35c6
 11785 2e98 2C       		.uleb128 0x2c
 11786 2e99 F1020000 		.long	.LVL106
 11787 2e9d C6350000 		.long	0x35c6
 11788 2ea1 2C       		.uleb128 0x2c
 11789 2ea2 01030000 		.long	.LVL107
 11790 2ea6 C6350000 		.long	0x35c6
 11791 2eaa 2C       		.uleb128 0x2c
 11792 2eab 17030000 		.long	.LVL108
 11793 2eaf C6350000 		.long	0x35c6
 11794 2eb3 00       		.byte	0
 11795 2eb4 36       		.uleb128 0x36
 11796 2eb5 DB020000 		.long	.LASF309
 11797 2eb9 01       		.byte	0x1
 11798 2eba 3D       		.byte	0x3d
 11799 2ebb 06       		.byte	0x6
 11800 2ebc 00000000 		.long	.LFB225
 11801 2ec0 52000000 		.long	.LFE225-.LFB225
 11802 2ec4 01       		.uleb128 0x1
 11803 2ec5 9C       		.byte	0x9c
 11804 2ec6 982F0000 		.long	0x2f98
 11805 2eca 3C       		.uleb128 0x3c
 11806 2ecb 2B0A0000 		.long	.LASF293
 11807 2ecf 01       		.byte	0x1
 11808 2ed0 3D       		.byte	0x3d
 11809 2ed1 24       		.byte	0x24
 11810 2ed2 7D170000 		.long	0x177d
 11811 2ed6 02       		.uleb128 0x2
 11812 2ed7 91       		.byte	0x91
 11813 2ed8 00       		.sleb128 0
 11814 2ed9 3C       		.uleb128 0x3c
 11815 2eda D6090000 		.long	.LASF294
 11816 2ede 01       		.byte	0x1
 11817 2edf 3D       		.byte	0x3d
 11818 2ee0 4A       		.byte	0x4a
 11819 2ee1 7D170000 		.long	0x177d
 11820 2ee5 02       		.uleb128 0x2
 11821 2ee6 91       		.byte	0x91
 11822 2ee7 04       		.sleb128 4
 11823 2ee8 3F       		.uleb128 0x3f
 11824 2ee9 39060000 		.long	.LASF310
 11825 2eed 01       		.byte	0x1
 11826 2eee 42       		.byte	0x42
 11827 2eef 10       		.byte	0x10
 11828 2ef0 22010000 		.long	0x122
 11829 2ef4 04       		.byte	0x4
 11830 2ef5 3E       		.uleb128 0x3e
 11831 2ef6 51350000 		.long	0x3551
GAS LISTING /tmp/ccffpNMU.s 			page 218


 11832 2efa 14000000 		.long	.LBI307
 11833 2efe 01       		.byte	.LVU231
 11834 2eff 14000000 		.long	.LBB307
 11835 2f03 06000000 		.long	.LBE307-.LBB307
 11836 2f07 01       		.byte	0x1
 11837 2f08 3F       		.byte	0x3f
 11838 2f09 02       		.byte	0x2
 11839 2f0a 252F0000 		.long	0x2f25
 11840 2f0e 2E       		.uleb128 0x2e
 11841 2f0f 62350000 		.long	0x3562
 11842 2f13 510E0000 		.long	.LLST11
 11843 2f17 4F0E0000 		.long	.LVUS11
 11844 2f1b 2C       		.uleb128 0x2c
 11845 2f1c 1A000000 		.long	.LVL59
 11846 2f20 D2350000 		.long	0x35d2
 11847 2f24 00       		.byte	0
 11848 2f25 3E       		.uleb128 0x3e
 11849 2f26 51350000 		.long	0x3551
 11850 2f2a 2B000000 		.long	.LBI309
 11851 2f2e 02       		.byte	.LVU238
 11852 2f2f 2B000000 		.long	.LBB309
 11853 2f33 08000000 		.long	.LBE309-.LBB309
 11854 2f37 01       		.byte	0x1
 11855 2f38 43       		.byte	0x43
 11856 2f39 02       		.byte	0x2
 11857 2f3a 552F0000 		.long	0x2f55
 11858 2f3e 2E       		.uleb128 0x2e
 11859 2f3f 62350000 		.long	0x3562
 11860 2f43 660E0000 		.long	.LLST12
 11861 2f47 640E0000 		.long	.LVUS12
 11862 2f4b 2C       		.uleb128 0x2c
 11863 2f4c 33000000 		.long	.LVL61
 11864 2f50 D2350000 		.long	0x35d2
 11865 2f54 00       		.byte	0
 11866 2f55 3E       		.uleb128 0x3e
 11867 2f56 51350000 		.long	0x3551
 11868 2f5a 44000000 		.long	.LBI311
 11869 2f5e 01       		.byte	.LVU244
 11870 2f5f 44000000 		.long	.LBB311
 11871 2f63 08000000 		.long	.LBE311-.LBB311
 11872 2f67 01       		.byte	0x1
 11873 2f68 45       		.byte	0x45
 11874 2f69 02       		.byte	0x2
 11875 2f6a 852F0000 		.long	0x2f85
 11876 2f6e 2E       		.uleb128 0x2e
 11877 2f6f 62350000 		.long	0x3562
 11878 2f73 7B0E0000 		.long	.LLST13
 11879 2f77 790E0000 		.long	.LVUS13
 11880 2f7b 2C       		.uleb128 0x2c
 11881 2f7c 4C000000 		.long	.LVL63
 11882 2f80 D2350000 		.long	0x35d2
 11883 2f84 00       		.byte	0
 11884 2f85 2C       		.uleb128 0x2c
 11885 2f86 2B000000 		.long	.LVL60
 11886 2f8a F7350000 		.long	0x35f7
 11887 2f8e 2C       		.uleb128 0x2c
 11888 2f8f 44000000 		.long	.LVL62
GAS LISTING /tmp/ccffpNMU.s 			page 219


 11889 2f93 F7350000 		.long	0x35f7
 11890 2f97 00       		.byte	0
 11891 2f98 36       		.uleb128 0x36
 11892 2f99 41050000 		.long	.LASF311
 11893 2f9d 01       		.byte	0x1
 11894 2f9e 2B       		.byte	0x2b
 11895 2f9f 06       		.byte	0x6
 11896 2fa0 00000000 		.long	.LFB224
 11897 2fa4 BE000000 		.long	.LFE224-.LFB224
 11898 2fa8 01       		.uleb128 0x1
 11899 2fa9 9C       		.byte	0x9c
 11900 2faa E9300000 		.long	0x30e9
 11901 2fae 3C       		.uleb128 0x3c
 11902 2faf 2B0A0000 		.long	.LASF293
 11903 2fb3 01       		.byte	0x1
 11904 2fb4 2B       		.byte	0x2b
 11905 2fb5 25       		.byte	0x25
 11906 2fb6 7D170000 		.long	0x177d
 11907 2fba 02       		.uleb128 0x2
 11908 2fbb 91       		.byte	0x91
 11909 2fbc 00       		.sleb128 0
 11910 2fbd 3C       		.uleb128 0x3c
 11911 2fbe D6090000 		.long	.LASF294
 11912 2fc2 01       		.byte	0x1
 11913 2fc3 2B       		.byte	0x2b
 11914 2fc4 4B       		.byte	0x4b
 11915 2fc5 7D170000 		.long	0x177d
 11916 2fc9 02       		.uleb128 0x2
 11917 2fca 91       		.byte	0x91
 11918 2fcb 04       		.sleb128 4
 11919 2fcc 40       		.uleb128 0x40
 11920 2fcd 2E070000 		.long	.LASF312
 11921 2fd1 01       		.byte	0x1
 11922 2fd2 2E       		.byte	0x2e
 11923 2fd3 11       		.byte	0x11
 11924 2fd4 27010000 		.long	0x127
 11925 2fd8 05       		.uleb128 0x5
 11926 2fd9 03       		.byte	0x3
 11927 2fda 00000000 		.long	counter.7190
 11928 2fde 3A       		.uleb128 0x3a
 11929 2fdf 51350000 		.long	0x3551
 11930 2fe3 03000000 		.long	.LBI272
 11931 2fe7 00       		.byte	.LVU179
 11932 2fe8 20020000 		.long	.Ldebug_ranges0+0x220
 11933 2fec 01       		.byte	0x1
 11934 2fed 2D       		.byte	0x2d
 11935 2fee 02       		.byte	0x2
 11936 2fef 0A300000 		.long	0x300a
 11937 2ff3 2E       		.uleb128 0x2e
 11938 2ff4 62350000 		.long	0x3562
 11939 2ff8 900E0000 		.long	.LLST8
 11940 2ffc 8E0E0000 		.long	.LVUS8
 11941 3000 2C       		.uleb128 0x2c
 11942 3001 1E000000 		.long	.LVL45
 11943 3005 D2350000 		.long	0x35d2
 11944 3009 00       		.byte	0
 11945 300a 3A       		.uleb128 0x3a
GAS LISTING /tmp/ccffpNMU.s 			page 220


 11946 300b 19350000 		.long	0x3519
 11947 300f 6E000000 		.long	.LBI276
 11948 3013 01       		.byte	.LVU191
 11949 3014 38020000 		.long	.Ldebug_ranges0+0x238
 11950 3018 01       		.byte	0x1
 11951 3019 36       		.byte	0x36
 11952 301a 02       		.byte	0x2
 11953 301b BB300000 		.long	0x30bb
 11954 301f 2E       		.uleb128 0x2e
 11955 3020 27350000 		.long	0x3527
 11956 3024 A80E0000 		.long	.LLST9
 11957 3028 A40E0000 		.long	.LVUS9
 11958 302c 2D       		.uleb128 0x2d
 11959 302d 9C350000 		.long	0x359c
 11960 3031 6E000000 		.long	.LBI278
 11961 3035 03       		.byte	.LVU193
 11962 3036 68020000 		.long	.Ldebug_ranges0+0x268
 11963 303a 02       		.byte	0x2
 11964 303b 1C01     		.value	0x11c
 11965 303d 03       		.byte	0x3
 11966 303e 55300000 		.long	0x3055
 11967 3042 2F       		.uleb128 0x2f
 11968 3043 B0350000 		.long	0x35b0
 11969 3047 6E000000 		.long	.LBI279
 11970 304b 05       		.byte	.LVU195
 11971 304c 70020000 		.long	.Ldebug_ranges0+0x270
 11972 3050 03       		.byte	0x3
 11973 3051 6301     		.value	0x163
 11974 3053 03       		.byte	0x3
 11975 3054 00       		.byte	0
 11976 3055 2D       		.uleb128 0x2d
 11977 3056 35350000 		.long	0x3535
 11978 305a 80000000 		.long	.LBI284
 11979 305e 03       		.byte	.LVU203
 11980 305f 88020000 		.long	.Ldebug_ranges0+0x288
 11981 3063 02       		.byte	0x2
 11982 3064 1D01     		.value	0x11d
 11983 3066 03       		.byte	0x3
 11984 3067 82300000 		.long	0x3082
 11985 306b 2E       		.uleb128 0x2e
 11986 306c 43350000 		.long	0x3543
 11987 3070 CB0E0000 		.long	.LLST10
 11988 3074 C70E0000 		.long	.LVUS10
 11989 3078 2C       		.uleb128 0x2c
 11990 3079 B9000000 		.long	.LVL56
 11991 307d DE350000 		.long	0x35de
 11992 3081 00       		.byte	0
 11993 3082 2D       		.uleb128 0x2d
 11994 3083 6F350000 		.long	0x356f
 11995 3087 89000000 		.long	.LBI290
 11996 308b 01       		.byte	.LVU210
 11997 308c A8020000 		.long	.Ldebug_ranges0+0x2a8
 11998 3090 02       		.byte	0x2
 11999 3091 1F01     		.value	0x11f
 12000 3093 03       		.byte	0x3
 12001 3094 B1300000 		.long	0x30b1
 12002 3098 31       		.uleb128 0x31
GAS LISTING /tmp/ccffpNMU.s 			page 221


 12003 3099 A8020000 		.long	.Ldebug_ranges0+0x2a8
 12004 309d 2F       		.uleb128 0x2f
 12005 309e A6350000 		.long	0x35a6
 12006 30a2 89000000 		.long	.LBI292
 12007 30a6 07       		.byte	.LVU216
 12008 30a7 A8020000 		.long	.Ldebug_ranges0+0x2a8
 12009 30ab 03       		.byte	0x3
 12010 30ac 7A01     		.value	0x17a
 12011 30ae 03       		.byte	0x3
 12012 30af 00       		.byte	0
 12013 30b0 00       		.byte	0
 12014 30b1 2C       		.uleb128 0x2c
 12015 30b2 89000000 		.long	.LVL53
 12016 30b6 EA350000 		.long	0x35ea
 12017 30ba 00       		.byte	0
 12018 30bb 2C       		.uleb128 0x2c
 12019 30bc 2F000000 		.long	.LVL46
 12020 30c0 1B360000 		.long	0x361b
 12021 30c4 2C       		.uleb128 0x2c
 12022 30c5 40000000 		.long	.LVL47
 12023 30c9 1B360000 		.long	0x361b
 12024 30cd 2C       		.uleb128 0x2c
 12025 30ce 51000000 		.long	.LVL48
 12026 30d2 1B360000 		.long	0x361b
 12027 30d6 2C       		.uleb128 0x2c
 12028 30d7 62000000 		.long	.LVL49
 12029 30db 1B360000 		.long	0x361b
 12030 30df 2C       		.uleb128 0x2c
 12031 30e0 6E000000 		.long	.LVL50
 12032 30e4 27360000 		.long	0x3627
 12033 30e8 00       		.byte	0
 12034 30e9 36       		.uleb128 0x36
 12035 30ea 490D0000 		.long	.LASF313
 12036 30ee 01       		.byte	0x1
 12037 30ef 17       		.byte	0x17
 12038 30f0 06       		.byte	0x6
 12039 30f1 00000000 		.long	.LFB223
 12040 30f5 4E010000 		.long	.LFE223-.LFB223
 12041 30f9 01       		.uleb128 0x1
 12042 30fa 9C       		.byte	0x9c
 12043 30fb 0A330000 		.long	0x330a
 12044 30ff 3C       		.uleb128 0x3c
 12045 3100 2B0A0000 		.long	.LASF293
 12046 3104 01       		.byte	0x1
 12047 3105 17       		.byte	0x17
 12048 3106 2D       		.byte	0x2d
 12049 3107 7D170000 		.long	0x177d
 12050 310b 02       		.uleb128 0x2
 12051 310c 91       		.byte	0x91
 12052 310d 00       		.sleb128 0
 12053 310e 3C       		.uleb128 0x3c
 12054 310f D6090000 		.long	.LASF294
 12055 3113 01       		.byte	0x1
 12056 3114 17       		.byte	0x17
 12057 3115 53       		.byte	0x53
 12058 3116 7D170000 		.long	0x177d
 12059 311a 02       		.uleb128 0x2
GAS LISTING /tmp/ccffpNMU.s 			page 222


 12060 311b 91       		.byte	0x91
 12061 311c 04       		.sleb128 4
 12062 311d 40       		.uleb128 0x40
 12063 311e 08000000 		.long	.LASF314
 12064 3122 01       		.byte	0x1
 12065 3123 1A       		.byte	0x1a
 12066 3124 11       		.byte	0x11
 12067 3125 27010000 		.long	0x127
 12068 3129 05       		.uleb128 0x5
 12069 312a 03       		.byte	0x3
 12070 312b 00000000 		.long	prevmin.7184
 12071 312f 40       		.uleb128 0x40
 12072 3130 7F090000 		.long	.LASF315
 12073 3134 01       		.byte	0x1
 12074 3135 1B       		.byte	0x1b
 12075 3136 11       		.byte	0x11
 12076 3137 27010000 		.long	0x127
 12077 313b 05       		.uleb128 0x5
 12078 313c 03       		.byte	0x3
 12079 313d 00000000 		.long	turns.7185
 12080 3141 3A       		.uleb128 0x3a
 12081 3142 19350000 		.long	0x3519
 12082 3146 16000000 		.long	.LBI195
 12083 314a 00       		.byte	.LVU90
 12084 314b 08010000 		.long	.Ldebug_ranges0+0x108
 12085 314f 01       		.byte	0x1
 12086 3150 18       		.byte	0x18
 12087 3151 02       		.byte	0x2
 12088 3152 F2310000 		.long	0x31f2
 12089 3156 2E       		.uleb128 0x2e
 12090 3157 27350000 		.long	0x3527
 12091 315b EE0E0000 		.long	.LLST4
 12092 315f EA0E0000 		.long	.LVUS4
 12093 3163 2D       		.uleb128 0x2d
 12094 3164 9C350000 		.long	0x359c
 12095 3168 16000000 		.long	.LBI197
 12096 316c 02       		.byte	.LVU92
 12097 316d 38010000 		.long	.Ldebug_ranges0+0x138
 12098 3171 02       		.byte	0x2
 12099 3172 1C01     		.value	0x11c
 12100 3174 03       		.byte	0x3
 12101 3175 8C310000 		.long	0x318c
 12102 3179 2F       		.uleb128 0x2f
 12103 317a B0350000 		.long	0x35b0
 12104 317e 16000000 		.long	.LBI198
 12105 3182 04       		.byte	.LVU94
 12106 3183 40010000 		.long	.Ldebug_ranges0+0x140
 12107 3187 03       		.byte	0x3
 12108 3188 6301     		.value	0x163
 12109 318a 03       		.byte	0x3
 12110 318b 00       		.byte	0
 12111 318c 2D       		.uleb128 0x2d
 12112 318d 35350000 		.long	0x3535
 12113 3191 25000000 		.long	.LBI203
 12114 3195 03       		.byte	.LVU101
 12115 3196 58010000 		.long	.Ldebug_ranges0+0x158
 12116 319a 02       		.byte	0x2
GAS LISTING /tmp/ccffpNMU.s 			page 223


 12117 319b 1D01     		.value	0x11d
 12118 319d 03       		.byte	0x3
 12119 319e B9310000 		.long	0x31b9
 12120 31a2 2E       		.uleb128 0x2e
 12121 31a3 43350000 		.long	0x3543
 12122 31a7 100F0000 		.long	.LLST5
 12123 31ab 0C0F0000 		.long	.LVUS5
 12124 31af 2C       		.uleb128 0x2c
 12125 31b0 31010000 		.long	.LVL40
 12126 31b4 DE350000 		.long	0x35de
 12127 31b8 00       		.byte	0
 12128 31b9 2D       		.uleb128 0x2d
 12129 31ba 6F350000 		.long	0x356f
 12130 31be 32000000 		.long	.LBI209
 12131 31c2 01       		.byte	.LVU108
 12132 31c3 78010000 		.long	.Ldebug_ranges0+0x178
 12133 31c7 02       		.byte	0x2
 12134 31c8 1F01     		.value	0x11f
 12135 31ca 03       		.byte	0x3
 12136 31cb E8310000 		.long	0x31e8
 12137 31cf 31       		.uleb128 0x31
 12138 31d0 78010000 		.long	.Ldebug_ranges0+0x178
 12139 31d4 2F       		.uleb128 0x2f
 12140 31d5 A6350000 		.long	0x35a6
 12141 31d9 32000000 		.long	.LBI211
 12142 31dd 07       		.byte	.LVU114
 12143 31de 78010000 		.long	.Ldebug_ranges0+0x178
 12144 31e2 03       		.byte	0x3
 12145 31e3 7A01     		.value	0x17a
 12146 31e5 03       		.byte	0x3
 12147 31e6 00       		.byte	0
 12148 31e7 00       		.byte	0
 12149 31e8 2C       		.uleb128 0x2c
 12150 31e9 32000000 		.long	.LVL25
 12151 31ed EA350000 		.long	0x35ea
 12152 31f1 00       		.byte	0
 12153 31f2 3A       		.uleb128 0x3a
 12154 31f3 51350000 		.long	0x3551
 12155 31f7 41000000 		.long	.LBI224
 12156 31fb 02       		.byte	.LVU121
 12157 31fc 90010000 		.long	.Ldebug_ranges0+0x190
 12158 3200 01       		.byte	0x1
 12159 3201 19       		.byte	0x19
 12160 3202 02       		.byte	0x2
 12161 3203 16320000 		.long	0x3216
 12162 3207 30       		.uleb128 0x30
 12163 3208 62350000 		.long	0x3562
 12164 320c 2C       		.uleb128 0x2c
 12165 320d 4A000000 		.long	.LVL27
 12166 3211 D2350000 		.long	0x35d2
 12167 3215 00       		.byte	0
 12168 3216 3A       		.uleb128 0x3a
 12169 3217 19350000 		.long	0x3519
 12170 321b 01010000 		.long	.LBI229
 12171 321f 01       		.byte	.LVU144
 12172 3220 A8010000 		.long	.Ldebug_ranges0+0x1a8
 12173 3224 01       		.byte	0x1
GAS LISTING /tmp/ccffpNMU.s 			page 224


 12174 3225 25       		.byte	0x25
 12175 3226 03       		.byte	0x3
 12176 3227 D3320000 		.long	0x32d3
 12177 322b 2E       		.uleb128 0x2e
 12178 322c 27350000 		.long	0x3527
 12179 3230 340F0000 		.long	.LLST6
 12180 3234 2E0F0000 		.long	.LVUS6
 12181 3238 2D       		.uleb128 0x2d
 12182 3239 35350000 		.long	0x3535
 12183 323d 0A010000 		.long	.LBI231
 12184 3241 03       		.byte	.LVU155
 12185 3242 D8010000 		.long	.Ldebug_ranges0+0x1d8
 12186 3246 02       		.byte	0x2
 12187 3247 1D01     		.value	0x11d
 12188 3249 03       		.byte	0x3
 12189 324a 65320000 		.long	0x3265
 12190 324e 2E       		.uleb128 0x2e
 12191 324f 43350000 		.long	0x3543
 12192 3253 620F0000 		.long	.LLST7
 12193 3257 5E0F0000 		.long	.LVUS7
 12194 325b 2C       		.uleb128 0x2c
 12195 325c 49010000 		.long	.LVL42
 12196 3260 DE350000 		.long	0x35de
 12197 3264 00       		.byte	0
 12198 3265 2D       		.uleb128 0x2d
 12199 3266 9C350000 		.long	0x359c
 12200 326a 01010000 		.long	.LBI236
 12201 326e 03       		.byte	.LVU146
 12202 326f 00020000 		.long	.Ldebug_ranges0+0x200
 12203 3273 02       		.byte	0x2
 12204 3274 1C01     		.value	0x11c
 12205 3276 03       		.byte	0x3
 12206 3277 8E320000 		.long	0x328e
 12207 327b 2F       		.uleb128 0x2f
 12208 327c B0350000 		.long	0x35b0
 12209 3280 01010000 		.long	.LBI237
 12210 3284 05       		.byte	.LVU148
 12211 3285 08020000 		.long	.Ldebug_ranges0+0x208
 12212 3289 03       		.byte	0x3
 12213 328a 6301     		.value	0x163
 12214 328c 03       		.byte	0x3
 12215 328d 00       		.byte	0
 12216 328e 32       		.uleb128 0x32
 12217 328f 6F350000 		.long	0x356f
 12218 3293 13010000 		.long	.LBI245
 12219 3297 01       		.byte	.LVU162
 12220 3298 13010000 		.long	.LBB245
 12221 329c 06000000 		.long	.LBE245-.LBB245
 12222 32a0 02       		.byte	0x2
 12223 32a1 1F01     		.value	0x11f
 12224 32a3 03       		.byte	0x3
 12225 32a4 C9320000 		.long	0x32c9
 12226 32a8 33       		.uleb128 0x33
 12227 32a9 13010000 		.long	.LBB246
 12228 32ad 06000000 		.long	.LBE246-.LBB246
 12229 32b1 34       		.uleb128 0x34
 12230 32b2 A6350000 		.long	0x35a6
GAS LISTING /tmp/ccffpNMU.s 			page 225


 12231 32b6 13010000 		.long	.LBI247
 12232 32ba 07       		.byte	.LVU168
 12233 32bb 13010000 		.long	.LBB247
 12234 32bf 06000000 		.long	.LBE247-.LBB247
 12235 32c3 03       		.byte	0x3
 12236 32c4 7A01     		.value	0x17a
 12237 32c6 03       		.byte	0x3
 12238 32c7 00       		.byte	0
 12239 32c8 00       		.byte	0
 12240 32c9 2C       		.uleb128 0x2c
 12241 32ca 13010000 		.long	.LVL37
 12242 32ce EA350000 		.long	0x35ea
 12243 32d2 00       		.byte	0
 12244 32d3 2C       		.uleb128 0x2c
 12245 32d4 52000000 		.long	.LVL28
 12246 32d8 33360000 		.long	0x3633
 12247 32dc 2C       		.uleb128 0x2c
 12248 32dd 86000000 		.long	.LVL29
 12249 32e1 3F360000 		.long	0x363f
 12250 32e5 2C       		.uleb128 0x2c
 12251 32e6 A5000000 		.long	.LVL30
 12252 32ea 4B360000 		.long	0x364b
 12253 32ee 2C       		.uleb128 0x2c
 12254 32ef BF000000 		.long	.LVL31
 12255 32f3 4B360000 		.long	0x364b
 12256 32f7 2C       		.uleb128 0x2c
 12257 32f8 DE000000 		.long	.LVL32
 12258 32fc 4B360000 		.long	0x364b
 12259 3300 2C       		.uleb128 0x2c
 12260 3301 F8000000 		.long	.LVL33
 12261 3305 4B360000 		.long	0x364b
 12262 3309 00       		.byte	0
 12263 330a 36       		.uleb128 0x36
 12264 330b 880E0000 		.long	.LASF316
 12265 330f 01       		.byte	0x1
 12266 3310 06       		.byte	0x6
 12267 3311 06       		.byte	0x6
 12268 3312 00000000 		.long	.LFB222
 12269 3316 16010000 		.long	.LFE222-.LFB222
 12270 331a 01       		.uleb128 0x1
 12271 331b 9C       		.byte	0x9c
 12272 331c 19350000 		.long	0x3519
 12273 3320 3C       		.uleb128 0x3c
 12274 3321 2B0A0000 		.long	.LASF293
 12275 3325 01       		.byte	0x1
 12276 3326 06       		.byte	0x6
 12277 3327 2A       		.byte	0x2a
 12278 3328 7D170000 		.long	0x177d
 12279 332c 02       		.uleb128 0x2
 12280 332d 91       		.byte	0x91
 12281 332e 00       		.sleb128 0
 12282 332f 3C       		.uleb128 0x3c
 12283 3330 D6090000 		.long	.LASF294
 12284 3334 01       		.byte	0x1
 12285 3335 06       		.byte	0x6
 12286 3336 50       		.byte	0x50
 12287 3337 7D170000 		.long	0x177d
GAS LISTING /tmp/ccffpNMU.s 			page 226


 12288 333b 02       		.uleb128 0x2
 12289 333c 91       		.byte	0x91
 12290 333d 04       		.sleb128 4
 12291 333e 40       		.uleb128 0x40
 12292 333f 08000000 		.long	.LASF314
 12293 3343 01       		.byte	0x1
 12294 3344 09       		.byte	0x9
 12295 3345 11       		.byte	0x11
 12296 3346 27010000 		.long	0x127
 12297 334a 05       		.uleb128 0x5
 12298 334b 03       		.byte	0x3
 12299 334c 00000000 		.long	prevmin.7179
 12300 3350 3A       		.uleb128 0x3a
 12301 3351 19350000 		.long	0x3519
 12302 3355 16000000 		.long	.LBI111
 12303 3359 00       		.byte	.LVU4
 12304 335a 00000000 		.long	.Ldebug_ranges0+0
 12305 335e 01       		.byte	0x1
 12306 335f 07       		.byte	0x7
 12307 3360 02       		.byte	0x2
 12308 3361 01340000 		.long	0x3401
 12309 3365 2E       		.uleb128 0x2e
 12310 3366 27350000 		.long	0x3527
 12311 336a 840F0000 		.long	.LLST0
 12312 336e 800F0000 		.long	.LVUS0
 12313 3372 2D       		.uleb128 0x2d
 12314 3373 9C350000 		.long	0x359c
 12315 3377 16000000 		.long	.LBI113
 12316 337b 02       		.byte	.LVU6
 12317 337c 30000000 		.long	.Ldebug_ranges0+0x30
 12318 3380 02       		.byte	0x2
 12319 3381 1C01     		.value	0x11c
 12320 3383 03       		.byte	0x3
 12321 3384 9B330000 		.long	0x339b
 12322 3388 2F       		.uleb128 0x2f
 12323 3389 B0350000 		.long	0x35b0
 12324 338d 16000000 		.long	.LBI114
 12325 3391 04       		.byte	.LVU8
 12326 3392 38000000 		.long	.Ldebug_ranges0+0x38
 12327 3396 03       		.byte	0x3
 12328 3397 6301     		.value	0x163
 12329 3399 03       		.byte	0x3
 12330 339a 00       		.byte	0
 12331 339b 2D       		.uleb128 0x2d
 12332 339c 35350000 		.long	0x3535
 12333 33a0 25000000 		.long	.LBI119
 12334 33a4 03       		.byte	.LVU15
 12335 33a5 50000000 		.long	.Ldebug_ranges0+0x50
 12336 33a9 02       		.byte	0x2
 12337 33aa 1D01     		.value	0x11d
 12338 33ac 03       		.byte	0x3
 12339 33ad C8330000 		.long	0x33c8
 12340 33b1 2E       		.uleb128 0x2e
 12341 33b2 43350000 		.long	0x3543
 12342 33b6 A60F0000 		.long	.LLST1
 12343 33ba A20F0000 		.long	.LVUS1
 12344 33be 2C       		.uleb128 0x2c
GAS LISTING /tmp/ccffpNMU.s 			page 227


 12345 33bf F9000000 		.long	.LVL18
 12346 33c3 DE350000 		.long	0x35de
 12347 33c7 00       		.byte	0
 12348 33c8 2D       		.uleb128 0x2d
 12349 33c9 6F350000 		.long	0x356f
 12350 33cd 32000000 		.long	.LBI125
 12351 33d1 01       		.byte	.LVU22
 12352 33d2 70000000 		.long	.Ldebug_ranges0+0x70
 12353 33d6 02       		.byte	0x2
 12354 33d7 1F01     		.value	0x11f
 12355 33d9 03       		.byte	0x3
 12356 33da F7330000 		.long	0x33f7
 12357 33de 31       		.uleb128 0x31
 12358 33df 70000000 		.long	.Ldebug_ranges0+0x70
 12359 33e3 2F       		.uleb128 0x2f
 12360 33e4 A6350000 		.long	0x35a6
 12361 33e8 32000000 		.long	.LBI127
 12362 33ec 07       		.byte	.LVU28
 12363 33ed 70000000 		.long	.Ldebug_ranges0+0x70
 12364 33f1 03       		.byte	0x3
 12365 33f2 7A01     		.value	0x17a
 12366 33f4 03       		.byte	0x3
 12367 33f5 00       		.byte	0
 12368 33f6 00       		.byte	0
 12369 33f7 2C       		.uleb128 0x2c
 12370 33f8 32000000 		.long	.LVL4
 12371 33fc EA350000 		.long	0x35ea
 12372 3400 00       		.byte	0
 12373 3401 3A       		.uleb128 0x3a
 12374 3402 51350000 		.long	0x3551
 12375 3406 41000000 		.long	.LBI140
 12376 340a 02       		.byte	.LVU35
 12377 340b 88000000 		.long	.Ldebug_ranges0+0x88
 12378 340f 01       		.byte	0x1
 12379 3410 08       		.byte	0x8
 12380 3411 02       		.byte	0x2
 12381 3412 25340000 		.long	0x3425
 12382 3416 30       		.uleb128 0x30
 12383 3417 62350000 		.long	0x3562
 12384 341b 2C       		.uleb128 0x2c
 12385 341c 4A000000 		.long	.LVL6
 12386 3420 D2350000 		.long	0x35d2
 12387 3424 00       		.byte	0
 12388 3425 3A       		.uleb128 0x3a
 12389 3426 19350000 		.long	0x3519
 12390 342a CA000000 		.long	.LBI145
 12391 342e 01       		.byte	.LVU54
 12392 342f A0000000 		.long	.Ldebug_ranges0+0xa0
 12393 3433 01       		.byte	0x1
 12394 3434 13       		.byte	0x13
 12395 3435 03       		.byte	0x3
 12396 3436 E2340000 		.long	0x34e2
 12397 343a 2E       		.uleb128 0x2e
 12398 343b 27350000 		.long	0x3527
 12399 343f CA0F0000 		.long	.LLST2
 12400 3443 C40F0000 		.long	.LVUS2
 12401 3447 2D       		.uleb128 0x2d
GAS LISTING /tmp/ccffpNMU.s 			page 228


 12402 3448 9C350000 		.long	0x359c
 12403 344c CA000000 		.long	.LBI147
 12404 3450 03       		.byte	.LVU56
 12405 3451 C8000000 		.long	.Ldebug_ranges0+0xc8
 12406 3455 02       		.byte	0x2
 12407 3456 1C01     		.value	0x11c
 12408 3458 03       		.byte	0x3
 12409 3459 70340000 		.long	0x3470
 12410 345d 2F       		.uleb128 0x2f
 12411 345e B0350000 		.long	0x35b0
 12412 3462 CA000000 		.long	.LBI148
 12413 3466 05       		.byte	.LVU58
 12414 3467 D0000000 		.long	.Ldebug_ranges0+0xd0
 12415 346b 03       		.byte	0x3
 12416 346c 6301     		.value	0x163
 12417 346e 03       		.byte	0x3
 12418 346f 00       		.byte	0
 12419 3470 2D       		.uleb128 0x2d
 12420 3471 35350000 		.long	0x3535
 12421 3475 D3000000 		.long	.LBI153
 12422 3479 03       		.byte	.LVU65
 12423 347a E8000000 		.long	.Ldebug_ranges0+0xe8
 12424 347e 02       		.byte	0x2
 12425 347f 1D01     		.value	0x11d
 12426 3481 03       		.byte	0x3
 12427 3482 9D340000 		.long	0x349d
 12428 3486 2E       		.uleb128 0x2e
 12429 3487 43350000 		.long	0x3543
 12430 348b F80F0000 		.long	.LLST3
 12431 348f F40F0000 		.long	.LVUS3
 12432 3493 2C       		.uleb128 0x2c
 12433 3494 11010000 		.long	.LVL20
 12434 3498 DE350000 		.long	0x35de
 12435 349c 00       		.byte	0
 12436 349d 32       		.uleb128 0x32
 12437 349e 6F350000 		.long	0x356f
 12438 34a2 DF000000 		.long	.LBI159
 12439 34a6 01       		.byte	.LVU72
 12440 34a7 DF000000 		.long	.LBB159
 12441 34ab 06000000 		.long	.LBE159-.LBB159
 12442 34af 02       		.byte	0x2
 12443 34b0 1F01     		.value	0x11f
 12444 34b2 03       		.byte	0x3
 12445 34b3 D8340000 		.long	0x34d8
 12446 34b7 33       		.uleb128 0x33
 12447 34b8 DF000000 		.long	.LBB160
 12448 34bc 06000000 		.long	.LBE160-.LBB160
 12449 34c0 34       		.uleb128 0x34
 12450 34c1 A6350000 		.long	0x35a6
 12451 34c5 DF000000 		.long	.LBI161
 12452 34c9 07       		.byte	.LVU78
 12453 34ca DF000000 		.long	.LBB161
 12454 34ce 06000000 		.long	.LBE161-.LBB161
 12455 34d2 03       		.byte	0x3
 12456 34d3 7A01     		.value	0x17a
 12457 34d5 03       		.byte	0x3
 12458 34d6 00       		.byte	0
GAS LISTING /tmp/ccffpNMU.s 			page 229


 12459 34d7 00       		.byte	0
 12460 34d8 2C       		.uleb128 0x2c
 12461 34d9 DF000000 		.long	.LVL15
 12462 34dd EA350000 		.long	0x35ea
 12463 34e1 00       		.byte	0
 12464 34e2 2C       		.uleb128 0x2c
 12465 34e3 52000000 		.long	.LVL7
 12466 34e7 33360000 		.long	0x3633
 12467 34eb 2C       		.uleb128 0x2c
 12468 34ec 86000000 		.long	.LVL8
 12469 34f0 3F360000 		.long	0x363f
 12470 34f4 2C       		.uleb128 0x2c
 12471 34f5 97000000 		.long	.LVL9
 12472 34f9 1B360000 		.long	0x361b
 12473 34fd 2C       		.uleb128 0x2c
 12474 34fe A8000000 		.long	.LVL10
 12475 3502 1B360000 		.long	0x361b
 12476 3506 2C       		.uleb128 0x2c
 12477 3507 B9000000 		.long	.LVL11
 12478 350b 1B360000 		.long	0x361b
 12479 350f 2C       		.uleb128 0x2c
 12480 3510 CA000000 		.long	.LVL12
 12481 3514 1B360000 		.long	0x361b
 12482 3518 00       		.byte	0
 12483 3519 41       		.uleb128 0x41
 12484 351a E9010000 		.long	.LASF317
 12485 351e 02       		.byte	0x2
 12486 351f 1A01     		.value	0x11a
 12487 3521 14       		.byte	0x14
 12488 3522 03       		.byte	0x3
 12489 3523 35350000 		.long	0x3535
 12490 3527 42       		.uleb128 0x42
 12491 3528 62737000 		.string	"bsp"
 12492 352c 02       		.byte	0x2
 12493 352d 1A01     		.value	0x11a
 12494 352f 35       		.byte	0x35
 12495 3530 7D170000 		.long	0x177d
 12496 3534 00       		.byte	0
 12497 3535 41       		.uleb128 0x41
 12498 3536 3F0C0000 		.long	.LASF318
 12499 353a 02       		.byte	0x2
 12500 353b 0A01     		.value	0x10a
 12501 353d 14       		.byte	0x14
 12502 353e 03       		.byte	0x3
 12503 353f 51350000 		.long	0x3551
 12504 3543 42       		.uleb128 0x42
 12505 3544 62737000 		.string	"bsp"
 12506 3548 02       		.byte	0x2
 12507 3549 0A01     		.value	0x10a
 12508 354b 36       		.byte	0x36
 12509 354c 7D170000 		.long	0x177d
 12510 3550 00       		.byte	0
 12511 3551 43       		.uleb128 0x43
 12512 3552 C7020000 		.long	.LASF341
 12513 3556 02       		.byte	0x2
 12514 3557 8D       		.byte	0x8d
 12515 3558 15       		.byte	0x15
GAS LISTING /tmp/ccffpNMU.s 			page 230


 12516 3559 A4010000 		.long	0x1a4
 12517 355d 03       		.byte	0x3
 12518 355e 6F350000 		.long	0x356f
 12519 3562 44       		.uleb128 0x44
 12520 3563 62737000 		.string	"bsp"
 12521 3567 02       		.byte	0x2
 12522 3568 8D       		.byte	0x8d
 12523 3569 34       		.byte	0x34
 12524 356a 7D170000 		.long	0x177d
 12525 356e 00       		.byte	0
 12526 356f 41       		.uleb128 0x41
 12527 3570 A5050000 		.long	.LASF319
 12528 3574 03       		.byte	0x3
 12529 3575 6D01     		.value	0x16d
 12530 3577 14       		.byte	0x14
 12531 3578 03       		.byte	0x3
 12532 3579 87350000 		.long	0x3587
 12533 357d 45       		.uleb128 0x45
 12534 357e ED000000 		.long	.LASF342
 12535 3582 97350000 		.long	0x3597
 12536 3586 00       		.byte	0
 12537 3587 12       		.uleb128 0x12
 12538 3588 05010000 		.long	0x105
 12539 358c 97350000 		.long	0x3597
 12540 3590 13       		.uleb128 0x13
 12541 3591 3D000000 		.long	0x3d
 12542 3595 0B       		.byte	0xb
 12543 3596 00       		.byte	0
 12544 3597 08       		.uleb128 0x8
 12545 3598 87350000 		.long	0x3587
 12546 359c 46       		.uleb128 0x46
 12547 359d CE050000 		.long	.LASF320
 12548 35a1 03       		.byte	0x3
 12549 35a2 6101     		.value	0x161
 12550 35a4 14       		.byte	0x14
 12551 35a5 03       		.byte	0x3
 12552 35a6 46       		.uleb128 0x46
 12553 35a7 29020000 		.long	.LASF321
 12554 35ab 04       		.byte	0x4
 12555 35ac 7301     		.value	0x173
 12556 35ae 14       		.byte	0x14
 12557 35af 03       		.byte	0x3
 12558 35b0 46       		.uleb128 0x46
 12559 35b1 C70B0000 		.long	.LASF322
 12560 35b5 04       		.byte	0x4
 12561 35b6 6A01     		.value	0x16a
 12562 35b8 14       		.byte	0x14
 12563 35b9 03       		.byte	0x3
 12564 35ba 47       		.uleb128 0x47
 12565 35bb 8F010000 		.long	.LASF323
 12566 35bf 8F010000 		.long	.LASF323
 12567 35c3 25       		.byte	0x25
 12568 35c4 59       		.byte	0x59
 12569 35c5 06       		.byte	0x6
 12570 35c6 47       		.uleb128 0x47
 12571 35c7 0F0C0000 		.long	.LASF324
 12572 35cb 0F0C0000 		.long	.LASF324
GAS LISTING /tmp/ccffpNMU.s 			page 231


 12573 35cf 25       		.byte	0x25
 12574 35d0 4C       		.byte	0x4c
 12575 35d1 06       		.byte	0x6
 12576 35d2 47       		.uleb128 0x47
 12577 35d3 63000000 		.long	.LASF325
 12578 35d7 63000000 		.long	.LASF325
 12579 35db 0E       		.byte	0xe
 12580 35dc 5E       		.byte	0x5e
 12581 35dd 09       		.byte	0x9
 12582 35de 47       		.uleb128 0x47
 12583 35df 88080000 		.long	.LASF326
 12584 35e3 88080000 		.long	.LASF326
 12585 35e7 0E       		.byte	0xe
 12586 35e8 63       		.byte	0x63
 12587 35e9 08       		.byte	0x8
 12588 35ea 48       		.uleb128 0x48
 12589 35eb 81020000 		.long	.LASF327
 12590 35ef 81020000 		.long	.LASF327
 12591 35f3 0B       		.byte	0xb
 12592 35f4 D601     		.value	0x1d6
 12593 35f6 08       		.byte	0x8
 12594 35f7 47       		.uleb128 0x47
 12595 35f8 FC000000 		.long	.LASF328
 12596 35fc FC000000 		.long	.LASF328
 12597 3600 25       		.byte	0x25
 12598 3601 36       		.byte	0x36
 12599 3602 06       		.byte	0x6
 12600 3603 47       		.uleb128 0x47
 12601 3604 7F0B0000 		.long	.LASF329
 12602 3608 7F0B0000 		.long	.LASF329
 12603 360c 25       		.byte	0x25
 12604 360d 4D       		.byte	0x4d
 12605 360e 06       		.byte	0x6
 12606 360f 47       		.uleb128 0x47
 12607 3610 E7040000 		.long	.LASF330
 12608 3614 E7040000 		.long	.LASF330
 12609 3618 26       		.byte	0x26
 12610 3619 FD       		.byte	0xfd
 12611 361a 08       		.byte	0x8
 12612 361b 47       		.uleb128 0x47
 12613 361c 84050000 		.long	.LASF331
 12614 3620 84050000 		.long	.LASF331
 12615 3624 27       		.byte	0x27
 12616 3625 0D       		.byte	0xd
 12617 3626 06       		.byte	0x6
 12618 3627 47       		.uleb128 0x47
 12619 3628 4F020000 		.long	.LASF332
 12620 362c 4F020000 		.long	.LASF332
 12621 3630 25       		.byte	0x25
 12622 3631 56       		.byte	0x56
 12623 3632 06       		.byte	0x6
 12624 3633 47       		.uleb128 0x47
 12625 3634 F8040000 		.long	.LASF333
 12626 3638 F8040000 		.long	.LASF333
 12627 363c 22       		.byte	0x22
 12628 363d 18       		.byte	0x18
 12629 363e 06       		.byte	0x6
GAS LISTING /tmp/ccffpNMU.s 			page 232


 12630 363f 47       		.uleb128 0x47
 12631 3640 4A0B0000 		.long	.LASF334
 12632 3644 4A0B0000 		.long	.LASF334
 12633 3648 22       		.byte	0x22
 12634 3649 19       		.byte	0x19
 12635 364a 06       		.byte	0x6
 12636 364b 47       		.uleb128 0x47
 12637 364c 6F030000 		.long	.LASF335
 12638 3650 6F030000 		.long	.LASF335
 12639 3654 27       		.byte	0x27
 12640 3655 0E       		.byte	0xe
 12641 3656 06       		.byte	0x6
 12642 3657 00       		.byte	0
 12643              		.section	.debug_abbrev,"",@progbits
 12644              	.Ldebug_abbrev0:
 12645 0000 01       		.uleb128 0x1
 12646 0001 11       		.uleb128 0x11
 12647 0002 01       		.byte	0x1
 12648 0003 25       		.uleb128 0x25
 12649 0004 0E       		.uleb128 0xe
 12650 0005 13       		.uleb128 0x13
 12651 0006 0B       		.uleb128 0xb
 12652 0007 03       		.uleb128 0x3
 12653 0008 0E       		.uleb128 0xe
 12654 0009 1B       		.uleb128 0x1b
 12655 000a 0E       		.uleb128 0xe
 12656 000b 55       		.uleb128 0x55
 12657 000c 17       		.uleb128 0x17
 12658 000d 11       		.uleb128 0x11
 12659 000e 01       		.uleb128 0x1
 12660 000f 10       		.uleb128 0x10
 12661 0010 17       		.uleb128 0x17
 12662 0011 00       		.byte	0
 12663 0012 00       		.byte	0
 12664 0013 02       		.uleb128 0x2
 12665 0014 24       		.uleb128 0x24
 12666 0015 00       		.byte	0
 12667 0016 0B       		.uleb128 0xb
 12668 0017 0B       		.uleb128 0xb
 12669 0018 3E       		.uleb128 0x3e
 12670 0019 0B       		.uleb128 0xb
 12671 001a 03       		.uleb128 0x3
 12672 001b 08       		.uleb128 0x8
 12673 001c 00       		.byte	0
 12674 001d 00       		.byte	0
 12675 001e 03       		.uleb128 0x3
 12676 001f 16       		.uleb128 0x16
 12677 0020 00       		.byte	0
 12678 0021 03       		.uleb128 0x3
 12679 0022 0E       		.uleb128 0xe
 12680 0023 3A       		.uleb128 0x3a
 12681 0024 0B       		.uleb128 0xb
 12682 0025 3B       		.uleb128 0x3b
 12683 0026 0B       		.uleb128 0xb
 12684 0027 39       		.uleb128 0x39
 12685 0028 0B       		.uleb128 0xb
 12686 0029 49       		.uleb128 0x49
GAS LISTING /tmp/ccffpNMU.s 			page 233


 12687 002a 13       		.uleb128 0x13
 12688 002b 00       		.byte	0
 12689 002c 00       		.byte	0
 12690 002d 04       		.uleb128 0x4
 12691 002e 35       		.uleb128 0x35
 12692 002f 00       		.byte	0
 12693 0030 49       		.uleb128 0x49
 12694 0031 13       		.uleb128 0x13
 12695 0032 00       		.byte	0
 12696 0033 00       		.byte	0
 12697 0034 05       		.uleb128 0x5
 12698 0035 24       		.uleb128 0x24
 12699 0036 00       		.byte	0
 12700 0037 0B       		.uleb128 0xb
 12701 0038 0B       		.uleb128 0xb
 12702 0039 3E       		.uleb128 0x3e
 12703 003a 0B       		.uleb128 0xb
 12704 003b 03       		.uleb128 0x3
 12705 003c 0E       		.uleb128 0xe
 12706 003d 00       		.byte	0
 12707 003e 00       		.byte	0
 12708 003f 06       		.uleb128 0x6
 12709 0040 0F       		.uleb128 0xf
 12710 0041 00       		.byte	0
 12711 0042 0B       		.uleb128 0xb
 12712 0043 0B       		.uleb128 0xb
 12713 0044 00       		.byte	0
 12714 0045 00       		.byte	0
 12715 0046 07       		.uleb128 0x7
 12716 0047 0F       		.uleb128 0xf
 12717 0048 00       		.byte	0
 12718 0049 0B       		.uleb128 0xb
 12719 004a 0B       		.uleb128 0xb
 12720 004b 49       		.uleb128 0x49
 12721 004c 13       		.uleb128 0x13
 12722 004d 00       		.byte	0
 12723 004e 00       		.byte	0
 12724 004f 08       		.uleb128 0x8
 12725 0050 26       		.uleb128 0x26
 12726 0051 00       		.byte	0
 12727 0052 49       		.uleb128 0x49
 12728 0053 13       		.uleb128 0x13
 12729 0054 00       		.byte	0
 12730 0055 00       		.byte	0
 12731 0056 09       		.uleb128 0x9
 12732 0057 13       		.uleb128 0x13
 12733 0058 01       		.byte	0x1
 12734 0059 03       		.uleb128 0x3
 12735 005a 0E       		.uleb128 0xe
 12736 005b 0B       		.uleb128 0xb
 12737 005c 0B       		.uleb128 0xb
 12738 005d 3A       		.uleb128 0x3a
 12739 005e 0B       		.uleb128 0xb
 12740 005f 3B       		.uleb128 0x3b
 12741 0060 0B       		.uleb128 0xb
 12742 0061 39       		.uleb128 0x39
 12743 0062 0B       		.uleb128 0xb
GAS LISTING /tmp/ccffpNMU.s 			page 234


 12744 0063 01       		.uleb128 0x1
 12745 0064 13       		.uleb128 0x13
 12746 0065 00       		.byte	0
 12747 0066 00       		.byte	0
 12748 0067 0A       		.uleb128 0xa
 12749 0068 0D       		.uleb128 0xd
 12750 0069 00       		.byte	0
 12751 006a 03       		.uleb128 0x3
 12752 006b 0E       		.uleb128 0xe
 12753 006c 3A       		.uleb128 0x3a
 12754 006d 0B       		.uleb128 0xb
 12755 006e 3B       		.uleb128 0x3b
 12756 006f 0B       		.uleb128 0xb
 12757 0070 39       		.uleb128 0x39
 12758 0071 0B       		.uleb128 0xb
 12759 0072 49       		.uleb128 0x49
 12760 0073 13       		.uleb128 0x13
 12761 0074 38       		.uleb128 0x38
 12762 0075 0B       		.uleb128 0xb
 12763 0076 00       		.byte	0
 12764 0077 00       		.byte	0
 12765 0078 0B       		.uleb128 0xb
 12766 0079 0D       		.uleb128 0xd
 12767 007a 00       		.byte	0
 12768 007b 03       		.uleb128 0x3
 12769 007c 08       		.uleb128 0x8
 12770 007d 3A       		.uleb128 0x3a
 12771 007e 0B       		.uleb128 0xb
 12772 007f 3B       		.uleb128 0x3b
 12773 0080 0B       		.uleb128 0xb
 12774 0081 39       		.uleb128 0x39
 12775 0082 0B       		.uleb128 0xb
 12776 0083 49       		.uleb128 0x49
 12777 0084 13       		.uleb128 0x13
 12778 0085 38       		.uleb128 0x38
 12779 0086 0B       		.uleb128 0xb
 12780 0087 00       		.byte	0
 12781 0088 00       		.byte	0
 12782 0089 0C       		.uleb128 0xc
 12783 008a 0D       		.uleb128 0xd
 12784 008b 00       		.byte	0
 12785 008c 03       		.uleb128 0x3
 12786 008d 08       		.uleb128 0x8
 12787 008e 3A       		.uleb128 0x3a
 12788 008f 0B       		.uleb128 0xb
 12789 0090 3B       		.uleb128 0x3b
 12790 0091 05       		.uleb128 0x5
 12791 0092 39       		.uleb128 0x39
 12792 0093 0B       		.uleb128 0xb
 12793 0094 49       		.uleb128 0x49
 12794 0095 13       		.uleb128 0x13
 12795 0096 38       		.uleb128 0x38
 12796 0097 0B       		.uleb128 0xb
 12797 0098 00       		.byte	0
 12798 0099 00       		.byte	0
 12799 009a 0D       		.uleb128 0xd
 12800 009b 0D       		.uleb128 0xd
GAS LISTING /tmp/ccffpNMU.s 			page 235


 12801 009c 00       		.byte	0
 12802 009d 03       		.uleb128 0x3
 12803 009e 0E       		.uleb128 0xe
 12804 009f 3A       		.uleb128 0x3a
 12805 00a0 0B       		.uleb128 0xb
 12806 00a1 3B       		.uleb128 0x3b
 12807 00a2 05       		.uleb128 0x5
 12808 00a3 39       		.uleb128 0x39
 12809 00a4 0B       		.uleb128 0xb
 12810 00a5 49       		.uleb128 0x49
 12811 00a6 13       		.uleb128 0x13
 12812 00a7 38       		.uleb128 0x38
 12813 00a8 0B       		.uleb128 0xb
 12814 00a9 00       		.byte	0
 12815 00aa 00       		.byte	0
 12816 00ab 0E       		.uleb128 0xe
 12817 00ac 13       		.uleb128 0x13
 12818 00ad 01       		.byte	0x1
 12819 00ae 03       		.uleb128 0x3
 12820 00af 0E       		.uleb128 0xe
 12821 00b0 0B       		.uleb128 0xb
 12822 00b1 0B       		.uleb128 0xb
 12823 00b2 3A       		.uleb128 0x3a
 12824 00b3 0B       		.uleb128 0xb
 12825 00b4 3B       		.uleb128 0x3b
 12826 00b5 05       		.uleb128 0x5
 12827 00b6 39       		.uleb128 0x39
 12828 00b7 0B       		.uleb128 0xb
 12829 00b8 01       		.uleb128 0x1
 12830 00b9 13       		.uleb128 0x13
 12831 00ba 00       		.byte	0
 12832 00bb 00       		.byte	0
 12833 00bc 0F       		.uleb128 0xf
 12834 00bd 15       		.uleb128 0x15
 12835 00be 01       		.byte	0x1
 12836 00bf 27       		.uleb128 0x27
 12837 00c0 19       		.uleb128 0x19
 12838 00c1 01       		.uleb128 0x1
 12839 00c2 13       		.uleb128 0x13
 12840 00c3 00       		.byte	0
 12841 00c4 00       		.byte	0
 12842 00c5 10       		.uleb128 0x10
 12843 00c6 05       		.uleb128 0x5
 12844 00c7 00       		.byte	0
 12845 00c8 49       		.uleb128 0x49
 12846 00c9 13       		.uleb128 0x13
 12847 00ca 00       		.byte	0
 12848 00cb 00       		.byte	0
 12849 00cc 11       		.uleb128 0x11
 12850 00cd 13       		.uleb128 0x13
 12851 00ce 01       		.byte	0x1
 12852 00cf 0B       		.uleb128 0xb
 12853 00d0 0B       		.uleb128 0xb
 12854 00d1 3A       		.uleb128 0x3a
 12855 00d2 0B       		.uleb128 0xb
 12856 00d3 3B       		.uleb128 0x3b
 12857 00d4 0B       		.uleb128 0xb
GAS LISTING /tmp/ccffpNMU.s 			page 236


 12858 00d5 39       		.uleb128 0x39
 12859 00d6 0B       		.uleb128 0xb
 12860 00d7 01       		.uleb128 0x1
 12861 00d8 13       		.uleb128 0x13
 12862 00d9 00       		.byte	0
 12863 00da 00       		.byte	0
 12864 00db 12       		.uleb128 0x12
 12865 00dc 01       		.uleb128 0x1
 12866 00dd 01       		.byte	0x1
 12867 00de 49       		.uleb128 0x49
 12868 00df 13       		.uleb128 0x13
 12869 00e0 01       		.uleb128 0x1
 12870 00e1 13       		.uleb128 0x13
 12871 00e2 00       		.byte	0
 12872 00e3 00       		.byte	0
 12873 00e4 13       		.uleb128 0x13
 12874 00e5 21       		.uleb128 0x21
 12875 00e6 00       		.byte	0
 12876 00e7 49       		.uleb128 0x49
 12877 00e8 13       		.uleb128 0x13
 12878 00e9 2F       		.uleb128 0x2f
 12879 00ea 0B       		.uleb128 0xb
 12880 00eb 00       		.byte	0
 12881 00ec 00       		.byte	0
 12882 00ed 14       		.uleb128 0x14
 12883 00ee 16       		.uleb128 0x16
 12884 00ef 00       		.byte	0
 12885 00f0 03       		.uleb128 0x3
 12886 00f1 0E       		.uleb128 0xe
 12887 00f2 3A       		.uleb128 0x3a
 12888 00f3 0B       		.uleb128 0xb
 12889 00f4 3B       		.uleb128 0x3b
 12890 00f5 0B       		.uleb128 0xb
 12891 00f6 39       		.uleb128 0x39
 12892 00f7 0B       		.uleb128 0xb
 12893 00f8 49       		.uleb128 0x49
 12894 00f9 13       		.uleb128 0x13
 12895 00fa 8801     		.uleb128 0x88
 12896 00fc 0B       		.uleb128 0xb
 12897 00fd 00       		.byte	0
 12898 00fe 00       		.byte	0
 12899 00ff 15       		.uleb128 0x15
 12900 0100 34       		.uleb128 0x34
 12901 0101 00       		.byte	0
 12902 0102 03       		.uleb128 0x3
 12903 0103 0E       		.uleb128 0xe
 12904 0104 3A       		.uleb128 0x3a
 12905 0105 0B       		.uleb128 0xb
 12906 0106 3B       		.uleb128 0x3b
 12907 0107 05       		.uleb128 0x5
 12908 0108 39       		.uleb128 0x39
 12909 0109 0B       		.uleb128 0xb
 12910 010a 49       		.uleb128 0x49
 12911 010b 13       		.uleb128 0x13
 12912 010c 3F       		.uleb128 0x3f
 12913 010d 19       		.uleb128 0x19
 12914 010e 3C       		.uleb128 0x3c
GAS LISTING /tmp/ccffpNMU.s 			page 237


 12915 010f 19       		.uleb128 0x19
 12916 0110 00       		.byte	0
 12917 0111 00       		.byte	0
 12918 0112 16       		.uleb128 0x16
 12919 0113 17       		.uleb128 0x17
 12920 0114 01       		.byte	0x1
 12921 0115 0B       		.uleb128 0xb
 12922 0116 0B       		.uleb128 0xb
 12923 0117 3A       		.uleb128 0x3a
 12924 0118 0B       		.uleb128 0xb
 12925 0119 3B       		.uleb128 0x3b
 12926 011a 0B       		.uleb128 0xb
 12927 011b 39       		.uleb128 0x39
 12928 011c 0B       		.uleb128 0xb
 12929 011d 01       		.uleb128 0x1
 12930 011e 13       		.uleb128 0x13
 12931 011f 00       		.byte	0
 12932 0120 00       		.byte	0
 12933 0121 17       		.uleb128 0x17
 12934 0122 0D       		.uleb128 0xd
 12935 0123 00       		.byte	0
 12936 0124 03       		.uleb128 0x3
 12937 0125 0E       		.uleb128 0xe
 12938 0126 3A       		.uleb128 0x3a
 12939 0127 0B       		.uleb128 0xb
 12940 0128 3B       		.uleb128 0x3b
 12941 0129 0B       		.uleb128 0xb
 12942 012a 39       		.uleb128 0x39
 12943 012b 0B       		.uleb128 0xb
 12944 012c 49       		.uleb128 0x49
 12945 012d 13       		.uleb128 0x13
 12946 012e 00       		.byte	0
 12947 012f 00       		.byte	0
 12948 0130 18       		.uleb128 0x18
 12949 0131 0D       		.uleb128 0xd
 12950 0132 00       		.byte	0
 12951 0133 03       		.uleb128 0x3
 12952 0134 0E       		.uleb128 0xe
 12953 0135 3A       		.uleb128 0x3a
 12954 0136 0B       		.uleb128 0xb
 12955 0137 3B       		.uleb128 0x3b
 12956 0138 05       		.uleb128 0x5
 12957 0139 39       		.uleb128 0x39
 12958 013a 0B       		.uleb128 0xb
 12959 013b 49       		.uleb128 0x49
 12960 013c 13       		.uleb128 0x13
 12961 013d 00       		.byte	0
 12962 013e 00       		.byte	0
 12963 013f 19       		.uleb128 0x19
 12964 0140 34       		.uleb128 0x34
 12965 0141 00       		.byte	0
 12966 0142 03       		.uleb128 0x3
 12967 0143 08       		.uleb128 0x8
 12968 0144 3A       		.uleb128 0x3a
 12969 0145 0B       		.uleb128 0xb
 12970 0146 3B       		.uleb128 0x3b
 12971 0147 05       		.uleb128 0x5
GAS LISTING /tmp/ccffpNMU.s 			page 238


 12972 0148 39       		.uleb128 0x39
 12973 0149 0B       		.uleb128 0xb
 12974 014a 49       		.uleb128 0x49
 12975 014b 13       		.uleb128 0x13
 12976 014c 3F       		.uleb128 0x3f
 12977 014d 19       		.uleb128 0x19
 12978 014e 3C       		.uleb128 0x3c
 12979 014f 19       		.uleb128 0x19
 12980 0150 00       		.byte	0
 12981 0151 00       		.byte	0
 12982 0152 1A       		.uleb128 0x1a
 12983 0153 01       		.uleb128 0x1
 12984 0154 01       		.byte	0x1
 12985 0155 49       		.uleb128 0x49
 12986 0156 13       		.uleb128 0x13
 12987 0157 8801     		.uleb128 0x88
 12988 0159 0B       		.uleb128 0xb
 12989 015a 01       		.uleb128 0x1
 12990 015b 13       		.uleb128 0x13
 12991 015c 00       		.byte	0
 12992 015d 00       		.byte	0
 12993 015e 1B       		.uleb128 0x1b
 12994 015f 21       		.uleb128 0x21
 12995 0160 00       		.byte	0
 12996 0161 00       		.byte	0
 12997 0162 00       		.byte	0
 12998 0163 1C       		.uleb128 0x1c
 12999 0164 34       		.uleb128 0x34
 13000 0165 00       		.byte	0
 13001 0166 03       		.uleb128 0x3
 13002 0167 0E       		.uleb128 0xe
 13003 0168 3A       		.uleb128 0x3a
 13004 0169 0B       		.uleb128 0xb
 13005 016a 3B       		.uleb128 0x3b
 13006 016b 0B       		.uleb128 0xb
 13007 016c 39       		.uleb128 0x39
 13008 016d 0B       		.uleb128 0xb
 13009 016e 49       		.uleb128 0x49
 13010 016f 13       		.uleb128 0x13
 13011 0170 3F       		.uleb128 0x3f
 13012 0171 19       		.uleb128 0x19
 13013 0172 3C       		.uleb128 0x3c
 13014 0173 19       		.uleb128 0x19
 13015 0174 00       		.byte	0
 13016 0175 00       		.byte	0
 13017 0176 1D       		.uleb128 0x1d
 13018 0177 15       		.uleb128 0x15
 13019 0178 01       		.byte	0x1
 13020 0179 27       		.uleb128 0x27
 13021 017a 19       		.uleb128 0x19
 13022 017b 49       		.uleb128 0x49
 13023 017c 13       		.uleb128 0x13
 13024 017d 01       		.uleb128 0x1
 13025 017e 13       		.uleb128 0x13
 13026 017f 00       		.byte	0
 13027 0180 00       		.byte	0
 13028 0181 1E       		.uleb128 0x1e
GAS LISTING /tmp/ccffpNMU.s 			page 239


 13029 0182 16       		.uleb128 0x16
 13030 0183 00       		.byte	0
 13031 0184 03       		.uleb128 0x3
 13032 0185 0E       		.uleb128 0xe
 13033 0186 3A       		.uleb128 0x3a
 13034 0187 0B       		.uleb128 0xb
 13035 0188 3B       		.uleb128 0x3b
 13036 0189 05       		.uleb128 0x5
 13037 018a 39       		.uleb128 0x39
 13038 018b 0B       		.uleb128 0xb
 13039 018c 49       		.uleb128 0x49
 13040 018d 13       		.uleb128 0x13
 13041 018e 00       		.byte	0
 13042 018f 00       		.byte	0
 13043 0190 1F       		.uleb128 0x1f
 13044 0191 16       		.uleb128 0x16
 13045 0192 00       		.byte	0
 13046 0193 03       		.uleb128 0x3
 13047 0194 0E       		.uleb128 0xe
 13048 0195 3A       		.uleb128 0x3a
 13049 0196 0B       		.uleb128 0xb
 13050 0197 3B       		.uleb128 0x3b
 13051 0198 0B       		.uleb128 0xb
 13052 0199 39       		.uleb128 0x39
 13053 019a 0B       		.uleb128 0xb
 13054 019b 00       		.byte	0
 13055 019c 00       		.byte	0
 13056 019d 20       		.uleb128 0x20
 13057 019e 13       		.uleb128 0x13
 13058 019f 00       		.byte	0
 13059 01a0 03       		.uleb128 0x3
 13060 01a1 0E       		.uleb128 0xe
 13061 01a2 3C       		.uleb128 0x3c
 13062 01a3 19       		.uleb128 0x19
 13063 01a4 00       		.byte	0
 13064 01a5 00       		.byte	0
 13065 01a6 21       		.uleb128 0x21
 13066 01a7 04       		.uleb128 0x4
 13067 01a8 01       		.byte	0x1
 13068 01a9 3E       		.uleb128 0x3e
 13069 01aa 0B       		.uleb128 0xb
 13070 01ab 0B       		.uleb128 0xb
 13071 01ac 0B       		.uleb128 0xb
 13072 01ad 49       		.uleb128 0x49
 13073 01ae 13       		.uleb128 0x13
 13074 01af 3A       		.uleb128 0x3a
 13075 01b0 0B       		.uleb128 0xb
 13076 01b1 3B       		.uleb128 0x3b
 13077 01b2 0B       		.uleb128 0xb
 13078 01b3 39       		.uleb128 0x39
 13079 01b4 0B       		.uleb128 0xb
 13080 01b5 01       		.uleb128 0x1
 13081 01b6 13       		.uleb128 0x13
 13082 01b7 00       		.byte	0
 13083 01b8 00       		.byte	0
 13084 01b9 22       		.uleb128 0x22
 13085 01ba 28       		.uleb128 0x28
GAS LISTING /tmp/ccffpNMU.s 			page 240


 13086 01bb 00       		.byte	0
 13087 01bc 03       		.uleb128 0x3
 13088 01bd 0E       		.uleb128 0xe
 13089 01be 1C       		.uleb128 0x1c
 13090 01bf 0B       		.uleb128 0xb
 13091 01c0 00       		.byte	0
 13092 01c1 00       		.byte	0
 13093 01c2 23       		.uleb128 0x23
 13094 01c3 34       		.uleb128 0x34
 13095 01c4 00       		.byte	0
 13096 01c5 03       		.uleb128 0x3
 13097 01c6 08       		.uleb128 0x8
 13098 01c7 3A       		.uleb128 0x3a
 13099 01c8 0B       		.uleb128 0xb
 13100 01c9 3B       		.uleb128 0x3b
 13101 01ca 0B       		.uleb128 0xb
 13102 01cb 39       		.uleb128 0x39
 13103 01cc 0B       		.uleb128 0xb
 13104 01cd 49       		.uleb128 0x49
 13105 01ce 13       		.uleb128 0x13
 13106 01cf 3F       		.uleb128 0x3f
 13107 01d0 19       		.uleb128 0x19
 13108 01d1 3C       		.uleb128 0x3c
 13109 01d2 19       		.uleb128 0x19
 13110 01d3 00       		.byte	0
 13111 01d4 00       		.byte	0
 13112 01d5 24       		.uleb128 0x24
 13113 01d6 37       		.uleb128 0x37
 13114 01d7 00       		.byte	0
 13115 01d8 49       		.uleb128 0x49
 13116 01d9 13       		.uleb128 0x13
 13117 01da 00       		.byte	0
 13118 01db 00       		.byte	0
 13119 01dc 25       		.uleb128 0x25
 13120 01dd 34       		.uleb128 0x34
 13121 01de 00       		.byte	0
 13122 01df 03       		.uleb128 0x3
 13123 01e0 0E       		.uleb128 0xe
 13124 01e1 3A       		.uleb128 0x3a
 13125 01e2 0B       		.uleb128 0xb
 13126 01e3 3B       		.uleb128 0x3b
 13127 01e4 0B       		.uleb128 0xb
 13128 01e5 39       		.uleb128 0x39
 13129 01e6 0B       		.uleb128 0xb
 13130 01e7 49       		.uleb128 0x49
 13131 01e8 13       		.uleb128 0x13
 13132 01e9 3F       		.uleb128 0x3f
 13133 01ea 19       		.uleb128 0x19
 13134 01eb 02       		.uleb128 0x2
 13135 01ec 18       		.uleb128 0x18
 13136 01ed 00       		.byte	0
 13137 01ee 00       		.byte	0
 13138 01ef 26       		.uleb128 0x26
 13139 01f0 2E       		.uleb128 0x2e
 13140 01f1 01       		.byte	0x1
 13141 01f2 3F       		.uleb128 0x3f
 13142 01f3 19       		.uleb128 0x19
GAS LISTING /tmp/ccffpNMU.s 			page 241


 13143 01f4 03       		.uleb128 0x3
 13144 01f5 0E       		.uleb128 0xe
 13145 01f6 3A       		.uleb128 0x3a
 13146 01f7 0B       		.uleb128 0xb
 13147 01f8 3B       		.uleb128 0x3b
 13148 01f9 05       		.uleb128 0x5
 13149 01fa 39       		.uleb128 0x39
 13150 01fb 0B       		.uleb128 0xb
 13151 01fc 27       		.uleb128 0x27
 13152 01fd 19       		.uleb128 0x19
 13153 01fe 11       		.uleb128 0x11
 13154 01ff 01       		.uleb128 0x1
 13155 0200 12       		.uleb128 0x12
 13156 0201 06       		.uleb128 0x6
 13157 0202 40       		.uleb128 0x40
 13158 0203 18       		.uleb128 0x18
 13159 0204 9742     		.uleb128 0x2117
 13160 0206 19       		.uleb128 0x19
 13161 0207 01       		.uleb128 0x1
 13162 0208 13       		.uleb128 0x13
 13163 0209 00       		.byte	0
 13164 020a 00       		.byte	0
 13165 020b 27       		.uleb128 0x27
 13166 020c 05       		.uleb128 0x5
 13167 020d 00       		.byte	0
 13168 020e 03       		.uleb128 0x3
 13169 020f 0E       		.uleb128 0xe
 13170 0210 3A       		.uleb128 0x3a
 13171 0211 0B       		.uleb128 0xb
 13172 0212 3B       		.uleb128 0x3b
 13173 0213 05       		.uleb128 0x5
 13174 0214 39       		.uleb128 0x39
 13175 0215 0B       		.uleb128 0xb
 13176 0216 49       		.uleb128 0x49
 13177 0217 13       		.uleb128 0x13
 13178 0218 02       		.uleb128 0x2
 13179 0219 18       		.uleb128 0x18
 13180 021a 00       		.byte	0
 13181 021b 00       		.byte	0
 13182 021c 28       		.uleb128 0x28
 13183 021d 34       		.uleb128 0x34
 13184 021e 00       		.byte	0
 13185 021f 03       		.uleb128 0x3
 13186 0220 0E       		.uleb128 0xe
 13187 0221 3A       		.uleb128 0x3a
 13188 0222 0B       		.uleb128 0xb
 13189 0223 3B       		.uleb128 0x3b
 13190 0224 05       		.uleb128 0x5
 13191 0225 39       		.uleb128 0x39
 13192 0226 0B       		.uleb128 0xb
 13193 0227 49       		.uleb128 0x49
 13194 0228 13       		.uleb128 0x13
 13195 0229 1C       		.uleb128 0x1c
 13196 022a 0B       		.uleb128 0xb
 13197 022b 00       		.byte	0
 13198 022c 00       		.byte	0
 13199 022d 29       		.uleb128 0x29
GAS LISTING /tmp/ccffpNMU.s 			page 242


 13200 022e 34       		.uleb128 0x34
 13201 022f 00       		.byte	0
 13202 0230 03       		.uleb128 0x3
 13203 0231 0E       		.uleb128 0xe
 13204 0232 3A       		.uleb128 0x3a
 13205 0233 0B       		.uleb128 0xb
 13206 0234 3B       		.uleb128 0x3b
 13207 0235 05       		.uleb128 0x5
 13208 0236 39       		.uleb128 0x39
 13209 0237 0B       		.uleb128 0xb
 13210 0238 49       		.uleb128 0x49
 13211 0239 13       		.uleb128 0x13
 13212 023a 02       		.uleb128 0x2
 13213 023b 17       		.uleb128 0x17
 13214 023c B742     		.uleb128 0x2137
 13215 023e 17       		.uleb128 0x17
 13216 023f 00       		.byte	0
 13217 0240 00       		.byte	0
 13218 0241 2A       		.uleb128 0x2a
 13219 0242 0B       		.uleb128 0xb
 13220 0243 01       		.byte	0x1
 13221 0244 55       		.uleb128 0x55
 13222 0245 17       		.uleb128 0x17
 13223 0246 01       		.uleb128 0x1
 13224 0247 13       		.uleb128 0x13
 13225 0248 00       		.byte	0
 13226 0249 00       		.byte	0
 13227 024a 2B       		.uleb128 0x2b
 13228 024b 34       		.uleb128 0x34
 13229 024c 00       		.byte	0
 13230 024d 03       		.uleb128 0x3
 13231 024e 08       		.uleb128 0x8
 13232 024f 3A       		.uleb128 0x3a
 13233 0250 0B       		.uleb128 0xb
 13234 0251 3B       		.uleb128 0x3b
 13235 0252 05       		.uleb128 0x5
 13236 0253 39       		.uleb128 0x39
 13237 0254 0B       		.uleb128 0xb
 13238 0255 49       		.uleb128 0x49
 13239 0256 13       		.uleb128 0x13
 13240 0257 02       		.uleb128 0x2
 13241 0258 17       		.uleb128 0x17
 13242 0259 B742     		.uleb128 0x2137
 13243 025b 17       		.uleb128 0x17
 13244 025c 00       		.byte	0
 13245 025d 00       		.byte	0
 13246 025e 2C       		.uleb128 0x2c
 13247 025f 898201   		.uleb128 0x4109
 13248 0262 00       		.byte	0
 13249 0263 11       		.uleb128 0x11
 13250 0264 01       		.uleb128 0x1
 13251 0265 31       		.uleb128 0x31
 13252 0266 13       		.uleb128 0x13
 13253 0267 00       		.byte	0
 13254 0268 00       		.byte	0
 13255 0269 2D       		.uleb128 0x2d
 13256 026a 1D       		.uleb128 0x1d
GAS LISTING /tmp/ccffpNMU.s 			page 243


 13257 026b 01       		.byte	0x1
 13258 026c 31       		.uleb128 0x31
 13259 026d 13       		.uleb128 0x13
 13260 026e 52       		.uleb128 0x52
 13261 026f 01       		.uleb128 0x1
 13262 0270 B842     		.uleb128 0x2138
 13263 0272 0B       		.uleb128 0xb
 13264 0273 55       		.uleb128 0x55
 13265 0274 17       		.uleb128 0x17
 13266 0275 58       		.uleb128 0x58
 13267 0276 0B       		.uleb128 0xb
 13268 0277 59       		.uleb128 0x59
 13269 0278 05       		.uleb128 0x5
 13270 0279 57       		.uleb128 0x57
 13271 027a 0B       		.uleb128 0xb
 13272 027b 01       		.uleb128 0x1
 13273 027c 13       		.uleb128 0x13
 13274 027d 00       		.byte	0
 13275 027e 00       		.byte	0
 13276 027f 2E       		.uleb128 0x2e
 13277 0280 05       		.uleb128 0x5
 13278 0281 00       		.byte	0
 13279 0282 31       		.uleb128 0x31
 13280 0283 13       		.uleb128 0x13
 13281 0284 02       		.uleb128 0x2
 13282 0285 17       		.uleb128 0x17
 13283 0286 B742     		.uleb128 0x2137
 13284 0288 17       		.uleb128 0x17
 13285 0289 00       		.byte	0
 13286 028a 00       		.byte	0
 13287 028b 2F       		.uleb128 0x2f
 13288 028c 1D       		.uleb128 0x1d
 13289 028d 00       		.byte	0
 13290 028e 31       		.uleb128 0x31
 13291 028f 13       		.uleb128 0x13
 13292 0290 52       		.uleb128 0x52
 13293 0291 01       		.uleb128 0x1
 13294 0292 B842     		.uleb128 0x2138
 13295 0294 0B       		.uleb128 0xb
 13296 0295 55       		.uleb128 0x55
 13297 0296 17       		.uleb128 0x17
 13298 0297 58       		.uleb128 0x58
 13299 0298 0B       		.uleb128 0xb
 13300 0299 59       		.uleb128 0x59
 13301 029a 05       		.uleb128 0x5
 13302 029b 57       		.uleb128 0x57
 13303 029c 0B       		.uleb128 0xb
 13304 029d 00       		.byte	0
 13305 029e 00       		.byte	0
 13306 029f 30       		.uleb128 0x30
 13307 02a0 05       		.uleb128 0x5
 13308 02a1 00       		.byte	0
 13309 02a2 31       		.uleb128 0x31
 13310 02a3 13       		.uleb128 0x13
 13311 02a4 00       		.byte	0
 13312 02a5 00       		.byte	0
 13313 02a6 31       		.uleb128 0x31
GAS LISTING /tmp/ccffpNMU.s 			page 244


 13314 02a7 0B       		.uleb128 0xb
 13315 02a8 01       		.byte	0x1
 13316 02a9 55       		.uleb128 0x55
 13317 02aa 17       		.uleb128 0x17
 13318 02ab 00       		.byte	0
 13319 02ac 00       		.byte	0
 13320 02ad 32       		.uleb128 0x32
 13321 02ae 1D       		.uleb128 0x1d
 13322 02af 01       		.byte	0x1
 13323 02b0 31       		.uleb128 0x31
 13324 02b1 13       		.uleb128 0x13
 13325 02b2 52       		.uleb128 0x52
 13326 02b3 01       		.uleb128 0x1
 13327 02b4 B842     		.uleb128 0x2138
 13328 02b6 0B       		.uleb128 0xb
 13329 02b7 11       		.uleb128 0x11
 13330 02b8 01       		.uleb128 0x1
 13331 02b9 12       		.uleb128 0x12
 13332 02ba 06       		.uleb128 0x6
 13333 02bb 58       		.uleb128 0x58
 13334 02bc 0B       		.uleb128 0xb
 13335 02bd 59       		.uleb128 0x59
 13336 02be 05       		.uleb128 0x5
 13337 02bf 57       		.uleb128 0x57
 13338 02c0 0B       		.uleb128 0xb
 13339 02c1 01       		.uleb128 0x1
 13340 02c2 13       		.uleb128 0x13
 13341 02c3 00       		.byte	0
 13342 02c4 00       		.byte	0
 13343 02c5 33       		.uleb128 0x33
 13344 02c6 0B       		.uleb128 0xb
 13345 02c7 01       		.byte	0x1
 13346 02c8 11       		.uleb128 0x11
 13347 02c9 01       		.uleb128 0x1
 13348 02ca 12       		.uleb128 0x12
 13349 02cb 06       		.uleb128 0x6
 13350 02cc 00       		.byte	0
 13351 02cd 00       		.byte	0
 13352 02ce 34       		.uleb128 0x34
 13353 02cf 1D       		.uleb128 0x1d
 13354 02d0 00       		.byte	0
 13355 02d1 31       		.uleb128 0x31
 13356 02d2 13       		.uleb128 0x13
 13357 02d3 52       		.uleb128 0x52
 13358 02d4 01       		.uleb128 0x1
 13359 02d5 B842     		.uleb128 0x2138
 13360 02d7 0B       		.uleb128 0xb
 13361 02d8 11       		.uleb128 0x11
 13362 02d9 01       		.uleb128 0x1
 13363 02da 12       		.uleb128 0x12
 13364 02db 06       		.uleb128 0x6
 13365 02dc 58       		.uleb128 0x58
 13366 02dd 0B       		.uleb128 0xb
 13367 02de 59       		.uleb128 0x59
 13368 02df 05       		.uleb128 0x5
 13369 02e0 57       		.uleb128 0x57
 13370 02e1 0B       		.uleb128 0xb
GAS LISTING /tmp/ccffpNMU.s 			page 245


 13371 02e2 00       		.byte	0
 13372 02e3 00       		.byte	0
 13373 02e4 35       		.uleb128 0x35
 13374 02e5 1D       		.uleb128 0x1d
 13375 02e6 01       		.byte	0x1
 13376 02e7 31       		.uleb128 0x31
 13377 02e8 13       		.uleb128 0x13
 13378 02e9 52       		.uleb128 0x52
 13379 02ea 01       		.uleb128 0x1
 13380 02eb B842     		.uleb128 0x2138
 13381 02ed 0B       		.uleb128 0xb
 13382 02ee 55       		.uleb128 0x55
 13383 02ef 17       		.uleb128 0x17
 13384 02f0 58       		.uleb128 0x58
 13385 02f1 0B       		.uleb128 0xb
 13386 02f2 59       		.uleb128 0x59
 13387 02f3 05       		.uleb128 0x5
 13388 02f4 57       		.uleb128 0x57
 13389 02f5 0B       		.uleb128 0xb
 13390 02f6 00       		.byte	0
 13391 02f7 00       		.byte	0
 13392 02f8 36       		.uleb128 0x36
 13393 02f9 2E       		.uleb128 0x2e
 13394 02fa 01       		.byte	0x1
 13395 02fb 3F       		.uleb128 0x3f
 13396 02fc 19       		.uleb128 0x19
 13397 02fd 03       		.uleb128 0x3
 13398 02fe 0E       		.uleb128 0xe
 13399 02ff 3A       		.uleb128 0x3a
 13400 0300 0B       		.uleb128 0xb
 13401 0301 3B       		.uleb128 0x3b
 13402 0302 0B       		.uleb128 0xb
 13403 0303 39       		.uleb128 0x39
 13404 0304 0B       		.uleb128 0xb
 13405 0305 27       		.uleb128 0x27
 13406 0306 19       		.uleb128 0x19
 13407 0307 11       		.uleb128 0x11
 13408 0308 01       		.uleb128 0x1
 13409 0309 12       		.uleb128 0x12
 13410 030a 06       		.uleb128 0x6
 13411 030b 40       		.uleb128 0x40
 13412 030c 18       		.uleb128 0x18
 13413 030d 9742     		.uleb128 0x2117
 13414 030f 19       		.uleb128 0x19
 13415 0310 01       		.uleb128 0x1
 13416 0311 13       		.uleb128 0x13
 13417 0312 00       		.byte	0
 13418 0313 00       		.byte	0
 13419 0314 37       		.uleb128 0x37
 13420 0315 05       		.uleb128 0x5
 13421 0316 00       		.byte	0
 13422 0317 03       		.uleb128 0x3
 13423 0318 0E       		.uleb128 0xe
 13424 0319 3A       		.uleb128 0x3a
 13425 031a 0B       		.uleb128 0xb
 13426 031b 3B       		.uleb128 0x3b
 13427 031c 0B       		.uleb128 0xb
GAS LISTING /tmp/ccffpNMU.s 			page 246


 13428 031d 39       		.uleb128 0x39
 13429 031e 0B       		.uleb128 0xb
 13430 031f 49       		.uleb128 0x49
 13431 0320 13       		.uleb128 0x13
 13432 0321 02       		.uleb128 0x2
 13433 0322 17       		.uleb128 0x17
 13434 0323 B742     		.uleb128 0x2137
 13435 0325 17       		.uleb128 0x17
 13436 0326 00       		.byte	0
 13437 0327 00       		.byte	0
 13438 0328 38       		.uleb128 0x38
 13439 0329 34       		.uleb128 0x34
 13440 032a 00       		.byte	0
 13441 032b 03       		.uleb128 0x3
 13442 032c 0E       		.uleb128 0xe
 13443 032d 3A       		.uleb128 0x3a
 13444 032e 0B       		.uleb128 0xb
 13445 032f 3B       		.uleb128 0x3b
 13446 0330 0B       		.uleb128 0xb
 13447 0331 39       		.uleb128 0x39
 13448 0332 0B       		.uleb128 0xb
 13449 0333 49       		.uleb128 0x49
 13450 0334 13       		.uleb128 0x13
 13451 0335 02       		.uleb128 0x2
 13452 0336 17       		.uleb128 0x17
 13453 0337 B742     		.uleb128 0x2137
 13454 0339 17       		.uleb128 0x17
 13455 033a 00       		.byte	0
 13456 033b 00       		.byte	0
 13457 033c 39       		.uleb128 0x39
 13458 033d 34       		.uleb128 0x34
 13459 033e 00       		.byte	0
 13460 033f 03       		.uleb128 0x3
 13461 0340 08       		.uleb128 0x8
 13462 0341 3A       		.uleb128 0x3a
 13463 0342 0B       		.uleb128 0xb
 13464 0343 3B       		.uleb128 0x3b
 13465 0344 0B       		.uleb128 0xb
 13466 0345 39       		.uleb128 0x39
 13467 0346 0B       		.uleb128 0xb
 13468 0347 49       		.uleb128 0x49
 13469 0348 13       		.uleb128 0x13
 13470 0349 02       		.uleb128 0x2
 13471 034a 17       		.uleb128 0x17
 13472 034b B742     		.uleb128 0x2137
 13473 034d 17       		.uleb128 0x17
 13474 034e 00       		.byte	0
 13475 034f 00       		.byte	0
 13476 0350 3A       		.uleb128 0x3a
 13477 0351 1D       		.uleb128 0x1d
 13478 0352 01       		.byte	0x1
 13479 0353 31       		.uleb128 0x31
 13480 0354 13       		.uleb128 0x13
 13481 0355 52       		.uleb128 0x52
 13482 0356 01       		.uleb128 0x1
 13483 0357 B842     		.uleb128 0x2138
 13484 0359 0B       		.uleb128 0xb
GAS LISTING /tmp/ccffpNMU.s 			page 247


 13485 035a 55       		.uleb128 0x55
 13486 035b 17       		.uleb128 0x17
 13487 035c 58       		.uleb128 0x58
 13488 035d 0B       		.uleb128 0xb
 13489 035e 59       		.uleb128 0x59
 13490 035f 0B       		.uleb128 0xb
 13491 0360 57       		.uleb128 0x57
 13492 0361 0B       		.uleb128 0xb
 13493 0362 01       		.uleb128 0x1
 13494 0363 13       		.uleb128 0x13
 13495 0364 00       		.byte	0
 13496 0365 00       		.byte	0
 13497 0366 3B       		.uleb128 0x3b
 13498 0367 898201   		.uleb128 0x4109
 13499 036a 00       		.byte	0
 13500 036b 11       		.uleb128 0x11
 13501 036c 01       		.uleb128 0x1
 13502 036d 9542     		.uleb128 0x2115
 13503 036f 19       		.uleb128 0x19
 13504 0370 31       		.uleb128 0x31
 13505 0371 13       		.uleb128 0x13
 13506 0372 00       		.byte	0
 13507 0373 00       		.byte	0
 13508 0374 3C       		.uleb128 0x3c
 13509 0375 05       		.uleb128 0x5
 13510 0376 00       		.byte	0
 13511 0377 03       		.uleb128 0x3
 13512 0378 0E       		.uleb128 0xe
 13513 0379 3A       		.uleb128 0x3a
 13514 037a 0B       		.uleb128 0xb
 13515 037b 3B       		.uleb128 0x3b
 13516 037c 0B       		.uleb128 0xb
 13517 037d 39       		.uleb128 0x39
 13518 037e 0B       		.uleb128 0xb
 13519 037f 49       		.uleb128 0x49
 13520 0380 13       		.uleb128 0x13
 13521 0381 02       		.uleb128 0x2
 13522 0382 18       		.uleb128 0x18
 13523 0383 00       		.byte	0
 13524 0384 00       		.byte	0
 13525 0385 3D       		.uleb128 0x3d
 13526 0386 0B       		.uleb128 0xb
 13527 0387 01       		.byte	0x1
 13528 0388 11       		.uleb128 0x11
 13529 0389 01       		.uleb128 0x1
 13530 038a 12       		.uleb128 0x12
 13531 038b 06       		.uleb128 0x6
 13532 038c 01       		.uleb128 0x1
 13533 038d 13       		.uleb128 0x13
 13534 038e 00       		.byte	0
 13535 038f 00       		.byte	0
 13536 0390 3E       		.uleb128 0x3e
 13537 0391 1D       		.uleb128 0x1d
 13538 0392 01       		.byte	0x1
 13539 0393 31       		.uleb128 0x31
 13540 0394 13       		.uleb128 0x13
 13541 0395 52       		.uleb128 0x52
GAS LISTING /tmp/ccffpNMU.s 			page 248


 13542 0396 01       		.uleb128 0x1
 13543 0397 B842     		.uleb128 0x2138
 13544 0399 0B       		.uleb128 0xb
 13545 039a 11       		.uleb128 0x11
 13546 039b 01       		.uleb128 0x1
 13547 039c 12       		.uleb128 0x12
 13548 039d 06       		.uleb128 0x6
 13549 039e 58       		.uleb128 0x58
 13550 039f 0B       		.uleb128 0xb
 13551 03a0 59       		.uleb128 0x59
 13552 03a1 0B       		.uleb128 0xb
 13553 03a2 57       		.uleb128 0x57
 13554 03a3 0B       		.uleb128 0xb
 13555 03a4 01       		.uleb128 0x1
 13556 03a5 13       		.uleb128 0x13
 13557 03a6 00       		.byte	0
 13558 03a7 00       		.byte	0
 13559 03a8 3F       		.uleb128 0x3f
 13560 03a9 34       		.uleb128 0x34
 13561 03aa 00       		.byte	0
 13562 03ab 03       		.uleb128 0x3
 13563 03ac 0E       		.uleb128 0xe
 13564 03ad 3A       		.uleb128 0x3a
 13565 03ae 0B       		.uleb128 0xb
 13566 03af 3B       		.uleb128 0x3b
 13567 03b0 0B       		.uleb128 0xb
 13568 03b1 39       		.uleb128 0x39
 13569 03b2 0B       		.uleb128 0xb
 13570 03b3 49       		.uleb128 0x49
 13571 03b4 13       		.uleb128 0x13
 13572 03b5 1C       		.uleb128 0x1c
 13573 03b6 0B       		.uleb128 0xb
 13574 03b7 00       		.byte	0
 13575 03b8 00       		.byte	0
 13576 03b9 40       		.uleb128 0x40
 13577 03ba 34       		.uleb128 0x34
 13578 03bb 00       		.byte	0
 13579 03bc 03       		.uleb128 0x3
 13580 03bd 0E       		.uleb128 0xe
 13581 03be 3A       		.uleb128 0x3a
 13582 03bf 0B       		.uleb128 0xb
 13583 03c0 3B       		.uleb128 0x3b
 13584 03c1 0B       		.uleb128 0xb
 13585 03c2 39       		.uleb128 0x39
 13586 03c3 0B       		.uleb128 0xb
 13587 03c4 49       		.uleb128 0x49
 13588 03c5 13       		.uleb128 0x13
 13589 03c6 02       		.uleb128 0x2
 13590 03c7 18       		.uleb128 0x18
 13591 03c8 00       		.byte	0
 13592 03c9 00       		.byte	0
 13593 03ca 41       		.uleb128 0x41
 13594 03cb 2E       		.uleb128 0x2e
 13595 03cc 01       		.byte	0x1
 13596 03cd 03       		.uleb128 0x3
 13597 03ce 0E       		.uleb128 0xe
 13598 03cf 3A       		.uleb128 0x3a
GAS LISTING /tmp/ccffpNMU.s 			page 249


 13599 03d0 0B       		.uleb128 0xb
 13600 03d1 3B       		.uleb128 0x3b
 13601 03d2 05       		.uleb128 0x5
 13602 03d3 39       		.uleb128 0x39
 13603 03d4 0B       		.uleb128 0xb
 13604 03d5 27       		.uleb128 0x27
 13605 03d6 19       		.uleb128 0x19
 13606 03d7 20       		.uleb128 0x20
 13607 03d8 0B       		.uleb128 0xb
 13608 03d9 01       		.uleb128 0x1
 13609 03da 13       		.uleb128 0x13
 13610 03db 00       		.byte	0
 13611 03dc 00       		.byte	0
 13612 03dd 42       		.uleb128 0x42
 13613 03de 05       		.uleb128 0x5
 13614 03df 00       		.byte	0
 13615 03e0 03       		.uleb128 0x3
 13616 03e1 08       		.uleb128 0x8
 13617 03e2 3A       		.uleb128 0x3a
 13618 03e3 0B       		.uleb128 0xb
 13619 03e4 3B       		.uleb128 0x3b
 13620 03e5 05       		.uleb128 0x5
 13621 03e6 39       		.uleb128 0x39
 13622 03e7 0B       		.uleb128 0xb
 13623 03e8 49       		.uleb128 0x49
 13624 03e9 13       		.uleb128 0x13
 13625 03ea 00       		.byte	0
 13626 03eb 00       		.byte	0
 13627 03ec 43       		.uleb128 0x43
 13628 03ed 2E       		.uleb128 0x2e
 13629 03ee 01       		.byte	0x1
 13630 03ef 03       		.uleb128 0x3
 13631 03f0 0E       		.uleb128 0xe
 13632 03f1 3A       		.uleb128 0x3a
 13633 03f2 0B       		.uleb128 0xb
 13634 03f3 3B       		.uleb128 0x3b
 13635 03f4 0B       		.uleb128 0xb
 13636 03f5 39       		.uleb128 0x39
 13637 03f6 0B       		.uleb128 0xb
 13638 03f7 27       		.uleb128 0x27
 13639 03f8 19       		.uleb128 0x19
 13640 03f9 49       		.uleb128 0x49
 13641 03fa 13       		.uleb128 0x13
 13642 03fb 20       		.uleb128 0x20
 13643 03fc 0B       		.uleb128 0xb
 13644 03fd 01       		.uleb128 0x1
 13645 03fe 13       		.uleb128 0x13
 13646 03ff 00       		.byte	0
 13647 0400 00       		.byte	0
 13648 0401 44       		.uleb128 0x44
 13649 0402 05       		.uleb128 0x5
 13650 0403 00       		.byte	0
 13651 0404 03       		.uleb128 0x3
 13652 0405 08       		.uleb128 0x8
 13653 0406 3A       		.uleb128 0x3a
 13654 0407 0B       		.uleb128 0xb
 13655 0408 3B       		.uleb128 0x3b
GAS LISTING /tmp/ccffpNMU.s 			page 250


 13656 0409 0B       		.uleb128 0xb
 13657 040a 39       		.uleb128 0x39
 13658 040b 0B       		.uleb128 0xb
 13659 040c 49       		.uleb128 0x49
 13660 040d 13       		.uleb128 0x13
 13661 040e 00       		.byte	0
 13662 040f 00       		.byte	0
 13663 0410 45       		.uleb128 0x45
 13664 0411 34       		.uleb128 0x34
 13665 0412 00       		.byte	0
 13666 0413 03       		.uleb128 0x3
 13667 0414 0E       		.uleb128 0xe
 13668 0415 49       		.uleb128 0x49
 13669 0416 13       		.uleb128 0x13
 13670 0417 34       		.uleb128 0x34
 13671 0418 19       		.uleb128 0x19
 13672 0419 00       		.byte	0
 13673 041a 00       		.byte	0
 13674 041b 46       		.uleb128 0x46
 13675 041c 2E       		.uleb128 0x2e
 13676 041d 00       		.byte	0
 13677 041e 03       		.uleb128 0x3
 13678 041f 0E       		.uleb128 0xe
 13679 0420 3A       		.uleb128 0x3a
 13680 0421 0B       		.uleb128 0xb
 13681 0422 3B       		.uleb128 0x3b
 13682 0423 05       		.uleb128 0x5
 13683 0424 39       		.uleb128 0x39
 13684 0425 0B       		.uleb128 0xb
 13685 0426 27       		.uleb128 0x27
 13686 0427 19       		.uleb128 0x19
 13687 0428 20       		.uleb128 0x20
 13688 0429 0B       		.uleb128 0xb
 13689 042a 00       		.byte	0
 13690 042b 00       		.byte	0
 13691 042c 47       		.uleb128 0x47
 13692 042d 2E       		.uleb128 0x2e
 13693 042e 00       		.byte	0
 13694 042f 3F       		.uleb128 0x3f
 13695 0430 19       		.uleb128 0x19
 13696 0431 3C       		.uleb128 0x3c
 13697 0432 19       		.uleb128 0x19
 13698 0433 6E       		.uleb128 0x6e
 13699 0434 0E       		.uleb128 0xe
 13700 0435 03       		.uleb128 0x3
 13701 0436 0E       		.uleb128 0xe
 13702 0437 3A       		.uleb128 0x3a
 13703 0438 0B       		.uleb128 0xb
 13704 0439 3B       		.uleb128 0x3b
 13705 043a 0B       		.uleb128 0xb
 13706 043b 39       		.uleb128 0x39
 13707 043c 0B       		.uleb128 0xb
 13708 043d 00       		.byte	0
 13709 043e 00       		.byte	0
 13710 043f 48       		.uleb128 0x48
 13711 0440 2E       		.uleb128 0x2e
 13712 0441 00       		.byte	0
GAS LISTING /tmp/ccffpNMU.s 			page 251


 13713 0442 3F       		.uleb128 0x3f
 13714 0443 19       		.uleb128 0x19
 13715 0444 3C       		.uleb128 0x3c
 13716 0445 19       		.uleb128 0x19
 13717 0446 6E       		.uleb128 0x6e
 13718 0447 0E       		.uleb128 0xe
 13719 0448 03       		.uleb128 0x3
 13720 0449 0E       		.uleb128 0xe
 13721 044a 3A       		.uleb128 0x3a
 13722 044b 0B       		.uleb128 0xb
 13723 044c 3B       		.uleb128 0x3b
 13724 044d 05       		.uleb128 0x5
 13725 044e 39       		.uleb128 0x39
 13726 044f 0B       		.uleb128 0xb
 13727 0450 00       		.byte	0
 13728 0451 00       		.byte	0
 13729 0452 00       		.byte	0
 13730              		.section	.debug_loc,"",@progbits
 13731              	.Ldebug_loc0:
 13732              	.LVUS96:
 13733 0000 02       		.uleb128 .LVU1274
 13734 0001 00       		.uleb128 .LVU1279
 13735 0002 00       		.uleb128 .LVU1279
 13736 0003 00       		.uleb128 .LVU1281
 13737 0004 00       		.uleb128 .LVU1281
 13738 0005 00       		.uleb128 .LVU1282
 13739 0006 01       		.uleb128 .LVU1295
 13740 0007 00       		.uleb128 .LVU1326
 13741 0008 00       		.uleb128 .LVU1328
 13742 0009 00       		.uleb128 0
 13743              	.LLST96:
 13744 000a 66000000 		.long	.LVL383
 13745 000e 6F000000 		.long	.LVL384
 13746 0012 0600     		.value	0x6
 13747 0014 9E       		.byte	0x9e
 13748 0015 04       		.uleb128 0x4
 13749 0016 0000F042 		.long	0x42f00000
 13750 001a 6F000000 		.long	.LVL384
 13751 001e 8B000000 		.long	.LVL385-1
 13752 0022 0100     		.value	0x1
 13753 0024 5B       		.byte	0x5b
 13754 0025 8B000000 		.long	.LVL385-1
 13755 0029 9E000000 		.long	.LVL386
 13756 002d 0200     		.value	0x2
 13757 002f 91       		.byte	0x91
 13758 0030 5C       		.sleb128 -36
 13759 0031 8C010000 		.long	.LVL398
 13760 0035 C4010000 		.long	.LVL404
 13761 0039 0200     		.value	0x2
 13762 003b 91       		.byte	0x91
 13763 003c 5C       		.sleb128 -36
 13764 003d DC010000 		.long	.LVL406
 13765 0041 F1010000 		.long	.LFE232
 13766 0045 0200     		.value	0x2
 13767 0047 91       		.byte	0x91
 13768 0048 5C       		.sleb128 -36
 13769 0049 00000000 		.long	0
GAS LISTING /tmp/ccffpNMU.s 			page 252


 13770 004d 00000000 		.long	0
 13771              	.LVUS100:
 13772 0051 04       		.uleb128 .LVU1276
 13773 0052 00       		.uleb128 .LVU1279
 13774 0053 00       		.uleb128 .LVU1279
 13775 0054 00       		.uleb128 .LVU1292
 13776              	.LLST100:
 13777 0055 66000000 		.long	.LVL383
 13778 0059 6F000000 		.long	.LVL384
 13779 005d 0200     		.value	0x2
 13780 005f 30       		.byte	0x30
 13781 0060 9F       		.byte	0x9f
 13782 0061 6F000000 		.long	.LVL384
 13783 0065 75010000 		.long	.LVL396
 13784 0069 0500     		.value	0x5
 13785 006b 33       		.byte	0x33
 13786 006c 76       		.byte	0x76
 13787 006d 00       		.sleb128 0
 13788 006e 1C       		.byte	0x1c
 13789 006f 9F       		.byte	0x9f
 13790 0070 00000000 		.long	0
 13791 0074 00000000 		.long	0
 13792              	.LVUS97:
 13793 0078 03       		.uleb128 .LVU1230
 13794 0079 00       		.uleb128 .LVU1234
 13795              	.LLST97:
 13796 007a 12000000 		.long	.LVL378
 13797 007e 1C000000 		.long	.LVL379
 13798 0082 0200     		.value	0x2
 13799 0084 91       		.byte	0x91
 13800 0085 00       		.sleb128 0
 13801 0086 00000000 		.long	0
 13802 008a 00000000 		.long	0
 13803              	.LVUS98:
 13804 008e 01       		.uleb128 .LVU1237
 13805 008f 00       		.uleb128 .LVU1267
 13806 0090 00       		.uleb128 .LVU1326
 13807 0091 00       		.uleb128 .LVU1327
 13808 0092 00       		.uleb128 .LVU1327
 13809 0093 00       		.uleb128 .LVU1328
 13810              	.LLST98:
 13811 0094 2D000000 		.long	.LVL380
 13812 0098 5B000000 		.long	.LVL382
 13813 009c 0200     		.value	0x2
 13814 009e 91       		.byte	0x91
 13815 009f 04       		.sleb128 4
 13816 00a0 C4010000 		.long	.LVL404
 13817 00a4 D3010000 		.long	.LVL405-1
 13818 00a8 0100     		.value	0x1
 13819 00aa 50       		.byte	0x50
 13820 00ab D3010000 		.long	.LVL405-1
 13821 00af DC010000 		.long	.LVL406
 13822 00b3 0200     		.value	0x2
 13823 00b5 91       		.byte	0x91
 13824 00b6 04       		.sleb128 4
 13825 00b7 00000000 		.long	0
 13826 00bb 00000000 		.long	0
GAS LISTING /tmp/ccffpNMU.s 			page 253


 13827              	.LVUS99:
 13828 00bf 02       		.uleb128 .LVU1269
 13829 00c0 00       		.uleb128 .LVU1272
 13830              	.LLST99:
 13831 00c1 5B000000 		.long	.LVL382
 13832 00c5 66000000 		.long	.LVL383
 13833 00c9 0200     		.value	0x2
 13834 00cb 91       		.byte	0x91
 13835 00cc 00       		.sleb128 0
 13836 00cd 00000000 		.long	0
 13837 00d1 00000000 		.long	0
 13838              	.LVUS101:
 13839 00d5 01       		.uleb128 .LVU1297
 13840 00d6 00       		.uleb128 .LVU1324
 13841 00d7 00       		.uleb128 .LVU1328
 13842 00d8 00       		.uleb128 0
 13843              	.LLST101:
 13844 00d9 9E010000 		.long	.LVL399
 13845 00dd BC010000 		.long	.LVL403
 13846 00e1 0200     		.value	0x2
 13847 00e3 91       		.byte	0x91
 13848 00e4 04       		.sleb128 4
 13849 00e5 DC010000 		.long	.LVL406
 13850 00e9 F1010000 		.long	.LFE232
 13851 00ed 0200     		.value	0x2
 13852 00ef 91       		.byte	0x91
 13853 00f0 04       		.sleb128 4
 13854 00f1 00000000 		.long	0
 13855 00f5 00000000 		.long	0
 13856              	.LVUS102:
 13857 00f9 03       		.uleb128 .LVU1308
 13858 00fa 00       		.uleb128 .LVU1312
 13859 00fb 00       		.uleb128 .LVU1328
 13860 00fc 00       		.uleb128 0
 13861              	.LLST102:
 13862 00fd A9010000 		.long	.LVL400
 13863 0101 B0010000 		.long	.LVL401
 13864 0105 0200     		.value	0x2
 13865 0107 91       		.byte	0x91
 13866 0108 04       		.sleb128 4
 13867 0109 DC010000 		.long	.LVL406
 13868 010d F1010000 		.long	.LFE232
 13869 0111 0200     		.value	0x2
 13870 0113 91       		.byte	0x91
 13871 0114 04       		.sleb128 4
 13872 0115 00000000 		.long	0
 13873 0119 00000000 		.long	0
 13874              	.LVUS75:
 13875 011d 03       		.uleb128 .LVU996
 13876 011e 00       		.uleb128 .LVU998
 13877 011f 00       		.uleb128 .LVU998
 13878 0120 00       		.uleb128 .LVU1011
 13879 0121 00       		.uleb128 .LVU1011
 13880 0122 00       		.uleb128 .LVU1012
 13881              	.LLST75:
 13882 0123 1D000000 		.long	.LVL312
 13883 0127 20000000 		.long	.LVL313
GAS LISTING /tmp/ccffpNMU.s 			page 254


 13884 012b 0200     		.value	0x2
 13885 012d 30       		.byte	0x30
 13886 012e 9F       		.byte	0x9f
 13887 012f 20000000 		.long	.LVL313
 13888 0133 78000000 		.long	.LVL321
 13889 0137 0100     		.value	0x1
 13890 0139 56       		.byte	0x56
 13891 013a 78000000 		.long	.LVL321
 13892 013e 7B000000 		.long	.LVL322
 13893 0142 0300     		.value	0x3
 13894 0144 76       		.byte	0x76
 13895 0145 01       		.sleb128 1
 13896 0146 9F       		.byte	0x9f
 13897 0147 00000000 		.long	0
 13898 014b 00000000 		.long	0
 13899              	.LVUS76:
 13900 014f 00       		.uleb128 .LVU998
 13901 0150 00       		.uleb128 .LVU1000
 13902 0151 00       		.uleb128 .LVU1000
 13903 0152 00       		.uleb128 .LVU1003
 13904 0153 00       		.uleb128 .LVU1005
 13905 0154 00       		.uleb128 .LVU1009
 13906              	.LLST76:
 13907 0155 20000000 		.long	.LVL313
 13908 0159 29000000 		.long	.LVL314
 13909 015d 0200     		.value	0x2
 13910 015f 30       		.byte	0x30
 13911 0160 9F       		.byte	0x9f
 13912 0161 29000000 		.long	.LVL314
 13913 0165 43000000 		.long	.LVL316
 13914 0169 0100     		.value	0x1
 13915 016b 57       		.byte	0x57
 13916 016c 50000000 		.long	.LVL318
 13917 0170 5F000000 		.long	.LVL319
 13918 0174 0100     		.value	0x1
 13919 0176 57       		.byte	0x57
 13920 0177 00000000 		.long	0
 13921 017b 00000000 		.long	0
 13922              	.LVUS80:
 13923 017f 03       		.uleb128 .LVU1053
 13924 0180 00       		.uleb128 .LVU1055
 13925 0181 00       		.uleb128 .LVU1055
 13926 0182 00       		.uleb128 .LVU1060
 13927 0183 00       		.uleb128 .LVU1060
 13928 0184 00       		.uleb128 .LVU1061
 13929              	.LLST80:
 13930 0185 B6000000 		.long	.LVL328
 13931 0189 B9000000 		.long	.LVL329
 13932 018d 0200     		.value	0x2
 13933 018f 30       		.byte	0x30
 13934 0190 9F       		.byte	0x9f
 13935 0191 B9000000 		.long	.LVL329
 13936 0195 DC000000 		.long	.LVL333
 13937 0199 0100     		.value	0x1
 13938 019b 56       		.byte	0x56
 13939 019c DC000000 		.long	.LVL333
 13940 01a0 DF000000 		.long	.LVL334
GAS LISTING /tmp/ccffpNMU.s 			page 255


 13941 01a4 0300     		.value	0x3
 13942 01a6 76       		.byte	0x76
 13943 01a7 01       		.sleb128 1
 13944 01a8 9F       		.byte	0x9f
 13945 01a9 00000000 		.long	0
 13946 01ad 00000000 		.long	0
 13947              	.LVUS81:
 13948 01b1 00       		.uleb128 .LVU1055
 13949 01b2 00       		.uleb128 .LVU1056
 13950 01b3 00       		.uleb128 .LVU1056
 13951 01b4 00       		.uleb128 .LVU1058
 13952              	.LLST81:
 13953 01b5 B9000000 		.long	.LVL329
 13954 01b9 BB000000 		.long	.LVL330
 13955 01bd 0200     		.value	0x2
 13956 01bf 30       		.byte	0x30
 13957 01c0 9F       		.byte	0x9f
 13958 01c1 BB000000 		.long	.LVL330
 13959 01c5 CF000000 		.long	.LVL331
 13960 01c9 0100     		.value	0x1
 13961 01cb 57       		.byte	0x57
 13962 01cc 00000000 		.long	0
 13963 01d0 00000000 		.long	0
 13964              	.LVUS85:
 13965 01d4 03       		.uleb128 .LVU1100
 13966 01d5 00       		.uleb128 .LVU1102
 13967 01d6 00       		.uleb128 .LVU1102
 13968 01d7 00       		.uleb128 .LVU1107
 13969 01d8 00       		.uleb128 .LVU1107
 13970 01d9 00       		.uleb128 .LVU1108
 13971              	.LLST85:
 13972 01da 14010000 		.long	.LVL340
 13973 01de 17010000 		.long	.LVL341
 13974 01e2 0200     		.value	0x2
 13975 01e4 30       		.byte	0x30
 13976 01e5 9F       		.byte	0x9f
 13977 01e6 17010000 		.long	.LVL341
 13978 01ea 3C010000 		.long	.LVL345
 13979 01ee 0100     		.value	0x1
 13980 01f0 56       		.byte	0x56
 13981 01f1 3C010000 		.long	.LVL345
 13982 01f5 3F010000 		.long	.LVL346
 13983 01f9 0300     		.value	0x3
 13984 01fb 76       		.byte	0x76
 13985 01fc 01       		.sleb128 1
 13986 01fd 9F       		.byte	0x9f
 13987 01fe 00000000 		.long	0
 13988 0202 00000000 		.long	0
 13989              	.LVUS86:
 13990 0206 00       		.uleb128 .LVU1102
 13991 0207 00       		.uleb128 .LVU1103
 13992 0208 00       		.uleb128 .LVU1103
 13993 0209 00       		.uleb128 .LVU1105
 13994              	.LLST86:
 13995 020a 17010000 		.long	.LVL341
 13996 020e 19010000 		.long	.LVL342
 13997 0212 0200     		.value	0x2
GAS LISTING /tmp/ccffpNMU.s 			page 256


 13998 0214 30       		.byte	0x30
 13999 0215 9F       		.byte	0x9f
 14000 0216 19010000 		.long	.LVL342
 14001 021a 2F010000 		.long	.LVL343
 14002 021e 0100     		.value	0x1
 14003 0220 57       		.byte	0x57
 14004 0221 00000000 		.long	0
 14005 0225 00000000 		.long	0
 14006              	.LVUS92:
 14007 0229 03       		.uleb128 .LVU1172
 14008 022a 00       		.uleb128 .LVU1174
 14009 022b 00       		.uleb128 .LVU1174
 14010 022c 00       		.uleb128 .LVU1179
 14011 022d 00       		.uleb128 .LVU1179
 14012 022e 00       		.uleb128 .LVU1180
 14013              	.LLST92:
 14014 022f 8F010000 		.long	.LVL355
 14015 0233 92010000 		.long	.LVL356
 14016 0237 0200     		.value	0x2
 14017 0239 30       		.byte	0x30
 14018 023a 9F       		.byte	0x9f
 14019 023b 92010000 		.long	.LVL356
 14020 023f B4010000 		.long	.LVL360
 14021 0243 0100     		.value	0x1
 14022 0245 56       		.byte	0x56
 14023 0246 B4010000 		.long	.LVL360
 14024 024a B7010000 		.long	.LVL361
 14025 024e 0300     		.value	0x3
 14026 0250 76       		.byte	0x76
 14027 0251 01       		.sleb128 1
 14028 0252 9F       		.byte	0x9f
 14029 0253 00000000 		.long	0
 14030 0257 00000000 		.long	0
 14031              	.LVUS93:
 14032 025b 00       		.uleb128 .LVU1174
 14033 025c 00       		.uleb128 .LVU1175
 14034 025d 00       		.uleb128 .LVU1175
 14035 025e 00       		.uleb128 .LVU1177
 14036              	.LLST93:
 14037 025f 92010000 		.long	.LVL356
 14038 0263 94010000 		.long	.LVL357
 14039 0267 0200     		.value	0x2
 14040 0269 30       		.byte	0x30
 14041 026a 9F       		.byte	0x9f
 14042 026b 94010000 		.long	.LVL357
 14043 026f A7010000 		.long	.LVL358
 14044 0273 0100     		.value	0x1
 14045 0275 57       		.byte	0x57
 14046 0276 00000000 		.long	0
 14047 027a 00000000 		.long	0
 14048              	.LVUS74:
 14049 027e 03       		.uleb128 .LVU990
 14050 027f 00       		.uleb128 .LVU993
 14051              	.LLST74:
 14052 0280 14000000 		.long	.LVL311
 14053 0284 1D000000 		.long	.LVL312
 14054 0288 0200     		.value	0x2
GAS LISTING /tmp/ccffpNMU.s 			page 257


 14055 028a 91       		.byte	0x91
 14056 028b 00       		.sleb128 0
 14057 028c 00000000 		.long	0
 14058 0290 00000000 		.long	0
 14059              	.LVUS77:
 14060 0294 01       		.uleb128 .LVU1015
 14061 0295 00       		.uleb128 .LVU1045
 14062 0296 00       		.uleb128 .LVU1212
 14063 0297 00       		.uleb128 .LVU1213
 14064 0298 00       		.uleb128 .LVU1213
 14065 0299 00       		.uleb128 .LVU1214
 14066              	.LLST77:
 14067 029a 80000000 		.long	.LVL323
 14068 029e AB000000 		.long	.LVL327
 14069 02a2 0200     		.value	0x2
 14070 02a4 91       		.byte	0x91
 14071 02a5 04       		.sleb128 4
 14072 02a6 E2010000 		.long	.LVL367
 14073 02aa ED010000 		.long	.LVL368-1
 14074 02ae 0100     		.value	0x1
 14075 02b0 50       		.byte	0x50
 14076 02b1 ED010000 		.long	.LVL368-1
 14077 02b5 F6010000 		.long	.LVL369
 14078 02b9 0200     		.value	0x2
 14079 02bb 91       		.byte	0x91
 14080 02bc 04       		.sleb128 4
 14081 02bd 00000000 		.long	0
 14082 02c1 00000000 		.long	0
 14083              	.LVUS78:
 14084 02c5 03       		.uleb128 .LVU1028
 14085 02c6 00       		.uleb128 .LVU1032
 14086 02c7 00       		.uleb128 .LVU1212
 14087 02c8 00       		.uleb128 .LVU1213
 14088 02c9 00       		.uleb128 .LVU1213
 14089 02ca 00       		.uleb128 .LVU1214
 14090              	.LLST78:
 14091 02cb 94000000 		.long	.LVL324
 14092 02cf 9C000000 		.long	.LVL325
 14093 02d3 0200     		.value	0x2
 14094 02d5 91       		.byte	0x91
 14095 02d6 04       		.sleb128 4
 14096 02d7 E2010000 		.long	.LVL367
 14097 02db ED010000 		.long	.LVL368-1
 14098 02df 0100     		.value	0x1
 14099 02e1 50       		.byte	0x50
 14100 02e2 ED010000 		.long	.LVL368-1
 14101 02e6 F6010000 		.long	.LVL369
 14102 02ea 0200     		.value	0x2
 14103 02ec 91       		.byte	0x91
 14104 02ed 04       		.sleb128 4
 14105 02ee 00000000 		.long	0
 14106 02f2 00000000 		.long	0
 14107              	.LVUS79:
 14108 02f6 02       		.uleb128 .LVU1047
 14109 02f7 00       		.uleb128 .LVU1050
 14110              	.LLST79:
 14111 02f8 AB000000 		.long	.LVL327
GAS LISTING /tmp/ccffpNMU.s 			page 258


 14112 02fc B6000000 		.long	.LVL328
 14113 0300 0200     		.value	0x2
 14114 0302 91       		.byte	0x91
 14115 0303 00       		.sleb128 0
 14116 0304 00000000 		.long	0
 14117 0308 00000000 		.long	0
 14118              	.LVUS82:
 14119 030c 01       		.uleb128 .LVU1064
 14120 030d 00       		.uleb128 .LVU1092
 14121 030e 00       		.uleb128 .LVU1222
 14122 030f 00       		.uleb128 .LVU1224
 14123 0310 00       		.uleb128 .LVU1224
 14124 0311 00       		.uleb128 0
 14125              	.LLST82:
 14126 0312 E4000000 		.long	.LVL335
 14127 0316 09010000 		.long	.LVL339
 14128 031a 0200     		.value	0x2
 14129 031c 91       		.byte	0x91
 14130 031d 04       		.sleb128 4
 14131 031e 2F020000 		.long	.LVL375
 14132 0322 3A020000 		.long	.LVL376-1
 14133 0326 0100     		.value	0x1
 14134 0328 50       		.byte	0x50
 14135 0329 3A020000 		.long	.LVL376-1
 14136 032d 43020000 		.long	.LFE231
 14137 0331 0200     		.value	0x2
 14138 0333 91       		.byte	0x91
 14139 0334 04       		.sleb128 4
 14140 0335 00000000 		.long	0
 14141 0339 00000000 		.long	0
 14142              	.LVUS83:
 14143 033d 03       		.uleb128 .LVU1075
 14144 033e 00       		.uleb128 .LVU1079
 14145 033f 00       		.uleb128 .LVU1222
 14146 0340 00       		.uleb128 .LVU1224
 14147 0341 00       		.uleb128 .LVU1224
 14148 0342 00       		.uleb128 0
 14149              	.LLST83:
 14150 0343 EF000000 		.long	.LVL336
 14151 0347 FA000000 		.long	.LVL337
 14152 034b 0200     		.value	0x2
 14153 034d 91       		.byte	0x91
 14154 034e 04       		.sleb128 4
 14155 034f 2F020000 		.long	.LVL375
 14156 0353 3A020000 		.long	.LVL376-1
 14157 0357 0100     		.value	0x1
 14158 0359 50       		.byte	0x50
 14159 035a 3A020000 		.long	.LVL376-1
 14160 035e 43020000 		.long	.LFE231
 14161 0362 0200     		.value	0x2
 14162 0364 91       		.byte	0x91
 14163 0365 04       		.sleb128 4
 14164 0366 00000000 		.long	0
 14165 036a 00000000 		.long	0
 14166              	.LVUS84:
 14167 036e 02       		.uleb128 .LVU1094
 14168 036f 00       		.uleb128 .LVU1097
GAS LISTING /tmp/ccffpNMU.s 			page 259


 14169              	.LLST84:
 14170 0370 09010000 		.long	.LVL339
 14171 0374 14010000 		.long	.LVL340
 14172 0378 0200     		.value	0x2
 14173 037a 91       		.byte	0x91
 14174 037b 00       		.sleb128 0
 14175 037c 00000000 		.long	0
 14176 0380 00000000 		.long	0
 14177              	.LVUS87:
 14178 0384 01       		.uleb128 .LVU1111
 14179 0385 07       		.uleb128 .LVU1135
 14180 0386 00       		.uleb128 .LVU1219
 14181 0387 00       		.uleb128 .LVU1221
 14182 0388 00       		.uleb128 .LVU1221
 14183 0389 00       		.uleb128 .LVU1222
 14184              	.LLST87:
 14185 038a 44010000 		.long	.LVL347
 14186 038e 5F010000 		.long	.LVL350
 14187 0392 0200     		.value	0x2
 14188 0394 91       		.byte	0x91
 14189 0395 04       		.sleb128 4
 14190 0396 1B020000 		.long	.LVL373
 14191 039a 26020000 		.long	.LVL374-1
 14192 039e 0100     		.value	0x1
 14193 03a0 50       		.byte	0x50
 14194 03a1 26020000 		.long	.LVL374-1
 14195 03a5 2F020000 		.long	.LVL375
 14196 03a9 0200     		.value	0x2
 14197 03ab 91       		.byte	0x91
 14198 03ac 04       		.sleb128 4
 14199 03ad 00000000 		.long	0
 14200 03b1 00000000 		.long	0
 14201              	.LVUS88:
 14202 03b5 03       		.uleb128 .LVU1122
 14203 03b6 00       		.uleb128 .LVU1126
 14204 03b7 00       		.uleb128 .LVU1219
 14205 03b8 00       		.uleb128 .LVU1221
 14206 03b9 00       		.uleb128 .LVU1221
 14207 03ba 00       		.uleb128 .LVU1222
 14208              	.LLST88:
 14209 03bb 4F010000 		.long	.LVL348
 14210 03bf 5A010000 		.long	.LVL349
 14211 03c3 0200     		.value	0x2
 14212 03c5 91       		.byte	0x91
 14213 03c6 04       		.sleb128 4
 14214 03c7 1B020000 		.long	.LVL373
 14215 03cb 26020000 		.long	.LVL374-1
 14216 03cf 0100     		.value	0x1
 14217 03d1 50       		.byte	0x50
 14218 03d2 26020000 		.long	.LVL374-1
 14219 03d6 2F020000 		.long	.LVL375
 14220 03da 0200     		.value	0x2
 14221 03dc 91       		.byte	0x91
 14222 03dd 04       		.sleb128 4
 14223 03de 00000000 		.long	0
 14224 03e2 00000000 		.long	0
 14225              	.LVUS89:
GAS LISTING /tmp/ccffpNMU.s 			page 260


 14226 03e6 08       		.uleb128 .LVU1136
 14227 03e7 00       		.uleb128 .LVU1164
 14228 03e8 00       		.uleb128 .LVU1216
 14229 03e9 00       		.uleb128 .LVU1218
 14230 03ea 00       		.uleb128 .LVU1218
 14231 03eb 00       		.uleb128 .LVU1219
 14232              	.LLST89:
 14233 03ec 5F010000 		.long	.LVL350
 14234 03f0 84010000 		.long	.LVL354
 14235 03f4 0200     		.value	0x2
 14236 03f6 91       		.byte	0x91
 14237 03f7 04       		.sleb128 4
 14238 03f8 07020000 		.long	.LVL371
 14239 03fc 12020000 		.long	.LVL372-1
 14240 0400 0100     		.value	0x1
 14241 0402 50       		.byte	0x50
 14242 0403 12020000 		.long	.LVL372-1
 14243 0407 1B020000 		.long	.LVL373
 14244 040b 0200     		.value	0x2
 14245 040d 91       		.byte	0x91
 14246 040e 04       		.sleb128 4
 14247 040f 00000000 		.long	0
 14248 0413 00000000 		.long	0
 14249              	.LVUS90:
 14250 0417 03       		.uleb128 .LVU1147
 14251 0418 00       		.uleb128 .LVU1151
 14252 0419 00       		.uleb128 .LVU1216
 14253 041a 00       		.uleb128 .LVU1218
 14254 041b 00       		.uleb128 .LVU1218
 14255 041c 00       		.uleb128 .LVU1219
 14256              	.LLST90:
 14257 041d 6A010000 		.long	.LVL351
 14258 0421 75010000 		.long	.LVL352
 14259 0425 0200     		.value	0x2
 14260 0427 91       		.byte	0x91
 14261 0428 04       		.sleb128 4
 14262 0429 07020000 		.long	.LVL371
 14263 042d 12020000 		.long	.LVL372-1
 14264 0431 0100     		.value	0x1
 14265 0433 50       		.byte	0x50
 14266 0434 12020000 		.long	.LVL372-1
 14267 0438 1B020000 		.long	.LVL373
 14268 043c 0200     		.value	0x2
 14269 043e 91       		.byte	0x91
 14270 043f 04       		.sleb128 4
 14271 0440 00000000 		.long	0
 14272 0444 00000000 		.long	0
 14273              	.LVUS91:
 14274 0448 02       		.uleb128 .LVU1166
 14275 0449 00       		.uleb128 .LVU1169
 14276              	.LLST91:
 14277 044a 84010000 		.long	.LVL354
 14278 044e 8F010000 		.long	.LVL355
 14279 0452 0200     		.value	0x2
 14280 0454 91       		.byte	0x91
 14281 0455 00       		.sleb128 0
 14282 0456 00000000 		.long	0
GAS LISTING /tmp/ccffpNMU.s 			page 261


 14283 045a 00000000 		.long	0
 14284              	.LVUS94:
 14285 045e 01       		.uleb128 .LVU1183
 14286 045f 00       		.uleb128 .LVU1210
 14287 0460 00       		.uleb128 .LVU1214
 14288 0461 00       		.uleb128 .LVU1216
 14289              	.LLST94:
 14290 0462 BC010000 		.long	.LVL362
 14291 0466 DA010000 		.long	.LVL366
 14292 046a 0200     		.value	0x2
 14293 046c 91       		.byte	0x91
 14294 046d 04       		.sleb128 4
 14295 046e F6010000 		.long	.LVL369
 14296 0472 07020000 		.long	.LVL371
 14297 0476 0200     		.value	0x2
 14298 0478 91       		.byte	0x91
 14299 0479 04       		.sleb128 4
 14300 047a 00000000 		.long	0
 14301 047e 00000000 		.long	0
 14302              	.LVUS95:
 14303 0482 03       		.uleb128 .LVU1194
 14304 0483 00       		.uleb128 .LVU1198
 14305 0484 00       		.uleb128 .LVU1214
 14306 0485 00       		.uleb128 .LVU1216
 14307              	.LLST95:
 14308 0486 C7010000 		.long	.LVL363
 14309 048a CE010000 		.long	.LVL364
 14310 048e 0200     		.value	0x2
 14311 0490 91       		.byte	0x91
 14312 0491 04       		.sleb128 4
 14313 0492 F6010000 		.long	.LVL369
 14314 0496 07020000 		.long	.LVL371
 14315 049a 0200     		.value	0x2
 14316 049c 91       		.byte	0x91
 14317 049d 04       		.sleb128 4
 14318 049e 00000000 		.long	0
 14319 04a2 00000000 		.long	0
 14320              	.LVUS59:
 14321 04a6 02       		.uleb128 .LVU846
 14322 04a7 00       		.uleb128 .LVU980
 14323              	.LLST59:
 14324 04a8 45000000 		.long	.LVL260
 14325 04ac 1F030000 		.long	.LVL308
 14326 04b0 0400     		.value	0x4
 14327 04b2 0A       		.byte	0xa
 14328 04b3 0004     		.value	0x400
 14329 04b5 9F       		.byte	0x9f
 14330 04b6 00000000 		.long	0
 14331 04ba 00000000 		.long	0
 14332              	.LVUS60:
 14333 04be 02       		.uleb128 .LVU852
 14334 04bf 00       		.uleb128 .LVU854
 14335              	.LLST60:
 14336 04c0 4E000000 		.long	.LVL261
 14337 04c4 55000000 		.long	.LVL262
 14338 04c8 0200     		.value	0x2
 14339 04ca 30       		.byte	0x30
GAS LISTING /tmp/ccffpNMU.s 			page 262


 14340 04cb 9F       		.byte	0x9f
 14341 04cc 00000000 		.long	0
 14342 04d0 00000000 		.long	0
 14343              	.LVUS64:
 14344 04d4 00       		.uleb128 .LVU854
 14345 04d5 00       		.uleb128 .LVU856
 14346 04d6 00       		.uleb128 .LVU856
 14347 04d7 00       		.uleb128 .LVU869
 14348 04d8 00       		.uleb128 .LVU869
 14349 04d9 00       		.uleb128 .LVU870
 14350 04da 00       		.uleb128 .LVU970
 14351 04db 00       		.uleb128 .LVU972
 14352              	.LLST64:
 14353 04dc 55000000 		.long	.LVL262
 14354 04e0 A2000000 		.long	.LVL263
 14355 04e4 0200     		.value	0x2
 14356 04e6 30       		.byte	0x30
 14357 04e7 9F       		.byte	0x9f
 14358 04e8 A2000000 		.long	.LVL263
 14359 04ec 07010000 		.long	.LVL271
 14360 04f0 0100     		.value	0x1
 14361 04f2 56       		.byte	0x56
 14362 04f3 07010000 		.long	.LVL271
 14363 04f7 0A010000 		.long	.LVL272
 14364 04fb 0300     		.value	0x3
 14365 04fd 76       		.byte	0x76
 14366 04fe 01       		.sleb128 1
 14367 04ff 9F       		.byte	0x9f
 14368 0500 7A020000 		.long	.LVL298
 14369 0504 B7020000 		.long	.LVL301
 14370 0508 0100     		.value	0x1
 14371 050a 56       		.byte	0x56
 14372 050b 00000000 		.long	0
 14373 050f 00000000 		.long	0
 14374              	.LVUS65:
 14375 0513 00       		.uleb128 .LVU856
 14376 0514 00       		.uleb128 .LVU857
 14377 0515 00       		.uleb128 .LVU857
 14378 0516 00       		.uleb128 .LVU860
 14379 0517 00       		.uleb128 .LVU860
 14380 0518 00       		.uleb128 .LVU861
 14381 0519 00       		.uleb128 .LVU862
 14382 051a 00       		.uleb128 .LVU867
 14383 051b 00       		.uleb128 .LVU970
 14384 051c 00       		.uleb128 .LVU972
 14385              	.LLST65:
 14386 051d A2000000 		.long	.LVL263
 14387 0521 B1000000 		.long	.LVL264
 14388 0525 0200     		.value	0x2
 14389 0527 30       		.byte	0x30
 14390 0528 9F       		.byte	0x9f
 14391 0529 B1000000 		.long	.LVL264
 14392 052d D2000000 		.long	.LVL266
 14393 0531 0100     		.value	0x1
 14394 0533 57       		.byte	0x57
 14395 0534 D2000000 		.long	.LVL266
 14396 0538 D5000000 		.long	.LVL267
GAS LISTING /tmp/ccffpNMU.s 			page 263


 14397 053c 0300     		.value	0x3
 14398 053e 77       		.byte	0x77
 14399 053f 01       		.sleb128 1
 14400 0540 9F       		.byte	0x9f
 14401 0541 DA000000 		.long	.LVL268
 14402 0545 FA000000 		.long	.LVL269
 14403 0549 0100     		.value	0x1
 14404 054b 57       		.byte	0x57
 14405 054c 7A020000 		.long	.LVL298
 14406 0550 B7020000 		.long	.LVL301
 14407 0554 0100     		.value	0x1
 14408 0556 57       		.byte	0x57
 14409 0557 00000000 		.long	0
 14410 055b 00000000 		.long	0
 14411              	.LVUS69:
 14412 055f 00       		.uleb128 .LVU911
 14413 0560 00       		.uleb128 .LVU913
 14414 0561 00       		.uleb128 .LVU913
 14415 0562 00       		.uleb128 .LVU927
 14416 0563 00       		.uleb128 .LVU927
 14417 0564 00       		.uleb128 .LVU928
 14418 0565 00       		.uleb128 .LVU972
 14419 0566 00       		.uleb128 .LVU975
 14420              	.LLST69:
 14421 0567 65010000 		.long	.LVL280
 14422 056b B2010000 		.long	.LVL281
 14423 056f 0200     		.value	0x2
 14424 0571 30       		.byte	0x30
 14425 0572 9F       		.byte	0x9f
 14426 0573 B2010000 		.long	.LVL281
 14427 0577 17020000 		.long	.LVL289
 14428 057b 0100     		.value	0x1
 14429 057d 56       		.byte	0x56
 14430 057e 17020000 		.long	.LVL289
 14431 0582 1A020000 		.long	.LVL290
 14432 0586 0300     		.value	0x3
 14433 0588 76       		.byte	0x76
 14434 0589 01       		.sleb128 1
 14435 058a 9F       		.byte	0x9f
 14436 058b B7020000 		.long	.LVL301
 14437 058f F7020000 		.long	.LVL304
 14438 0593 0100     		.value	0x1
 14439 0595 56       		.byte	0x56
 14440 0596 00000000 		.long	0
 14441 059a 00000000 		.long	0
 14442              	.LVUS70:
 14443 059e 00       		.uleb128 .LVU913
 14444 059f 00       		.uleb128 .LVU914
 14445 05a0 00       		.uleb128 .LVU914
 14446 05a1 00       		.uleb128 .LVU918
 14447 05a2 00       		.uleb128 .LVU918
 14448 05a3 00       		.uleb128 .LVU919
 14449 05a4 00       		.uleb128 .LVU920
 14450 05a5 00       		.uleb128 .LVU925
 14451 05a6 00       		.uleb128 .LVU972
 14452 05a7 00       		.uleb128 .LVU975
 14453              	.LLST70:
GAS LISTING /tmp/ccffpNMU.s 			page 264


 14454 05a8 B2010000 		.long	.LVL281
 14455 05ac C1010000 		.long	.LVL282
 14456 05b0 0200     		.value	0x2
 14457 05b2 30       		.byte	0x30
 14458 05b3 9F       		.byte	0x9f
 14459 05b4 C1010000 		.long	.LVL282
 14460 05b8 E2010000 		.long	.LVL284
 14461 05bc 0100     		.value	0x1
 14462 05be 57       		.byte	0x57
 14463 05bf E2010000 		.long	.LVL284
 14464 05c3 E5010000 		.long	.LVL285
 14465 05c7 0300     		.value	0x3
 14466 05c9 77       		.byte	0x77
 14467 05ca 01       		.sleb128 1
 14468 05cb 9F       		.byte	0x9f
 14469 05cc EA010000 		.long	.LVL286
 14470 05d0 0A020000 		.long	.LVL287
 14471 05d4 0100     		.value	0x1
 14472 05d6 57       		.byte	0x57
 14473 05d7 B7020000 		.long	.LVL301
 14474 05db F7020000 		.long	.LVL304
 14475 05df 0100     		.value	0x1
 14476 05e1 57       		.byte	0x57
 14477 05e2 00000000 		.long	0
 14478 05e6 00000000 		.long	0
 14479              	.LVUS61:
 14480 05ea 01       		.uleb128 .LVU816
 14481 05eb 00       		.uleb128 .LVU844
 14482 05ec 00       		.uleb128 .LVU980
 14483 05ed 00       		.uleb128 .LVU982
 14484 05ee 00       		.uleb128 .LVU982
 14485 05ef 00       		.uleb128 0
 14486              	.LLST61:
 14487 05f0 12000000 		.long	.LVL256
 14488 05f4 45000000 		.long	.LVL260
 14489 05f8 0200     		.value	0x2
 14490 05fa 91       		.byte	0x91
 14491 05fb 04       		.sleb128 4
 14492 05fc 1F030000 		.long	.LVL308
 14493 0600 2A030000 		.long	.LVL309-1
 14494 0604 0100     		.value	0x1
 14495 0606 50       		.byte	0x50
 14496 0607 2A030000 		.long	.LVL309-1
 14497 060b 33030000 		.long	.LFE230
 14498 060f 0200     		.value	0x2
 14499 0611 91       		.byte	0x91
 14500 0612 04       		.sleb128 4
 14501 0613 00000000 		.long	0
 14502 0617 00000000 		.long	0
 14503              	.LVUS62:
 14504 061b 03       		.uleb128 .LVU826
 14505 061c 00       		.uleb128 .LVU830
 14506 061d 00       		.uleb128 .LVU980
 14507 061e 00       		.uleb128 .LVU982
 14508 061f 00       		.uleb128 .LVU982
 14509 0620 00       		.uleb128 0
 14510              	.LLST62:
GAS LISTING /tmp/ccffpNMU.s 			page 265


 14511 0621 22000000 		.long	.LVL257
 14512 0625 31000000 		.long	.LVL258
 14513 0629 0200     		.value	0x2
 14514 062b 91       		.byte	0x91
 14515 062c 04       		.sleb128 4
 14516 062d 1F030000 		.long	.LVL308
 14517 0631 2A030000 		.long	.LVL309-1
 14518 0635 0100     		.value	0x1
 14519 0637 50       		.byte	0x50
 14520 0638 2A030000 		.long	.LVL309-1
 14521 063c 33030000 		.long	.LFE230
 14522 0640 0200     		.value	0x2
 14523 0642 91       		.byte	0x91
 14524 0643 04       		.sleb128 4
 14525 0644 00000000 		.long	0
 14526 0648 00000000 		.long	0
 14527              	.LVUS63:
 14528 064c 03       		.uleb128 .LVU847
 14529 064d 00       		.uleb128 .LVU850
 14530              	.LLST63:
 14531 064e 45000000 		.long	.LVL260
 14532 0652 4E000000 		.long	.LVL261
 14533 0656 0200     		.value	0x2
 14534 0658 91       		.byte	0x91
 14535 0659 00       		.sleb128 0
 14536 065a 00000000 		.long	0
 14537 065e 00000000 		.long	0
 14538              	.LVUS66:
 14539 0662 01       		.uleb128 .LVU873
 14540 0663 00       		.uleb128 .LVU901
 14541 0664 00       		.uleb128 .LVU977
 14542 0665 00       		.uleb128 .LVU979
 14543 0666 00       		.uleb128 .LVU979
 14544 0667 00       		.uleb128 .LVU980
 14545              	.LLST66:
 14546 0668 0F010000 		.long	.LVL273
 14547 066c 3A010000 		.long	.LVL277
 14548 0670 0200     		.value	0x2
 14549 0672 91       		.byte	0x91
 14550 0673 04       		.sleb128 4
 14551 0674 0B030000 		.long	.LVL306
 14552 0678 16030000 		.long	.LVL307-1
 14553 067c 0100     		.value	0x1
 14554 067e 50       		.byte	0x50
 14555 067f 16030000 		.long	.LVL307-1
 14556 0683 1F030000 		.long	.LVL308
 14557 0687 0200     		.value	0x2
 14558 0689 91       		.byte	0x91
 14559 068a 04       		.sleb128 4
 14560 068b 00000000 		.long	0
 14561 068f 00000000 		.long	0
 14562              	.LVUS67:
 14563 0693 03       		.uleb128 .LVU883
 14564 0694 00       		.uleb128 .LVU887
 14565 0695 00       		.uleb128 .LVU977
 14566 0696 00       		.uleb128 .LVU979
 14567 0697 00       		.uleb128 .LVU979
GAS LISTING /tmp/ccffpNMU.s 			page 266


 14568 0698 00       		.uleb128 .LVU980
 14569              	.LLST67:
 14570 0699 19010000 		.long	.LVL274
 14571 069d 28010000 		.long	.LVL275
 14572 06a1 0200     		.value	0x2
 14573 06a3 91       		.byte	0x91
 14574 06a4 04       		.sleb128 4
 14575 06a5 0B030000 		.long	.LVL306
 14576 06a9 16030000 		.long	.LVL307-1
 14577 06ad 0100     		.value	0x1
 14578 06af 50       		.byte	0x50
 14579 06b0 16030000 		.long	.LVL307-1
 14580 06b4 1F030000 		.long	.LVL308
 14581 06b8 0200     		.value	0x2
 14582 06ba 91       		.byte	0x91
 14583 06bb 04       		.sleb128 4
 14584 06bc 00000000 		.long	0
 14585 06c0 00000000 		.long	0
 14586              	.LVUS68:
 14587 06c4 02       		.uleb128 .LVU903
 14588 06c5 00       		.uleb128 .LVU906
 14589              	.LLST68:
 14590 06c6 3A010000 		.long	.LVL277
 14591 06ca 43010000 		.long	.LVL278
 14592 06ce 0200     		.value	0x2
 14593 06d0 91       		.byte	0x91
 14594 06d1 00       		.sleb128 0
 14595 06d2 00000000 		.long	0
 14596 06d6 00000000 		.long	0
 14597              	.LVUS71:
 14598 06da 01       		.uleb128 .LVU931
 14599 06db 00       		.uleb128 .LVU959
 14600 06dc 00       		.uleb128 .LVU975
 14601 06dd 00       		.uleb128 .LVU977
 14602              	.LLST71:
 14603 06de 1F020000 		.long	.LVL291
 14604 06e2 4A020000 		.long	.LVL295
 14605 06e6 0200     		.value	0x2
 14606 06e8 91       		.byte	0x91
 14607 06e9 04       		.sleb128 4
 14608 06ea F7020000 		.long	.LVL304
 14609 06ee 0B030000 		.long	.LVL306
 14610 06f2 0200     		.value	0x2
 14611 06f4 91       		.byte	0x91
 14612 06f5 04       		.sleb128 4
 14613 06f6 00000000 		.long	0
 14614 06fa 00000000 		.long	0
 14615              	.LVUS72:
 14616 06fe 03       		.uleb128 .LVU941
 14617 06ff 00       		.uleb128 .LVU945
 14618 0700 00       		.uleb128 .LVU975
 14619 0701 00       		.uleb128 .LVU977
 14620              	.LLST72:
 14621 0702 29020000 		.long	.LVL292
 14622 0706 38020000 		.long	.LVL293
 14623 070a 0200     		.value	0x2
 14624 070c 91       		.byte	0x91
GAS LISTING /tmp/ccffpNMU.s 			page 267


 14625 070d 04       		.sleb128 4
 14626 070e F7020000 		.long	.LVL304
 14627 0712 0B030000 		.long	.LVL306
 14628 0716 0200     		.value	0x2
 14629 0718 91       		.byte	0x91
 14630 0719 04       		.sleb128 4
 14631 071a 00000000 		.long	0
 14632 071e 00000000 		.long	0
 14633              	.LVUS73:
 14634 0722 03       		.uleb128 .LVU962
 14635 0723 00       		.uleb128 .LVU965
 14636              	.LLST73:
 14637 0724 4A020000 		.long	.LVL295
 14638 0728 53020000 		.long	.LVL296
 14639 072c 0200     		.value	0x2
 14640 072e 91       		.byte	0x91
 14641 072f 00       		.sleb128 0
 14642 0730 00000000 		.long	0
 14643 0734 00000000 		.long	0
 14644              	.LVUS46:
 14645 0738 00       		.uleb128 0
 14646 0739 00       		.uleb128 .LVU804
 14647 073a 00       		.uleb128 .LVU806
 14648 073b 00       		.uleb128 0
 14649              	.LLST46:
 14650 073c 00000000 		.long	.LVL207
 14651 0740 E0010000 		.long	.LVL248
 14652 0744 0200     		.value	0x2
 14653 0746 91       		.byte	0x91
 14654 0747 00       		.sleb128 0
 14655 0748 EC010000 		.long	.LVL249
 14656 074c 25020000 		.long	.LFE229
 14657 0750 0200     		.value	0x2
 14658 0752 91       		.byte	0x91
 14659 0753 00       		.sleb128 0
 14660 0754 00000000 		.long	0
 14661 0758 00000000 		.long	0
 14662              	.LVUS47:
 14663 075c 00       		.uleb128 0
 14664 075d 00       		.uleb128 .LVU803
 14665 075e 00       		.uleb128 .LVU806
 14666 075f 00       		.uleb128 0
 14667              	.LLST47:
 14668 0760 00000000 		.long	.LVL207
 14669 0764 D8010000 		.long	.LVL247
 14670 0768 0200     		.value	0x2
 14671 076a 91       		.byte	0x91
 14672 076b 04       		.sleb128 4
 14673 076c EC010000 		.long	.LVL249
 14674 0770 25020000 		.long	.LFE229
 14675 0774 0200     		.value	0x2
 14676 0776 91       		.byte	0x91
 14677 0777 04       		.sleb128 4
 14678 0778 00000000 		.long	0
 14679 077c 00000000 		.long	0
 14680              	.LVUS48:
 14681 0780 02       		.uleb128 .LVU691
GAS LISTING /tmp/ccffpNMU.s 			page 268


 14682 0781 00       		.uleb128 .LVU806
 14683 0782 00       		.uleb128 .LVU808
 14684 0783 00       		.uleb128 0
 14685              	.LLST48:
 14686 0784 51000000 		.long	.LVL212
 14687 0788 EC010000 		.long	.LVL249
 14688 078c 0400     		.value	0x4
 14689 078e 0A       		.byte	0xa
 14690 078f 0004     		.value	0x400
 14691 0791 9F       		.byte	0x9f
 14692 0792 00020000 		.long	.LVL251
 14693 0796 25020000 		.long	.LFE229
 14694 079a 0400     		.value	0x4
 14695 079c 0A       		.byte	0xa
 14696 079d 0004     		.value	0x400
 14697 079f 9F       		.byte	0x9f
 14698 07a0 00000000 		.long	0
 14699 07a4 00000000 		.long	0
 14700              	.LVUS51:
 14701 07a8 02       		.uleb128 .LVU697
 14702 07a9 00       		.uleb128 .LVU699
 14703 07aa 00       		.uleb128 .LVU699
 14704 07ab 00       		.uleb128 .LVU712
 14705 07ac 00       		.uleb128 .LVU712
 14706 07ad 00       		.uleb128 .LVU713
 14707              	.LLST51:
 14708 07ae 5A000000 		.long	.LVL213
 14709 07b2 5D000000 		.long	.LVL214
 14710 07b6 0200     		.value	0x2
 14711 07b8 30       		.byte	0x30
 14712 07b9 9F       		.byte	0x9f
 14713 07ba 5D000000 		.long	.LVL214
 14714 07be BB000000 		.long	.LVL222
 14715 07c2 0100     		.value	0x1
 14716 07c4 56       		.byte	0x56
 14717 07c5 BB000000 		.long	.LVL222
 14718 07c9 BE000000 		.long	.LVL223
 14719 07cd 0300     		.value	0x3
 14720 07cf 76       		.byte	0x76
 14721 07d0 01       		.sleb128 1
 14722 07d1 9F       		.byte	0x9f
 14723 07d2 00000000 		.long	0
 14724 07d6 00000000 		.long	0
 14725              	.LVUS52:
 14726 07da 00       		.uleb128 .LVU699
 14727 07db 00       		.uleb128 .LVU701
 14728 07dc 00       		.uleb128 .LVU701
 14729 07dd 00       		.uleb128 .LVU704
 14730 07de 00       		.uleb128 .LVU706
 14731 07df 00       		.uleb128 .LVU710
 14732              	.LLST52:
 14733 07e0 5D000000 		.long	.LVL214
 14734 07e4 66000000 		.long	.LVL215
 14735 07e8 0200     		.value	0x2
 14736 07ea 30       		.byte	0x30
 14737 07eb 9F       		.byte	0x9f
 14738 07ec 66000000 		.long	.LVL215
GAS LISTING /tmp/ccffpNMU.s 			page 269


 14739 07f0 83000000 		.long	.LVL217
 14740 07f4 0100     		.value	0x1
 14741 07f6 57       		.byte	0x57
 14742 07f7 90000000 		.long	.LVL219
 14743 07fb 9F000000 		.long	.LVL220
 14744 07ff 0100     		.value	0x1
 14745 0801 57       		.byte	0x57
 14746 0802 00000000 		.long	0
 14747 0806 00000000 		.long	0
 14748              	.LVUS55:
 14749 080a 02       		.uleb128 .LVU751
 14750 080b 00       		.uleb128 .LVU753
 14751 080c 00       		.uleb128 .LVU753
 14752 080d 00       		.uleb128 .LVU771
 14753 080e 00       		.uleb128 .LVU771
 14754 080f 00       		.uleb128 .LVU772
 14755              	.LLST55:
 14756 0810 F9000000 		.long	.LVL229
 14757 0814 FC000000 		.long	.LVL230
 14758 0818 0200     		.value	0x2
 14759 081a 30       		.byte	0x30
 14760 081b 9F       		.byte	0x9f
 14761 081c FC000000 		.long	.LVL230
 14762 0820 9C010000 		.long	.LVL240
 14763 0824 0100     		.value	0x1
 14764 0826 56       		.byte	0x56
 14765 0827 9C010000 		.long	.LVL240
 14766 082b A3010000 		.long	.LVL241
 14767 082f 0300     		.value	0x3
 14768 0831 76       		.byte	0x76
 14769 0832 01       		.sleb128 1
 14770 0833 9F       		.byte	0x9f
 14771 0834 00000000 		.long	0
 14772 0838 00000000 		.long	0
 14773              	.LVUS56:
 14774 083c 00       		.uleb128 .LVU753
 14775 083d 00       		.uleb128 .LVU754
 14776 083e 00       		.uleb128 .LVU754
 14777 083f 00       		.uleb128 .LVU759
 14778 0840 00       		.uleb128 .LVU761
 14779 0841 00       		.uleb128 .LVU768
 14780 0842 00       		.uleb128 .LVU770
 14781 0843 00       		.uleb128 .LVU771
 14782              	.LLST56:
 14783 0844 FC000000 		.long	.LVL230
 14784 0848 05010000 		.long	.LVL231
 14785 084c 0200     		.value	0x2
 14786 084e 30       		.byte	0x30
 14787 084f 9F       		.byte	0x9f
 14788 0850 05010000 		.long	.LVL231
 14789 0854 23010000 		.long	.LVL233
 14790 0858 0100     		.value	0x1
 14791 085a 57       		.byte	0x57
 14792 085b 3F010000 		.long	.LVL235
 14793 085f 7A010000 		.long	.LVL237
 14794 0863 0100     		.value	0x1
 14795 0865 57       		.byte	0x57
GAS LISTING /tmp/ccffpNMU.s 			page 270


 14796 0866 89010000 		.long	.LVL239
 14797 086a 9C010000 		.long	.LVL240
 14798 086e 0100     		.value	0x1
 14799 0870 57       		.byte	0x57
 14800 0871 00000000 		.long	0
 14801 0875 00000000 		.long	0
 14802              	.LVUS49:
 14803 0879 00       		.uleb128 .LVU658
 14804 087a 00       		.uleb128 .LVU675
 14805 087b 00       		.uleb128 .LVU675
 14806 087c 00       		.uleb128 .LVU689
 14807 087d 00       		.uleb128 .LVU806
 14808 087e 00       		.uleb128 .LVU807
 14809 087f 00       		.uleb128 .LVU807
 14810 0880 00       		.uleb128 .LVU808
 14811              	.LLST49:
 14812 0881 1E000000 		.long	.LVL208
 14813 0885 3D000000 		.long	.LVL210
 14814 0889 0100     		.value	0x1
 14815 088b 50       		.byte	0x50
 14816 088c 3D000000 		.long	.LVL210
 14817 0890 51000000 		.long	.LVL212
 14818 0894 0200     		.value	0x2
 14819 0896 91       		.byte	0x91
 14820 0897 04       		.sleb128 4
 14821 0898 EC010000 		.long	.LVL249
 14822 089c F7010000 		.long	.LVL250-1
 14823 08a0 0100     		.value	0x1
 14824 08a2 50       		.byte	0x50
 14825 08a3 F7010000 		.long	.LVL250-1
 14826 08a7 00020000 		.long	.LVL251
 14827 08ab 0200     		.value	0x2
 14828 08ad 91       		.byte	0x91
 14829 08ae 04       		.sleb128 4
 14830 08af 00000000 		.long	0
 14831 08b3 00000000 		.long	0
 14832              	.LVUS50:
 14833 08b7 03       		.uleb128 .LVU671
 14834 08b8 00       		.uleb128 .LVU675
 14835 08b9 00       		.uleb128 .LVU806
 14836 08ba 00       		.uleb128 .LVU807
 14837 08bb 00       		.uleb128 .LVU807
 14838 08bc 00       		.uleb128 .LVU808
 14839              	.LLST50:
 14840 08bd 35000000 		.long	.LVL209
 14841 08c1 3D000000 		.long	.LVL210
 14842 08c5 0100     		.value	0x1
 14843 08c7 50       		.byte	0x50
 14844 08c8 EC010000 		.long	.LVL249
 14845 08cc F7010000 		.long	.LVL250-1
 14846 08d0 0100     		.value	0x1
 14847 08d2 50       		.byte	0x50
 14848 08d3 F7010000 		.long	.LVL250-1
 14849 08d7 00020000 		.long	.LVL251
 14850 08db 0200     		.value	0x2
 14851 08dd 91       		.byte	0x91
 14852 08de 04       		.sleb128 4
GAS LISTING /tmp/ccffpNMU.s 			page 271


 14853 08df 00000000 		.long	0
 14854 08e3 00000000 		.long	0
 14855              	.LVUS53:
 14856 08e7 01       		.uleb128 .LVU716
 14857 08e8 00       		.uleb128 .LVU744
 14858 08e9 00       		.uleb128 .LVU810
 14859 08ea 00       		.uleb128 .LVU812
 14860 08eb 00       		.uleb128 .LVU812
 14861 08ec 00       		.uleb128 0
 14862              	.LLST53:
 14863 08ed C3000000 		.long	.LVL224
 14864 08f1 F0000000 		.long	.LVL228
 14865 08f5 0200     		.value	0x2
 14866 08f7 91       		.byte	0x91
 14867 08f8 58       		.sleb128 -40
 14868 08f9 11020000 		.long	.LVL253
 14869 08fd 1C020000 		.long	.LVL254-1
 14870 0901 0100     		.value	0x1
 14871 0903 50       		.byte	0x50
 14872 0904 1C020000 		.long	.LVL254-1
 14873 0908 25020000 		.long	.LFE229
 14874 090c 0200     		.value	0x2
 14875 090e 91       		.byte	0x91
 14876 090f 58       		.sleb128 -40
 14877 0910 00000000 		.long	0
 14878 0914 00000000 		.long	0
 14879              	.LVUS54:
 14880 0918 03       		.uleb128 .LVU726
 14881 0919 00       		.uleb128 .LVU730
 14882 091a 00       		.uleb128 .LVU810
 14883 091b 00       		.uleb128 .LVU812
 14884 091c 00       		.uleb128 .LVU812
 14885 091d 00       		.uleb128 0
 14886              	.LLST54:
 14887 091e CD000000 		.long	.LVL225
 14888 0922 DC000000 		.long	.LVL226
 14889 0926 0200     		.value	0x2
 14890 0928 91       		.byte	0x91
 14891 0929 58       		.sleb128 -40
 14892 092a 11020000 		.long	.LVL253
 14893 092e 1C020000 		.long	.LVL254-1
 14894 0932 0100     		.value	0x1
 14895 0934 50       		.byte	0x50
 14896 0935 1C020000 		.long	.LVL254-1
 14897 0939 25020000 		.long	.LFE229
 14898 093d 0200     		.value	0x2
 14899 093f 91       		.byte	0x91
 14900 0940 58       		.sleb128 -40
 14901 0941 00000000 		.long	0
 14902 0945 00000000 		.long	0
 14903              	.LVUS57:
 14904 0949 01       		.uleb128 .LVU775
 14905 094a 00       		.uleb128 .LVU801
 14906 094b 00       		.uleb128 .LVU808
 14907 094c 00       		.uleb128 .LVU810
 14908              	.LLST57:
 14909 094d AC010000 		.long	.LVL242
GAS LISTING /tmp/ccffpNMU.s 			page 272


 14910 0951 D0010000 		.long	.LVL246
 14911 0955 0200     		.value	0x2
 14912 0957 91       		.byte	0x91
 14913 0958 58       		.sleb128 -40
 14914 0959 00020000 		.long	.LVL251
 14915 095d 11020000 		.long	.LVL253
 14916 0961 0200     		.value	0x2
 14917 0963 91       		.byte	0x91
 14918 0964 58       		.sleb128 -40
 14919 0965 00000000 		.long	0
 14920 0969 00000000 		.long	0
 14921              	.LVUS58:
 14922 096d 03       		.uleb128 .LVU785
 14923 096e 00       		.uleb128 .LVU789
 14924 096f 00       		.uleb128 .LVU808
 14925 0970 00       		.uleb128 .LVU810
 14926              	.LLST58:
 14927 0971 B6010000 		.long	.LVL243
 14928 0975 C1010000 		.long	.LVL244
 14929 0979 0200     		.value	0x2
 14930 097b 91       		.byte	0x91
 14931 097c 58       		.sleb128 -40
 14932 097d 00020000 		.long	.LVL251
 14933 0981 11020000 		.long	.LVL253
 14934 0985 0200     		.value	0x2
 14935 0987 91       		.byte	0x91
 14936 0988 58       		.sleb128 -40
 14937 0989 00000000 		.long	0
 14938 098d 00000000 		.long	0
 14939              	.LVUS33:
 14940 0991 00       		.uleb128 0
 14941 0992 00       		.uleb128 .LVU645
 14942 0993 00       		.uleb128 .LVU647
 14943 0994 00       		.uleb128 0
 14944              	.LLST33:
 14945 0995 00000000 		.long	.LVL161
 14946 0999 8F010000 		.long	.LVL200
 14947 099d 0200     		.value	0x2
 14948 099f 91       		.byte	0x91
 14949 09a0 00       		.sleb128 0
 14950 09a1 9B010000 		.long	.LVL201
 14951 09a5 D4010000 		.long	.LFE228
 14952 09a9 0200     		.value	0x2
 14953 09ab 91       		.byte	0x91
 14954 09ac 00       		.sleb128 0
 14955 09ad 00000000 		.long	0
 14956 09b1 00000000 		.long	0
 14957              	.LVUS34:
 14958 09b5 00       		.uleb128 0
 14959 09b6 00       		.uleb128 .LVU644
 14960 09b7 00       		.uleb128 .LVU647
 14961 09b8 00       		.uleb128 0
 14962              	.LLST34:
 14963 09b9 00000000 		.long	.LVL161
 14964 09bd 87010000 		.long	.LVL199
 14965 09c1 0200     		.value	0x2
 14966 09c3 91       		.byte	0x91
GAS LISTING /tmp/ccffpNMU.s 			page 273


 14967 09c4 04       		.sleb128 4
 14968 09c5 9B010000 		.long	.LVL201
 14969 09c9 D4010000 		.long	.LFE228
 14970 09cd 0200     		.value	0x2
 14971 09cf 91       		.byte	0x91
 14972 09d0 04       		.sleb128 4
 14973 09d1 00000000 		.long	0
 14974 09d5 00000000 		.long	0
 14975              	.LVUS35:
 14976 09d9 02       		.uleb128 .LVU537
 14977 09da 00       		.uleb128 .LVU647
 14978 09db 00       		.uleb128 .LVU649
 14979 09dc 00       		.uleb128 0
 14980              	.LLST35:
 14981 09dd 51000000 		.long	.LVL166
 14982 09e1 9B010000 		.long	.LVL201
 14983 09e5 0400     		.value	0x4
 14984 09e7 0A       		.byte	0xa
 14985 09e8 0004     		.value	0x400
 14986 09ea 9F       		.byte	0x9f
 14987 09eb AF010000 		.long	.LVL203
 14988 09ef D4010000 		.long	.LFE228
 14989 09f3 0400     		.value	0x4
 14990 09f5 0A       		.byte	0xa
 14991 09f6 0004     		.value	0x400
 14992 09f8 9F       		.byte	0x9f
 14993 09f9 00000000 		.long	0
 14994 09fd 00000000 		.long	0
 14995              	.LVUS38:
 14996 0a01 02       		.uleb128 .LVU543
 14997 0a02 00       		.uleb128 .LVU545
 14998 0a03 00       		.uleb128 .LVU545
 14999 0a04 00       		.uleb128 .LVU558
 15000 0a05 00       		.uleb128 .LVU558
 15001 0a06 00       		.uleb128 .LVU559
 15002              	.LLST38:
 15003 0a07 5A000000 		.long	.LVL167
 15004 0a0b 5D000000 		.long	.LVL168
 15005 0a0f 0200     		.value	0x2
 15006 0a11 30       		.byte	0x30
 15007 0a12 9F       		.byte	0x9f
 15008 0a13 5D000000 		.long	.LVL168
 15009 0a17 BB000000 		.long	.LVL176
 15010 0a1b 0100     		.value	0x1
 15011 0a1d 56       		.byte	0x56
 15012 0a1e BB000000 		.long	.LVL176
 15013 0a22 BE000000 		.long	.LVL177
 15014 0a26 0300     		.value	0x3
 15015 0a28 76       		.byte	0x76
 15016 0a29 01       		.sleb128 1
 15017 0a2a 9F       		.byte	0x9f
 15018 0a2b 00000000 		.long	0
 15019 0a2f 00000000 		.long	0
 15020              	.LVUS39:
 15021 0a33 00       		.uleb128 .LVU545
 15022 0a34 00       		.uleb128 .LVU547
 15023 0a35 00       		.uleb128 .LVU547
GAS LISTING /tmp/ccffpNMU.s 			page 274


 15024 0a36 00       		.uleb128 .LVU550
 15025 0a37 00       		.uleb128 .LVU552
 15026 0a38 00       		.uleb128 .LVU556
 15027              	.LLST39:
 15028 0a39 5D000000 		.long	.LVL168
 15029 0a3d 66000000 		.long	.LVL169
 15030 0a41 0200     		.value	0x2
 15031 0a43 30       		.byte	0x30
 15032 0a44 9F       		.byte	0x9f
 15033 0a45 66000000 		.long	.LVL169
 15034 0a49 83000000 		.long	.LVL171
 15035 0a4d 0100     		.value	0x1
 15036 0a4f 57       		.byte	0x57
 15037 0a50 90000000 		.long	.LVL173
 15038 0a54 9F000000 		.long	.LVL174
 15039 0a58 0100     		.value	0x1
 15040 0a5a 57       		.byte	0x57
 15041 0a5b 00000000 		.long	0
 15042 0a5f 00000000 		.long	0
 15043              	.LVUS42:
 15044 0a63 02       		.uleb128 .LVU597
 15045 0a64 00       		.uleb128 .LVU599
 15046 0a65 00       		.uleb128 .LVU599
 15047 0a66 00       		.uleb128 .LVU612
 15048 0a67 00       		.uleb128 .LVU612
 15049 0a68 00       		.uleb128 .LVU613
 15050              	.LLST42:
 15051 0a69 F9000000 		.long	.LVL183
 15052 0a6d FC000000 		.long	.LVL184
 15053 0a71 0200     		.value	0x2
 15054 0a73 30       		.byte	0x30
 15055 0a74 9F       		.byte	0x9f
 15056 0a75 FC000000 		.long	.LVL184
 15057 0a79 53010000 		.long	.LVL192
 15058 0a7d 0100     		.value	0x1
 15059 0a7f 56       		.byte	0x56
 15060 0a80 53010000 		.long	.LVL192
 15061 0a84 56010000 		.long	.LVL193
 15062 0a88 0300     		.value	0x3
 15063 0a8a 76       		.byte	0x76
 15064 0a8b 01       		.sleb128 1
 15065 0a8c 9F       		.byte	0x9f
 15066 0a8d 00000000 		.long	0
 15067 0a91 00000000 		.long	0
 15068              	.LVUS43:
 15069 0a95 00       		.uleb128 .LVU599
 15070 0a96 00       		.uleb128 .LVU600
 15071 0a97 00       		.uleb128 .LVU600
 15072 0a98 00       		.uleb128 .LVU604
 15073 0a99 00       		.uleb128 .LVU606
 15074 0a9a 00       		.uleb128 .LVU610
 15075              	.LLST43:
 15076 0a9b FC000000 		.long	.LVL184
 15077 0a9f 05010000 		.long	.LVL185
 15078 0aa3 0200     		.value	0x2
 15079 0aa5 30       		.byte	0x30
 15080 0aa6 9F       		.byte	0x9f
GAS LISTING /tmp/ccffpNMU.s 			page 275


 15081 0aa7 05010000 		.long	.LVL185
 15082 0aab 1B010000 		.long	.LVL187
 15083 0aaf 0100     		.value	0x1
 15084 0ab1 57       		.byte	0x57
 15085 0ab2 28010000 		.long	.LVL189
 15086 0ab6 37010000 		.long	.LVL190
 15087 0aba 0100     		.value	0x1
 15088 0abc 57       		.byte	0x57
 15089 0abd 00000000 		.long	0
 15090 0ac1 00000000 		.long	0
 15091              	.LVUS36:
 15092 0ac5 00       		.uleb128 .LVU504
 15093 0ac6 00       		.uleb128 .LVU521
 15094 0ac7 00       		.uleb128 .LVU521
 15095 0ac8 00       		.uleb128 .LVU535
 15096 0ac9 00       		.uleb128 .LVU647
 15097 0aca 00       		.uleb128 .LVU648
 15098 0acb 00       		.uleb128 .LVU648
 15099 0acc 00       		.uleb128 .LVU649
 15100              	.LLST36:
 15101 0acd 1E000000 		.long	.LVL162
 15102 0ad1 3D000000 		.long	.LVL164
 15103 0ad5 0100     		.value	0x1
 15104 0ad7 50       		.byte	0x50
 15105 0ad8 3D000000 		.long	.LVL164
 15106 0adc 51000000 		.long	.LVL166
 15107 0ae0 0200     		.value	0x2
 15108 0ae2 91       		.byte	0x91
 15109 0ae3 04       		.sleb128 4
 15110 0ae4 9B010000 		.long	.LVL201
 15111 0ae8 A6010000 		.long	.LVL202-1
 15112 0aec 0100     		.value	0x1
 15113 0aee 50       		.byte	0x50
 15114 0aef A6010000 		.long	.LVL202-1
 15115 0af3 AF010000 		.long	.LVL203
 15116 0af7 0200     		.value	0x2
 15117 0af9 91       		.byte	0x91
 15118 0afa 04       		.sleb128 4
 15119 0afb 00000000 		.long	0
 15120 0aff 00000000 		.long	0
 15121              	.LVUS37:
 15122 0b03 03       		.uleb128 .LVU517
 15123 0b04 00       		.uleb128 .LVU521
 15124 0b05 00       		.uleb128 .LVU647
 15125 0b06 00       		.uleb128 .LVU648
 15126 0b07 00       		.uleb128 .LVU648
 15127 0b08 00       		.uleb128 .LVU649
 15128              	.LLST37:
 15129 0b09 35000000 		.long	.LVL163
 15130 0b0d 3D000000 		.long	.LVL164
 15131 0b11 0100     		.value	0x1
 15132 0b13 50       		.byte	0x50
 15133 0b14 9B010000 		.long	.LVL201
 15134 0b18 A6010000 		.long	.LVL202-1
 15135 0b1c 0100     		.value	0x1
 15136 0b1e 50       		.byte	0x50
 15137 0b1f A6010000 		.long	.LVL202-1
GAS LISTING /tmp/ccffpNMU.s 			page 276


 15138 0b23 AF010000 		.long	.LVL203
 15139 0b27 0200     		.value	0x2
 15140 0b29 91       		.byte	0x91
 15141 0b2a 04       		.sleb128 4
 15142 0b2b 00000000 		.long	0
 15143 0b2f 00000000 		.long	0
 15144              	.LVUS40:
 15145 0b33 01       		.uleb128 .LVU562
 15146 0b34 00       		.uleb128 .LVU590
 15147 0b35 00       		.uleb128 .LVU651
 15148 0b36 00       		.uleb128 .LVU653
 15149 0b37 00       		.uleb128 .LVU653
 15150 0b38 00       		.uleb128 0
 15151              	.LLST40:
 15152 0b39 C3000000 		.long	.LVL178
 15153 0b3d F0000000 		.long	.LVL182
 15154 0b41 0200     		.value	0x2
 15155 0b43 91       		.byte	0x91
 15156 0b44 58       		.sleb128 -40
 15157 0b45 C0010000 		.long	.LVL205
 15158 0b49 CB010000 		.long	.LVL206-1
 15159 0b4d 0100     		.value	0x1
 15160 0b4f 50       		.byte	0x50
 15161 0b50 CB010000 		.long	.LVL206-1
 15162 0b54 D4010000 		.long	.LFE228
 15163 0b58 0200     		.value	0x2
 15164 0b5a 91       		.byte	0x91
 15165 0b5b 58       		.sleb128 -40
 15166 0b5c 00000000 		.long	0
 15167 0b60 00000000 		.long	0
 15168              	.LVUS41:
 15169 0b64 03       		.uleb128 .LVU572
 15170 0b65 00       		.uleb128 .LVU576
 15171 0b66 00       		.uleb128 .LVU651
 15172 0b67 00       		.uleb128 .LVU653
 15173 0b68 00       		.uleb128 .LVU653
 15174 0b69 00       		.uleb128 0
 15175              	.LLST41:
 15176 0b6a CD000000 		.long	.LVL179
 15177 0b6e DC000000 		.long	.LVL180
 15178 0b72 0200     		.value	0x2
 15179 0b74 91       		.byte	0x91
 15180 0b75 58       		.sleb128 -40
 15181 0b76 C0010000 		.long	.LVL205
 15182 0b7a CB010000 		.long	.LVL206-1
 15183 0b7e 0100     		.value	0x1
 15184 0b80 50       		.byte	0x50
 15185 0b81 CB010000 		.long	.LVL206-1
 15186 0b85 D4010000 		.long	.LFE228
 15187 0b89 0200     		.value	0x2
 15188 0b8b 91       		.byte	0x91
 15189 0b8c 58       		.sleb128 -40
 15190 0b8d 00000000 		.long	0
 15191 0b91 00000000 		.long	0
 15192              	.LVUS44:
 15193 0b95 01       		.uleb128 .LVU616
 15194 0b96 00       		.uleb128 .LVU642
GAS LISTING /tmp/ccffpNMU.s 			page 277


 15195 0b97 00       		.uleb128 .LVU649
 15196 0b98 00       		.uleb128 .LVU651
 15197              	.LLST44:
 15198 0b99 5B010000 		.long	.LVL194
 15199 0b9d 7F010000 		.long	.LVL198
 15200 0ba1 0200     		.value	0x2
 15201 0ba3 91       		.byte	0x91
 15202 0ba4 58       		.sleb128 -40
 15203 0ba5 AF010000 		.long	.LVL203
 15204 0ba9 C0010000 		.long	.LVL205
 15205 0bad 0200     		.value	0x2
 15206 0baf 91       		.byte	0x91
 15207 0bb0 58       		.sleb128 -40
 15208 0bb1 00000000 		.long	0
 15209 0bb5 00000000 		.long	0
 15210              	.LVUS45:
 15211 0bb9 03       		.uleb128 .LVU626
 15212 0bba 00       		.uleb128 .LVU630
 15213 0bbb 00       		.uleb128 .LVU649
 15214 0bbc 00       		.uleb128 .LVU651
 15215              	.LLST45:
 15216 0bbd 65010000 		.long	.LVL195
 15217 0bc1 70010000 		.long	.LVL196
 15218 0bc5 0200     		.value	0x2
 15219 0bc7 91       		.byte	0x91
 15220 0bc8 58       		.sleb128 -40
 15221 0bc9 AF010000 		.long	.LVL203
 15222 0bcd C0010000 		.long	.LVL205
 15223 0bd1 0200     		.value	0x2
 15224 0bd3 91       		.byte	0x91
 15225 0bd4 58       		.sleb128 -40
 15226 0bd5 00000000 		.long	0
 15227 0bd9 00000000 		.long	0
 15228              	.LVUS20:
 15229 0bdd 02       		.uleb128 .LVU404
 15230 0bde 00       		.uleb128 .LVU495
 15231 0bdf 00       		.uleb128 .LVU496
 15232 0be0 00       		.uleb128 0
 15233              	.LLST20:
 15234 0be1 58000000 		.long	.LVL124
 15235 0be5 E1010000 		.long	.LVL155
 15236 0be9 0300     		.value	0x3
 15237 0beb 08       		.byte	0x8
 15238 0bec 64       		.byte	0x64
 15239 0bed 9F       		.byte	0x9f
 15240 0bee F9010000 		.long	.LVL157
 15241 0bf2 29020000 		.long	.LFE227
 15242 0bf6 0300     		.value	0x3
 15243 0bf8 08       		.byte	0x8
 15244 0bf9 64       		.byte	0x64
 15245 0bfa 9F       		.byte	0x9f
 15246 0bfb 00000000 		.long	0
 15247 0bff 00000000 		.long	0
 15248              	.LVUS21:
 15249 0c03 03       		.uleb128 .LVU405
 15250 0c04 00       		.uleb128 .LVU495
 15251 0c05 00       		.uleb128 .LVU496
GAS LISTING /tmp/ccffpNMU.s 			page 278


 15252 0c06 00       		.uleb128 0
 15253              	.LLST21:
 15254 0c07 58000000 		.long	.LVL124
 15255 0c0b E1010000 		.long	.LVL155
 15256 0c0f 0200     		.value	0x2
 15257 0c11 31       		.byte	0x31
 15258 0c12 9F       		.byte	0x9f
 15259 0c13 F9010000 		.long	.LVL157
 15260 0c17 29020000 		.long	.LFE227
 15261 0c1b 0200     		.value	0x2
 15262 0c1d 31       		.byte	0x31
 15263 0c1e 9F       		.byte	0x9f
 15264 0c1f 00000000 		.long	0
 15265 0c23 00000000 		.long	0
 15266              	.LVUS28:
 15267 0c27 00       		.uleb128 .LVU441
 15268 0c28 00       		.uleb128 .LVU442
 15269 0c29 00       		.uleb128 .LVU442
 15270 0c2a 00       		.uleb128 .LVU447
 15271              	.LLST28:
 15272 0c2b BC000000 		.long	.LVL132
 15273 0c2f C1000000 		.long	.LVL133
 15274 0c33 0200     		.value	0x2
 15275 0c35 31       		.byte	0x31
 15276 0c36 9F       		.byte	0x9f
 15277 0c37 C1000000 		.long	.LVL133
 15278 0c3b 0C010000 		.long	.LVL137
 15279 0c3f 0100     		.value	0x1
 15280 0c41 56       		.byte	0x56
 15281 0c42 00000000 		.long	0
 15282 0c46 00000000 		.long	0
 15283              	.LVUS32:
 15284 0c4a 00       		.uleb128 .LVU485
 15285 0c4b 00       		.uleb128 .LVU486
 15286 0c4c 00       		.uleb128 .LVU486
 15287 0c4d 00       		.uleb128 .LVU491
 15288              	.LLST32:
 15289 0c4e 80010000 		.long	.LVL147
 15290 0c52 85010000 		.long	.LVL148
 15291 0c56 0200     		.value	0x2
 15292 0c58 31       		.byte	0x31
 15293 0c59 9F       		.byte	0x9f
 15294 0c5a 85010000 		.long	.LVL148
 15295 0c5e CC010000 		.long	.LVL152
 15296 0c62 0500     		.value	0x5
 15297 0c64 37       		.byte	0x37
 15298 0c65 76       		.byte	0x76
 15299 0c66 00       		.sleb128 0
 15300 0c67 1C       		.byte	0x1c
 15301 0c68 9F       		.byte	0x9f
 15302 0c69 00000000 		.long	0
 15303 0c6d 00000000 		.long	0
 15304              	.LVUS22:
 15305 0c71 01       		.uleb128 .LVU366
 15306 0c72 00       		.uleb128 .LVU370
 15307              	.LLST22:
 15308 0c73 12000000 		.long	.LVL118
GAS LISTING /tmp/ccffpNMU.s 			page 279


 15309 0c77 1F000000 		.long	.LVL119
 15310 0c7b 0200     		.value	0x2
 15311 0c7d 91       		.byte	0x91
 15312 0c7e 00       		.sleb128 0
 15313 0c7f 00000000 		.long	0
 15314 0c83 00000000 		.long	0
 15315              	.LVUS23:
 15316 0c87 01       		.uleb128 .LVU373
 15317 0c88 00       		.uleb128 .LVU402
 15318 0c89 00       		.uleb128 .LVU495
 15319 0c8a 00       		.uleb128 .LVU496
 15320              	.LLST23:
 15321 0c8b 30000000 		.long	.LVL120
 15322 0c8f 58000000 		.long	.LVL124
 15323 0c93 0100     		.value	0x1
 15324 0c95 55       		.byte	0x55
 15325 0c96 E1010000 		.long	.LVL155
 15326 0c9a F9010000 		.long	.LVL157
 15327 0c9e 0100     		.value	0x1
 15328 0ca0 55       		.byte	0x55
 15329 0ca1 00000000 		.long	0
 15330 0ca5 00000000 		.long	0
 15331              	.LVUS24:
 15332 0ca9 03       		.uleb128 .LVU385
 15333 0caa 00       		.uleb128 .LVU389
 15334 0cab 00       		.uleb128 .LVU495
 15335 0cac 00       		.uleb128 .LVU496
 15336              	.LLST24:
 15337 0cad 42000000 		.long	.LVL121
 15338 0cb1 4A000000 		.long	.LVL122
 15339 0cb5 0100     		.value	0x1
 15340 0cb7 55       		.byte	0x55
 15341 0cb8 E1010000 		.long	.LVL155
 15342 0cbc F9010000 		.long	.LVL157
 15343 0cc0 0100     		.value	0x1
 15344 0cc2 55       		.byte	0x55
 15345 0cc3 00000000 		.long	0
 15346 0cc7 00000000 		.long	0
 15347              	.LVUS25:
 15348 0ccb 04       		.uleb128 .LVU406
 15349 0ccc 00       		.uleb128 .LVU409
 15350              	.LLST25:
 15351 0ccd 58000000 		.long	.LVL124
 15352 0cd1 61000000 		.long	.LVL125
 15353 0cd5 0200     		.value	0x2
 15354 0cd7 91       		.byte	0x91
 15355 0cd8 00       		.sleb128 0
 15356 0cd9 00000000 		.long	0
 15357 0cdd 00000000 		.long	0
 15358              	.LVUS26:
 15359 0ce1 01       		.uleb128 .LVU414
 15360 0ce2 00       		.uleb128 .LVU494
 15361 0ce3 00       		.uleb128 .LVU494
 15362 0ce4 00       		.uleb128 .LVU495
 15363 0ce5 00       		.uleb128 .LVU496
 15364 0ce6 00       		.uleb128 0
 15365              	.LLST26:
GAS LISTING /tmp/ccffpNMU.s 			page 280


 15366 0ce7 9D000000 		.long	.LVL128
 15367 0ceb E0010000 		.long	.LVL154
 15368 0cef 0100     		.value	0x1
 15369 0cf1 55       		.byte	0x55
 15370 0cf2 E0010000 		.long	.LVL154
 15371 0cf6 E1010000 		.long	.LVL155
 15372 0cfa 0200     		.value	0x2
 15373 0cfc 91       		.byte	0x91
 15374 0cfd 04       		.sleb128 4
 15375 0cfe F9010000 		.long	.LVL157
 15376 0d02 29020000 		.long	.LFE227
 15377 0d06 0100     		.value	0x1
 15378 0d08 55       		.byte	0x55
 15379 0d09 00000000 		.long	0
 15380 0d0d 00000000 		.long	0
 15381              	.LVUS27:
 15382 0d11 03       		.uleb128 .LVU425
 15383 0d12 00       		.uleb128 .LVU429
 15384 0d13 00       		.uleb128 .LVU498
 15385 0d14 00       		.uleb128 0
 15386              	.LLST27:
 15387 0d15 A6000000 		.long	.LVL129
 15388 0d19 B1000000 		.long	.LVL130
 15389 0d1d 0100     		.value	0x1
 15390 0d1f 55       		.byte	0x55
 15391 0d20 11020000 		.long	.LVL159
 15392 0d24 29020000 		.long	.LFE227
 15393 0d28 0100     		.value	0x1
 15394 0d2a 55       		.byte	0x55
 15395 0d2b 00000000 		.long	0
 15396 0d2f 00000000 		.long	0
 15397              	.LVUS29:
 15398 0d33 01       		.uleb128 .LVU450
 15399 0d34 00       		.uleb128 .LVU453
 15400              	.LLST29:
 15401 0d35 19010000 		.long	.LVL139
 15402 0d39 25010000 		.long	.LVL140
 15403 0d3d 0200     		.value	0x2
 15404 0d3f 91       		.byte	0x91
 15405 0d40 00       		.sleb128 0
 15406 0d41 00000000 		.long	0
 15407 0d45 00000000 		.long	0
 15408              	.LVUS30:
 15409 0d49 01       		.uleb128 .LVU458
 15410 0d4a 00       		.uleb128 .LVU494
 15411 0d4b 00       		.uleb128 .LVU494
 15412 0d4c 00       		.uleb128 .LVU495
 15413 0d4d 00       		.uleb128 .LVU496
 15414 0d4e 00       		.uleb128 .LVU498
 15415              	.LLST30:
 15416 0d4f 61010000 		.long	.LVL143
 15417 0d53 E0010000 		.long	.LVL154
 15418 0d57 0100     		.value	0x1
 15419 0d59 55       		.byte	0x55
 15420 0d5a E0010000 		.long	.LVL154
 15421 0d5e E1010000 		.long	.LVL155
 15422 0d62 0200     		.value	0x2
GAS LISTING /tmp/ccffpNMU.s 			page 281


 15423 0d64 91       		.byte	0x91
 15424 0d65 04       		.sleb128 4
 15425 0d66 F9010000 		.long	.LVL157
 15426 0d6a 11020000 		.long	.LVL159
 15427 0d6e 0100     		.value	0x1
 15428 0d70 55       		.byte	0x55
 15429 0d71 00000000 		.long	0
 15430 0d75 00000000 		.long	0
 15431              	.LVUS31:
 15432 0d79 03       		.uleb128 .LVU469
 15433 0d7a 00       		.uleb128 .LVU473
 15434 0d7b 00       		.uleb128 .LVU496
 15435 0d7c 00       		.uleb128 .LVU498
 15436              	.LLST31:
 15437 0d7d 6A010000 		.long	.LVL144
 15438 0d81 75010000 		.long	.LVL145
 15439 0d85 0100     		.value	0x1
 15440 0d87 55       		.byte	0x55
 15441 0d88 F9010000 		.long	.LVL157
 15442 0d8c 11020000 		.long	.LVL159
 15443 0d90 0100     		.value	0x1
 15444 0d92 55       		.byte	0x55
 15445 0d93 00000000 		.long	0
 15446 0d97 00000000 		.long	0
 15447              	.LVUS14:
 15448 0d9b 01       		.uleb128 .LVU252
 15449 0d9c 00       		.uleb128 .LVU256
 15450              	.LLST14:
 15451 0d9d 12000000 		.long	.LVL65
 15452 0da1 20000000 		.long	.LVL66
 15453 0da5 0200     		.value	0x2
 15454 0da7 91       		.byte	0x91
 15455 0da8 00       		.sleb128 0
 15456 0da9 00000000 		.long	0
 15457 0dad 00000000 		.long	0
 15458              	.LVUS15:
 15459 0db1 01       		.uleb128 .LVU282
 15460 0db2 00       		.uleb128 .LVU311
 15461 0db3 00       		.uleb128 .LVU360
 15462 0db4 00       		.uleb128 .LVU361
 15463              	.LLST15:
 15464 0db5 F4010000 		.long	.LVL90
 15465 0db9 1C020000 		.long	.LVL94
 15466 0dbd 0100     		.value	0x1
 15467 0dbf 57       		.byte	0x57
 15468 0dc0 3A030000 		.long	.LVL113
 15469 0dc4 51030000 		.long	.LVL115
 15470 0dc8 0100     		.value	0x1
 15471 0dca 57       		.byte	0x57
 15472 0dcb 00000000 		.long	0
 15473 0dcf 00000000 		.long	0
 15474              	.LVUS16:
 15475 0dd3 03       		.uleb128 .LVU294
 15476 0dd4 00       		.uleb128 .LVU298
 15477 0dd5 00       		.uleb128 .LVU360
 15478 0dd6 00       		.uleb128 .LVU361
 15479              	.LLST16:
GAS LISTING /tmp/ccffpNMU.s 			page 282


 15480 0dd7 06020000 		.long	.LVL91
 15481 0ddb 0E020000 		.long	.LVL92
 15482 0ddf 0100     		.value	0x1
 15483 0de1 57       		.byte	0x57
 15484 0de2 3A030000 		.long	.LVL113
 15485 0de6 51030000 		.long	.LVL115
 15486 0dea 0100     		.value	0x1
 15487 0dec 57       		.byte	0x57
 15488 0ded 00000000 		.long	0
 15489 0df1 00000000 		.long	0
 15490              	.LVUS17:
 15491 0df5 02       		.uleb128 .LVU313
 15492 0df6 00       		.uleb128 .LVU316
 15493              	.LLST17:
 15494 0df7 1C020000 		.long	.LVL94
 15495 0dfb 22020000 		.long	.LVL95
 15496 0dff 0200     		.value	0x2
 15497 0e01 91       		.byte	0x91
 15498 0e02 00       		.sleb128 0
 15499 0e03 00000000 		.long	0
 15500 0e07 00000000 		.long	0
 15501              	.LVUS18:
 15502 0e0b 01       		.uleb128 .LVU331
 15503 0e0c 00       		.uleb128 .LVU358
 15504 0e0d 00       		.uleb128 .LVU361
 15505 0e0e 00       		.uleb128 0
 15506              	.LLST18:
 15507 0e0f 17030000 		.long	.LVL108
 15508 0e13 32030000 		.long	.LVL112
 15509 0e17 0100     		.value	0x1
 15510 0e19 57       		.byte	0x57
 15511 0e1a 51030000 		.long	.LVL115
 15512 0e1e 66030000 		.long	.LFE226
 15513 0e22 0100     		.value	0x1
 15514 0e24 57       		.byte	0x57
 15515 0e25 00000000 		.long	0
 15516 0e29 00000000 		.long	0
 15517              	.LVUS19:
 15518 0e2d 03       		.uleb128 .LVU342
 15519 0e2e 00       		.uleb128 .LVU346
 15520 0e2f 00       		.uleb128 .LVU361
 15521 0e30 00       		.uleb128 0
 15522              	.LLST19:
 15523 0e31 20030000 		.long	.LVL109
 15524 0e35 27030000 		.long	.LVL110
 15525 0e39 0100     		.value	0x1
 15526 0e3b 57       		.byte	0x57
 15527 0e3c 51030000 		.long	.LVL115
 15528 0e40 66030000 		.long	.LFE226
 15529 0e44 0100     		.value	0x1
 15530 0e46 57       		.byte	0x57
 15531 0e47 00000000 		.long	0
 15532 0e4b 00000000 		.long	0
 15533              	.LVUS11:
 15534 0e4f 01       		.uleb128 .LVU231
 15535 0e50 00       		.uleb128 .LVU234
 15536              	.LLST11:
GAS LISTING /tmp/ccffpNMU.s 			page 283


 15537 0e51 14000000 		.long	.LVL58
 15538 0e55 1A000000 		.long	.LVL59
 15539 0e59 0100     		.value	0x1
 15540 0e5b 56       		.byte	0x56
 15541 0e5c 00000000 		.long	0
 15542 0e60 00000000 		.long	0
 15543              	.LVUS12:
 15544 0e64 02       		.uleb128 .LVU238
 15545 0e65 00       		.uleb128 .LVU241
 15546              	.LLST12:
 15547 0e66 2B000000 		.long	.LVL60
 15548 0e6a 33000000 		.long	.LVL61
 15549 0e6e 0100     		.value	0x1
 15550 0e70 56       		.byte	0x56
 15551 0e71 00000000 		.long	0
 15552 0e75 00000000 		.long	0
 15553              	.LVUS13:
 15554 0e79 01       		.uleb128 .LVU244
 15555 0e7a 00       		.uleb128 .LVU247
 15556              	.LLST13:
 15557 0e7b 44000000 		.long	.LVL62
 15558 0e7f 4C000000 		.long	.LVL63
 15559 0e83 0100     		.value	0x1
 15560 0e85 56       		.byte	0x56
 15561 0e86 00000000 		.long	0
 15562 0e8a 00000000 		.long	0
 15563              	.LVUS8:
 15564 0e8e 00       		.uleb128 .LVU179
 15565 0e8f 00       		.uleb128 .LVU183
 15566              	.LLST8:
 15567 0e90 03000000 		.long	.LVL44
 15568 0e94 1E000000 		.long	.LVL45
 15569 0e98 0200     		.value	0x2
 15570 0e9a 91       		.byte	0x91
 15571 0e9b 00       		.sleb128 0
 15572 0e9c 00000000 		.long	0
 15573 0ea0 00000000 		.long	0
 15574              	.LVUS9:
 15575 0ea4 01       		.uleb128 .LVU191
 15576 0ea5 00       		.uleb128 .LVU220
 15577 0ea6 00       		.uleb128 .LVU226
 15578 0ea7 00       		.uleb128 0
 15579              	.LLST9:
 15580 0ea8 6E000000 		.long	.LVL50
 15581 0eac 9B000000 		.long	.LVL54
 15582 0eb0 0200     		.value	0x2
 15583 0eb2 91       		.byte	0x91
 15584 0eb3 04       		.sleb128 4
 15585 0eb4 AD000000 		.long	.LVL55
 15586 0eb8 BE000000 		.long	.LFE224
 15587 0ebc 0100     		.value	0x1
 15588 0ebe 57       		.byte	0x57
 15589 0ebf 00000000 		.long	0
 15590 0ec3 00000000 		.long	0
 15591              	.LVUS10:
 15592 0ec7 03       		.uleb128 .LVU203
 15593 0ec8 00       		.uleb128 .LVU207
GAS LISTING /tmp/ccffpNMU.s 			page 284


 15594 0ec9 00       		.uleb128 .LVU226
 15595 0eca 00       		.uleb128 0
 15596              	.LLST10:
 15597 0ecb 80000000 		.long	.LVL51
 15598 0ecf 84000000 		.long	.LVL52
 15599 0ed3 0200     		.value	0x2
 15600 0ed5 91       		.byte	0x91
 15601 0ed6 04       		.sleb128 4
 15602 0ed7 AD000000 		.long	.LVL55
 15603 0edb BE000000 		.long	.LFE224
 15604 0edf 0100     		.value	0x1
 15605 0ee1 57       		.byte	0x57
 15606 0ee2 00000000 		.long	0
 15607 0ee6 00000000 		.long	0
 15608              	.LVUS4:
 15609 0eea 00       		.uleb128 .LVU90
 15610 0eeb 00       		.uleb128 .LVU119
 15611 0eec 00       		.uleb128 .LVU173
 15612 0eed 00       		.uleb128 .LVU174
 15613              	.LLST4:
 15614 0eee 16000000 		.long	.LVL22
 15615 0ef2 41000000 		.long	.LVL26
 15616 0ef6 0100     		.value	0x1
 15617 0ef8 57       		.byte	0x57
 15618 0ef9 21010000 		.long	.LVL39
 15619 0efd 39010000 		.long	.LVL41
 15620 0f01 0100     		.value	0x1
 15621 0f03 57       		.byte	0x57
 15622 0f04 00000000 		.long	0
 15623 0f08 00000000 		.long	0
 15624              	.LVUS5:
 15625 0f0c 03       		.uleb128 .LVU101
 15626 0f0d 00       		.uleb128 .LVU105
 15627 0f0e 00       		.uleb128 .LVU173
 15628 0f0f 00       		.uleb128 .LVU174
 15629              	.LLST5:
 15630 0f10 25000000 		.long	.LVL23
 15631 0f14 2D000000 		.long	.LVL24
 15632 0f18 0100     		.value	0x1
 15633 0f1a 57       		.byte	0x57
 15634 0f1b 21010000 		.long	.LVL39
 15635 0f1f 39010000 		.long	.LVL41
 15636 0f23 0100     		.value	0x1
 15637 0f25 57       		.byte	0x57
 15638 0f26 00000000 		.long	0
 15639 0f2a 00000000 		.long	0
 15640              	.LVUS6:
 15641 0f2e 01       		.uleb128 .LVU144
 15642 0f2f 00       		.uleb128 .LVU172
 15643 0f30 00       		.uleb128 .LVU172
 15644 0f31 00       		.uleb128 .LVU173
 15645 0f32 00       		.uleb128 .LVU174
 15646 0f33 00       		.uleb128 0
 15647              	.LLST6:
 15648 0f34 01010000 		.long	.LVL34
 15649 0f38 1F010000 		.long	.LVL38
 15650 0f3c 0100     		.value	0x1
GAS LISTING /tmp/ccffpNMU.s 			page 285


 15651 0f3e 57       		.byte	0x57
 15652 0f3f 1F010000 		.long	.LVL38
 15653 0f43 21010000 		.long	.LVL39
 15654 0f47 0200     		.value	0x2
 15655 0f49 91       		.byte	0x91
 15656 0f4a 04       		.sleb128 4
 15657 0f4b 39010000 		.long	.LVL41
 15658 0f4f 4E010000 		.long	.LFE223
 15659 0f53 0100     		.value	0x1
 15660 0f55 57       		.byte	0x57
 15661 0f56 00000000 		.long	0
 15662 0f5a 00000000 		.long	0
 15663              	.LVUS7:
 15664 0f5e 03       		.uleb128 .LVU155
 15665 0f5f 00       		.uleb128 .LVU159
 15666 0f60 00       		.uleb128 .LVU174
 15667 0f61 00       		.uleb128 0
 15668              	.LLST7:
 15669 0f62 0A010000 		.long	.LVL35
 15670 0f66 0E010000 		.long	.LVL36
 15671 0f6a 0100     		.value	0x1
 15672 0f6c 57       		.byte	0x57
 15673 0f6d 39010000 		.long	.LVL41
 15674 0f71 4E010000 		.long	.LFE223
 15675 0f75 0100     		.value	0x1
 15676 0f77 57       		.byte	0x57
 15677 0f78 00000000 		.long	0
 15678 0f7c 00000000 		.long	0
 15679              	.LVUS0:
 15680 0f80 00       		.uleb128 .LVU4
 15681 0f81 00       		.uleb128 .LVU33
 15682 0f82 00       		.uleb128 .LVU83
 15683 0f83 00       		.uleb128 .LVU84
 15684              	.LLST0:
 15685 0f84 16000000 		.long	.LVL1
 15686 0f88 41000000 		.long	.LVL5
 15687 0f8c 0100     		.value	0x1
 15688 0f8e 57       		.byte	0x57
 15689 0f8f ED000000 		.long	.LVL17
 15690 0f93 01010000 		.long	.LVL19
 15691 0f97 0100     		.value	0x1
 15692 0f99 57       		.byte	0x57
 15693 0f9a 00000000 		.long	0
 15694 0f9e 00000000 		.long	0
 15695              	.LVUS1:
 15696 0fa2 03       		.uleb128 .LVU15
 15697 0fa3 00       		.uleb128 .LVU19
 15698 0fa4 00       		.uleb128 .LVU83
 15699 0fa5 00       		.uleb128 .LVU84
 15700              	.LLST1:
 15701 0fa6 25000000 		.long	.LVL2
 15702 0faa 2D000000 		.long	.LVL3
 15703 0fae 0100     		.value	0x1
 15704 0fb0 57       		.byte	0x57
 15705 0fb1 ED000000 		.long	.LVL17
 15706 0fb5 01010000 		.long	.LVL19
 15707 0fb9 0100     		.value	0x1
GAS LISTING /tmp/ccffpNMU.s 			page 286


 15708 0fbb 57       		.byte	0x57
 15709 0fbc 00000000 		.long	0
 15710 0fc0 00000000 		.long	0
 15711              	.LVUS2:
 15712 0fc4 01       		.uleb128 .LVU54
 15713 0fc5 00       		.uleb128 .LVU82
 15714 0fc6 00       		.uleb128 .LVU82
 15715 0fc7 00       		.uleb128 .LVU83
 15716 0fc8 00       		.uleb128 .LVU84
 15717 0fc9 00       		.uleb128 0
 15718              	.LLST2:
 15719 0fca CA000000 		.long	.LVL12
 15720 0fce EB000000 		.long	.LVL16
 15721 0fd2 0100     		.value	0x1
 15722 0fd4 57       		.byte	0x57
 15723 0fd5 EB000000 		.long	.LVL16
 15724 0fd9 ED000000 		.long	.LVL17
 15725 0fdd 0200     		.value	0x2
 15726 0fdf 91       		.byte	0x91
 15727 0fe0 04       		.sleb128 4
 15728 0fe1 01010000 		.long	.LVL19
 15729 0fe5 16010000 		.long	.LFE222
 15730 0fe9 0100     		.value	0x1
 15731 0feb 57       		.byte	0x57
 15732 0fec 00000000 		.long	0
 15733 0ff0 00000000 		.long	0
 15734              	.LVUS3:
 15735 0ff4 03       		.uleb128 .LVU65
 15736 0ff5 00       		.uleb128 .LVU69
 15737 0ff6 00       		.uleb128 .LVU84
 15738 0ff7 00       		.uleb128 0
 15739              	.LLST3:
 15740 0ff8 D3000000 		.long	.LVL13
 15741 0ffc DA000000 		.long	.LVL14
 15742 1000 0100     		.value	0x1
 15743 1002 57       		.byte	0x57
 15744 1003 01010000 		.long	.LVL19
 15745 1007 16010000 		.long	.LFE222
 15746 100b 0100     		.value	0x1
 15747 100d 57       		.byte	0x57
 15748 100e 00000000 		.long	0
 15749 1012 00000000 		.long	0
 15750              		.section	.debug_aranges,"",@progbits
 15751 0000 6C000000 		.long	0x6c
 15752 0004 0200     		.value	0x2
 15753 0006 00000000 		.long	.Ldebug_info0
 15754 000a 04       		.byte	0x4
 15755 000b 00       		.byte	0
 15756 000c 0000     		.value	0
 15757 000e 0000     		.value	0
 15758 0010 00000000 		.long	.LFB222
 15759 0014 16010000 		.long	.LFE222-.LFB222
 15760 0018 00000000 		.long	.LFB223
 15761 001c 4E010000 		.long	.LFE223-.LFB223
 15762 0020 00000000 		.long	.LFB224
 15763 0024 BE000000 		.long	.LFE224-.LFB224
 15764 0028 00000000 		.long	.LFB225
GAS LISTING /tmp/ccffpNMU.s 			page 287


 15765 002c 52000000 		.long	.LFE225-.LFB225
 15766 0030 00000000 		.long	.LFB226
 15767 0034 66030000 		.long	.LFE226-.LFB226
 15768 0038 00000000 		.long	.LFB227
 15769 003c 29020000 		.long	.LFE227-.LFB227
 15770 0040 00000000 		.long	.LFB228
 15771 0044 D4010000 		.long	.LFE228-.LFB228
 15772 0048 00000000 		.long	.LFB229
 15773 004c 25020000 		.long	.LFE229-.LFB229
 15774 0050 00000000 		.long	.LFB230
 15775 0054 33030000 		.long	.LFE230-.LFB230
 15776 0058 00000000 		.long	.LFB231
 15777 005c 43020000 		.long	.LFE231-.LFB231
 15778 0060 00000000 		.long	.LFB232
 15779 0064 F1010000 		.long	.LFE232-.LFB232
 15780 0068 00000000 		.long	0
 15781 006c 00000000 		.long	0
 15782              		.section	.debug_ranges,"",@progbits
 15783              	.Ldebug_ranges0:
 15784 0000 16000000 		.long	.LBB111
 15785 0004 16000000 		.long	.LBE111
 15786 0008 16000000 		.long	.LBB138
 15787 000c 25000000 		.long	.LBE138
 15788 0010 25000000 		.long	.LBB139
 15789 0014 32000000 		.long	.LBE139
 15790 0018 3B000000 		.long	.LBB143
 15791 001c 41000000 		.long	.LBE143
 15792 0020 F0000000 		.long	.LBB169
 15793 0024 08010000 		.long	.LBE169
 15794 0028 00000000 		.long	0
 15795 002c 00000000 		.long	0
 15796 0030 16000000 		.long	.LBB113
 15797 0034 16000000 		.long	.LBE113
 15798 0038 16000000 		.long	.LBB118
 15799 003c 16000000 		.long	.LBE118
 15800 0040 19000000 		.long	.LBB123
 15801 0044 25000000 		.long	.LBE123
 15802 0048 00000000 		.long	0
 15803 004c 00000000 		.long	0
 15804 0050 16000000 		.long	.LBB119
 15805 0054 19000000 		.long	.LBE119
 15806 0058 25000000 		.long	.LBB124
 15807 005c 2D000000 		.long	.LBE124
 15808 0060 F0000000 		.long	.LBB133
 15809 0064 08010000 		.long	.LBE133
 15810 0068 00000000 		.long	0
 15811 006c 00000000 		.long	0
 15812 0070 32000000 		.long	.LBB125
 15813 0074 32000000 		.long	.LBE125
 15814 0078 3B000000 		.long	.LBB132
 15815 007c 41000000 		.long	.LBE132
 15816 0080 00000000 		.long	0
 15817 0084 00000000 		.long	0
 15818 0088 32000000 		.long	.LBB140
 15819 008c 35000000 		.long	.LBE140
 15820 0090 41000000 		.long	.LBB144
 15821 0094 4A000000 		.long	.LBE144
GAS LISTING /tmp/ccffpNMU.s 			page 288


 15822 0098 00000000 		.long	0
 15823 009c 00000000 		.long	0
 15824 00a0 CA000000 		.long	.LBB145
 15825 00a4 CA000000 		.long	.LBE145
 15826 00a8 CA000000 		.long	.LBB167
 15827 00ac D3000000 		.long	.LBE167
 15828 00b0 D3000000 		.long	.LBB168
 15829 00b4 E5000000 		.long	.LBE168
 15830 00b8 08010000 		.long	.LBB170
 15831 00bc 16010000 		.long	.LBE170
 15832 00c0 00000000 		.long	0
 15833 00c4 00000000 		.long	0
 15834 00c8 CA000000 		.long	.LBB147
 15835 00cc CA000000 		.long	.LBE147
 15836 00d0 CA000000 		.long	.LBB152
 15837 00d4 CA000000 		.long	.LBE152
 15838 00d8 CD000000 		.long	.LBB157
 15839 00dc D3000000 		.long	.LBE157
 15840 00e0 00000000 		.long	0
 15841 00e4 00000000 		.long	0
 15842 00e8 CA000000 		.long	.LBB153
 15843 00ec CD000000 		.long	.LBE153
 15844 00f0 D3000000 		.long	.LBB158
 15845 00f4 DA000000 		.long	.LBE158
 15846 00f8 08010000 		.long	.LBB163
 15847 00fc 16010000 		.long	.LBE163
 15848 0100 00000000 		.long	0
 15849 0104 00000000 		.long	0
 15850 0108 16000000 		.long	.LBB195
 15851 010c 16000000 		.long	.LBE195
 15852 0110 16000000 		.long	.LBB222
 15853 0114 25000000 		.long	.LBE222
 15854 0118 25000000 		.long	.LBB223
 15855 011c 32000000 		.long	.LBE223
 15856 0120 3B000000 		.long	.LBB227
 15857 0124 41000000 		.long	.LBE227
 15858 0128 28010000 		.long	.LBB257
 15859 012c 40010000 		.long	.LBE257
 15860 0130 00000000 		.long	0
 15861 0134 00000000 		.long	0
 15862 0138 16000000 		.long	.LBB197
 15863 013c 16000000 		.long	.LBE197
 15864 0140 16000000 		.long	.LBB202
 15865 0144 16000000 		.long	.LBE202
 15866 0148 19000000 		.long	.LBB207
 15867 014c 25000000 		.long	.LBE207
 15868 0150 00000000 		.long	0
 15869 0154 00000000 		.long	0
 15870 0158 16000000 		.long	.LBB203
 15871 015c 19000000 		.long	.LBE203
 15872 0160 25000000 		.long	.LBB208
 15873 0164 2D000000 		.long	.LBE208
 15874 0168 28010000 		.long	.LBB217
 15875 016c 40010000 		.long	.LBE217
 15876 0170 00000000 		.long	0
 15877 0174 00000000 		.long	0
 15878 0178 32000000 		.long	.LBB209
GAS LISTING /tmp/ccffpNMU.s 			page 289


 15879 017c 32000000 		.long	.LBE209
 15880 0180 3B000000 		.long	.LBB216
 15881 0184 41000000 		.long	.LBE216
 15882 0188 00000000 		.long	0
 15883 018c 00000000 		.long	0
 15884 0190 32000000 		.long	.LBB224
 15885 0194 35000000 		.long	.LBE224
 15886 0198 41000000 		.long	.LBB228
 15887 019c 4A000000 		.long	.LBE228
 15888 01a0 00000000 		.long	0
 15889 01a4 00000000 		.long	0
 15890 01a8 F8000000 		.long	.LBB229
 15891 01ac FB000000 		.long	.LBE229
 15892 01b0 01010000 		.long	.LBB254
 15893 01b4 01010000 		.long	.LBE254
 15894 01b8 01010000 		.long	.LBB255
 15895 01bc 0A010000 		.long	.LBE255
 15896 01c0 0A010000 		.long	.LBB256
 15897 01c4 19010000 		.long	.LBE256
 15898 01c8 40010000 		.long	.LBB258
 15899 01cc 4E010000 		.long	.LBE258
 15900 01d0 00000000 		.long	0
 15901 01d4 00000000 		.long	0
 15902 01d8 F8000000 		.long	.LBB231
 15903 01dc FB000000 		.long	.LBE231
 15904 01e0 01010000 		.long	.LBB242
 15905 01e4 04010000 		.long	.LBE242
 15906 01e8 0A010000 		.long	.LBB244
 15907 01ec 0E010000 		.long	.LBE244
 15908 01f0 40010000 		.long	.LBB249
 15909 01f4 4E010000 		.long	.LBE249
 15910 01f8 00000000 		.long	0
 15911 01fc 00000000 		.long	0
 15912 0200 01010000 		.long	.LBB236
 15913 0204 01010000 		.long	.LBE236
 15914 0208 01010000 		.long	.LBB241
 15915 020c 01010000 		.long	.LBE241
 15916 0210 04010000 		.long	.LBB243
 15917 0214 0A010000 		.long	.LBE243
 15918 0218 00000000 		.long	0
 15919 021c 00000000 		.long	0
 15920 0220 03000000 		.long	.LBB272
 15921 0224 03000000 		.long	.LBE272
 15922 0228 12000000 		.long	.LBB275
 15923 022c 1E000000 		.long	.LBE275
 15924 0230 00000000 		.long	0
 15925 0234 00000000 		.long	0
 15926 0238 6E000000 		.long	.LBB276
 15927 023c 6E000000 		.long	.LBE276
 15928 0240 6E000000 		.long	.LBB303
 15929 0244 80000000 		.long	.LBE303
 15930 0248 80000000 		.long	.LBB304
 15931 024c 89000000 		.long	.LBE304
 15932 0250 95000000 		.long	.LBB305
 15933 0254 9B000000 		.long	.LBE305
 15934 0258 B0000000 		.long	.LBB306
 15935 025c BE000000 		.long	.LBE306
GAS LISTING /tmp/ccffpNMU.s 			page 290


 15936 0260 00000000 		.long	0
 15937 0264 00000000 		.long	0
 15938 0268 6E000000 		.long	.LBB278
 15939 026c 6E000000 		.long	.LBE278
 15940 0270 6E000000 		.long	.LBB283
 15941 0274 74000000 		.long	.LBE283
 15942 0278 7A000000 		.long	.LBB288
 15943 027c 80000000 		.long	.LBE288
 15944 0280 00000000 		.long	0
 15945 0284 00000000 		.long	0
 15946 0288 74000000 		.long	.LBB284
 15947 028c 7A000000 		.long	.LBE284
 15948 0290 80000000 		.long	.LBB289
 15949 0294 84000000 		.long	.LBE289
 15950 0298 B0000000 		.long	.LBB298
 15951 029c BE000000 		.long	.LBE298
 15952 02a0 00000000 		.long	0
 15953 02a4 00000000 		.long	0
 15954 02a8 89000000 		.long	.LBB290
 15955 02ac 89000000 		.long	.LBE290
 15956 02b0 95000000 		.long	.LBB297
 15957 02b4 9B000000 		.long	.LBE297
 15958 02b8 00000000 		.long	0
 15959 02bc 00000000 		.long	0
 15960 02c0 12000000 		.long	.LBB339
 15961 02c4 12000000 		.long	.LBE339
 15962 02c8 1A000000 		.long	.LBB342
 15963 02cc 20000000 		.long	.LBE342
 15964 02d0 00000000 		.long	0
 15965 02d4 00000000 		.long	0
 15966 02d8 F4010000 		.long	.LBB343
 15967 02dc F4010000 		.long	.LBE343
 15968 02e0 F4010000 		.long	.LBB370
 15969 02e4 06020000 		.long	.LBE370
 15970 02e8 06020000 		.long	.LBB371
 15971 02ec 13020000 		.long	.LBE371
 15972 02f0 16020000 		.long	.LBB375
 15973 02f4 1C020000 		.long	.LBE375
 15974 02f8 40030000 		.long	.LBB401
 15975 02fc 58030000 		.long	.LBE401
 15976 0300 00000000 		.long	0
 15977 0304 00000000 		.long	0
 15978 0308 F4010000 		.long	.LBB345
 15979 030c F4010000 		.long	.LBE345
 15980 0310 F4010000 		.long	.LBB350
 15981 0314 FA010000 		.long	.LBE350
 15982 0318 00020000 		.long	.LBB355
 15983 031c 06020000 		.long	.LBE355
 15984 0320 00000000 		.long	0
 15985 0324 00000000 		.long	0
 15986 0328 FA010000 		.long	.LBB351
 15987 032c 00020000 		.long	.LBE351
 15988 0330 06020000 		.long	.LBB356
 15989 0334 0E020000 		.long	.LBE356
 15990 0338 40030000 		.long	.LBB365
 15991 033c 58030000 		.long	.LBE365
 15992 0340 00000000 		.long	0
GAS LISTING /tmp/ccffpNMU.s 			page 291


 15993 0344 00000000 		.long	0
 15994 0348 13020000 		.long	.LBB357
 15995 034c 13020000 		.long	.LBE357
 15996 0350 16020000 		.long	.LBB364
 15997 0354 1C020000 		.long	.LBE364
 15998 0358 00000000 		.long	0
 15999 035c 00000000 		.long	0
 16000 0360 13020000 		.long	.LBB372
 16001 0364 16020000 		.long	.LBE372
 16002 0368 1C020000 		.long	.LBB376
 16003 036c 22020000 		.long	.LBE376
 16004 0370 00000000 		.long	0
 16005 0374 00000000 		.long	0
 16006 0378 17030000 		.long	.LBB377
 16007 037c 17030000 		.long	.LBE377
 16008 0380 17030000 		.long	.LBB399
 16009 0384 20030000 		.long	.LBE399
 16010 0388 20030000 		.long	.LBB400
 16011 038c 32030000 		.long	.LBE400
 16012 0390 58030000 		.long	.LBB402
 16013 0394 66030000 		.long	.LBE402
 16014 0398 00000000 		.long	0
 16015 039c 00000000 		.long	0
 16016 03a0 17030000 		.long	.LBB379
 16017 03a4 17030000 		.long	.LBE379
 16018 03a8 17030000 		.long	.LBB384
 16019 03ac 17030000 		.long	.LBE384
 16020 03b0 1A030000 		.long	.LBB389
 16021 03b4 20030000 		.long	.LBE389
 16022 03b8 00000000 		.long	0
 16023 03bc 00000000 		.long	0
 16024 03c0 17030000 		.long	.LBB385
 16025 03c4 1A030000 		.long	.LBE385
 16026 03c8 20030000 		.long	.LBB390
 16027 03cc 27030000 		.long	.LBE390
 16028 03d0 58030000 		.long	.LBB395
 16029 03d4 66030000 		.long	.LBE395
 16030 03d8 00000000 		.long	0
 16031 03dc 00000000 		.long	0
 16032 03e0 12000000 		.long	.LBB444
 16033 03e4 12000000 		.long	.LBE444
 16034 03e8 16000000 		.long	.LBB447
 16035 03ec 1F000000 		.long	.LBE447
 16036 03f0 00000000 		.long	0
 16037 03f4 00000000 		.long	0
 16038 03f8 30000000 		.long	.LBB448
 16039 03fc 30000000 		.long	.LBE448
 16040 0400 30000000 		.long	.LBB475
 16041 0404 42000000 		.long	.LBE475
 16042 0408 42000000 		.long	.LBB476
 16043 040c 4F000000 		.long	.LBE476
 16044 0410 52000000 		.long	.LBB480
 16045 0414 58000000 		.long	.LBE480
 16046 0418 E8010000 		.long	.LBB534
 16047 041c 00020000 		.long	.LBE534
 16048 0420 00000000 		.long	0
 16049 0424 00000000 		.long	0
GAS LISTING /tmp/ccffpNMU.s 			page 292


 16050 0428 30000000 		.long	.LBB450
 16051 042c 30000000 		.long	.LBE450
 16052 0430 30000000 		.long	.LBB455
 16053 0434 36000000 		.long	.LBE455
 16054 0438 3C000000 		.long	.LBB460
 16055 043c 42000000 		.long	.LBE460
 16056 0440 00000000 		.long	0
 16057 0444 00000000 		.long	0
 16058 0448 36000000 		.long	.LBB456
 16059 044c 3C000000 		.long	.LBE456
 16060 0450 42000000 		.long	.LBB461
 16061 0454 4A000000 		.long	.LBE461
 16062 0458 E8010000 		.long	.LBB470
 16063 045c 00020000 		.long	.LBE470
 16064 0460 00000000 		.long	0
 16065 0464 00000000 		.long	0
 16066 0468 4F000000 		.long	.LBB462
 16067 046c 4F000000 		.long	.LBE462
 16068 0470 52000000 		.long	.LBB469
 16069 0474 58000000 		.long	.LBE469
 16070 0478 00000000 		.long	0
 16071 047c 00000000 		.long	0
 16072 0480 4F000000 		.long	.LBB477
 16073 0484 52000000 		.long	.LBE477
 16074 0488 58000000 		.long	.LBB481
 16075 048c 61000000 		.long	.LBE481
 16076 0490 00000000 		.long	0
 16077 0494 00000000 		.long	0
 16078 0498 9D000000 		.long	.LBB482
 16079 049c 9D000000 		.long	.LBE482
 16080 04a0 9D000000 		.long	.LBB504
 16081 04a4 A6000000 		.long	.LBE504
 16082 04a8 A6000000 		.long	.LBB505
 16083 04ac C8000000 		.long	.LBE505
 16084 04b0 18020000 		.long	.LBB536
 16085 04b4 29020000 		.long	.LBE536
 16086 04b8 00000000 		.long	0
 16087 04bc 00000000 		.long	0
 16088 04c0 9D000000 		.long	.LBB484
 16089 04c4 9D000000 		.long	.LBE484
 16090 04c8 9D000000 		.long	.LBB489
 16091 04cc 9D000000 		.long	.LBE489
 16092 04d0 A0000000 		.long	.LBB494
 16093 04d4 A6000000 		.long	.LBE494
 16094 04d8 00000000 		.long	0
 16095 04dc 00000000 		.long	0
 16096 04e0 9D000000 		.long	.LBB490
 16097 04e4 A0000000 		.long	.LBE490
 16098 04e8 A6000000 		.long	.LBB495
 16099 04ec B1000000 		.long	.LBE495
 16100 04f0 18020000 		.long	.LBB500
 16101 04f4 29020000 		.long	.LBE500
 16102 04f8 00000000 		.long	0
 16103 04fc 00000000 		.long	0
 16104 0500 61010000 		.long	.LBB509
 16105 0504 61010000 		.long	.LBE509
 16106 0508 61010000 		.long	.LBB531
GAS LISTING /tmp/ccffpNMU.s 			page 293


 16107 050c 6A010000 		.long	.LBE531
 16108 0510 6A010000 		.long	.LBB532
 16109 0514 88010000 		.long	.LBE532
 16110 0518 00020000 		.long	.LBB535
 16111 051c 18020000 		.long	.LBE535
 16112 0520 00000000 		.long	0
 16113 0524 00000000 		.long	0
 16114 0528 61010000 		.long	.LBB511
 16115 052c 61010000 		.long	.LBE511
 16116 0530 61010000 		.long	.LBB516
 16117 0534 61010000 		.long	.LBE516
 16118 0538 64010000 		.long	.LBB521
 16119 053c 6A010000 		.long	.LBE521
 16120 0540 00000000 		.long	0
 16121 0544 00000000 		.long	0
 16122 0548 61010000 		.long	.LBB517
 16123 054c 64010000 		.long	.LBE517
 16124 0550 6A010000 		.long	.LBB522
 16125 0554 75010000 		.long	.LBE522
 16126 0558 00020000 		.long	.LBB527
 16127 055c 18020000 		.long	.LBE527
 16128 0560 00000000 		.long	0
 16129 0564 00000000 		.long	0
 16130 0568 1E000000 		.long	.LBB578
 16131 056c 1E000000 		.long	.LBE578
 16132 0570 1E000000 		.long	.LBB606
 16133 0574 27000000 		.long	.LBE606
 16134 0578 2B000000 		.long	.LBB607
 16135 057c 35000000 		.long	.LBE607
 16136 0580 35000000 		.long	.LBB608
 16137 0584 46000000 		.long	.LBE608
 16138 0588 4B000000 		.long	.LBB614
 16139 058c 51000000 		.long	.LBE614
 16140 0590 9B010000 		.long	.LBB674
 16141 0594 AF010000 		.long	.LBE674
 16142 0598 00000000 		.long	0
 16143 059c 00000000 		.long	0
 16144 05a0 1E000000 		.long	.LBB580
 16145 05a4 1E000000 		.long	.LBE580
 16146 05a8 1E000000 		.long	.LBB585
 16147 05ac 24000000 		.long	.LBE585
 16148 05b0 2B000000 		.long	.LBB590
 16149 05b4 35000000 		.long	.LBE590
 16150 05b8 00000000 		.long	0
 16151 05bc 00000000 		.long	0
 16152 05c0 24000000 		.long	.LBB586
 16153 05c4 27000000 		.long	.LBE586
 16154 05c8 35000000 		.long	.LBB591
 16155 05cc 3D000000 		.long	.LBE591
 16156 05d0 9B010000 		.long	.LBB600
 16157 05d4 AF010000 		.long	.LBE600
 16158 05d8 00000000 		.long	0
 16159 05dc 00000000 		.long	0
 16160 05e0 42000000 		.long	.LBB592
 16161 05e4 46000000 		.long	.LBE592
 16162 05e8 4B000000 		.long	.LBB599
 16163 05ec 51000000 		.long	.LBE599
GAS LISTING /tmp/ccffpNMU.s 			page 294


 16164 05f0 00000000 		.long	0
 16165 05f4 00000000 		.long	0
 16166 05f8 46000000 		.long	.LBB609
 16167 05fc 4B000000 		.long	.LBE609
 16168 0600 51000000 		.long	.LBB615
 16169 0604 5A000000 		.long	.LBE615
 16170 0608 5A000000 		.long	.LBB618
 16171 060c 5F000000 		.long	.LBE618
 16172 0610 FE000000 		.long	.LBB653
 16173 0614 08010000 		.long	.LBE653
 16174 0618 00000000 		.long	0
 16175 061c 00000000 		.long	0
 16176 0620 5A000000 		.long	.LBB616
 16177 0624 5A000000 		.long	.LBE616
 16178 0628 70000000 		.long	.LBB619
 16179 062c C3000000 		.long	.LBE619
 16180 0630 00000000 		.long	0
 16181 0634 00000000 		.long	0
 16182 0638 C3000000 		.long	.LBB620
 16183 063c C3000000 		.long	.LBE620
 16184 0640 C3000000 		.long	.LBB642
 16185 0644 CD000000 		.long	.LBE642
 16186 0648 CD000000 		.long	.LBB643
 16187 064c E5000000 		.long	.LBE643
 16188 0650 EA000000 		.long	.LBB648
 16189 0654 F0000000 		.long	.LBE648
 16190 0658 C0010000 		.long	.LBB676
 16191 065c D4010000 		.long	.LBE676
 16192 0660 00000000 		.long	0
 16193 0664 00000000 		.long	0
 16194 0668 C3000000 		.long	.LBB622
 16195 066c C3000000 		.long	.LBE622
 16196 0670 C3000000 		.long	.LBB625
 16197 0674 CD000000 		.long	.LBE625
 16198 0678 00000000 		.long	0
 16199 067c 00000000 		.long	0
 16200 0680 CD000000 		.long	.LBB626
 16201 0684 DC000000 		.long	.LBE626
 16202 0688 C0010000 		.long	.LBB637
 16203 068c D4010000 		.long	.LBE637
 16204 0690 00000000 		.long	0
 16205 0694 00000000 		.long	0
 16206 0698 E1000000 		.long	.LBB629
 16207 069c E5000000 		.long	.LBE629
 16208 06a0 EA000000 		.long	.LBB636
 16209 06a4 F0000000 		.long	.LBE636
 16210 06a8 00000000 		.long	0
 16211 06ac 00000000 		.long	0
 16212 06b0 E5000000 		.long	.LBB644
 16213 06b4 EA000000 		.long	.LBE644
 16214 06b8 F0000000 		.long	.LBB649
 16215 06bc F9000000 		.long	.LBE649
 16216 06c0 F9000000 		.long	.LBB652
 16217 06c4 FE000000 		.long	.LBE652
 16218 06c8 00000000 		.long	0
 16219 06cc 00000000 		.long	0
 16220 06d0 F9000000 		.long	.LBB650
GAS LISTING /tmp/ccffpNMU.s 			page 295


 16221 06d4 F9000000 		.long	.LBE650
 16222 06d8 08010000 		.long	.LBB654
 16223 06dc 5B010000 		.long	.LBE654
 16224 06e0 00000000 		.long	0
 16225 06e4 00000000 		.long	0
 16226 06e8 5B010000 		.long	.LBB655
 16227 06ec 5B010000 		.long	.LBE655
 16228 06f0 5B010000 		.long	.LBB672
 16229 06f4 65010000 		.long	.LBE672
 16230 06f8 65010000 		.long	.LBB673
 16231 06fc 7F010000 		.long	.LBE673
 16232 0700 AF010000 		.long	.LBB675
 16233 0704 C0010000 		.long	.LBE675
 16234 0708 00000000 		.long	0
 16235 070c 00000000 		.long	0
 16236 0710 5B010000 		.long	.LBB657
 16237 0714 5B010000 		.long	.LBE657
 16238 0718 5B010000 		.long	.LBB660
 16239 071c 65010000 		.long	.LBE660
 16240 0720 00000000 		.long	0
 16241 0724 00000000 		.long	0
 16242 0728 65010000 		.long	.LBB661
 16243 072c 70010000 		.long	.LBE661
 16244 0730 AF010000 		.long	.LBB668
 16245 0734 C0010000 		.long	.LBE668
 16246 0738 00000000 		.long	0
 16247 073c 00000000 		.long	0
 16248 0740 1E000000 		.long	.LBB718
 16249 0744 1E000000 		.long	.LBE718
 16250 0748 1E000000 		.long	.LBB746
 16251 074c 27000000 		.long	.LBE746
 16252 0750 2B000000 		.long	.LBB747
 16253 0754 35000000 		.long	.LBE747
 16254 0758 35000000 		.long	.LBB748
 16255 075c 46000000 		.long	.LBE748
 16256 0760 4B000000 		.long	.LBB754
 16257 0764 51000000 		.long	.LBE754
 16258 0768 EC010000 		.long	.LBB814
 16259 076c 00020000 		.long	.LBE814
 16260 0770 00000000 		.long	0
 16261 0774 00000000 		.long	0
 16262 0778 1E000000 		.long	.LBB720
 16263 077c 1E000000 		.long	.LBE720
 16264 0780 1E000000 		.long	.LBB725
 16265 0784 24000000 		.long	.LBE725
 16266 0788 2B000000 		.long	.LBB730
 16267 078c 35000000 		.long	.LBE730
 16268 0790 00000000 		.long	0
 16269 0794 00000000 		.long	0
 16270 0798 24000000 		.long	.LBB726
 16271 079c 27000000 		.long	.LBE726
 16272 07a0 35000000 		.long	.LBB731
 16273 07a4 3D000000 		.long	.LBE731
 16274 07a8 EC010000 		.long	.LBB740
 16275 07ac 00020000 		.long	.LBE740
 16276 07b0 00000000 		.long	0
 16277 07b4 00000000 		.long	0
GAS LISTING /tmp/ccffpNMU.s 			page 296


 16278 07b8 42000000 		.long	.LBB732
 16279 07bc 46000000 		.long	.LBE732
 16280 07c0 4B000000 		.long	.LBB739
 16281 07c4 51000000 		.long	.LBE739
 16282 07c8 00000000 		.long	0
 16283 07cc 00000000 		.long	0
 16284 07d0 46000000 		.long	.LBB749
 16285 07d4 4B000000 		.long	.LBE749
 16286 07d8 51000000 		.long	.LBB755
 16287 07dc 5A000000 		.long	.LBE755
 16288 07e0 5A000000 		.long	.LBB758
 16289 07e4 5F000000 		.long	.LBE758
 16290 07e8 FE000000 		.long	.LBB793
 16291 07ec 08010000 		.long	.LBE793
 16292 07f0 00000000 		.long	0
 16293 07f4 00000000 		.long	0
 16294 07f8 5A000000 		.long	.LBB756
 16295 07fc 5A000000 		.long	.LBE756
 16296 0800 70000000 		.long	.LBB759
 16297 0804 C3000000 		.long	.LBE759
 16298 0808 00000000 		.long	0
 16299 080c 00000000 		.long	0
 16300 0810 C3000000 		.long	.LBB760
 16301 0814 C3000000 		.long	.LBE760
 16302 0818 C3000000 		.long	.LBB782
 16303 081c CD000000 		.long	.LBE782
 16304 0820 CD000000 		.long	.LBB783
 16305 0824 E5000000 		.long	.LBE783
 16306 0828 EA000000 		.long	.LBB788
 16307 082c F0000000 		.long	.LBE788
 16308 0830 11020000 		.long	.LBB816
 16309 0834 25020000 		.long	.LBE816
 16310 0838 00000000 		.long	0
 16311 083c 00000000 		.long	0
 16312 0840 C3000000 		.long	.LBB762
 16313 0844 C3000000 		.long	.LBE762
 16314 0848 C3000000 		.long	.LBB765
 16315 084c CD000000 		.long	.LBE765
 16316 0850 00000000 		.long	0
 16317 0854 00000000 		.long	0
 16318 0858 CD000000 		.long	.LBB766
 16319 085c DC000000 		.long	.LBE766
 16320 0860 11020000 		.long	.LBB777
 16321 0864 25020000 		.long	.LBE777
 16322 0868 00000000 		.long	0
 16323 086c 00000000 		.long	0
 16324 0870 E1000000 		.long	.LBB769
 16325 0874 E5000000 		.long	.LBE769
 16326 0878 EA000000 		.long	.LBB776
 16327 087c F0000000 		.long	.LBE776
 16328 0880 00000000 		.long	0
 16329 0884 00000000 		.long	0
 16330 0888 E5000000 		.long	.LBB784
 16331 088c EA000000 		.long	.LBE784
 16332 0890 F0000000 		.long	.LBB789
 16333 0894 F9000000 		.long	.LBE789
 16334 0898 F9000000 		.long	.LBB792
GAS LISTING /tmp/ccffpNMU.s 			page 297


 16335 089c FE000000 		.long	.LBE792
 16336 08a0 00000000 		.long	0
 16337 08a4 00000000 		.long	0
 16338 08a8 F9000000 		.long	.LBB790
 16339 08ac F9000000 		.long	.LBE790
 16340 08b0 08010000 		.long	.LBB794
 16341 08b4 AC010000 		.long	.LBE794
 16342 08b8 00000000 		.long	0
 16343 08bc 00000000 		.long	0
 16344 08c0 AC010000 		.long	.LBB795
 16345 08c4 AC010000 		.long	.LBE795
 16346 08c8 AC010000 		.long	.LBB812
 16347 08cc B6010000 		.long	.LBE812
 16348 08d0 B6010000 		.long	.LBB813
 16349 08d4 D0010000 		.long	.LBE813
 16350 08d8 00020000 		.long	.LBB815
 16351 08dc 11020000 		.long	.LBE815
 16352 08e0 00000000 		.long	0
 16353 08e4 00000000 		.long	0
 16354 08e8 AC010000 		.long	.LBB797
 16355 08ec AC010000 		.long	.LBE797
 16356 08f0 AC010000 		.long	.LBB800
 16357 08f4 B6010000 		.long	.LBE800
 16358 08f8 00000000 		.long	0
 16359 08fc 00000000 		.long	0
 16360 0900 B6010000 		.long	.LBB801
 16361 0904 C1010000 		.long	.LBE801
 16362 0908 00020000 		.long	.LBB808
 16363 090c 11020000 		.long	.LBE808
 16364 0910 00000000 		.long	0
 16365 0914 00000000 		.long	0
 16366 0918 12000000 		.long	.LBB860
 16367 091c 12000000 		.long	.LBE860
 16368 0920 12000000 		.long	.LBB882
 16369 0924 22000000 		.long	.LBE882
 16370 0928 22000000 		.long	.LBB883
 16371 092c 3A000000 		.long	.LBE883
 16372 0930 3F000000 		.long	.LBB889
 16373 0934 45000000 		.long	.LBE889
 16374 0938 1F030000 		.long	.LBB961
 16375 093c 33030000 		.long	.LBE961
 16376 0940 00000000 		.long	0
 16377 0944 00000000 		.long	0
 16378 0948 12000000 		.long	.LBB862
 16379 094c 12000000 		.long	.LBE862
 16380 0950 12000000 		.long	.LBB865
 16381 0954 22000000 		.long	.LBE865
 16382 0958 00000000 		.long	0
 16383 095c 00000000 		.long	0
 16384 0960 22000000 		.long	.LBB866
 16385 0964 31000000 		.long	.LBE866
 16386 0968 1F030000 		.long	.LBB877
 16387 096c 33030000 		.long	.LBE877
 16388 0970 00000000 		.long	0
 16389 0974 00000000 		.long	0
 16390 0978 36000000 		.long	.LBB869
 16391 097c 3A000000 		.long	.LBE869
GAS LISTING /tmp/ccffpNMU.s 			page 298


 16392 0980 3F000000 		.long	.LBB876
 16393 0984 45000000 		.long	.LBE876
 16394 0988 00000000 		.long	0
 16395 098c 00000000 		.long	0
 16396 0990 3A000000 		.long	.LBB884
 16397 0994 3F000000 		.long	.LBE884
 16398 0998 45000000 		.long	.LBB890
 16399 099c 4E000000 		.long	.LBE890
 16400 09a0 4E000000 		.long	.LBB891
 16401 09a4 5E000000 		.long	.LBE891
 16402 09a8 6E010000 		.long	.LBB924
 16403 09ac C8010000 		.long	.LBE924
 16404 09b0 00000000 		.long	0
 16405 09b4 00000000 		.long	0
 16406 09b8 B8000000 		.long	.LBB892
 16407 09bc 0F010000 		.long	.LBE892
 16408 09c0 80020000 		.long	.LBB957
 16409 09c4 C0020000 		.long	.LBE957
 16410 09c8 00000000 		.long	0
 16411 09cc 00000000 		.long	0
 16412 09d0 B8000000 		.long	.LBB893
 16413 09d4 0A010000 		.long	.LBE893
 16414 09d8 80020000 		.long	.LBB894
 16415 09dc C0020000 		.long	.LBE894
 16416 09e0 00000000 		.long	0
 16417 09e4 00000000 		.long	0
 16418 09e8 0F010000 		.long	.LBB895
 16419 09ec 0F010000 		.long	.LBE895
 16420 09f0 0F010000 		.long	.LBB917
 16421 09f4 19010000 		.long	.LBE917
 16422 09f8 19010000 		.long	.LBB918
 16423 09fc 31010000 		.long	.LBE918
 16424 0a00 34010000 		.long	.LBB922
 16425 0a04 3A010000 		.long	.LBE922
 16426 0a08 0B030000 		.long	.LBB960
 16427 0a0c 1F030000 		.long	.LBE960
 16428 0a10 00000000 		.long	0
 16429 0a14 00000000 		.long	0
 16430 0a18 0F010000 		.long	.LBB897
 16431 0a1c 0F010000 		.long	.LBE897
 16432 0a20 0F010000 		.long	.LBB900
 16433 0a24 19010000 		.long	.LBE900
 16434 0a28 00000000 		.long	0
 16435 0a2c 00000000 		.long	0
 16436 0a30 19010000 		.long	.LBB901
 16437 0a34 28010000 		.long	.LBE901
 16438 0a38 0B030000 		.long	.LBB912
 16439 0a3c 1F030000 		.long	.LBE912
 16440 0a40 00000000 		.long	0
 16441 0a44 00000000 		.long	0
 16442 0a48 2D010000 		.long	.LBB904
 16443 0a4c 31010000 		.long	.LBE904
 16444 0a50 34010000 		.long	.LBB911
 16445 0a54 3A010000 		.long	.LBE911
 16446 0a58 00000000 		.long	0
 16447 0a5c 00000000 		.long	0
 16448 0a60 31010000 		.long	.LBB919
GAS LISTING /tmp/ccffpNMU.s 			page 299


 16449 0a64 34010000 		.long	.LBE919
 16450 0a68 3A010000 		.long	.LBB923
 16451 0a6c 43010000 		.long	.LBE923
 16452 0a70 00000000 		.long	0
 16453 0a74 00000000 		.long	0
 16454 0a78 C8010000 		.long	.LBB925
 16455 0a7c 1F020000 		.long	.LBE925
 16456 0a80 C0020000 		.long	.LBB958
 16457 0a84 F7020000 		.long	.LBE958
 16458 0a88 00000000 		.long	0
 16459 0a8c 00000000 		.long	0
 16460 0a90 C8010000 		.long	.LBB926
 16461 0a94 1A020000 		.long	.LBE926
 16462 0a98 C0020000 		.long	.LBB927
 16463 0a9c F7020000 		.long	.LBE927
 16464 0aa0 00000000 		.long	0
 16465 0aa4 00000000 		.long	0
 16466 0aa8 1F020000 		.long	.LBB928
 16467 0aac 1F020000 		.long	.LBE928
 16468 0ab0 1F020000 		.long	.LBB950
 16469 0ab4 29020000 		.long	.LBE950
 16470 0ab8 29020000 		.long	.LBB951
 16471 0abc 41020000 		.long	.LBE951
 16472 0ac0 44020000 		.long	.LBB955
 16473 0ac4 4A020000 		.long	.LBE955
 16474 0ac8 F7020000 		.long	.LBB959
 16475 0acc 0B030000 		.long	.LBE959
 16476 0ad0 00000000 		.long	0
 16477 0ad4 00000000 		.long	0
 16478 0ad8 1F020000 		.long	.LBB930
 16479 0adc 1F020000 		.long	.LBE930
 16480 0ae0 1F020000 		.long	.LBB933
 16481 0ae4 29020000 		.long	.LBE933
 16482 0ae8 00000000 		.long	0
 16483 0aec 00000000 		.long	0
 16484 0af0 29020000 		.long	.LBB934
 16485 0af4 38020000 		.long	.LBE934
 16486 0af8 F7020000 		.long	.LBB945
 16487 0afc 0B030000 		.long	.LBE945
 16488 0b00 00000000 		.long	0
 16489 0b04 00000000 		.long	0
 16490 0b08 3D020000 		.long	.LBB937
 16491 0b0c 41020000 		.long	.LBE937
 16492 0b10 44020000 		.long	.LBB944
 16493 0b14 4A020000 		.long	.LBE944
 16494 0b18 00000000 		.long	0
 16495 0b1c 00000000 		.long	0
 16496 0b20 41020000 		.long	.LBB952
 16497 0b24 44020000 		.long	.LBE952
 16498 0b28 4A020000 		.long	.LBB956
 16499 0b2c 53020000 		.long	.LBE956
 16500 0b30 00000000 		.long	0
 16501 0b34 00000000 		.long	0
 16502 0b38 03000000 		.long	.LBB1033
 16503 0b3c 05000000 		.long	.LBE1033
 16504 0b40 14000000 		.long	.LBB1038
 16505 0b44 1D000000 		.long	.LBE1038
GAS LISTING /tmp/ccffpNMU.s 			page 300


 16506 0b48 1D000000 		.long	.LBB1041
 16507 0b4c 22000000 		.long	.LBE1041
 16508 0b50 B9000000 		.long	.LBB1087
 16509 0b54 C0000000 		.long	.LBE1087
 16510 0b58 00000000 		.long	0
 16511 0b5c 00000000 		.long	0
 16512 0b60 1D000000 		.long	.LBB1039
 16513 0b64 1D000000 		.long	.LBE1039
 16514 0b68 30000000 		.long	.LBB1042
 16515 0b6c 80000000 		.long	.LBE1042
 16516 0b70 00000000 		.long	0
 16517 0b74 00000000 		.long	0
 16518 0b78 80000000 		.long	.LBB1043
 16519 0b7c 80000000 		.long	.LBE1043
 16520 0b80 80000000 		.long	.LBB1075
 16521 0b84 94000000 		.long	.LBE1075
 16522 0b88 94000000 		.long	.LBB1076
 16523 0b8c A1000000 		.long	.LBE1076
 16524 0b90 A4000000 		.long	.LBB1082
 16525 0b94 AB000000 		.long	.LBE1082
 16526 0b98 E2010000 		.long	.LBB1214
 16527 0b9c F6010000 		.long	.LBE1214
 16528 0ba0 00000000 		.long	0
 16529 0ba4 00000000 		.long	0
 16530 0ba8 80000000 		.long	.LBB1045
 16531 0bac 80000000 		.long	.LBE1045
 16532 0bb0 80000000 		.long	.LBB1052
 16533 0bb4 80000000 		.long	.LBE1052
 16534 0bb8 84000000 		.long	.LBB1058
 16535 0bbc 8A000000 		.long	.LBE1058
 16536 0bc0 8D000000 		.long	.LBB1060
 16537 0bc4 94000000 		.long	.LBE1060
 16538 0bc8 00000000 		.long	0
 16539 0bcc 00000000 		.long	0
 16540 0bd0 80000000 		.long	.LBB1053
 16541 0bd4 84000000 		.long	.LBE1053
 16542 0bd8 8A000000 		.long	.LBB1059
 16543 0bdc 8D000000 		.long	.LBE1059
 16544 0be0 94000000 		.long	.LBB1061
 16545 0be4 9C000000 		.long	.LBE1061
 16546 0be8 E2010000 		.long	.LBB1070
 16547 0bec F6010000 		.long	.LBE1070
 16548 0bf0 00000000 		.long	0
 16549 0bf4 00000000 		.long	0
 16550 0bf8 A1000000 		.long	.LBB1062
 16551 0bfc A1000000 		.long	.LBE1062
 16552 0c00 A4000000 		.long	.LBB1069
 16553 0c04 AB000000 		.long	.LBE1069
 16554 0c08 00000000 		.long	0
 16555 0c0c 00000000 		.long	0
 16556 0c10 A1000000 		.long	.LBB1077
 16557 0c14 A4000000 		.long	.LBE1077
 16558 0c18 AB000000 		.long	.LBB1083
 16559 0c1c B6000000 		.long	.LBE1083
 16560 0c20 B6000000 		.long	.LBB1086
 16561 0c24 B9000000 		.long	.LBE1086
 16562 0c28 17010000 		.long	.LBB1128
GAS LISTING /tmp/ccffpNMU.s 			page 301


 16563 0c2c 20010000 		.long	.LBE1128
 16564 0c30 00000000 		.long	0
 16565 0c34 00000000 		.long	0
 16566 0c38 B6000000 		.long	.LBB1084
 16567 0c3c B6000000 		.long	.LBE1084
 16568 0c40 C0000000 		.long	.LBB1088
 16569 0c44 E4000000 		.long	.LBE1088
 16570 0c48 00000000 		.long	0
 16571 0c4c 00000000 		.long	0
 16572 0c50 E4000000 		.long	.LBB1089
 16573 0c54 E4000000 		.long	.LBE1089
 16574 0c58 E4000000 		.long	.LBB1116
 16575 0c5c EF000000 		.long	.LBE1116
 16576 0c60 EF000000 		.long	.LBB1117
 16577 0c64 FF000000 		.long	.LBE1117
 16578 0c68 02010000 		.long	.LBB1123
 16579 0c6c 09010000 		.long	.LBE1123
 16580 0c70 2F020000 		.long	.LBB1218
 16581 0c74 43020000 		.long	.LBE1218
 16582 0c78 00000000 		.long	0
 16583 0c7c 00000000 		.long	0
 16584 0c80 E4000000 		.long	.LBB1091
 16585 0c84 E4000000 		.long	.LBE1091
 16586 0c88 E4000000 		.long	.LBB1096
 16587 0c8c E4000000 		.long	.LBE1096
 16588 0c90 E8000000 		.long	.LBB1101
 16589 0c94 EF000000 		.long	.LBE1101
 16590 0c98 00000000 		.long	0
 16591 0c9c 00000000 		.long	0
 16592 0ca0 E4000000 		.long	.LBB1097
 16593 0ca4 E8000000 		.long	.LBE1097
 16594 0ca8 EF000000 		.long	.LBB1102
 16595 0cac FA000000 		.long	.LBE1102
 16596 0cb0 2F020000 		.long	.LBB1111
 16597 0cb4 43020000 		.long	.LBE1111
 16598 0cb8 00000000 		.long	0
 16599 0cbc 00000000 		.long	0
 16600 0cc0 FF000000 		.long	.LBB1103
 16601 0cc4 FF000000 		.long	.LBE1103
 16602 0cc8 02010000 		.long	.LBB1110
 16603 0ccc 09010000 		.long	.LBE1110
 16604 0cd0 00000000 		.long	0
 16605 0cd4 00000000 		.long	0
 16606 0cd8 FF000000 		.long	.LBB1118
 16607 0cdc 02010000 		.long	.LBE1118
 16608 0ce0 09010000 		.long	.LBB1124
 16609 0ce4 14010000 		.long	.LBE1124
 16610 0ce8 14010000 		.long	.LBB1127
 16611 0cec 17010000 		.long	.LBE1127
 16612 0cf0 92010000 		.long	.LBB1188
 16613 0cf4 98010000 		.long	.LBE1188
 16614 0cf8 00000000 		.long	0
 16615 0cfc 00000000 		.long	0
 16616 0d00 14010000 		.long	.LBB1125
 16617 0d04 14010000 		.long	.LBE1125
 16618 0d08 20010000 		.long	.LBB1129
 16619 0d0c 44010000 		.long	.LBE1129
GAS LISTING /tmp/ccffpNMU.s 			page 302


 16620 0d10 00000000 		.long	0
 16621 0d14 00000000 		.long	0
 16622 0d18 44010000 		.long	.LBB1130
 16623 0d1c 44010000 		.long	.LBE1130
 16624 0d20 44010000 		.long	.LBB1148
 16625 0d24 4F010000 		.long	.LBE1148
 16626 0d28 4F010000 		.long	.LBB1149
 16627 0d2c 5F010000 		.long	.LBE1149
 16628 0d30 1B020000 		.long	.LBB1217
 16629 0d34 2F020000 		.long	.LBE1217
 16630 0d38 00000000 		.long	0
 16631 0d3c 00000000 		.long	0
 16632 0d40 44010000 		.long	.LBB1132
 16633 0d44 44010000 		.long	.LBE1132
 16634 0d48 44010000 		.long	.LBB1137
 16635 0d4c 44010000 		.long	.LBE1137
 16636 0d50 48010000 		.long	.LBB1142
 16637 0d54 4F010000 		.long	.LBE1142
 16638 0d58 00000000 		.long	0
 16639 0d5c 00000000 		.long	0
 16640 0d60 44010000 		.long	.LBB1138
 16641 0d64 48010000 		.long	.LBE1138
 16642 0d68 4F010000 		.long	.LBB1143
 16643 0d6c 5A010000 		.long	.LBE1143
 16644 0d70 1B020000 		.long	.LBB1144
 16645 0d74 2F020000 		.long	.LBE1144
 16646 0d78 00000000 		.long	0
 16647 0d7c 00000000 		.long	0
 16648 0d80 5F010000 		.long	.LBB1150
 16649 0d84 5F010000 		.long	.LBE1150
 16650 0d88 5F010000 		.long	.LBB1177
 16651 0d8c 6A010000 		.long	.LBE1177
 16652 0d90 6A010000 		.long	.LBB1178
 16653 0d94 7A010000 		.long	.LBE1178
 16654 0d98 7D010000 		.long	.LBB1183
 16655 0d9c 84010000 		.long	.LBE1183
 16656 0da0 07020000 		.long	.LBB1216
 16657 0da4 1B020000 		.long	.LBE1216
 16658 0da8 00000000 		.long	0
 16659 0dac 00000000 		.long	0
 16660 0db0 5F010000 		.long	.LBB1152
 16661 0db4 5F010000 		.long	.LBE1152
 16662 0db8 5F010000 		.long	.LBB1157
 16663 0dbc 5F010000 		.long	.LBE1157
 16664 0dc0 63010000 		.long	.LBB1162
 16665 0dc4 6A010000 		.long	.LBE1162
 16666 0dc8 00000000 		.long	0
 16667 0dcc 00000000 		.long	0
 16668 0dd0 5F010000 		.long	.LBB1158
 16669 0dd4 63010000 		.long	.LBE1158
 16670 0dd8 6A010000 		.long	.LBB1163
 16671 0ddc 75010000 		.long	.LBE1163
 16672 0de0 07020000 		.long	.LBB1172
 16673 0de4 1B020000 		.long	.LBE1172
 16674 0de8 00000000 		.long	0
 16675 0dec 00000000 		.long	0
 16676 0df0 7A010000 		.long	.LBB1164
GAS LISTING /tmp/ccffpNMU.s 			page 303


 16677 0df4 7A010000 		.long	.LBE1164
 16678 0df8 7D010000 		.long	.LBB1171
 16679 0dfc 84010000 		.long	.LBE1171
 16680 0e00 00000000 		.long	0
 16681 0e04 00000000 		.long	0
 16682 0e08 7A010000 		.long	.LBB1179
 16683 0e0c 7D010000 		.long	.LBE1179
 16684 0e10 84010000 		.long	.LBB1184
 16685 0e14 8F010000 		.long	.LBE1184
 16686 0e18 8F010000 		.long	.LBB1187
 16687 0e1c 92010000 		.long	.LBE1187
 16688 0e20 00000000 		.long	0
 16689 0e24 00000000 		.long	0
 16690 0e28 8F010000 		.long	.LBB1185
 16691 0e2c 8F010000 		.long	.LBE1185
 16692 0e30 98010000 		.long	.LBB1189
 16693 0e34 BC010000 		.long	.LBE1189
 16694 0e38 00000000 		.long	0
 16695 0e3c 00000000 		.long	0
 16696 0e40 BC010000 		.long	.LBB1190
 16697 0e44 BC010000 		.long	.LBE1190
 16698 0e48 BC010000 		.long	.LBB1212
 16699 0e4c C7010000 		.long	.LBE1212
 16700 0e50 C7010000 		.long	.LBB1213
 16701 0e54 DA010000 		.long	.LBE1213
 16702 0e58 F6010000 		.long	.LBB1215
 16703 0e5c 07020000 		.long	.LBE1215
 16704 0e60 00000000 		.long	0
 16705 0e64 00000000 		.long	0
 16706 0e68 BC010000 		.long	.LBB1192
 16707 0e6c BC010000 		.long	.LBE1192
 16708 0e70 BC010000 		.long	.LBB1197
 16709 0e74 BC010000 		.long	.LBE1197
 16710 0e78 C0010000 		.long	.LBB1202
 16711 0e7c C7010000 		.long	.LBE1202
 16712 0e80 00000000 		.long	0
 16713 0e84 00000000 		.long	0
 16714 0e88 BC010000 		.long	.LBB1198
 16715 0e8c C0010000 		.long	.LBE1198
 16716 0e90 C7010000 		.long	.LBB1203
 16717 0e94 CE010000 		.long	.LBE1203
 16718 0e98 F6010000 		.long	.LBB1208
 16719 0e9c 07020000 		.long	.LBE1208
 16720 0ea0 00000000 		.long	0
 16721 0ea4 00000000 		.long	0
 16722 0ea8 12000000 		.long	.LBB1246
 16723 0eac 12000000 		.long	.LBE1246
 16724 0eb0 16000000 		.long	.LBB1249
 16725 0eb4 1C000000 		.long	.LBE1249
 16726 0eb8 00000000 		.long	0
 16727 0ebc 00000000 		.long	0
 16728 0ec0 2D000000 		.long	.LBB1250
 16729 0ec4 2D000000 		.long	.LBE1250
 16730 0ec8 2D000000 		.long	.LBB1282
 16731 0ecc 44000000 		.long	.LBE1282
 16732 0ed0 44000000 		.long	.LBB1283
 16733 0ed4 51000000 		.long	.LBE1283
GAS LISTING /tmp/ccffpNMU.s 			page 304


 16734 0ed8 54000000 		.long	.LBB1288
 16735 0edc 5B000000 		.long	.LBE1288
 16736 0ee0 C8010000 		.long	.LBB1317
 16737 0ee4 E0010000 		.long	.LBE1317
 16738 0ee8 00000000 		.long	0
 16739 0eec 00000000 		.long	0
 16740 0ef0 2D000000 		.long	.LBB1252
 16741 0ef4 2D000000 		.long	.LBE1252
 16742 0ef8 2D000000 		.long	.LBB1259
 16743 0efc 2D000000 		.long	.LBE1259
 16744 0f00 34000000 		.long	.LBB1265
 16745 0f04 3A000000 		.long	.LBE1265
 16746 0f08 3D000000 		.long	.LBB1267
 16747 0f0c 44000000 		.long	.LBE1267
 16748 0f10 00000000 		.long	0
 16749 0f14 00000000 		.long	0
 16750 0f18 2D000000 		.long	.LBB1260
 16751 0f1c 34000000 		.long	.LBE1260
 16752 0f20 3A000000 		.long	.LBB1266
 16753 0f24 3D000000 		.long	.LBE1266
 16754 0f28 44000000 		.long	.LBB1268
 16755 0f2c 4C000000 		.long	.LBE1268
 16756 0f30 C8010000 		.long	.LBB1277
 16757 0f34 E0010000 		.long	.LBE1277
 16758 0f38 00000000 		.long	0
 16759 0f3c 00000000 		.long	0
 16760 0f40 51000000 		.long	.LBB1269
 16761 0f44 51000000 		.long	.LBE1269
 16762 0f48 54000000 		.long	.LBB1276
 16763 0f4c 5B000000 		.long	.LBE1276
 16764 0f50 00000000 		.long	0
 16765 0f54 00000000 		.long	0
 16766 0f58 51000000 		.long	.LBB1284
 16767 0f5c 54000000 		.long	.LBE1284
 16768 0f60 5B000000 		.long	.LBB1289
 16769 0f64 66000000 		.long	.LBE1289
 16770 0f68 6C000000 		.long	.LBB1291
 16771 0f6c 6F000000 		.long	.LBE1291
 16772 0f70 00000000 		.long	0
 16773 0f74 00000000 		.long	0
 16774 0f78 66000000 		.long	.LBB1290
 16775 0f7c 66000000 		.long	.LBE1290
 16776 0f80 6F000000 		.long	.LBB1292
 16777 0f84 9E010000 		.long	.LBE1292
 16778 0f88 00000000 		.long	0
 16779 0f8c 00000000 		.long	0
 16780 0f90 9E010000 		.long	.LBB1293
 16781 0f94 9E010000 		.long	.LBE1293
 16782 0f98 9E010000 		.long	.LBB1315
 16783 0f9c A9010000 		.long	.LBE1315
 16784 0fa0 A9010000 		.long	.LBB1316
 16785 0fa4 BC010000 		.long	.LBE1316
 16786 0fa8 E0010000 		.long	.LBB1318
 16787 0fac F1010000 		.long	.LBE1318
 16788 0fb0 00000000 		.long	0
 16789 0fb4 00000000 		.long	0
 16790 0fb8 9E010000 		.long	.LBB1295
GAS LISTING /tmp/ccffpNMU.s 			page 305


 16791 0fbc 9E010000 		.long	.LBE1295
 16792 0fc0 9E010000 		.long	.LBB1300
 16793 0fc4 9E010000 		.long	.LBE1300
 16794 0fc8 A2010000 		.long	.LBB1305
 16795 0fcc A9010000 		.long	.LBE1305
 16796 0fd0 00000000 		.long	0
 16797 0fd4 00000000 		.long	0
 16798 0fd8 9E010000 		.long	.LBB1301
 16799 0fdc A2010000 		.long	.LBE1301
 16800 0fe0 A9010000 		.long	.LBB1306
 16801 0fe4 B0010000 		.long	.LBE1306
 16802 0fe8 E0010000 		.long	.LBB1311
 16803 0fec F1010000 		.long	.LBE1311
 16804 0ff0 00000000 		.long	0
 16805 0ff4 00000000 		.long	0
 16806 0ff8 00000000 		.long	.LFB222
 16807 0ffc 16010000 		.long	.LFE222
 16808 1000 00000000 		.long	.LFB223
 16809 1004 4E010000 		.long	.LFE223
 16810 1008 00000000 		.long	.LFB224
 16811 100c BE000000 		.long	.LFE224
 16812 1010 00000000 		.long	.LFB225
 16813 1014 52000000 		.long	.LFE225
 16814 1018 00000000 		.long	.LFB226
 16815 101c 66030000 		.long	.LFE226
 16816 1020 00000000 		.long	.LFB227
 16817 1024 29020000 		.long	.LFE227
 16818 1028 00000000 		.long	.LFB228
 16819 102c D4010000 		.long	.LFE228
 16820 1030 00000000 		.long	.LFB229
 16821 1034 25020000 		.long	.LFE229
 16822 1038 00000000 		.long	.LFB230
 16823 103c 33030000 		.long	.LFE230
 16824 1040 00000000 		.long	.LFB231
 16825 1044 43020000 		.long	.LFE231
 16826 1048 00000000 		.long	.LFB232
 16827 104c F1010000 		.long	.LFE232
 16828 1050 00000000 		.long	0
 16829 1054 00000000 		.long	0
 16830              		.section	.debug_line,"",@progbits
 16831              	.Ldebug_line0:
 16832 0000 151B0000 		.section	.debug_str,"MS",@progbits,1
 16832      0300BF03 
 16832      00000101 
 16832      FB0E0D00 
 16832      01010101 
 16833              	.LASF113:
 16834 0000 6F66665F 		.string	"off_ctx"
 16834      63747800 
 16835              	.LASF314:
 16836 0008 70726576 		.string	"prevmin"
 16836      6D696E00 
 16837              	.LASF22:
 16838 0010 696E7438 		.string	"int8_t"
 16838      5F7400
 16839              	.LASF8:
 16840 0017 73697A65 		.string	"size_t"
GAS LISTING /tmp/ccffpNMU.s 			page 306


 16840      5F7400
 16841              	.LASF112:
 16842 001e 6F66665F 		.string	"off_prio"
 16842      7072696F 
 16842      00
 16843              	.LASF138:
 16844 0027 656E646D 		.string	"endmem"
 16844      656D00
 16845              	.LASF98:
 16846 002e 77747365 		.string	"wtsemp"
 16846      6D7000
 16847              	.LASF82:
 16848 0035 73797374 		.string	"systime_t"
 16848      696D655F 
 16848      7400
 16849              	.LASF121:
 16850 003f 6F66665F 		.string	"off_preempt"
 16850      70726565 
 16850      6D707400 
 16851              	.LASF103:
 16852 004b 6F776E65 		.string	"owner"
 16852      7200
 16853              	.LASF33:
 16854 0051 74707269 		.string	"tprio_t"
 16854      6F5F7400 
 16855              	.LASF262:
 16856 0059 536D616C 		.string	"SmallTime"
 16856      6C54696D 
 16856      6500
 16857              	.LASF325:
 16858 0063 63685365 		.string	"chSemWait"
 16858      6D576169 
 16858      7400
 16859              	.LASF124:
 16860 006d 63685F64 		.string	"ch_debug"
 16860      65627567 
 16860      00
 16861              	.LASF144:
 16862 0076 70726F76 		.string	"provider"
 16862      69646572 
 16862      00
 16863              	.LASF204:
 16864 007f 5F494F5F 		.string	"_IO_codecvt"
 16864      636F6465 
 16864      63767400 
 16865              	.LASF23:
 16866 008b 696E7433 		.string	"int32_t"
 16866      325F7400 
 16867              	.LASF249:
 16868 0093 77726974 		.string	"writet"
 16868      657400
 16869              	.LASF286:
 16870 009a 6D696E54 		.string	"minTarget"
 16870      61726765 
 16870      7400
 16871              	.LASF66:
 16872 00a4 76746675 		.string	"vtfunc_t"
GAS LISTING /tmp/ccffpNMU.s 			page 307


 16872      6E635F74 
 16872      00
 16873              	.LASF184:
 16874 00ad 5F494F5F 		.string	"_IO_save_end"
 16874      73617665 
 16874      5F656E64 
 16874      00
 16875              	.LASF166:
 16876 00ba 696E3661 		.string	"in6addr_loopback"
 16876      6464725F 
 16876      6C6F6F70 
 16876      6261636B 
 16876      00
 16877              	.LASF72:
 16878 00cb 63685F76 		.string	"ch_virtual_timers_list"
 16878      69727475 
 16878      616C5F74 
 16878      696D6572 
 16878      735F6C69 
 16879              	.LASF240:
 16880 00e2 636F6D5F 		.string	"com_listen"
 16880      6C697374 
 16880      656E00
 16881              	.LASF342:
 16882 00ed 5F5F6675 		.string	"__func__"
 16882      6E635F5F 
 16882      00
 16883              	.LASF245:
 16884 00f6 77726974 		.string	"write"
 16884      6500
 16885              	.LASF328:
 16886 00fc 636C4153 		.string	"clASetAllTargetpostion"
 16886      6574416C 
 16886      6C546172 
 16886      67657470 
 16886      6F737469 
 16887              	.LASF146:
 16888 0113 63685F64 		.string	"ch_dyn_element"
 16888      796E5F65 
 16888      6C656D65 
 16888      6E7400
 16889              	.LASF177:
 16890 0122 5F494F5F 		.string	"_IO_write_base"
 16890      77726974 
 16890      655F6261 
 16890      736500
 16891              	.LASF46:
 16892 0131 73746174 		.string	"state"
 16892      6500
 16893              	.LASF193:
 16894 0137 5F6C6F63 		.string	"_lock"
 16894      6B00
 16895              	.LASF247:
 16896 013d 70757474 		.string	"putt"
 16896      00
 16897              	.LASF306:
 16898 0142 706F7349 		.string	"posIncrement"
GAS LISTING /tmp/ccffpNMU.s 			page 308


 16898      6E637265 
 16898      6D656E74 
 16898      00
 16899              	.LASF337:
 16900 014f 616E696D 		.string	"animations.c"
 16900      6174696F 
 16900      6E732E63 
 16900      00
 16901              	.LASF182:
 16902 015c 5F494F5F 		.string	"_IO_save_base"
 16902      73617665 
 16902      5F626173 
 16902      6500
 16903              	.LASF300:
 16904 016a 616E6953 		.string	"aniSquares"
 16904      71756172 
 16904      657300
 16905              	.LASF151:
 16906 0175 6F626A5F 		.string	"obj_list"
 16906      6C697374 
 16906      00
 16907              	.LASF115:
 16908 017e 6F66665F 		.string	"off_older"
 16908      6F6C6465 
 16908      7200
 16909              	.LASF186:
 16910 0188 5F636861 		.string	"_chain"
 16910      696E00
 16911              	.LASF323:
 16912 018f 636C4153 		.string	"clASetMaxSpeed"
 16912      65744D61 
 16912      78537065 
 16912      656400
 16913              	.LASF41:
 16914 019e 7072696F 		.string	"prio"
 16914      00
 16915              	.LASF190:
 16916 01a3 5F637572 		.string	"_cur_column"
 16916      5F636F6C 
 16916      756D6E00 
 16917              	.LASF209:
 16918 01af 7379735F 		.string	"sys_nerr"
 16918      6E657272 
 16918      00
 16919              	.LASF264:
 16920 01b8 686F7572 		.string	"hourDigit"
 16920      44696769 
 16920      7400
 16921              	.LASF94:
 16922 01c2 65786974 		.string	"exitcode"
 16922      636F6465 
 16922      00
 16923              	.LASF11:
 16924 01cb 5F5F7569 		.string	"__uint8_t"
 16924      6E74385F 
 16924      7400
 16925              	.LASF216:
GAS LISTING /tmp/ccffpNMU.s 			page 309


 16926 01d5 715F746F 		.string	"q_top"
 16926      7000
 16927              	.LASF73:
 16928 01db 73797374 		.string	"systime"
 16928      696D6500 
 16929              	.LASF250:
 16930 01e3 72656164 		.string	"readt"
 16930      7400
 16931              	.LASF317:
 16932 01e9 63684253 		.string	"chBSemSignal"
 16932      656D5369 
 16932      676E616C 
 16932      00
 16933              	.LASF215:
 16934 01f6 715F6275 		.string	"q_buffer"
 16934      66666572 
 16934      00
 16935              	.LASF219:
 16936 01ff 715F6E6F 		.string	"q_notify"
 16936      74696679 
 16936      00
 16937              	.LASF167:
 16938 0208 5F5F656E 		.string	"__environ"
 16938      7669726F 
 16938      6E00
 16939              	.LASF202:
 16940 0212 46494C45 		.string	"FILE"
 16940      00
 16941              	.LASF1:
 16942 0217 6C6F6E67 		.string	"long int"
 16942      20696E74 
 16942      00
 16943              	.LASF242:
 16944 0220 636F6D5F 		.string	"com_name"
 16944      6E616D65 
 16944      00
 16945              	.LASF321:
 16946 0229 706F7274 		.string	"port_unlock"
 16946      5F756E6C 
 16946      6F636B00 
 16947              	.LASF218:
 16948 0235 715F7264 		.string	"q_rdptr"
 16948      70747200 
 16949              	.LASF292:
 16950 023d 6D795469 		.string	"myTimeDigits"
 16950      6D654469 
 16950      67697473 
 16950      00
 16951              	.LASF106:
 16952 024a 7A65726F 		.string	"zero"
 16952      00
 16953              	.LASF332:
 16954 024f 636C4152 		.string	"clARefractorMaxSpeed"
 16954      65667261 
 16954      63746F72 
 16954      4D617853 
 16954      70656564 
GAS LISTING /tmp/ccffpNMU.s 			page 310


 16955              	.LASF265:
 16956 0264 6D696E54 		.string	"minTenth"
 16956      656E7468 
 16956      00
 16957              	.LASF203:
 16958 026d 5F494F5F 		.string	"_IO_marker"
 16958      6D61726B 
 16958      657200
 16959              	.LASF31:
 16960 0278 74737461 		.string	"tstate_t"
 16960      74655F74 
 16960      00
 16961              	.LASF327:
 16962 0281 63685363 		.string	"chSchRescheduleS"
 16962      68526573 
 16962      63686564 
 16962      756C6553 
 16962      00
 16963              	.LASF51:
 16964 0292 6570656E 		.string	"epending"
 16964      64696E67 
 16964      00
 16965              	.LASF60:
 16966 029b 74687265 		.string	"threads_queue_t"
 16966      6164735F 
 16966      71756575 
 16966      655F7400 
 16967              	.LASF303:
 16968 02ab 616E6944 		.string	"aniDiamonds2"
 16968      69616D6F 
 16968      6E647332 
 16968      00
 16969              	.LASF239:
 16970 02b8 6F717565 		.string	"oqueue"
 16970      756500
 16971              	.LASF226:
 16972 02bf 56503144 		.string	"VP1Data"
 16972      61746100 
 16973              	.LASF341:
 16974 02c7 63684253 		.string	"chBSemWait"
 16974      656D5761 
 16974      697400
 16975              	.LASF152:
 16976 02d2 6F626A5F 		.string	"obj_pool"
 16976      706F6F6C 
 16976      00
 16977              	.LASF309:
 16978 02db 616E6952 		.string	"aniRotate"
 16978      6F746174 
 16978      6500
 16979              	.LASF231:
 16980 02e5 70616C5F 		.string	"pal_default_config"
 16980      64656661 
 16980      756C745F 
 16980      636F6E66 
 16980      696700
 16981              	.LASF139:
GAS LISTING /tmp/ccffpNMU.s 			page 311


 16982 02f8 6D656D63 		.string	"memcore_t"
 16982      6F72655F 
 16982      7400
 16983              	.LASF212:
 16984 0302 696F5F71 		.string	"io_queue"
 16984      75657565 
 16984      00
 16985              	.LASF10:
 16986 030b 7369676E 		.string	"signed char"
 16986      65642063 
 16986      68617200 
 16987              	.LASF100:
 16988 0317 65776D61 		.string	"ewmask"
 16988      736B00
 16989              	.LASF24:
 16990 031e 75696E74 		.string	"uint8_t"
 16990      385F7400 
 16991              	.LASF172:
 16992 0326 5F494F5F 		.string	"_IO_FILE"
 16992      46494C45 
 16992      00
 16993              	.LASF253:
 16994 032f 5F5F7469 		.string	"__timezone"
 16994      6D657A6F 
 16994      6E6500
 16995              	.LASF205:
 16996 033a 5F494F5F 		.string	"_IO_wide_data"
 16996      77696465 
 16996      5F646174 
 16996      6100
 16997              	.LASF35:
 16998 0348 6576656E 		.string	"eventmask_t"
 16998      746D6173 
 16998      6B5F7400 
 16999              	.LASF96:
 17000 0354 77747472 		.string	"wttrp"
 17000      7000
 17001              	.LASF5:
 17002 035a 756E7369 		.string	"unsigned char"
 17002      676E6564 
 17002      20636861 
 17002      7200
 17003              	.LASF220:
 17004 0368 715F6C69 		.string	"q_link"
 17004      6E6B00
 17005              	.LASF335:
 17006 036f 64695365 		.string	"diSetDigitsOffset"
 17006      74446967 
 17006      6974734F 
 17006      66667365 
 17006      7400
 17007              	.LASF197:
 17008 0381 5F667265 		.string	"_freeres_list"
 17008      65726573 
 17008      5F6C6973 
 17008      7400
 17009              	.LASF76:
GAS LISTING /tmp/ccffpNMU.s 			page 312


 17010 038f 70616E69 		.string	"panic_msg"
 17010      635F6D73 
 17010      6700
 17011              	.LASF29:
 17012 0399 73797373 		.string	"syssts_t"
 17012      74735F74 
 17012      00
 17013              	.LASF74:
 17014 03a2 73797374 		.string	"system_debug_t"
 17014      656D5F64 
 17014      65627567 
 17014      5F7400
 17015              	.LASF232:
 17016 03b1 53445F55 		.string	"SD_UNINIT"
 17016      4E494E49 
 17016      5400
 17017              	.LASF291:
 17018 03bb 6D795469 		.string	"myTime"
 17018      6D6500
 17019              	.LASF251:
 17020 03c2 5F5F747A 		.string	"__tzname"
 17020      6E616D65 
 17020      00
 17021              	.LASF88:
 17022 03cb 5F426F6F 		.string	"_Bool"
 17022      6C00
 17023              	.LASF278:
 17024 03d1 5F646972 		.string	"_direction"
 17024      65637469 
 17024      6F6E00
 17025              	.LASF258:
 17026 03dc 747A5F64 		.string	"tz_dsttime"
 17026      73747469 
 17026      6D6500
 17027              	.LASF21:
 17028 03e7 63686172 		.string	"char"
 17028      00
 17029              	.LASF273:
 17030 03ec 5F616363 		.string	"_acceleration"
 17030      656C6572 
 17030      6174696F 
 17030      6E00
 17031              	.LASF154:
 17032 03fa 73656D5F 		.string	"sem_list"
 17032      6C697374 
 17032      00
 17033              	.LASF340:
 17034 0403 5F494F5F 		.string	"_IO_lock_t"
 17034      6C6F636B 
 17034      5F7400
 17035              	.LASF13:
 17036 040e 5F5F7569 		.string	"__uint16_t"
 17036      6E743136 
 17036      5F7400
 17037              	.LASF248:
 17038 0419 67657474 		.string	"gett"
 17038      00
GAS LISTING /tmp/ccffpNMU.s 			page 313


 17039              	.LASF95:
 17040 041e 77746F62 		.string	"wtobjp"
 17040      6A7000
 17041              	.LASF90:
 17042 0425 706F7274 		.string	"port_irq_sts"
 17042      5F697271 
 17042      5F737473 
 17042      00
 17043              	.LASF301:
 17044 0432 5475726E 		.string	"Turns"
 17044      7300
 17045              	.LASF256:
 17046 0438 74696D65 		.string	"timezone"
 17046      7A6F6E65 
 17046      00
 17047              	.LASF120:
 17048 0441 6F66665F 		.string	"off_refs"
 17048      72656673 
 17048      00
 17049              	.LASF47:
 17050 044a 666C6167 		.string	"flags"
 17050      7300
 17051              	.LASF174:
 17052 0450 5F494F5F 		.string	"_IO_read_ptr"
 17052      72656164 
 17052      5F707472 
 17052      00
 17053              	.LASF339:
 17054 045d 73746B61 		.string	"stkalign_t"
 17054      6C69676E 
 17054      5F7400
 17055              	.LASF272:
 17056 0468 5F6D6178 		.string	"_maxSpeed"
 17056      53706565 
 17056      6400
 17057              	.LASF206:
 17058 0472 73746469 		.string	"stdin"
 17058      6E00
 17059              	.LASF54:
 17060 0478 6D706F6F 		.string	"mpool"
 17060      6C00
 17061              	.LASF241:
 17062 047e 636F6D5F 		.string	"com_data"
 17062      64617461 
 17062      00
 17063              	.LASF279:
 17064 0487 5F636D69 		.string	"_cmin"
 17064      6E00
 17065              	.LASF210:
 17066 048d 7379735F 		.string	"sys_errlist"
 17066      6572726C 
 17066      69737400 
 17067              	.LASF129:
 17068 0499 6576656E 		.string	"event_listener_t"
 17068      745F6C69 
 17068      7374656E 
 17068      65725F74 
GAS LISTING /tmp/ccffpNMU.s 			page 314


 17068      00
 17069              	.LASF296:
 17070 04aa 686F7572 		.string	"hourangle"
 17070      616E676C 
 17070      6500
 17071              	.LASF109:
 17072 04b4 70747273 		.string	"ptrsize"
 17072      697A6500 
 17073              	.LASF185:
 17074 04bc 5F6D6172 		.string	"_markers"
 17074      6B657273 
 17074      00
 17075              	.LASF165:
 17076 04c5 696E3661 		.string	"in6addr_any"
 17076      6464725F 
 17076      616E7900 
 17077              	.LASF271:
 17078 04d1 5F737065 		.string	"_speed"
 17078      656400
 17079              	.LASF122:
 17080 04d8 6F66665F 		.string	"off_time"
 17080      74696D65 
 17080      00
 17081              	.LASF37:
 17082 04e1 636E745F 		.string	"cnt_t"
 17082      7400
 17083              	.LASF330:
 17084 04e7 63685468 		.string	"chThdSleep"
 17084      64536C65 
 17084      657000
 17085              	.LASF297:
 17086 04f2 73706565 		.string	"speed"
 17086      6400
 17087              	.LASF333:
 17088 04f8 536D616C 		.string	"SmallTimeGet"
 17088      6C54696D 
 17088      65476574 
 17088      00
 17089              	.LASF99:
 17090 0505 77746D74 		.string	"wtmtxp"
 17090      787000
 17091              	.LASF229:
 17092 050c 76696F5F 		.string	"vio_port_1"
 17092      706F7274 
 17092      5F3100
 17093              	.LASF230:
 17094 0517 76696F5F 		.string	"vio_port_2"
 17094      706F7274 
 17094      5F3200
 17095              	.LASF64:
 17096 0522 63685F72 		.string	"ch_ready_list"
 17096      65616479 
 17096      5F6C6973 
 17096      7400
 17097              	.LASF155:
 17098 0530 73656D5F 		.string	"sem_pool"
 17098      706F6F6C 
GAS LISTING /tmp/ccffpNMU.s 			page 315


 17098      00
 17099              	.LASF194:
 17100 0539 5F6F6666 		.string	"_offset"
 17100      73657400 
 17101              	.LASF311:
 17102 0541 616E6943 		.string	"aniCounter"
 17102      6F756E74 
 17102      657200
 17103              	.LASF227:
 17104 054c 56503244 		.string	"VP2Data"
 17104      61746100 
 17105              	.LASF137:
 17106 0554 6E657874 		.string	"nextmem"
 17106      6D656D00 
 17107              	.LASF169:
 17108 055c 6F707469 		.string	"optind"
 17108      6E6400
 17109              	.LASF275:
 17110 0563 5F737465 		.string	"_stepInterval"
 17110      70496E74 
 17110      65727661 
 17110      6C00
 17111              	.LASF295:
 17112 0571 6D696E61 		.string	"minangle"
 17112      6E676C65 
 17112      00
 17113              	.LASF298:
 17114 057a 616E6946 		.string	"aniFlower"
 17114      6C6F7765 
 17114      7200
 17115              	.LASF331:
 17116 0584 64695365 		.string	"diSetDigits"
 17116      74446967 
 17116      69747300 
 17117              	.LASF16:
 17118 0590 5F5F7569 		.string	"__uint64_t"
 17118      6E743634 
 17118      5F7400
 17119              	.LASF118:
 17120 059b 6F66665F 		.string	"off_state"
 17120      73746174 
 17120      6500
 17121              	.LASF319:
 17122 05a5 63685379 		.string	"chSysUnlock"
 17122      73556E6C 
 17122      6F636B00 
 17123              	.LASF7:
 17124 05b1 6C6F6E67 		.string	"long unsigned int"
 17124      20756E73 
 17124      69676E65 
 17124      6420696E 
 17124      7400
 17125              	.LASF111:
 17126 05c3 74687265 		.string	"threadsize"
 17126      61647369 
 17126      7A6500
 17127              	.LASF320:
GAS LISTING /tmp/ccffpNMU.s 			page 316


 17128 05ce 63685379 		.string	"chSysLock"
 17128      734C6F63 
 17128      6B00
 17129              	.LASF188:
 17130 05d8 5F666C61 		.string	"_flags2"
 17130      67733200 
 17131              	.LASF269:
 17132 05e0 5F637572 		.string	"_currentPos"
 17132      72656E74 
 17132      506F7300 
 17133              	.LASF101:
 17134 05ec 63685F73 		.string	"ch_semaphore"
 17134      656D6170 
 17134      686F7265 
 17134      00
 17135              	.LASF57:
 17136 05f9 63685F74 		.string	"ch_thread"
 17136      68726561 
 17136      6400
 17137              	.LASF176:
 17138 0603 5F494F5F 		.string	"_IO_read_base"
 17138      72656164 
 17138      5F626173 
 17138      6500
 17139              	.LASF71:
 17140 0611 76697274 		.string	"virtual_timers_list_t"
 17140      75616C5F 
 17140      74696D65 
 17140      72735F6C 
 17140      6973745F 
 17141              	.LASF104:
 17142 0627 63685F69 		.string	"ch_idle_thread_wa"
 17142      646C655F 
 17142      74687265 
 17142      61645F77 
 17142      6100
 17143              	.LASF310:
 17144 0639 726F7461 		.string	"rotationTicks"
 17144      74696F6E 
 17144      5469636B 
 17144      7300
 17145              	.LASF201:
 17146 0647 5F756E75 		.string	"_unused2"
 17146      73656432 
 17146      00
 17147              	.LASF18:
 17148 0650 5F5F7175 		.string	"__quad_t"
 17148      61645F74 
 17148      00
 17149              	.LASF157:
 17150 0659 6669666F 		.string	"fifo_list"
 17150      5F6C6973 
 17150      7400
 17151              	.LASF67:
 17152 0663 76697274 		.string	"virtual_timer_t"
 17152      75616C5F 
 17152      74696D65 
GAS LISTING /tmp/ccffpNMU.s 			page 317


 17152      725F7400 
 17153              	.LASF63:
 17154 0673 72656164 		.string	"ready_list_t"
 17154      795F6C69 
 17154      73745F74 
 17154      00
 17155              	.LASF43:
 17156 0680 6F6C6465 		.string	"older"
 17156      7200
 17157              	.LASF243:
 17158 0686 53657269 		.string	"SerialDriverVMT"
 17158      616C4472 
 17158      69766572 
 17158      564D5400 
 17159              	.LASF53:
 17160 0696 7265616C 		.string	"realprio"
 17160      7072696F 
 17160      00
 17161              	.LASF284:
 17162 069f 6D696E50 		.string	"minPosition"
 17162      6F736974 
 17162      696F6E00 
 17163              	.LASF38:
 17164 06ab 75636E74 		.string	"ucnt_t"
 17164      5F7400
 17165              	.LASF117:
 17166 06b2 6F66665F 		.string	"off_stklimit"
 17166      73746B6C 
 17166      696D6974 
 17166      00
 17167              	.LASF141:
 17168 06bf 706F6F6C 		.string	"pool_header"
 17168      5F686561 
 17168      64657200 
 17169              	.LASF58:
 17170 06cb 63685F74 		.string	"ch_threads_list"
 17170      68726561 
 17170      64735F6C 
 17170      69737400 
 17171              	.LASF263:
 17172 06db 686F7572 		.string	"hourTenth"
 17172      54656E74 
 17172      6800
 17173              	.LASF257:
 17174 06e5 747A5F6D 		.string	"tz_minuteswest"
 17174      696E7574 
 17174      65737765 
 17174      737400
 17175              	.LASF290:
 17176 06f4 636C6F63 		.string	"clockA"
 17176      6B4100
 17177              	.LASF15:
 17178 06fb 5F5F7569 		.string	"__uint32_t"
 17178      6E743332 
 17178      5F7400
 17179              	.LASF160:
 17180 0706 5F5F7536 		.string	"__u6_addr8"
GAS LISTING /tmp/ccffpNMU.s 			page 318


 17180      5F616464 
 17180      723800
 17181              	.LASF52:
 17182 0711 6D74786C 		.string	"mtxlist"
 17182      69737400 
 17183              	.LASF289:
 17184 0719 636C6F63 		.string	"clockS"
 17184      6B5300
 17185              	.LASF2:
 17186 0720 6C6F6E67 		.string	"long long int"
 17186      206C6F6E 
 17186      6720696E 
 17186      7400
 17187              	.LASF312:
 17188 072e 636F756E 		.string	"counter"
 17188      74657200 
 17189              	.LASF83:
 17190 0736 73797369 		.string	"sysinterval_t"
 17190      6E746572 
 17190      76616C5F 
 17190      7400
 17191              	.LASF307:
 17192 0744 6E756D54 		.string	"numTurns"
 17192      75726E73 
 17192      00
 17193              	.LASF150:
 17194 074d 63685F6F 		.string	"ch_objects_factory"
 17194      626A6563 
 17194      74735F66 
 17194      6163746F 
 17194      727900
 17195              	.LASF224:
 17196 0760 6C617463 		.string	"latch"
 17196      6800
 17197              	.LASF179:
 17198 0766 5F494F5F 		.string	"_IO_write_end"
 17198      77726974 
 17198      655F656E 
 17198      6400
 17199              	.LASF135:
 17200 0774 6576656E 		.string	"event_source_t"
 17200      745F736F 
 17200      75726365 
 17200      5F7400
 17201              	.LASF336:
 17202 0783 474E5520 		.string	"GNU C17 8.3.0 -m32 -mtune=generic -march=i686 -ggdb -O2 -ffunction-sections -fdata-sectio
 17202      43313720 
 17202      382E332E 
 17202      30202D6D 
 17202      3332202D 
 17203              	.LASF143:
 17204 0804 616C6967 		.string	"align"
 17204      6E00
 17205              	.LASF280:
 17206 080a 666C6F61 		.string	"float"
 17206      7400
 17207              	.LASF221:
GAS LISTING /tmp/ccffpNMU.s 			page 319


 17208 0810 716E6F74 		.string	"qnotify_t"
 17208      6966795F 
 17208      7400
 17209              	.LASF261:
 17210 081a 7365636F 		.string	"seconds"
 17210      6E647300 
 17211              	.LASF277:
 17212 0822 5F737465 		.string	"_stepSequence"
 17212      70536571 
 17212      75656E63 
 17212      6500
 17213              	.LASF276:
 17214 0830 5F6C6173 		.string	"_lastStepTime"
 17214      74537465 
 17214      7054696D 
 17214      6500
 17215              	.LASF237:
 17216 083e 6576656E 		.string	"event"
 17216      7400
 17217              	.LASF246:
 17218 0844 72656164 		.string	"read"
 17218      00
 17219              	.LASF180:
 17220 0849 5F494F5F 		.string	"_IO_buf_base"
 17220      6275665F 
 17220      62617365 
 17220      00
 17221              	.LASF114:
 17222 0856 6F66665F 		.string	"off_newer"
 17222      6E657765 
 17222      7200
 17223              	.LASF0:
 17224 0860 756E7369 		.string	"unsigned int"
 17224      676E6564 
 17224      20696E74 
 17224      00
 17225              	.LASF28:
 17226 086d 7274636E 		.string	"rtcnt_t"
 17226      745F7400 
 17227              	.LASF189:
 17228 0875 5F6F6C64 		.string	"_old_offset"
 17228      5F6F6666 
 17228      73657400 
 17229              	.LASF254:
 17230 0881 747A6E61 		.string	"tzname"
 17230      6D6500
 17231              	.LASF326:
 17232 0888 63685365 		.string	"chSemSignalI"
 17232      6D536967 
 17232      6E616C49 
 17232      00
 17233              	.LASF199:
 17234 0895 5F5F7061 		.string	"__pad5"
 17234      643500
 17235              	.LASF65:
 17236 089c 63757272 		.string	"current"
 17236      656E7400 
GAS LISTING /tmp/ccffpNMU.s 			page 320


 17237              	.LASF260:
 17238 08a4 6D696E75 		.string	"minutes"
 17238      74657300 
 17239              	.LASF173:
 17240 08ac 5F666C61 		.string	"_flags"
 17240      677300
 17241              	.LASF91:
 17242 08b3 6F666673 		.string	"offset"
 17242      657400
 17243              	.LASF200:
 17244 08ba 5F6D6F64 		.string	"_mode"
 17244      6500
 17245              	.LASF89:
 17246 08c0 706F7274 		.string	"port_isr_context_flag"
 17246      5F697372 
 17246      5F636F6E 
 17246      74657874 
 17246      5F666C61 
 17247              	.LASF304:
 17248 08d6 616E6944 		.string	"aniDiamonds"
 17248      69616D6F 
 17248      6E647300 
 17249              	.LASF84:
 17250 08e2 74696D65 		.string	"time_conv_t"
 17250      5F636F6E 
 17250      765F7400 
 17251              	.LASF195:
 17252 08ee 5F636F64 		.string	"_codecvt"
 17252      65637674 
 17252      00
 17253              	.LASF163:
 17254 08f7 696E365F 		.string	"in6_addr"
 17254      61646472 
 17254      00
 17255              	.LASF136:
 17256 0900 6D656D67 		.string	"memgetfunc_t"
 17256      65746675 
 17256      6E635F74 
 17256      00
 17257              	.LASF288:
 17258 090d 74617267 		.string	"targetReached"
 17258      65745265 
 17258      61636865 
 17258      6400
 17259              	.LASF39:
 17260 091b 74687265 		.string	"thread_t"
 17260      61645F74 
 17260      00
 17261              	.LASF3:
 17262 0924 6C6F6E67 		.string	"long double"
 17262      20646F75 
 17262      626C6500 
 17263              	.LASF133:
 17264 0930 77666C61 		.string	"wflags"
 17264      677300
 17265              	.LASF55:
 17266 0937 74687265 		.string	"thread_reference_t"
GAS LISTING /tmp/ccffpNMU.s 			page 321


 17266      61645F72 
 17266      65666572 
 17266      656E6365 
 17266      5F7400
 17267              	.LASF97:
 17268 094a 73656E74 		.string	"sentmsg"
 17268      6D736700 
 17269              	.LASF225:
 17270 0952 73696D5F 		.string	"sim_vio_port_t"
 17270      76696F5F 
 17270      706F7274 
 17270      5F7400
 17271              	.LASF86:
 17272 0961 706F7274 		.string	"port_intctx"
 17272      5F696E74 
 17272      63747800 
 17273              	.LASF158:
 17274 096d 6F626A65 		.string	"objects_factory_t"
 17274      6374735F 
 17274      66616374 
 17274      6F72795F 
 17274      7400
 17275              	.LASF315:
 17276 097f 7475726E 		.string	"turns"
 17276      7300
 17277              	.LASF153:
 17278 0985 6275665F 		.string	"buf_list"
 17278      6C697374 
 17278      00
 17279              	.LASF274:
 17280 098e 5F737172 		.string	"_sqrt_twoa"
 17280      745F7477 
 17280      6F6100
 17281              	.LASF68:
 17282 0999 63685F76 		.string	"ch_virtual_timer"
 17282      69727475 
 17282      616C5F74 
 17282      696D6572 
 17282      00
 17283              	.LASF171:
 17284 09aa 6F70746F 		.string	"optopt"
 17284      707400
 17285              	.LASF9:
 17286 09b1 5F5F696E 		.string	"__int8_t"
 17286      74385F74 
 17286      00
 17287              	.LASF107:
 17288 09ba 73697A65 		.string	"size"
 17288      00
 17289              	.LASF17:
 17290 09bf 6C6F6E67 		.string	"long long unsigned int"
 17290      206C6F6E 
 17290      6720756E 
 17290      7369676E 
 17290      65642069 
 17291              	.LASF294:
 17292 09d6 6253656D 		.string	"bSemaStepperGo"
GAS LISTING /tmp/ccffpNMU.s 			page 322


 17292      61537465 
 17292      70706572 
 17292      476F00
 17293              	.LASF268:
 17294 09e5 7369676E 		.string	"signgam"
 17294      67616D00 
 17295              	.LASF25:
 17296 09ed 75696E74 		.string	"uint16_t"
 17296      31365F74 
 17296      00
 17297              	.LASF19:
 17298 09f6 5F5F6F66 		.string	"__off_t"
 17298      665F7400 
 17299              	.LASF116:
 17300 09fe 6F66665F 		.string	"off_name"
 17300      6E616D65 
 17300      00
 17301              	.LASF34:
 17302 0a07 6D73675F 		.string	"msg_t"
 17302      7400
 17303              	.LASF61:
 17304 0a0d 63685F74 		.string	"ch_threads_queue"
 17304      68726561 
 17304      64735F71 
 17304      75657565 
 17304      00
 17305              	.LASF36:
 17306 0a1e 6576656E 		.string	"eventflags_t"
 17306      74666C61 
 17306      67735F74 
 17306      00
 17307              	.LASF293:
 17308 0a2b 6253656D 		.string	"bSemaStepperDone"
 17308      61537465 
 17308      70706572 
 17308      446F6E65 
 17308      00
 17309              	.LASF127:
 17310 0a3c 62696E61 		.string	"binary_semaphore_t"
 17310      72795F73 
 17310      656D6170 
 17310      686F7265 
 17310      5F7400
 17311              	.LASF69:
 17312 0a4f 64656C74 		.string	"delta"
 17312      6100
 17313              	.LASF198:
 17314 0a55 5F667265 		.string	"_freeres_buf"
 17314      65726573 
 17314      5F627566 
 17314      00
 17315              	.LASF48:
 17316 0a62 72656673 		.string	"refs"
 17316      00
 17317              	.LASF40:
 17318 0a67 71756575 		.string	"queue"
 17318      6500
GAS LISTING /tmp/ccffpNMU.s 			page 323


 17319              	.LASF214:
 17320 0a6d 715F636F 		.string	"q_counter"
 17320      756E7465 
 17320      7200
 17321              	.LASF170:
 17322 0a77 6F707465 		.string	"opterr"
 17322      727200
 17323              	.LASF159:
 17324 0a7e 63685F66 		.string	"ch_factory"
 17324      6163746F 
 17324      727900
 17325              	.LASF156:
 17326 0a89 6D62785F 		.string	"mbx_list"
 17326      6C697374 
 17326      00
 17327              	.LASF267:
 17328 0a92 536D616C 		.string	"SmallTimeDigits"
 17328      6C54696D 
 17328      65446967 
 17328      69747300 
 17329              	.LASF81:
 17330 0aa2 6D61696E 		.string	"mainthread"
 17330      74687265 
 17330      616400
 17331              	.LASF108:
 17332 0aad 76657273 		.string	"version"
 17332      696F6E00 
 17333              	.LASF183:
 17334 0ab5 5F494F5F 		.string	"_IO_backup_base"
 17334      6261636B 
 17334      75705F62 
 17334      61736500 
 17335              	.LASF192:
 17336 0ac5 5F73686F 		.string	"_shortbuf"
 17336      72746275 
 17336      6600
 17337              	.LASF302:
 17338 0acf 73746570 		.string	"steps"
 17338      7300
 17339              	.LASF45:
 17340 0ad5 77616261 		.string	"wabase"
 17340      736500
 17341              	.LASF236:
 17342 0adc 53657269 		.string	"SerialDriver"
 17342      616C4472 
 17342      69766572 
 17342      00
 17343              	.LASF145:
 17344 0ae9 6D656D6F 		.string	"memory_pool_t"
 17344      72795F70 
 17344      6F6F6C5F 
 17344      7400
 17345              	.LASF338:
 17346 0af7 2F686F6D 		.string	"/home/phil/Documents/ChibiOS_18.2.1/demos/various/RT-Posix-SimulatorAtom"
 17346      652F7068 
 17346      696C2F44 
 17346      6F63756D 
GAS LISTING /tmp/ccffpNMU.s 			page 324


 17346      656E7473 
 17347              	.LASF20:
 17348 0b40 5F5F6F66 		.string	"__off64_t"
 17348      6636345F 
 17348      7400
 17349              	.LASF334:
 17350 0b4a 536D616C 		.string	"SmallTimeGetDigits"
 17350      6C54696D 
 17350      65476574 
 17350      44696769 
 17350      747300
 17351              	.LASF213:
 17352 0b5d 715F7761 		.string	"q_waiting"
 17352      6974696E 
 17352      6700
 17353              	.LASF79:
 17354 0b67 726C6973 		.string	"rlist"
 17354      7400
 17355              	.LASF30:
 17356 0b6d 746D6F64 		.string	"tmode_t"
 17356      655F7400 
 17357              	.LASF235:
 17358 0b75 73647374 		.string	"sdstate_t"
 17358      6174655F 
 17358      7400
 17359              	.LASF329:
 17360 0b7f 636C4153 		.string	"clASetTargetRelative"
 17360      65745461 
 17360      72676574 
 17360      52656C61 
 17360      74697665 
 17361              	.LASF234:
 17362 0b94 53445F52 		.string	"SD_READY"
 17362      45414459 
 17362      00
 17363              	.LASF181:
 17364 0b9d 5F494F5F 		.string	"_IO_buf_end"
 17364      6275665F 
 17364      656E6400 
 17365              	.LASF92:
 17366 0ba9 746D5F63 		.string	"tm_calibration_t"
 17366      616C6962 
 17366      72617469 
 17366      6F6E5F74 
 17366      00
 17367              	.LASF164:
 17368 0bba 5F5F696E 		.string	"__in6_u"
 17368      365F7500 
 17369              	.LASF44:
 17370 0bc2 6E616D65 		.string	"name"
 17370      00
 17371              	.LASF322:
 17372 0bc7 706F7274 		.string	"port_lock"
 17372      5F6C6F63 
 17372      6B00
 17373              	.LASF131:
 17374 0bd1 6C697374 		.string	"listener"
GAS LISTING /tmp/ccffpNMU.s 			page 325


 17374      656E6572 
 17374      00
 17375              	.LASF208:
 17376 0bda 73746465 		.string	"stderr"
 17376      727200
 17377              	.LASF12:
 17378 0be1 73686F72 		.string	"short int"
 17378      7420696E 
 17378      7400
 17379              	.LASF134:
 17380 0beb 6576656E 		.string	"event_source"
 17380      745F736F 
 17380      75726365 
 17380      00
 17381              	.LASF27:
 17382 0bf8 75696E74 		.string	"uint64_t"
 17382      36345F74 
 17382      00
 17383              	.LASF70:
 17384 0c01 66756E63 		.string	"func"
 17384      00
 17385              	.LASF102:
 17386 0c06 63685F6D 		.string	"ch_mutex"
 17386      75746578 
 17386      00
 17387              	.LASF324:
 17388 0c0f 636C4153 		.string	"clASetTargetPosition"
 17388      65745461 
 17388      72676574 
 17388      506F7369 
 17388      74696F6E 
 17389              	.LASF283:
 17390 0c24 6D696E53 		.string	"minStepper"
 17390      74657070 
 17390      657200
 17391              	.LASF50:
 17392 0c2f 6D736771 		.string	"msgqueue"
 17392      75657565 
 17392      00
 17393              	.LASF238:
 17394 0c38 69717565 		.string	"iqueue"
 17394      756500
 17395              	.LASF318:
 17396 0c3f 63684253 		.string	"chBSemSignalI"
 17396      656D5369 
 17396      676E616C 
 17396      4900
 17397              	.LASF191:
 17398 0c4d 5F767461 		.string	"_vtable_offset"
 17398      626C655F 
 17398      6F666673 
 17398      657400
 17399              	.LASF75:
 17400 0c5c 63685F73 		.string	"ch_system_debug"
 17400      79737465 
 17400      6D5F6465 
 17400      62756700 
GAS LISTING /tmp/ccffpNMU.s 			page 326


 17401              	.LASF149:
 17402 0c6c 64796E5F 		.string	"dyn_list_t"
 17402      6C697374 
 17402      5F7400
 17403              	.LASF126:
 17404 0c77 63685F62 		.string	"ch_binary_semaphore"
 17404      696E6172 
 17404      795F7365 
 17404      6D617068 
 17404      6F726500 
 17405              	.LASF211:
 17406 0c8b 696F5F71 		.string	"io_queue_t"
 17406      75657565 
 17406      5F7400
 17407              	.LASF228:
 17408 0c96 50414C43 		.string	"PALConfig"
 17408      6F6E6669 
 17408      6700
 17409              	.LASF305:
 17410 0ca0 616E6953 		.string	"aniSpiral"
 17410      70697261 
 17410      6C00
 17411              	.LASF142:
 17412 0caa 6F626A65 		.string	"object_size"
 17412      63745F73 
 17412      697A6500 
 17413              	.LASF80:
 17414 0cb6 76746C69 		.string	"vtlist"
 17414      737400
 17415              	.LASF252:
 17416 0cbd 5F5F6461 		.string	"__daylight"
 17416      796C6967 
 17416      687400
 17417              	.LASF49:
 17418 0cc8 77616974 		.string	"waiting"
 17418      696E6700 
 17419              	.LASF147:
 17420 0cd0 64796E5F 		.string	"dyn_element_t"
 17420      656C656D 
 17420      656E745F 
 17420      7400
 17421              	.LASF128:
 17422 0cde 6D757465 		.string	"mutex_t"
 17422      785F7400 
 17423              	.LASF282:
 17424 0ce6 686F7572 		.string	"hourStepper"
 17424      53746570 
 17424      70657200 
 17425              	.LASF32:
 17426 0cf2 74726566 		.string	"trefs_t"
 17426      735F7400 
 17427              	.LASF87:
 17428 0cfa 706F7274 		.string	"port_context"
 17428      5F636F6E 
 17428      74657874 
 17428      00
 17429              	.LASF175:
GAS LISTING /tmp/ccffpNMU.s 			page 327


 17430 0d07 5F494F5F 		.string	"_IO_read_end"
 17430      72656164 
 17430      5F656E64 
 17430      00
 17431              	.LASF56:
 17432 0d14 74687265 		.string	"threads_list_t"
 17432      6164735F 
 17432      6C697374 
 17432      5F7400
 17433              	.LASF285:
 17434 0d23 686F7572 		.string	"hourPosition"
 17434      506F7369 
 17434      74696F6E 
 17434      00
 17435              	.LASF78:
 17436 0d30 63685F73 		.string	"ch_system"
 17436      79737465 
 17436      6D00
 17437              	.LASF266:
 17438 0d3a 6D696E44 		.string	"minDigit"
 17438      69676974 
 17438      00
 17439              	.LASF42:
 17440 0d43 6E657765 		.string	"newer"
 17440      7200
 17441              	.LASF313:
 17442 0d49 616E6953 		.string	"aniStandardTimeOff"
 17442      74616E64 
 17442      61726454 
 17442      696D654F 
 17442      666600
 17443              	.LASF161:
 17444 0d5c 5F5F7536 		.string	"__u6_addr16"
 17444      5F616464 
 17444      72313600 
 17445              	.LASF26:
 17446 0d68 75696E74 		.string	"uint32_t"
 17446      33325F74 
 17446      00
 17447              	.LASF259:
 17448 0d71 686F7572 		.string	"hours"
 17448      7300
 17449              	.LASF244:
 17450 0d77 696E7374 		.string	"instance_offset"
 17450      616E6365 
 17450      5F6F6666 
 17450      73657400 
 17451              	.LASF187:
 17452 0d87 5F66696C 		.string	"_fileno"
 17452      656E6F00 
 17453              	.LASF222:
 17454 0d8f 696E7075 		.string	"input_queue_t"
 17454      745F7175 
 17454      6575655F 
 17454      7400
 17455              	.LASF4:
 17456 0d9d 5F466C6F 		.string	"_Float128"
GAS LISTING /tmp/ccffpNMU.s 			page 328


 17456      61743132 
 17456      3800
 17457              	.LASF196:
 17458 0da7 5F776964 		.string	"_wide_data"
 17458      655F6461 
 17458      746100
 17459              	.LASF168:
 17460 0db2 6F707461 		.string	"optarg"
 17460      726700
 17461              	.LASF130:
 17462 0db9 6576656E 		.string	"event_listener"
 17462      745F6C69 
 17462      7374656E 
 17462      657200
 17463              	.LASF93:
 17464 0dc8 7264796D 		.string	"rdymsg"
 17464      736700
 17465              	.LASF217:
 17466 0dcf 715F7772 		.string	"q_wrptr"
 17466      70747200 
 17467              	.LASF6:
 17468 0dd7 73686F72 		.string	"short unsigned int"
 17468      7420756E 
 17468      7369676E 
 17468      65642069 
 17468      6E7400
 17469              	.LASF207:
 17470 0dea 7374646F 		.string	"stdout"
 17470      757400
 17471              	.LASF85:
 17472 0df1 72656778 		.string	"regx86"
 17472      383600
 17473              	.LASF77:
 17474 0df8 63685F73 		.string	"ch_system_t"
 17474      79737465 
 17474      6D5F7400 
 17475              	.LASF123:
 17476 0e04 63686465 		.string	"chdebug_t"
 17476      6275675F 
 17476      7400
 17477              	.LASF287:
 17478 0e0e 686F7572 		.string	"hourTarget"
 17478      54617267 
 17478      657400
 17479              	.LASF178:
 17480 0e19 5F494F5F 		.string	"_IO_write_ptr"
 17480      77726974 
 17480      655F7074 
 17480      7200
 17481              	.LASF223:
 17482 0e27 6F757470 		.string	"output_queue_t"
 17482      75745F71 
 17482      75657565 
 17482      5F7400
 17483              	.LASF110:
 17484 0e36 74696D65 		.string	"timesize"
 17484      73697A65 
GAS LISTING /tmp/ccffpNMU.s 			page 329


 17484      00
 17485              	.LASF14:
 17486 0e3f 5F5F696E 		.string	"__int32_t"
 17486      7433325F 
 17486      7400
 17487              	.LASF233:
 17488 0e49 53445F53 		.string	"SD_STOP"
 17488      544F5000 
 17489              	.LASF255:
 17490 0e51 6461796C 		.string	"daylight"
 17490      69676874 
 17490      00
 17491              	.LASF162:
 17492 0e5a 5F5F7536 		.string	"__u6_addr32"
 17492      5F616464 
 17492      72333200 
 17493              	.LASF140:
 17494 0e66 63685F6D 		.string	"ch_memcore"
 17494      656D636F 
 17494      726500
 17495              	.LASF119:
 17496 0e71 6F66665F 		.string	"off_flags"
 17496      666C6167 
 17496      7300
 17497              	.LASF281:
 17498 0e7b 61636365 		.string	"accelStepper"
 17498      6C537465 
 17498      70706572 
 17498      00
 17499              	.LASF316:
 17500 0e88 616E6953 		.string	"aniStandardTime"
 17500      74616E64 
 17500      61726454 
 17500      696D6500 
 17501              	.LASF132:
 17502 0e98 6576656E 		.string	"events"
 17502      747300
 17503              	.LASF59:
 17504 0e9f 6E657874 		.string	"next"
 17504      00
 17505              	.LASF125:
 17506 0ea4 73656D61 		.string	"semaphore_t"
 17506      70686F72 
 17506      655F7400 
 17507              	.LASF62:
 17508 0eb0 70726576 		.string	"prev"
 17508      00
 17509              	.LASF148:
 17510 0eb5 63685F64 		.string	"ch_dyn_list"
 17510      796E5F6C 
 17510      69737400 
 17511              	.LASF105:
 17512 0ec1 6964656E 		.string	"identifier"
 17512      74696669 
 17512      657200
 17513              	.LASF270:
 17514 0ecc 5F746172 		.string	"_targetPos"
GAS LISTING /tmp/ccffpNMU.s 			page 330


 17514      67657450 
 17514      6F7300
 17515              	.LASF308:
 17516 0ed7 616E6954 		.string	"aniTriangle"
 17516      7269616E 
 17516      676C6500 
 17517              	.LASF299:
 17518 0ee3 616E6953 		.string	"aniStairs"
 17518      74616972 
 17518      7300
 17519              		.ident	"GCC: (Ubuntu 8.3.0-6ubuntu1) 8.3.0"
 17520              		.section	.note.GNU-stack,"",@progbits
GAS LISTING /tmp/ccffpNMU.s 			page 331


DEFINED SYMBOLS
                            *ABS*:0000000000000000 animations.c
     /tmp/ccffpNMU.s:8      .text.aniStandardTime:0000000000000000 aniStandardTime
     /tmp/ccffpNMU.s:6331   .text.__x86.get_pc_thunk.bx:0000000000000000 __x86.get_pc_thunk.bx
     /tmp/ccffpNMU.s:6312   .bss.myTime:0000000000000000 myTime
     /tmp/ccffpNMU.s:6298   .bss.prevmin.7179:0000000000000000 prevmin.7179
     /tmp/ccffpNMU.s:6305   .bss.myTimeDigits:0000000000000000 myTimeDigits
     /tmp/ccffpNMU.s:418    .text.aniStandardTimeOff:0000000000000000 aniStandardTimeOff
     /tmp/ccffpNMU.s:6293   .bss.prevmin.7184:0000000000000000 prevmin.7184
     /tmp/ccffpNMU.s:6288   .data.turns.7185:0000000000000000 turns.7185
     /tmp/ccffpNMU.s:846    .text.aniCounter:0000000000000000 aniCounter
     /tmp/ccffpNMU.s:6283   .bss.counter.7190:0000000000000000 counter.7190
     /tmp/ccffpNMU.s:1096   .text.aniRotate:0000000000000000 aniRotate
     /tmp/ccffpNMU.s:1195   .text.aniTriangle:0000000000000000 aniTriangle
     /tmp/ccffpNMU.s:1967   .text.aniSpiral:0000000000000000 aniSpiral
     /tmp/ccffpNMU.s:2626   .text.aniDiamonds:0000000000000000 aniDiamonds
     /tmp/ccffpNMU.s:3272   .text.aniDiamonds2:0000000000000000 aniDiamonds2
     /tmp/ccffpNMU.s:3961   .text.aniSquares:0000000000000000 aniSquares
     /tmp/ccffpNMU.s:4757   .text.aniStairs:0000000000000000 aniStairs
     /tmp/ccffpNMU.s:5746   .text.aniFlower:0000000000000000 aniFlower
     /tmp/ccffpNMU.s:6319   .rodata.cst4:0000000000000004 .LC1
     /tmp/ccffpNMU.s:6316   .rodata.cst4:0000000000000000 .LC0
     /tmp/ccffpNMU.s:6322   .rodata.cst4:0000000000000008 .LC2
     /tmp/ccffpNMU.s:6325   .rodata.cst4:000000000000000c .LC3

UNDEFINED SYMBOLS
_GLOBAL_OFFSET_TABLE_
port_irq_sts
chSchRescheduleS
chSemWait
SmallTimeGet
SmallTimeGetDigits
diSetDigits
chSemSignalI
diSetDigitsOffset
clARefractorMaxSpeed
clASetAllTargetpostion
clASetTargetPosition
chThdSleep
clASetMaxSpeed
clASetTargetRelative
