GAS LISTING /tmp/ccffpNMU.s 			page 1


   1              		.file	"animations.c"
   2              		.text
   3              	.Ltext0:
   4              		.section	.text.aniStandardTime,"ax",@progbits
   5              		.p2align 4,,15
   6              		.globl	aniStandardTime
   7              		.type	aniStandardTime, @function
   8              	aniStandardTime:
   9              	.LVL0:
  10              	.LFB222:
  11              		.file 1 "animations.c"
  12              		.loc 1 6 96 view -0
  13              		.cfi_startproc
  14              		.loc 1 7 2 view .LVU1
  15              		.loc 1 6 96 is_stmt 0 view .LVU2
  16 0000 55       		pushl	%ebp
  17              		.cfi_def_cfa_offset 8
  18              		.cfi_offset 5, -8
  19 0001 57       		pushl	%edi
  20              		.cfi_def_cfa_offset 12
  21              		.cfi_offset 7, -12
  22 0002 56       		pushl	%esi
  23              		.cfi_def_cfa_offset 16
  24              		.cfi_offset 6, -16
  25 0003 53       		pushl	%ebx
  26              		.cfi_def_cfa_offset 20
  27              		.cfi_offset 3, -20
  28 0004 E8FCFFFF 		call	__x86.get_pc_thunk.bx
  28      FF
  29 0009 81C30200 		addl	$_GLOBAL_OFFSET_TABLE_, %ebx
  29      0000
  30 000f 83EC0C   		subl	$12, %esp
  31              		.cfi_def_cfa_offset 32
  32              		.loc 1 6 96 view .LVU3
  33 0012 8B7C2424 		movl	36(%esp), %edi
  34              	.LVL1:
  35              	.LBB111:
  36              	.LBI111:
  37              		.file 2 "../../../os/common/oslib/include/chbsem.h"
  38              		.loc 2 282 20 is_stmt 1 view .LVU4
  39              	.LBB112:
  40              		.loc 2 284 3 view .LVU5
  41              	.LBB113:
  42              	.LBI113:
  43              		.file 3 "../../../os/rt/include/chsys.h"
  44              		.loc 3 353 20 view .LVU6
  45              	.LBE113:
  46              	.LBE112:
  47              	.LBE111:
  48              		.loc 3 355 3 view .LVU7
  49              	.LBB138:
  50              	.LBB134:
  51              	.LBB118:
  52              	.LBB114:
  53              	.LBI114:
  54              		.file 4 "../../../os/common/ports/SIMIA32/chcore.h"
  55              		.loc 4 362 20 view .LVU8
GAS LISTING /tmp/ccffpNMU.s 			page 2


  56              	.LBB115:
  57              		.loc 4 364 3 view .LVU9
  58              	.LBE115:
  59              	.LBE114:
  60              	.LBE118:
  61              	.LBB119:
  62              	.LBB120:
  63              		.loc 2 270 6 is_stmt 0 view .LVU10
  64 0016 8B4708   		movl	8(%edi), %eax
  65              	.LBE120:
  66              	.LBE119:
  67              	.LBB123:
  68              	.LBB117:
  69              	.LBB116:
  70              		.loc 4 364 16 view .LVU11
  71 0019 8BB30000 		movl	port_irq_sts@GOT(%ebx), %esi
  71      0000
  72 001f C7060100 		movl	$1, (%esi)
  72      0000
  73              	.LBE116:
  74              	.LBE117:
  75              	.LBE123:
  76              	.LBE134:
  77              	.LBE138:
  78              		.loc 3 356 34 is_stmt 1 view .LVU12
  79              		.loc 3 357 20 view .LVU13
  80              	.LBB139:
  81              	.LBB135:
  82              		.loc 2 285 3 view .LVU14
  83              	.LVL2:
  84              	.LBB124:
  85              	.LBI119:
  86              		.loc 2 266 20 view .LVU15
  87              	.LBB121:
  88              		.loc 2 268 21 view .LVU16
  89              		.loc 2 270 3 view .LVU17
  90              		.loc 2 270 6 is_stmt 0 view .LVU18
  91 0025 85C0     		testl	%eax, %eax
  92 0027 0F8EC300 		jle	.L7
  92      0000
  93              	.L2:
  94              	.LVL3:
  95              		.loc 2 270 6 view .LVU19
  96              	.LBE121:
  97              	.LBE124:
  98              		.loc 2 286 3 is_stmt 1 view .LVU20
  99 002d E8FCFFFF 		call	chSchRescheduleS@PLT
  99      FF
 100              	.LVL4:
 101              		.loc 2 287 3 view .LVU21
 102              	.LBB125:
 103              	.LBI125:
 104              		.loc 3 365 20 view .LVU22
 105              	.LBB126:
 106              		.loc 3 367 22 view .LVU23
 107              		.loc 3 368 33 view .LVU24
 108              		.loc 3 374 3 view .LVU25
GAS LISTING /tmp/ccffpNMU.s 			page 3


 109              		.loc 3 374 3 view .LVU26
 110              		.loc 3 378 3 view .LVU27
 111              	.LBB127:
 112              	.LBI127:
 113              		.loc 4 371 20 view .LVU28
 114              	.LBB128:
 115              		.loc 4 373 3 view .LVU29
 116              	.LBE128:
 117              	.LBE127:
 118              	.LBE126:
 119              	.LBE125:
 120              	.LBE135:
 121              	.LBE139:
 122              	.LBB140:
 123              	.LBB141:
 124              		.loc 2 143 10 is_stmt 0 view .LVU30
 125 0032 83EC0C   		subl	$12, %esp
 126              		.cfi_def_cfa_offset 44
 127              	.LBE141:
 128              	.LBE140:
 129              		.loc 1 11 2 view .LVU31
 130 0035 8DAB0000 		leal	myTime@GOTOFF(%ebx), %ebp
 130      0000
 131              	.LBB143:
 132              	.LBB136:
 133              	.LBB132:
 134              	.LBB131:
 135              	.LBB130:
 136              	.LBB129:
 137              		.loc 4 373 16 view .LVU32
 138 003b C7060000 		movl	$0, (%esi)
 138      0000
 139              	.LVL5:
 140              		.loc 4 373 16 view .LVU33
 141              	.LBE129:
 142              	.LBE130:
 143              	.LBE131:
 144              	.LBE132:
 145              	.LBE136:
 146              	.LBE143:
 147              		.loc 1 8 2 is_stmt 1 view .LVU34
 148              	.LBB144:
 149              	.LBI140:
 150              		.loc 2 141 21 view .LVU35
 151              	.LBB142:
 152              		.loc 2 143 3 view .LVU36
 153              		.loc 2 143 10 is_stmt 0 view .LVU37
 154 0041 FF74242C 		pushl	44(%esp)
 155              		.cfi_def_cfa_offset 48
 156 0045 E8FCFFFF 		call	chSemWait@PLT
 156      FF
 157              	.LVL6:
 158              	.LBE142:
 159              	.LBE144:
 160              		.loc 1 9 2 is_stmt 1 view .LVU38
 161              		.loc 1 11 2 view .LVU39
 162 004a 892C24   		movl	%ebp, (%esp)
GAS LISTING /tmp/ccffpNMU.s 			page 4


 163 004d E8FCFFFF 		call	SmallTimeGet@PLT
 163      FF
 164              	.LVL7:
 165              		.loc 1 12 2 view .LVU40
 166              		.loc 1 12 12 is_stmt 0 view .LVU41
 167 0052 8B830400 		movl	4+myTime@GOTOFF(%ebx), %eax
 167      0000
 168              		.loc 1 12 21 view .LVU42
 169 0058 0FB69300 		movzbl	prevmin.7179@GOTOFF(%ebx), %edx
 169      000000
 170              		.loc 1 12 5 view .LVU43
 171 005f 83C410   		addl	$16, %esp
 172              		.cfi_def_cfa_offset 32
 173 0062 39D0     		cmpl	%edx, %eax
 174 0064 750A     		jne	.L8
 175              		.loc 1 21 1 view .LVU44
 176 0066 83C40C   		addl	$12, %esp
 177              		.cfi_remember_state
 178              		.cfi_def_cfa_offset 20
 179 0069 5B       		popl	%ebx
 180              		.cfi_restore 3
 181              		.cfi_def_cfa_offset 16
 182 006a 5E       		popl	%esi
 183              		.cfi_restore 6
 184              		.cfi_def_cfa_offset 12
 185 006b 5F       		popl	%edi
 186              		.cfi_restore 7
 187              		.cfi_def_cfa_offset 8
 188 006c 5D       		popl	%ebp
 189              		.cfi_restore 5
 190              		.cfi_def_cfa_offset 4
 191 006d C3       		ret
 192 006e 6690     		.p2align 4,,10
 193              		.p2align 3
 194              	.L8:
 195              		.cfi_restore_state
 196              		.loc 1 13 3 is_stmt 1 view .LVU45
 197              		.loc 1 14 3 is_stmt 0 view .LVU46
 198 0070 83EC08   		subl	$8, %esp
 199              		.cfi_def_cfa_offset 40
 200              		.loc 1 13 11 view .LVU47
 201 0073 88830000 		movb	%al, prevmin.7179@GOTOFF(%ebx)
 201      0000
 202              		.loc 1 14 3 is_stmt 1 view .LVU48
 203 0079 8D830000 		leal	myTimeDigits@GOTOFF(%ebx), %eax
 203      0000
 204 007f 50       		pushl	%eax
 205              		.cfi_def_cfa_offset 44
 206 0080 55       		pushl	%ebp
 207              		.cfi_def_cfa_offset 48
 208 0081 E8FCFFFF 		call	SmallTimeGetDigits@PLT
 208      FF
 209              	.LVL8:
 210              		.loc 1 15 3 view .LVU49
 211 0086 58       		popl	%eax
 212              		.cfi_def_cfa_offset 44
 213 0087 0FB68300 		movzbl	myTimeDigits@GOTOFF(%ebx), %eax
GAS LISTING /tmp/ccffpNMU.s 			page 5


 213      000000
 214 008e 5A       		popl	%edx
 215              		.cfi_def_cfa_offset 40
 216 008f 50       		pushl	%eax
 217              		.cfi_def_cfa_offset 44
 218 0090 6A00     		pushl	$0
 219              		.cfi_def_cfa_offset 48
 220 0092 E8FCFFFF 		call	diSetDigits@PLT
 220      FF
 221              	.LVL9:
 222              		.loc 1 16 3 view .LVU50
 223 0097 0FB68301 		movzbl	1+myTimeDigits@GOTOFF(%ebx), %eax
 223      000000
 224 009e 59       		popl	%ecx
 225              		.cfi_def_cfa_offset 44
 226 009f 5D       		popl	%ebp
 227              		.cfi_def_cfa_offset 40
 228 00a0 50       		pushl	%eax
 229              		.cfi_def_cfa_offset 44
 230 00a1 6A02     		pushl	$2
 231              		.cfi_def_cfa_offset 48
 232 00a3 E8FCFFFF 		call	diSetDigits@PLT
 232      FF
 233              	.LVL10:
 234              		.loc 1 17 3 view .LVU51
 235 00a8 58       		popl	%eax
 236              		.cfi_def_cfa_offset 44
 237 00a9 0FB68302 		movzbl	2+myTimeDigits@GOTOFF(%ebx), %eax
 237      000000
 238 00b0 5A       		popl	%edx
 239              		.cfi_def_cfa_offset 40
 240 00b1 50       		pushl	%eax
 241              		.cfi_def_cfa_offset 44
 242 00b2 6A04     		pushl	$4
 243              		.cfi_def_cfa_offset 48
 244 00b4 E8FCFFFF 		call	diSetDigits@PLT
 244      FF
 245              	.LVL11:
 246              		.loc 1 18 3 view .LVU52
 247 00b9 0FB68303 		movzbl	3+myTimeDigits@GOTOFF(%ebx), %eax
 247      000000
 248 00c0 59       		popl	%ecx
 249              		.cfi_def_cfa_offset 44
 250 00c1 5D       		popl	%ebp
 251              		.cfi_def_cfa_offset 40
 252 00c2 50       		pushl	%eax
 253              		.cfi_def_cfa_offset 44
 254 00c3 6A06     		pushl	$6
 255              		.cfi_def_cfa_offset 48
 256 00c5 E8FCFFFF 		call	diSetDigits@PLT
 256      FF
 257              	.LVL12:
 258              		.loc 1 19 3 view .LVU53
 259              	.LBB145:
 260              	.LBI145:
 261              		.loc 2 282 20 view .LVU54
 262              	.LBB146:
GAS LISTING /tmp/ccffpNMU.s 			page 6


 263              		.loc 2 284 3 view .LVU55
 264              	.LBB147:
 265              	.LBI147:
 266              		.loc 3 353 20 view .LVU56
 267              	.LBE147:
 268              	.LBE146:
 269              	.LBE145:
 270              		.loc 3 355 3 view .LVU57
 271              	.LBB167:
 272              	.LBB164:
 273              	.LBB152:
 274              	.LBB148:
 275              	.LBI148:
 276              		.loc 4 362 20 view .LVU58
 277              	.LBB149:
 278              		.loc 4 364 3 view .LVU59
 279              	.LBE149:
 280              	.LBE148:
 281              	.LBE152:
 282              	.LBB153:
 283              	.LBB154:
 284              		.loc 2 270 6 is_stmt 0 view .LVU60
 285 00ca 8B4708   		movl	8(%edi), %eax
 286              	.LBE154:
 287              	.LBE153:
 288              	.LBB157:
 289              	.LBB151:
 290              	.LBB150:
 291              		.loc 4 364 16 view .LVU61
 292 00cd C7060100 		movl	$1, (%esi)
 292      0000
 293              	.LBE150:
 294              	.LBE151:
 295              	.LBE157:
 296              	.LBE164:
 297              	.LBE167:
 298              		.loc 3 356 34 is_stmt 1 view .LVU62
 299              		.loc 3 357 20 view .LVU63
 300              	.LBB168:
 301              	.LBB165:
 302              		.loc 2 285 3 view .LVU64
 303              	.LVL13:
 304              	.LBB158:
 305              	.LBI153:
 306              		.loc 2 266 20 view .LVU65
 307              	.LBB155:
 308              		.loc 2 268 21 view .LVU66
 309              		.loc 2 270 3 view .LVU67
 310              		.loc 2 270 6 is_stmt 0 view .LVU68
 311 00d3 83C410   		addl	$16, %esp
 312              		.cfi_def_cfa_offset 32
 313 00d6 85C0     		testl	%eax, %eax
 314 00d8 7E2E     		jle	.L9
 315              	.L4:
 316              	.LVL14:
 317              		.loc 2 270 6 view .LVU69
 318              	.LBE155:
GAS LISTING /tmp/ccffpNMU.s 			page 7


 319              	.LBE158:
 320              		.loc 2 286 3 is_stmt 1 view .LVU70
 321 00da E8FCFFFF 		call	chSchRescheduleS@PLT
 321      FF
 322              	.LVL15:
 323              		.loc 2 287 3 view .LVU71
 324              	.LBB159:
 325              	.LBI159:
 326              		.loc 3 365 20 view .LVU72
 327              	.LBB160:
 328              		.loc 3 367 22 view .LVU73
 329              		.loc 3 368 33 view .LVU74
 330              		.loc 3 374 3 view .LVU75
 331              		.loc 3 374 3 view .LVU76
 332              		.loc 3 378 3 view .LVU77
 333              	.LBB161:
 334              	.LBI161:
 335              		.loc 4 371 20 view .LVU78
 336              	.LBB162:
 337              		.loc 4 373 3 view .LVU79
 338              		.loc 4 373 16 is_stmt 0 view .LVU80
 339 00df C7060000 		movl	$0, (%esi)
 339      0000
 340              	.LBE162:
 341              	.LBE161:
 342              	.LBE160:
 343              	.LBE159:
 344              	.LBE165:
 345              	.LBE168:
 346              		.loc 1 21 1 view .LVU81
 347 00e5 83C40C   		addl	$12, %esp
 348              		.cfi_remember_state
 349              		.cfi_def_cfa_offset 20
 350 00e8 5B       		popl	%ebx
 351              		.cfi_restore 3
 352              		.cfi_def_cfa_offset 16
 353 00e9 5E       		popl	%esi
 354              		.cfi_restore 6
 355              		.cfi_def_cfa_offset 12
 356 00ea 5F       		popl	%edi
 357              		.cfi_restore 7
 358              		.cfi_def_cfa_offset 8
 359              	.LVL16:
 360              		.loc 1 21 1 view .LVU82
 361 00eb 5D       		popl	%ebp
 362              		.cfi_restore 5
 363              		.cfi_def_cfa_offset 4
 364 00ec C3       		ret
 365              	.LVL17:
 366 00ed 8D7600   		.p2align 4,,10
 367              		.p2align 3
 368              	.L7:
 369              		.cfi_restore_state
 370              	.LBB169:
 371              	.LBB137:
 372              	.LBB133:
 373              	.LBB122:
GAS LISTING /tmp/ccffpNMU.s 			page 8


 374              		.loc 2 271 5 is_stmt 1 view .LVU83
 375 00f0 83EC0C   		subl	$12, %esp
 376              		.cfi_def_cfa_offset 44
 377 00f3 57       		pushl	%edi
 378              		.cfi_def_cfa_offset 48
 379 00f4 E8FCFFFF 		call	chSemSignalI@PLT
 379      FF
 380              	.LVL18:
 381 00f9 83C410   		addl	$16, %esp
 382              		.cfi_def_cfa_offset 32
 383 00fc E92CFFFF 		jmp	.L2
 383      FF
 384              	.LVL19:
 385              		.p2align 4,,10
 386 0101 8DB42600 		.p2align 3
 386      000000
 387              	.L9:
 388              		.loc 2 271 5 is_stmt 0 view .LVU84
 389              	.LBE122:
 390              	.LBE133:
 391              	.LBE137:
 392              	.LBE169:
 393              	.LBB170:
 394              	.LBB166:
 395              	.LBB163:
 396              	.LBB156:
 397              		.loc 2 271 5 is_stmt 1 view .LVU85
 398 0108 83EC0C   		subl	$12, %esp
 399              		.cfi_def_cfa_offset 44
 400 010b 57       		pushl	%edi
 401              		.cfi_def_cfa_offset 48
 402 010c E8FCFFFF 		call	chSemSignalI@PLT
 402      FF
 403              	.LVL20:
 404 0111 83C410   		addl	$16, %esp
 405              		.cfi_def_cfa_offset 32
 406 0114 EBC4     		jmp	.L4
 407              	.LBE156:
 408              	.LBE163:
 409              	.LBE166:
 410              	.LBE170:
 411              		.cfi_endproc
 412              	.LFE222:
 413              		.size	aniStandardTime, .-aniStandardTime
 414              		.section	.text.aniStandardTimeOff,"ax",@progbits
 415              		.p2align 4,,15
 416              		.globl	aniStandardTimeOff
 417              		.type	aniStandardTimeOff, @function
 418              	aniStandardTimeOff:
 419              	.LVL21:
 420              	.LFB223:
 421              		.loc 1 23 99 view -0
 422              		.cfi_startproc
 423              		.loc 1 24 2 view .LVU87
 424              		.loc 1 23 99 is_stmt 0 view .LVU88
 425 0000 55       		pushl	%ebp
 426              		.cfi_def_cfa_offset 8
GAS LISTING /tmp/ccffpNMU.s 			page 9


 427              		.cfi_offset 5, -8
 428 0001 57       		pushl	%edi
 429              		.cfi_def_cfa_offset 12
 430              		.cfi_offset 7, -12
 431 0002 56       		pushl	%esi
 432              		.cfi_def_cfa_offset 16
 433              		.cfi_offset 6, -16
 434 0003 53       		pushl	%ebx
 435              		.cfi_def_cfa_offset 20
 436              		.cfi_offset 3, -20
 437 0004 E8FCFFFF 		call	__x86.get_pc_thunk.bx
 437      FF
 438 0009 81C30200 		addl	$_GLOBAL_OFFSET_TABLE_, %ebx
 438      0000
 439 000f 83EC0C   		subl	$12, %esp
 440              		.cfi_def_cfa_offset 32
 441              		.loc 1 23 99 view .LVU89
 442 0012 8B7C2424 		movl	36(%esp), %edi
 443              	.LVL22:
 444              	.LBB195:
 445              	.LBI195:
 446              		.loc 2 282 20 is_stmt 1 view .LVU90
 447              	.LBB196:
 448              		.loc 2 284 3 view .LVU91
 449              	.LBB197:
 450              	.LBI197:
 451              		.loc 3 353 20 view .LVU92
 452              	.LBE197:
 453              	.LBE196:
 454              	.LBE195:
 455              		.loc 3 355 3 view .LVU93
 456              	.LBB222:
 457              	.LBB218:
 458              	.LBB202:
 459              	.LBB198:
 460              	.LBI198:
 461              		.loc 4 362 20 view .LVU94
 462              	.LBB199:
 463              		.loc 4 364 3 view .LVU95
 464              	.LBE199:
 465              	.LBE198:
 466              	.LBE202:
 467              	.LBB203:
 468              	.LBB204:
 469              		.loc 2 270 6 is_stmt 0 view .LVU96
 470 0016 8B5708   		movl	8(%edi), %edx
 471              	.LBE204:
 472              	.LBE203:
 473              	.LBB207:
 474              	.LBB201:
 475              	.LBB200:
 476              		.loc 4 364 16 view .LVU97
 477 0019 8BB30000 		movl	port_irq_sts@GOT(%ebx), %esi
 477      0000
 478 001f C7060100 		movl	$1, (%esi)
 478      0000
 479              	.LBE200:
GAS LISTING /tmp/ccffpNMU.s 			page 10


 480              	.LBE201:
 481              	.LBE207:
 482              	.LBE218:
 483              	.LBE222:
 484              		.loc 3 356 34 is_stmt 1 view .LVU98
 485              		.loc 3 357 20 view .LVU99
 486              	.LBB223:
 487              	.LBB219:
 488              		.loc 2 285 3 view .LVU100
 489              	.LVL23:
 490              	.LBB208:
 491              	.LBI203:
 492              		.loc 2 266 20 view .LVU101
 493              	.LBB205:
 494              		.loc 2 268 21 view .LVU102
 495              		.loc 2 270 3 view .LVU103
 496              		.loc 2 270 6 is_stmt 0 view .LVU104
 497 0025 85D2     		testl	%edx, %edx
 498 0027 0F8EFB00 		jle	.L15
 498      0000
 499              	.L11:
 500              	.LVL24:
 501              		.loc 2 270 6 view .LVU105
 502              	.LBE205:
 503              	.LBE208:
 504              		.loc 2 286 3 is_stmt 1 view .LVU106
 505 002d E8FCFFFF 		call	chSchRescheduleS@PLT
 505      FF
 506              	.LVL25:
 507              		.loc 2 287 3 view .LVU107
 508              	.LBB209:
 509              	.LBI209:
 510              		.loc 3 365 20 view .LVU108
 511              	.LBB210:
 512              		.loc 3 367 22 view .LVU109
 513              		.loc 3 368 33 view .LVU110
 514              		.loc 3 374 3 view .LVU111
 515              		.loc 3 374 3 view .LVU112
 516              		.loc 3 378 3 view .LVU113
 517              	.LBB211:
 518              	.LBI211:
 519              		.loc 4 371 20 view .LVU114
 520              	.LBB212:
 521              		.loc 4 373 3 view .LVU115
 522              	.LBE212:
 523              	.LBE211:
 524              	.LBE210:
 525              	.LBE209:
 526              	.LBE219:
 527              	.LBE223:
 528              	.LBB224:
 529              	.LBB225:
 530              		.loc 2 143 10 is_stmt 0 view .LVU116
 531 0032 83EC0C   		subl	$12, %esp
 532              		.cfi_def_cfa_offset 44
 533              	.LBE225:
 534              	.LBE224:
GAS LISTING /tmp/ccffpNMU.s 			page 11


 535              		.loc 1 28 2 view .LVU117
 536 0035 8DAB0000 		leal	myTime@GOTOFF(%ebx), %ebp
 536      0000
 537              	.LBB227:
 538              	.LBB220:
 539              	.LBB216:
 540              	.LBB215:
 541              	.LBB214:
 542              	.LBB213:
 543              		.loc 4 373 16 view .LVU118
 544 003b C7060000 		movl	$0, (%esi)
 544      0000
 545              	.LVL26:
 546              		.loc 4 373 16 view .LVU119
 547              	.LBE213:
 548              	.LBE214:
 549              	.LBE215:
 550              	.LBE216:
 551              	.LBE220:
 552              	.LBE227:
 553              		.loc 1 25 2 is_stmt 1 view .LVU120
 554              	.LBB228:
 555              	.LBI224:
 556              		.loc 2 141 21 view .LVU121
 557              	.LBB226:
 558              		.loc 2 143 3 view .LVU122
 559              		.loc 2 143 10 is_stmt 0 view .LVU123
 560 0041 FF74242C 		pushl	44(%esp)
 561              		.cfi_def_cfa_offset 48
 562 0045 E8FCFFFF 		call	chSemWait@PLT
 562      FF
 563              	.LVL27:
 564              	.LBE226:
 565              	.LBE228:
 566              		.loc 1 26 2 is_stmt 1 view .LVU124
 567              		.loc 1 27 2 view .LVU125
 568              		.loc 1 28 2 view .LVU126
 569 004a 892C24   		movl	%ebp, (%esp)
 570 004d E8FCFFFF 		call	SmallTimeGet@PLT
 570      FF
 571              	.LVL28:
 572              		.loc 1 29 2 view .LVU127
 573              		.loc 1 29 12 is_stmt 0 view .LVU128
 574 0052 8B830400 		movl	4+myTime@GOTOFF(%ebx), %eax
 574      0000
 575              		.loc 1 29 21 view .LVU129
 576 0058 0FB69300 		movzbl	prevmin.7184@GOTOFF(%ebx), %edx
 576      000000
 577              		.loc 1 29 5 view .LVU130
 578 005f 83C410   		addl	$16, %esp
 579              		.cfi_def_cfa_offset 32
 580 0062 39D0     		cmpl	%edx, %eax
 581 0064 750A     		jne	.L16
 582              		.loc 1 39 1 view .LVU131
 583 0066 83C40C   		addl	$12, %esp
 584              		.cfi_remember_state
 585              		.cfi_def_cfa_offset 20
GAS LISTING /tmp/ccffpNMU.s 			page 12


 586 0069 5B       		popl	%ebx
 587              		.cfi_restore 3
 588              		.cfi_def_cfa_offset 16
 589 006a 5E       		popl	%esi
 590              		.cfi_restore 6
 591              		.cfi_def_cfa_offset 12
 592 006b 5F       		popl	%edi
 593              		.cfi_restore 7
 594              		.cfi_def_cfa_offset 8
 595 006c 5D       		popl	%ebp
 596              		.cfi_restore 5
 597              		.cfi_def_cfa_offset 4
 598 006d C3       		ret
 599 006e 6690     		.p2align 4,,10
 600              		.p2align 3
 601              	.L16:
 602              		.cfi_restore_state
 603              		.loc 1 30 3 is_stmt 1 view .LVU132
 604              		.loc 1 31 3 is_stmt 0 view .LVU133
 605 0070 83EC08   		subl	$8, %esp
 606              		.cfi_def_cfa_offset 40
 607              		.loc 1 30 11 view .LVU134
 608 0073 88830000 		movb	%al, prevmin.7184@GOTOFF(%ebx)
 608      0000
 609              		.loc 1 31 3 is_stmt 1 view .LVU135
 610 0079 8D830000 		leal	myTimeDigits@GOTOFF(%ebx), %eax
 610      0000
 611 007f 50       		pushl	%eax
 612              		.cfi_def_cfa_offset 44
 613 0080 55       		pushl	%ebp
 614              		.cfi_def_cfa_offset 48
 615 0081 E8FCFFFF 		call	SmallTimeGetDigits@PLT
 615      FF
 616              	.LVL29:
 617              		.loc 1 32 3 view .LVU136
 618 0086 0FB68300 		movzbl	turns.7185@GOTOFF(%ebx), %eax
 618      000000
 619 008d 83C40C   		addl	$12, %esp
 620              		.cfi_def_cfa_offset 36
 621 0090 F7D8     		negl	%eax
 622 0092 0FBEC0   		movsbl	%al, %eax
 623 0095 50       		pushl	%eax
 624              		.cfi_def_cfa_offset 40
 625 0096 0FB68300 		movzbl	myTimeDigits@GOTOFF(%ebx), %eax
 625      000000
 626 009d 50       		pushl	%eax
 627              		.cfi_def_cfa_offset 44
 628 009e 6A00     		pushl	$0
 629              		.cfi_def_cfa_offset 48
 630 00a0 E8FCFFFF 		call	diSetDigitsOffset@PLT
 630      FF
 631              	.LVL30:
 632              		.loc 1 33 3 view .LVU137
 633 00a5 0FBE8300 		movsbl	turns.7185@GOTOFF(%ebx), %eax
 633      000000
 634 00ac 83C40C   		addl	$12, %esp
 635              		.cfi_def_cfa_offset 36
GAS LISTING /tmp/ccffpNMU.s 			page 13


 636 00af 50       		pushl	%eax
 637              		.cfi_def_cfa_offset 40
 638 00b0 0FB68301 		movzbl	1+myTimeDigits@GOTOFF(%ebx), %eax
 638      000000
 639 00b7 50       		pushl	%eax
 640              		.cfi_def_cfa_offset 44
 641 00b8 6A02     		pushl	$2
 642              		.cfi_def_cfa_offset 48
 643 00ba E8FCFFFF 		call	diSetDigitsOffset@PLT
 643      FF
 644              	.LVL31:
 645              		.loc 1 34 3 view .LVU138
 646 00bf 0FB68300 		movzbl	turns.7185@GOTOFF(%ebx), %eax
 646      000000
 647 00c6 83C40C   		addl	$12, %esp
 648              		.cfi_def_cfa_offset 36
 649 00c9 F7D8     		negl	%eax
 650 00cb 0FBEC0   		movsbl	%al, %eax
 651 00ce 50       		pushl	%eax
 652              		.cfi_def_cfa_offset 40
 653 00cf 0FB68302 		movzbl	2+myTimeDigits@GOTOFF(%ebx), %eax
 653      000000
 654 00d6 50       		pushl	%eax
 655              		.cfi_def_cfa_offset 44
 656 00d7 6A04     		pushl	$4
 657              		.cfi_def_cfa_offset 48
 658 00d9 E8FCFFFF 		call	diSetDigitsOffset@PLT
 658      FF
 659              	.LVL32:
 660              		.loc 1 35 3 view .LVU139
 661 00de 0FBE8300 		movsbl	turns.7185@GOTOFF(%ebx), %eax
 661      000000
 662 00e5 83C40C   		addl	$12, %esp
 663              		.cfi_def_cfa_offset 36
 664 00e8 50       		pushl	%eax
 665              		.cfi_def_cfa_offset 40
 666 00e9 0FB68303 		movzbl	3+myTimeDigits@GOTOFF(%ebx), %eax
 666      000000
 667 00f0 50       		pushl	%eax
 668              		.cfi_def_cfa_offset 44
 669 00f1 6A06     		pushl	$6
 670              		.cfi_def_cfa_offset 48
 671 00f3 E8FCFFFF 		call	diSetDigitsOffset@PLT
 671      FF
 672              	.LVL33:
 673              		.loc 1 36 3 view .LVU140
 674              	.LBB229:
 675              	.LBB230:
 676              	.LBB231:
 677              	.LBB232:
 678              		.loc 2 270 6 is_stmt 0 view .LVU141
 679 00f8 8B4708   		movl	8(%edi), %eax
 680              	.LBE232:
 681              	.LBE231:
 682              	.LBE230:
 683              	.LBE229:
 684              		.loc 1 36 9 view .LVU142
GAS LISTING /tmp/ccffpNMU.s 			page 14


 685 00fb F69B0000 		negb	turns.7185@GOTOFF(%ebx)
 685      0000
 686              		.loc 1 37 3 is_stmt 1 view .LVU143
 687              	.LVL34:
 688              	.LBB254:
 689              	.LBI229:
 690              		.loc 2 282 20 view .LVU144
 691              	.LBB250:
 692              		.loc 2 284 3 view .LVU145
 693              	.LBB236:
 694              	.LBI236:
 695              		.loc 3 353 20 view .LVU146
 696              	.LBE236:
 697              	.LBE250:
 698              	.LBE254:
 699              		.loc 3 355 3 view .LVU147
 700              	.LBB255:
 701              	.LBB251:
 702              	.LBB241:
 703              	.LBB237:
 704              	.LBI237:
 705              		.loc 4 362 20 view .LVU148
 706              	.LBB238:
 707              		.loc 4 364 3 view .LVU149
 708              	.LBE238:
 709              	.LBE237:
 710              	.LBE241:
 711              	.LBB242:
 712              	.LBB233:
 713              		.loc 2 270 6 is_stmt 0 view .LVU150
 714 0101 83C410   		addl	$16, %esp
 715              		.cfi_def_cfa_offset 32
 716              	.LBE233:
 717              	.LBE242:
 718              	.LBB243:
 719              	.LBB240:
 720              	.LBB239:
 721              		.loc 4 364 16 view .LVU151
 722 0104 C7060100 		movl	$1, (%esi)
 722      0000
 723              	.LBE239:
 724              	.LBE240:
 725              	.LBE243:
 726              	.LBE251:
 727              	.LBE255:
 728              		.loc 3 356 34 is_stmt 1 view .LVU152
 729              		.loc 3 357 20 view .LVU153
 730              	.LBB256:
 731              	.LBB252:
 732              		.loc 2 285 3 view .LVU154
 733              	.LVL35:
 734              	.LBB244:
 735              	.LBI231:
 736              		.loc 2 266 20 view .LVU155
 737              	.LBB234:
 738              		.loc 2 268 21 view .LVU156
 739              		.loc 2 270 3 view .LVU157
GAS LISTING /tmp/ccffpNMU.s 			page 15


 740              		.loc 2 270 6 is_stmt 0 view .LVU158
 741 010a 85C0     		testl	%eax, %eax
 742 010c 7E32     		jle	.L17
 743              	.L13:
 744              	.LVL36:
 745              		.loc 2 270 6 view .LVU159
 746              	.LBE234:
 747              	.LBE244:
 748              		.loc 2 286 3 is_stmt 1 view .LVU160
 749 010e E8FCFFFF 		call	chSchRescheduleS@PLT
 749      FF
 750              	.LVL37:
 751              		.loc 2 287 3 view .LVU161
 752              	.LBB245:
 753              	.LBI245:
 754              		.loc 3 365 20 view .LVU162
 755              	.LBB246:
 756              		.loc 3 367 22 view .LVU163
 757              		.loc 3 368 33 view .LVU164
 758              		.loc 3 374 3 view .LVU165
 759              		.loc 3 374 3 view .LVU166
 760              		.loc 3 378 3 view .LVU167
 761              	.LBB247:
 762              	.LBI247:
 763              		.loc 4 371 20 view .LVU168
 764              	.LBB248:
 765              		.loc 4 373 3 view .LVU169
 766              		.loc 4 373 16 is_stmt 0 view .LVU170
 767 0113 C7060000 		movl	$0, (%esi)
 767      0000
 768              	.LBE248:
 769              	.LBE247:
 770              	.LBE246:
 771              	.LBE245:
 772              	.LBE252:
 773              	.LBE256:
 774              		.loc 1 39 1 view .LVU171
 775 0119 83C40C   		addl	$12, %esp
 776              		.cfi_remember_state
 777              		.cfi_def_cfa_offset 20
 778 011c 5B       		popl	%ebx
 779              		.cfi_restore 3
 780              		.cfi_def_cfa_offset 16
 781 011d 5E       		popl	%esi
 782              		.cfi_restore 6
 783              		.cfi_def_cfa_offset 12
 784 011e 5F       		popl	%edi
 785              		.cfi_restore 7
 786              		.cfi_def_cfa_offset 8
 787              	.LVL38:
 788              		.loc 1 39 1 view .LVU172
 789 011f 5D       		popl	%ebp
 790              		.cfi_restore 5
 791              		.cfi_def_cfa_offset 4
 792 0120 C3       		ret
 793              	.LVL39:
 794              		.p2align 4,,10
GAS LISTING /tmp/ccffpNMU.s 			page 16


 795 0121 8DB42600 		.p2align 3
 795      000000
 796              	.L15:
 797              		.cfi_restore_state
 798              	.LBB257:
 799              	.LBB221:
 800              	.LBB217:
 801              	.LBB206:
 802              		.loc 2 271 5 is_stmt 1 view .LVU173
 803 0128 83EC0C   		subl	$12, %esp
 804              		.cfi_def_cfa_offset 44
 805 012b 57       		pushl	%edi
 806              		.cfi_def_cfa_offset 48
 807 012c E8FCFFFF 		call	chSemSignalI@PLT
 807      FF
 808              	.LVL40:
 809 0131 83C410   		addl	$16, %esp
 810              		.cfi_def_cfa_offset 32
 811 0134 E9F4FEFF 		jmp	.L11
 811      FF
 812              	.LVL41:
 813 0139 8DB42600 		.p2align 4,,10
 813      000000
 814              		.p2align 3
 815              	.L17:
 816              		.loc 2 271 5 is_stmt 0 view .LVU174
 817              	.LBE206:
 818              	.LBE217:
 819              	.LBE221:
 820              	.LBE257:
 821              	.LBB258:
 822              	.LBB253:
 823              	.LBB249:
 824              	.LBB235:
 825              		.loc 2 271 5 is_stmt 1 view .LVU175
 826 0140 83EC0C   		subl	$12, %esp
 827              		.cfi_def_cfa_offset 44
 828 0143 57       		pushl	%edi
 829              		.cfi_def_cfa_offset 48
 830 0144 E8FCFFFF 		call	chSemSignalI@PLT
 830      FF
 831              	.LVL42:
 832 0149 83C410   		addl	$16, %esp
 833              		.cfi_def_cfa_offset 32
 834 014c EBC0     		jmp	.L13
 835              	.LBE235:
 836              	.LBE249:
 837              	.LBE253:
 838              	.LBE258:
 839              		.cfi_endproc
 840              	.LFE223:
 841              		.size	aniStandardTimeOff, .-aniStandardTimeOff
 842              		.section	.text.aniCounter,"ax",@progbits
 843              		.p2align 4,,15
 844              		.globl	aniCounter
 845              		.type	aniCounter, @function
 846              	aniCounter:
GAS LISTING /tmp/ccffpNMU.s 			page 17


 847              	.LVL43:
 848              	.LFB224:
 849              		.loc 1 43 91 view -0
 850              		.cfi_startproc
 851              		.loc 1 45 2 view .LVU177
 852              		.loc 1 43 91 is_stmt 0 view .LVU178
 853 0000 57       		pushl	%edi
 854              		.cfi_def_cfa_offset 8
 855              		.cfi_offset 7, -8
 856 0001 56       		pushl	%esi
 857              		.cfi_def_cfa_offset 12
 858              		.cfi_offset 6, -12
 859 0002 53       		pushl	%ebx
 860              		.cfi_def_cfa_offset 16
 861              		.cfi_offset 3, -16
 862              	.LVL44:
 863              	.LBB272:
 864              	.LBI272:
 865              		.loc 2 141 21 is_stmt 1 view .LVU179
 866              	.LBB273:
 867              		.loc 2 143 3 view .LVU180
 868              	.LBE273:
 869              	.LBE272:
 870              		.loc 1 43 91 is_stmt 0 view .LVU181
 871 0003 8B7C2414 		movl	20(%esp), %edi
 872 0007 E8FCFFFF 		call	__x86.get_pc_thunk.bx
 872      FF
 873 000c 81C30200 		addl	$_GLOBAL_OFFSET_TABLE_, %ebx
 873      0000
 874              	.LBB275:
 875              	.LBB274:
 876              		.loc 2 143 10 view .LVU182
 877 0012 83EC0C   		subl	$12, %esp
 878              		.cfi_def_cfa_offset 28
 879 0015 FF74241C 		pushl	28(%esp)
 880              		.cfi_def_cfa_offset 32
 881 0019 E8FCFFFF 		call	chSemWait@PLT
 881      FF
 882              	.LVL45:
 883              		.loc 2 143 10 view .LVU183
 884              	.LBE274:
 885              	.LBE275:
 886              		.loc 1 46 2 is_stmt 1 view .LVU184
 887              		.loc 1 49 2 view .LVU185
 888 001e 58       		popl	%eax
 889              		.cfi_def_cfa_offset 28
 890 001f 0FB68300 		movzbl	counter.7190@GOTOFF(%ebx), %eax
 890      000000
 891 0026 5A       		popl	%edx
 892              		.cfi_def_cfa_offset 24
 893 0027 50       		pushl	%eax
 894              		.cfi_def_cfa_offset 28
 895 0028 6A00     		pushl	$0
 896              		.cfi_def_cfa_offset 32
 897 002a E8FCFFFF 		call	diSetDigits@PLT
 897      FF
 898              	.LVL46:
GAS LISTING /tmp/ccffpNMU.s 			page 18


 899              		.loc 1 50 2 view .LVU186
 900 002f 0FB68300 		movzbl	counter.7190@GOTOFF(%ebx), %eax
 900      000000
 901 0036 59       		popl	%ecx
 902              		.cfi_def_cfa_offset 28
 903 0037 5E       		popl	%esi
 904              		.cfi_def_cfa_offset 24
 905 0038 50       		pushl	%eax
 906              		.cfi_def_cfa_offset 28
 907 0039 6A02     		pushl	$2
 908              		.cfi_def_cfa_offset 32
 909 003b E8FCFFFF 		call	diSetDigits@PLT
 909      FF
 910              	.LVL47:
 911              		.loc 1 51 2 view .LVU187
 912 0040 58       		popl	%eax
 913              		.cfi_def_cfa_offset 28
 914 0041 0FB68300 		movzbl	counter.7190@GOTOFF(%ebx), %eax
 914      000000
 915 0048 5A       		popl	%edx
 916              		.cfi_def_cfa_offset 24
 917 0049 50       		pushl	%eax
 918              		.cfi_def_cfa_offset 28
 919 004a 6A04     		pushl	$4
 920              		.cfi_def_cfa_offset 32
 921 004c E8FCFFFF 		call	diSetDigits@PLT
 921      FF
 922              	.LVL48:
 923              		.loc 1 52 2 view .LVU188
 924 0051 0FB68300 		movzbl	counter.7190@GOTOFF(%ebx), %eax
 924      000000
 925 0058 59       		popl	%ecx
 926              		.cfi_def_cfa_offset 28
 927 0059 5E       		popl	%esi
 928              		.cfi_def_cfa_offset 24
 929 005a 50       		pushl	%eax
 930              		.cfi_def_cfa_offset 28
 931 005b 6A06     		pushl	$6
 932              		.cfi_def_cfa_offset 32
 933 005d E8FCFFFF 		call	diSetDigits@PLT
 933      FF
 934              	.LVL49:
 935              		.loc 1 53 2 view .LVU189
 936 0062 C7042400 		movl	$0x43480000, (%esp)
 936      004843
 937 0069 E8FCFFFF 		call	clARefractorMaxSpeed@PLT
 937      FF
 938              	.LVL50:
 939              		.loc 1 54 2 view .LVU190
 940              	.LBB276:
 941              	.LBI276:
 942              		.loc 2 282 20 view .LVU191
 943              	.LBB277:
 944              		.loc 2 284 3 view .LVU192
 945              	.LBB278:
 946              	.LBI278:
 947              		.loc 3 353 20 view .LVU193
GAS LISTING /tmp/ccffpNMU.s 			page 19


 948              	.LBE278:
 949              	.LBE277:
 950              	.LBE276:
 951              		.loc 3 355 3 view .LVU194
 952              	.LBB303:
 953              	.LBB299:
 954              	.LBB283:
 955              	.LBB279:
 956              	.LBI279:
 957              		.loc 4 362 20 view .LVU195
 958              	.LBB280:
 959              		.loc 4 364 3 view .LVU196
 960              		.loc 4 364 16 is_stmt 0 view .LVU197
 961 006e 8BB30000 		movl	port_irq_sts@GOT(%ebx), %esi
 961      0000
 962              	.LBE280:
 963              	.LBE279:
 964              	.LBE283:
 965              	.LBB284:
 966              	.LBB285:
 967              		.loc 2 270 6 view .LVU198
 968 0074 8B4708   		movl	8(%edi), %eax
 969 0077 83C410   		addl	$16, %esp
 970              		.cfi_def_cfa_offset 16
 971              	.LBE285:
 972              	.LBE284:
 973              	.LBB288:
 974              	.LBB282:
 975              	.LBB281:
 976              		.loc 4 364 16 view .LVU199
 977 007a C7060100 		movl	$1, (%esi)
 977      0000
 978              	.LBE281:
 979              	.LBE282:
 980              	.LBE288:
 981              	.LBE299:
 982              	.LBE303:
 983              		.loc 3 356 34 is_stmt 1 view .LVU200
 984              		.loc 3 357 20 view .LVU201
 985              	.LBB304:
 986              	.LBB300:
 987              		.loc 2 285 3 view .LVU202
 988              	.LVL51:
 989              	.LBB289:
 990              	.LBI284:
 991              		.loc 2 266 20 view .LVU203
 992              	.LBB286:
 993              		.loc 2 268 21 view .LVU204
 994              		.loc 2 270 3 view .LVU205
 995              		.loc 2 270 6 is_stmt 0 view .LVU206
 996 0080 85C0     		testl	%eax, %eax
 997 0082 7E2C     		jle	.L23
 998              	.L19:
 999              	.LVL52:
 1000              		.loc 2 270 6 view .LVU207
 1001              	.LBE286:
 1002              	.LBE289:
GAS LISTING /tmp/ccffpNMU.s 			page 20


 1003              		.loc 2 286 3 is_stmt 1 view .LVU208
 1004 0084 E8FCFFFF 		call	chSchRescheduleS@PLT
 1004      FF
 1005              	.LVL53:
 1006              		.loc 2 287 3 view .LVU209
 1007              	.LBB290:
 1008              	.LBI290:
 1009              		.loc 3 365 20 view .LVU210
 1010              	.LBB291:
 1011              		.loc 3 367 22 view .LVU211
 1012              		.loc 3 368 33 view .LVU212
 1013              		.loc 3 374 3 view .LVU213
 1014              		.loc 3 374 3 view .LVU214
 1015              		.loc 3 378 3 view .LVU215
 1016              	.LBB292:
 1017              	.LBI292:
 1018              		.loc 4 371 20 view .LVU216
 1019              	.LBB293:
 1020              		.loc 4 373 3 view .LVU217
 1021              	.LBE293:
 1022              	.LBE292:
 1023              	.LBE291:
 1024              	.LBE290:
 1025              	.LBE300:
 1026              	.LBE304:
 1027              		.loc 1 55 9 is_stmt 0 view .LVU218
 1028 0089 BA000000 		movl	$0, %edx
 1028      00
 1029 008e 0FB68300 		movzbl	counter.7190@GOTOFF(%ebx), %eax
 1029      000000
 1030              	.LBB305:
 1031              	.LBB301:
 1032              	.LBB297:
 1033              	.LBB296:
 1034              	.LBB295:
 1035              	.LBB294:
 1036              		.loc 4 373 16 view .LVU219
 1037 0095 C7060000 		movl	$0, (%esi)
 1037      0000
 1038              	.LVL54:
 1039              		.loc 4 373 16 view .LVU220
 1040              	.LBE294:
 1041              	.LBE295:
 1042              	.LBE296:
 1043              	.LBE297:
 1044              	.LBE301:
 1045              	.LBE305:
 1046              		.loc 1 55 2 is_stmt 1 view .LVU221
 1047              		.loc 1 55 9 is_stmt 0 view .LVU222
 1048 009b 83C001   		addl	$1, %eax
 1049              		.loc 1 56 2 is_stmt 1 view .LVU223
 1050              		.loc 1 55 9 is_stmt 0 view .LVU224
 1051 009e 3C09     		cmpb	$9, %al
 1052 00a0 0F47C2   		cmova	%edx, %eax
 1053 00a3 88830000 		movb	%al, counter.7190@GOTOFF(%ebx)
 1053      0000
 1054              		.loc 1 59 1 view .LVU225
GAS LISTING /tmp/ccffpNMU.s 			page 21


 1055 00a9 5B       		popl	%ebx
 1056              		.cfi_remember_state
 1057              		.cfi_restore 3
 1058              		.cfi_def_cfa_offset 12
 1059 00aa 5E       		popl	%esi
 1060              		.cfi_restore 6
 1061              		.cfi_def_cfa_offset 8
 1062 00ab 5F       		popl	%edi
 1063              		.cfi_restore 7
 1064              		.cfi_def_cfa_offset 4
 1065 00ac C3       		ret
 1066              	.LVL55:
 1067 00ad 8D7600   		.p2align 4,,10
 1068              		.p2align 3
 1069              	.L23:
 1070              		.cfi_restore_state
 1071              	.LBB306:
 1072              	.LBB302:
 1073              	.LBB298:
 1074              	.LBB287:
 1075              		.loc 2 271 5 is_stmt 1 view .LVU226
 1076 00b0 83EC0C   		subl	$12, %esp
 1077              		.cfi_def_cfa_offset 28
 1078 00b3 57       		pushl	%edi
 1079              		.cfi_def_cfa_offset 32
 1080 00b4 E8FCFFFF 		call	chSemSignalI@PLT
 1080      FF
 1081              	.LVL56:
 1082 00b9 83C410   		addl	$16, %esp
 1083              		.cfi_def_cfa_offset 16
 1084 00bc EBC6     		jmp	.L19
 1085              	.LBE287:
 1086              	.LBE298:
 1087              	.LBE302:
 1088              	.LBE306:
 1089              		.cfi_endproc
 1090              	.LFE224:
 1091              		.size	aniCounter, .-aniCounter
 1092              		.section	.text.aniRotate,"ax",@progbits
 1093              		.p2align 4,,15
 1094              		.globl	aniRotate
 1095              		.type	aniRotate, @function
 1096              	aniRotate:
 1097              	.LVL57:
 1098              	.LFB225:
 1099              		.loc 1 61 90 view -0
 1100              		.cfi_startproc
 1101              		.loc 1 61 90 is_stmt 0 view .LVU228
 1102 0000 56       		pushl	%esi
 1103              		.cfi_def_cfa_offset 8
 1104              		.cfi_offset 6, -8
 1105 0001 53       		pushl	%ebx
 1106              		.cfi_def_cfa_offset 12
 1107              		.cfi_offset 3, -12
 1108 0002 E8FCFFFF 		call	__x86.get_pc_thunk.bx
 1108      FF
 1109 0007 81C30200 		addl	$_GLOBAL_OFFSET_TABLE_, %ebx
GAS LISTING /tmp/ccffpNMU.s 			page 22


 1109      0000
 1110 000d 83EC10   		subl	$16, %esp
 1111              		.cfi_def_cfa_offset 28
 1112              		.loc 1 61 90 view .LVU229
 1113 0010 8B74241C 		movl	28(%esp), %esi
 1114              		.loc 1 63 2 is_stmt 1 view .LVU230
 1115              	.LVL58:
 1116              	.LBB307:
 1117              	.LBI307:
 1118              		.loc 2 141 21 view .LVU231
 1119              	.LBB308:
 1120              		.loc 2 143 3 view .LVU232
 1121              		.loc 2 143 10 is_stmt 0 view .LVU233
 1122 0014 56       		pushl	%esi
 1123              		.cfi_def_cfa_offset 32
 1124 0015 E8FCFFFF 		call	chSemWait@PLT
 1124      FF
 1125              	.LVL59:
 1126              		.loc 2 143 10 view .LVU234
 1127              	.LBE308:
 1128              	.LBE307:
 1129              		.loc 1 64 2 is_stmt 1 view .LVU235
 1130 001a 58       		popl	%eax
 1131              		.cfi_def_cfa_offset 28
 1132 001b 5A       		popl	%edx
 1133              		.cfi_def_cfa_offset 24
 1134 001c 68000500 		pushl	$1280
 1134      00
 1135              		.cfi_def_cfa_offset 28
 1136 0021 68000100 		pushl	$256
 1136      00
 1137              		.cfi_def_cfa_offset 32
 1138 0026 E8FCFFFF 		call	clASetAllTargetpostion@PLT
 1138      FF
 1139              	.LVL60:
 1140              		.loc 1 66 2 view .LVU236
 1141              		.loc 1 67 2 view .LVU237
 1142              	.LBB309:
 1143              	.LBI309:
 1144              		.loc 2 141 21 view .LVU238
 1145              	.LBB310:
 1146              		.loc 2 143 3 view .LVU239
 1147              		.loc 2 143 10 is_stmt 0 view .LVU240
 1148 002b 893424   		movl	%esi, (%esp)
 1149 002e E8FCFFFF 		call	chSemWait@PLT
 1149      FF
 1150              	.LVL61:
 1151              		.loc 2 143 10 view .LVU241
 1152              	.LBE310:
 1153              	.LBE309:
 1154              		.loc 1 68 2 is_stmt 1 view .LVU242
 1155 0033 59       		popl	%ecx
 1156              		.cfi_def_cfa_offset 28
 1157 0034 58       		popl	%eax
 1158              		.cfi_def_cfa_offset 24
 1159 0035 68002500 		pushl	$9472
 1159      00
GAS LISTING /tmp/ccffpNMU.s 			page 23


 1160              		.cfi_def_cfa_offset 28
 1161 003a 68002100 		pushl	$8448
 1161      00
 1162              		.cfi_def_cfa_offset 32
 1163 003f E8FCFFFF 		call	clASetAllTargetpostion@PLT
 1163      FF
 1164              	.LVL62:
 1165              		.loc 1 69 2 view .LVU243
 1166              	.LBB311:
 1167              	.LBI311:
 1168              		.loc 2 141 21 view .LVU244
 1169              	.LBB312:
 1170              		.loc 2 143 3 view .LVU245
 1171              		.loc 2 143 10 is_stmt 0 view .LVU246
 1172 0044 893424   		movl	%esi, (%esp)
 1173 0047 E8FCFFFF 		call	chSemWait@PLT
 1173      FF
 1174              	.LVL63:
 1175              		.loc 2 143 10 view .LVU247
 1176              	.LBE312:
 1177              	.LBE311:
 1178              		.loc 1 70 1 view .LVU248
 1179 004c 83C414   		addl	$20, %esp
 1180              		.cfi_def_cfa_offset 12
 1181 004f 5B       		popl	%ebx
 1182              		.cfi_restore 3
 1183              		.cfi_def_cfa_offset 8
 1184 0050 5E       		popl	%esi
 1185              		.cfi_restore 6
 1186              		.cfi_def_cfa_offset 4
 1187 0051 C3       		ret
 1188              		.cfi_endproc
 1189              	.LFE225:
 1190              		.size	aniRotate, .-aniRotate
 1191              		.section	.text.aniTriangle,"ax",@progbits
 1192              		.p2align 4,,15
 1193              		.globl	aniTriangle
 1194              		.type	aniTriangle, @function
 1195              	aniTriangle:
 1196              	.LVL64:
 1197              	.LFB226:
 1198              		.loc 1 72 92 is_stmt 1 view -0
 1199              		.cfi_startproc
 1200              		.loc 1 72 92 is_stmt 0 view .LVU250
 1201 0000 55       		pushl	%ebp
 1202              		.cfi_def_cfa_offset 8
 1203              		.cfi_offset 5, -8
 1204 0001 57       		pushl	%edi
 1205              		.cfi_def_cfa_offset 12
 1206              		.cfi_offset 7, -12
 1207 0002 56       		pushl	%esi
 1208              		.cfi_def_cfa_offset 16
 1209              		.cfi_offset 6, -16
 1210 0003 53       		pushl	%ebx
 1211              		.cfi_def_cfa_offset 20
 1212              		.cfi_offset 3, -20
 1213 0004 E8FCFFFF 		call	__x86.get_pc_thunk.bx
GAS LISTING /tmp/ccffpNMU.s 			page 24


 1213      FF
 1214 0009 81C30200 		addl	$_GLOBAL_OFFSET_TABLE_, %ebx
 1214      0000
 1215 000f 83EC18   		subl	$24, %esp
 1216              		.cfi_def_cfa_offset 44
 1217              		.loc 1 74 2 is_stmt 1 view .LVU251
 1218              	.LVL65:
 1219              	.LBB339:
 1220              	.LBI339:
 1221              		.loc 2 141 21 view .LVU252
 1222              	.LBB340:
 1223              		.loc 2 143 3 view .LVU253
 1224              	.LBE340:
 1225              	.LBE339:
 1226              		.loc 1 72 92 is_stmt 0 view .LVU254
 1227 0012 8B6C242C 		movl	44(%esp), %ebp
 1228 0016 8B7C2430 		movl	48(%esp), %edi
 1229              	.LBB342:
 1230              	.LBB341:
 1231              		.loc 2 143 10 view .LVU255
 1232 001a 55       		pushl	%ebp
 1233              		.cfi_def_cfa_offset 48
 1234 001b E8FCFFFF 		call	chSemWait@PLT
 1234      FF
 1235              	.LVL66:
 1236              		.loc 2 143 10 view .LVU256
 1237              	.LBE341:
 1238              	.LBE342:
 1239              		.loc 1 76 2 is_stmt 1 view .LVU257
 1240 0020 68000200 		pushl	$512
 1240      00
 1241              		.cfi_def_cfa_offset 52
 1242 0025 6A00     		pushl	$0
 1243              		.cfi_def_cfa_offset 56
 1244 0027 6A00     		pushl	$0
 1245              		.cfi_def_cfa_offset 60
 1246 0029 6A00     		pushl	$0
 1247              		.cfi_def_cfa_offset 64
 1248 002b E8FCFFFF 		call	clASetTargetPosition@PLT
 1248      FF
 1249              	.LVL67:
 1250              		.loc 1 77 2 view .LVU258
 1251 0030 83C420   		addl	$32, %esp
 1252              		.cfi_def_cfa_offset 32
 1253 0033 68000400 		pushl	$1024
 1253      00
 1254              		.cfi_def_cfa_offset 36
 1255 0038 6A00     		pushl	$0
 1256              		.cfi_def_cfa_offset 40
 1257 003a 6A00     		pushl	$0
 1258              		.cfi_def_cfa_offset 44
 1259 003c 6A01     		pushl	$1
 1260              		.cfi_def_cfa_offset 48
 1261 003e E8FCFFFF 		call	clASetTargetPosition@PLT
 1261      FF
 1262              	.LVL68:
 1263              		.loc 1 78 2 view .LVU259
GAS LISTING /tmp/ccffpNMU.s 			page 25


 1264 0043 68000300 		pushl	$768
 1264      00
 1265              		.cfi_def_cfa_offset 52
 1266 0048 68000400 		pushl	$1024
 1266      00
 1267              		.cfi_def_cfa_offset 56
 1268 004d 6A00     		pushl	$0
 1269              		.cfi_def_cfa_offset 60
 1270 004f 6A02     		pushl	$2
 1271              		.cfi_def_cfa_offset 64
 1272 0051 E8FCFFFF 		call	clASetTargetPosition@PLT
 1272      FF
 1273              	.LVL69:
 1274              		.loc 1 79 2 view .LVU260
 1275 0056 83C420   		addl	$32, %esp
 1276              		.cfi_def_cfa_offset 32
 1277 0059 68000600 		pushl	$1536
 1277      00
 1278              		.cfi_def_cfa_offset 36
 1279 005e 68000200 		pushl	$512
 1279      00
 1280              		.cfi_def_cfa_offset 40
 1281 0063 6A01     		pushl	$1
 1282              		.cfi_def_cfa_offset 44
 1283 0065 6A00     		pushl	$0
 1284              		.cfi_def_cfa_offset 48
 1285 0067 E8FCFFFF 		call	clASetTargetPosition@PLT
 1285      FF
 1286              	.LVL70:
 1287              		.loc 1 80 2 view .LVU261
 1288 006c 68000700 		pushl	$1792
 1288      00
 1289              		.cfi_def_cfa_offset 52
 1290 0071 68000300 		pushl	$768
 1290      00
 1291              		.cfi_def_cfa_offset 56
 1292 0076 6A01     		pushl	$1
 1293              		.cfi_def_cfa_offset 60
 1294 0078 6A01     		pushl	$1
 1295              		.cfi_def_cfa_offset 64
 1296 007a E8FCFFFF 		call	clASetTargetPosition@PLT
 1296      FF
 1297              	.LVL71:
 1298              		.loc 1 81 2 view .LVU262
 1299 007f 83C420   		addl	$32, %esp
 1300              		.cfi_def_cfa_offset 32
 1301 0082 68000700 		pushl	$1792
 1301      00
 1302              		.cfi_def_cfa_offset 36
 1303 0087 68000600 		pushl	$1536
 1303      00
 1304              		.cfi_def_cfa_offset 40
 1305 008c 6A02     		pushl	$2
 1306              		.cfi_def_cfa_offset 44
 1307 008e 6A00     		pushl	$0
 1308              		.cfi_def_cfa_offset 48
 1309 0090 E8FCFFFF 		call	clASetTargetPosition@PLT
GAS LISTING /tmp/ccffpNMU.s 			page 26


 1309      FF
 1310              	.LVL72:
 1311              		.loc 1 83 2 view .LVU263
 1312 0095 68000200 		pushl	$512
 1312      00
 1313              		.cfi_def_cfa_offset 52
 1314 009a 6A00     		pushl	$0
 1315              		.cfi_def_cfa_offset 56
 1316 009c 6A00     		pushl	$0
 1317              		.cfi_def_cfa_offset 60
 1318 009e 6A04     		pushl	$4
 1319              		.cfi_def_cfa_offset 64
 1320 00a0 E8FCFFFF 		call	clASetTargetPosition@PLT
 1320      FF
 1321              	.LVL73:
 1322              		.loc 1 84 2 view .LVU264
 1323 00a5 83C420   		addl	$32, %esp
 1324              		.cfi_def_cfa_offset 32
 1325 00a8 68000400 		pushl	$1024
 1325      00
 1326              		.cfi_def_cfa_offset 36
 1327 00ad 6A00     		pushl	$0
 1328              		.cfi_def_cfa_offset 40
 1329 00af 6A00     		pushl	$0
 1330              		.cfi_def_cfa_offset 44
 1331 00b1 6A05     		pushl	$5
 1332              		.cfi_def_cfa_offset 48
 1333 00b3 E8FCFFFF 		call	clASetTargetPosition@PLT
 1333      FF
 1334              	.LVL74:
 1335              		.loc 1 85 2 view .LVU265
 1336 00b8 68000300 		pushl	$768
 1336      00
 1337              		.cfi_def_cfa_offset 52
 1338 00bd 68000400 		pushl	$1024
 1338      00
 1339              		.cfi_def_cfa_offset 56
 1340 00c2 6A00     		pushl	$0
 1341              		.cfi_def_cfa_offset 60
 1342 00c4 6A06     		pushl	$6
 1343              		.cfi_def_cfa_offset 64
 1344 00c6 E8FCFFFF 		call	clASetTargetPosition@PLT
 1344      FF
 1345              	.LVL75:
 1346              		.loc 1 86 2 view .LVU266
 1347 00cb 83C420   		addl	$32, %esp
 1348              		.cfi_def_cfa_offset 32
 1349 00ce 68000600 		pushl	$1536
 1349      00
 1350              		.cfi_def_cfa_offset 36
 1351 00d3 68000200 		pushl	$512
 1351      00
 1352              		.cfi_def_cfa_offset 40
 1353 00d8 6A01     		pushl	$1
 1354              		.cfi_def_cfa_offset 44
 1355 00da 6A04     		pushl	$4
 1356              		.cfi_def_cfa_offset 48
GAS LISTING /tmp/ccffpNMU.s 			page 27


 1357 00dc E8FCFFFF 		call	clASetTargetPosition@PLT
 1357      FF
 1358              	.LVL76:
 1359              		.loc 1 87 2 view .LVU267
 1360 00e1 68000700 		pushl	$1792
 1360      00
 1361              		.cfi_def_cfa_offset 52
 1362 00e6 68000300 		pushl	$768
 1362      00
 1363              		.cfi_def_cfa_offset 56
 1364 00eb 6A01     		pushl	$1
 1365              		.cfi_def_cfa_offset 60
 1366 00ed 6A05     		pushl	$5
 1367              		.cfi_def_cfa_offset 64
 1368 00ef E8FCFFFF 		call	clASetTargetPosition@PLT
 1368      FF
 1369              	.LVL77:
 1370              		.loc 1 88 2 view .LVU268
 1371 00f4 83C420   		addl	$32, %esp
 1372              		.cfi_def_cfa_offset 32
 1373 00f7 68000700 		pushl	$1792
 1373      00
 1374              		.cfi_def_cfa_offset 36
 1375 00fc 68000600 		pushl	$1536
 1375      00
 1376              		.cfi_def_cfa_offset 40
 1377 0101 6A02     		pushl	$2
 1378              		.cfi_def_cfa_offset 44
 1379 0103 6A04     		pushl	$4
 1380              		.cfi_def_cfa_offset 48
 1381 0105 E8FCFFFF 		call	clASetTargetPosition@PLT
 1381      FF
 1382              	.LVL78:
 1383              		.loc 1 90 2 view .LVU269
 1384 010a 68000300 		pushl	$768
 1384      00
 1385              		.cfi_def_cfa_offset 52
 1386 010f 68000200 		pushl	$512
 1386      00
 1387              		.cfi_def_cfa_offset 56
 1388 0114 6A00     		pushl	$0
 1389              		.cfi_def_cfa_offset 60
 1390 0116 6A03     		pushl	$3
 1391              		.cfi_def_cfa_offset 64
 1392 0118 E8FCFFFF 		call	clASetTargetPosition@PLT
 1392      FF
 1393              	.LVL79:
 1394              		.loc 1 91 2 view .LVU270
 1395 011d 83C420   		addl	$32, %esp
 1396              		.cfi_def_cfa_offset 32
 1397 0120 68000700 		pushl	$1792
 1397      00
 1398              		.cfi_def_cfa_offset 36
 1399 0125 68000300 		pushl	$768
 1399      00
 1400              		.cfi_def_cfa_offset 40
 1401 012a 6A01     		pushl	$1
GAS LISTING /tmp/ccffpNMU.s 			page 28


 1402              		.cfi_def_cfa_offset 44
 1403 012c 6A02     		pushl	$2
 1404              		.cfi_def_cfa_offset 48
 1405 012e E8FCFFFF 		call	clASetTargetPosition@PLT
 1405      FF
 1406              	.LVL80:
 1407              		.loc 1 92 2 view .LVU271
 1408 0133 68000600 		pushl	$1536
 1408      00
 1409              		.cfi_def_cfa_offset 52
 1410 0138 68000200 		pushl	$512
 1410      00
 1411              		.cfi_def_cfa_offset 56
 1412 013d 6A01     		pushl	$1
 1413              		.cfi_def_cfa_offset 60
 1414 013f 6A03     		pushl	$3
 1415              		.cfi_def_cfa_offset 64
 1416 0141 E8FCFFFF 		call	clASetTargetPosition@PLT
 1416      FF
 1417              	.LVL81:
 1418              		.loc 1 93 2 view .LVU272
 1419 0146 83C420   		addl	$32, %esp
 1420              		.cfi_def_cfa_offset 32
 1421 0149 68000700 		pushl	$1792
 1421      00
 1422              		.cfi_def_cfa_offset 36
 1423 014e 6A00     		pushl	$0
 1424              		.cfi_def_cfa_offset 40
 1425 0150 6A02     		pushl	$2
 1426              		.cfi_def_cfa_offset 44
 1427 0152 6A01     		pushl	$1
 1428              		.cfi_def_cfa_offset 48
 1429 0154 E8FCFFFF 		call	clASetTargetPosition@PLT
 1429      FF
 1430              	.LVL82:
 1431              		.loc 1 94 2 view .LVU273
 1432 0159 68000400 		pushl	$1024
 1432      00
 1433              		.cfi_def_cfa_offset 52
 1434 015e 6A00     		pushl	$0
 1435              		.cfi_def_cfa_offset 56
 1436 0160 6A02     		pushl	$2
 1437              		.cfi_def_cfa_offset 60
 1438 0162 6A02     		pushl	$2
 1439              		.cfi_def_cfa_offset 64
 1440 0164 E8FCFFFF 		call	clASetTargetPosition@PLT
 1440      FF
 1441              	.LVL83:
 1442              		.loc 1 95 2 view .LVU274
 1443 0169 83C420   		addl	$32, %esp
 1444              		.cfi_def_cfa_offset 32
 1445 016c 68000600 		pushl	$1536
 1445      00
 1446              		.cfi_def_cfa_offset 36
 1447 0171 68000400 		pushl	$1024
 1447      00
 1448              		.cfi_def_cfa_offset 40
GAS LISTING /tmp/ccffpNMU.s 			page 29


 1449 0176 6A02     		pushl	$2
 1450              		.cfi_def_cfa_offset 44
 1451 0178 6A03     		pushl	$3
 1452              		.cfi_def_cfa_offset 48
 1453 017a E8FCFFFF 		call	clASetTargetPosition@PLT
 1453      FF
 1454              	.LVL84:
 1455              		.loc 1 97 2 view .LVU275
 1456 017f 68000300 		pushl	$768
 1456      00
 1457              		.cfi_def_cfa_offset 52
 1458 0184 68000200 		pushl	$512
 1458      00
 1459              		.cfi_def_cfa_offset 56
 1460 0189 6A00     		pushl	$0
 1461              		.cfi_def_cfa_offset 60
 1462 018b 6A07     		pushl	$7
 1463              		.cfi_def_cfa_offset 64
 1464 018d E8FCFFFF 		call	clASetTargetPosition@PLT
 1464      FF
 1465              	.LVL85:
 1466              		.loc 1 98 2 view .LVU276
 1467 0192 83C420   		addl	$32, %esp
 1468              		.cfi_def_cfa_offset 32
 1469 0195 68000700 		pushl	$1792
 1469      00
 1470              		.cfi_def_cfa_offset 36
 1471 019a 68000300 		pushl	$768
 1471      00
 1472              		.cfi_def_cfa_offset 40
 1473 019f 6A01     		pushl	$1
 1474              		.cfi_def_cfa_offset 44
 1475 01a1 6A06     		pushl	$6
 1476              		.cfi_def_cfa_offset 48
 1477 01a3 E8FCFFFF 		call	clASetTargetPosition@PLT
 1477      FF
 1478              	.LVL86:
 1479              		.loc 1 99 2 view .LVU277
 1480 01a8 68000600 		pushl	$1536
 1480      00
 1481              		.cfi_def_cfa_offset 52
 1482 01ad 68000200 		pushl	$512
 1482      00
 1483              		.cfi_def_cfa_offset 56
 1484 01b2 6A01     		pushl	$1
 1485              		.cfi_def_cfa_offset 60
 1486 01b4 6A07     		pushl	$7
 1487              		.cfi_def_cfa_offset 64
 1488 01b6 E8FCFFFF 		call	clASetTargetPosition@PLT
 1488      FF
 1489              	.LVL87:
 1490              		.loc 1 100 2 view .LVU278
 1491 01bb 83C420   		addl	$32, %esp
 1492              		.cfi_def_cfa_offset 32
 1493 01be 68000700 		pushl	$1792
 1493      00
 1494              		.cfi_def_cfa_offset 36
GAS LISTING /tmp/ccffpNMU.s 			page 30


 1495 01c3 6A00     		pushl	$0
 1496              		.cfi_def_cfa_offset 40
 1497 01c5 6A02     		pushl	$2
 1498              		.cfi_def_cfa_offset 44
 1499 01c7 6A05     		pushl	$5
 1500              		.cfi_def_cfa_offset 48
 1501 01c9 E8FCFFFF 		call	clASetTargetPosition@PLT
 1501      FF
 1502              	.LVL88:
 1503              		.loc 1 101 2 view .LVU279
 1504 01ce 68000400 		pushl	$1024
 1504      00
 1505              		.cfi_def_cfa_offset 52
 1506 01d3 6A00     		pushl	$0
 1507              		.cfi_def_cfa_offset 56
 1508 01d5 6A02     		pushl	$2
 1509              		.cfi_def_cfa_offset 60
 1510 01d7 6A06     		pushl	$6
 1511              		.cfi_def_cfa_offset 64
 1512 01d9 E8FCFFFF 		call	clASetTargetPosition@PLT
 1512      FF
 1513              	.LVL89:
 1514              		.loc 1 102 2 view .LVU280
 1515 01de 83C420   		addl	$32, %esp
 1516              		.cfi_def_cfa_offset 32
 1517 01e1 68000600 		pushl	$1536
 1517      00
 1518              		.cfi_def_cfa_offset 36
 1519 01e6 68000400 		pushl	$1024
 1519      00
 1520              		.cfi_def_cfa_offset 40
 1521 01eb 6A02     		pushl	$2
 1522              		.cfi_def_cfa_offset 44
 1523 01ed 6A07     		pushl	$7
 1524              		.cfi_def_cfa_offset 48
 1525 01ef E8FCFFFF 		call	clASetTargetPosition@PLT
 1525      FF
 1526              	.LVL90:
 1527              		.loc 1 103 2 view .LVU281
 1528              	.LBB343:
 1529              	.LBI343:
 1530              		.loc 2 282 20 view .LVU282
 1531              	.LBB344:
 1532              		.loc 2 284 3 view .LVU283
 1533              	.LBB345:
 1534              	.LBI345:
 1535              		.loc 3 353 20 view .LVU284
 1536              	.LBE345:
 1537              	.LBE344:
 1538              	.LBE343:
 1539              		.loc 3 355 3 view .LVU285
 1540              	.LBB370:
 1541              	.LBB366:
 1542              	.LBB350:
 1543              	.LBB346:
 1544              	.LBI346:
 1545              		.loc 4 362 20 view .LVU286
GAS LISTING /tmp/ccffpNMU.s 			page 31


 1546              	.LBB347:
 1547              		.loc 4 364 3 view .LVU287
 1548              		.loc 4 364 16 is_stmt 0 view .LVU288
 1549 01f4 8BB30000 		movl	port_irq_sts@GOT(%ebx), %esi
 1549      0000
 1550              	.LBE347:
 1551              	.LBE346:
 1552              	.LBE350:
 1553              	.LBB351:
 1554              	.LBB352:
 1555              		.loc 2 270 6 view .LVU289
 1556 01fa 8B4708   		movl	8(%edi), %eax
 1557 01fd 83C410   		addl	$16, %esp
 1558              		.cfi_def_cfa_offset 32
 1559              	.LBE352:
 1560              	.LBE351:
 1561              	.LBB355:
 1562              	.LBB349:
 1563              	.LBB348:
 1564              		.loc 4 364 16 view .LVU290
 1565 0200 C7060100 		movl	$1, (%esi)
 1565      0000
 1566              	.LBE348:
 1567              	.LBE349:
 1568              	.LBE355:
 1569              	.LBE366:
 1570              	.LBE370:
 1571              		.loc 3 356 34 is_stmt 1 view .LVU291
 1572              		.loc 3 357 20 view .LVU292
 1573              	.LBB371:
 1574              	.LBB367:
 1575              		.loc 2 285 3 view .LVU293
 1576              	.LVL91:
 1577              	.LBB356:
 1578              	.LBI351:
 1579              		.loc 2 266 20 view .LVU294
 1580              	.LBB353:
 1581              		.loc 2 268 21 view .LVU295
 1582              		.loc 2 270 3 view .LVU296
 1583              		.loc 2 270 6 is_stmt 0 view .LVU297
 1584 0206 85C0     		testl	%eax, %eax
 1585 0208 0F8E3201 		jle	.L30
 1585      0000
 1586              	.L27:
 1587              	.LVL92:
 1588              		.loc 2 270 6 view .LVU298
 1589              	.LBE353:
 1590              	.LBE356:
 1591              		.loc 2 286 3 is_stmt 1 view .LVU299
 1592 020e E8FCFFFF 		call	chSchRescheduleS@PLT
 1592      FF
 1593              	.LVL93:
 1594              		.loc 2 287 3 view .LVU300
 1595              	.LBB357:
 1596              	.LBI357:
 1597              		.loc 3 365 20 view .LVU301
 1598              	.LBB358:
GAS LISTING /tmp/ccffpNMU.s 			page 32


 1599              		.loc 3 367 22 view .LVU302
 1600              		.loc 3 368 33 view .LVU303
 1601              		.loc 3 374 3 view .LVU304
 1602              		.loc 3 374 3 view .LVU305
 1603              		.loc 3 378 3 view .LVU306
 1604              	.LBB359:
 1605              	.LBI359:
 1606              		.loc 4 371 20 view .LVU307
 1607              	.LBB360:
 1608              		.loc 4 373 3 view .LVU308
 1609              	.LBE360:
 1610              	.LBE359:
 1611              	.LBE358:
 1612              	.LBE357:
 1613              	.LBE367:
 1614              	.LBE371:
 1615              	.LBB372:
 1616              	.LBB373:
 1617              		.loc 2 143 10 is_stmt 0 view .LVU309
 1618 0213 83EC0C   		subl	$12, %esp
 1619              		.cfi_def_cfa_offset 44
 1620              	.LBE373:
 1621              	.LBE372:
 1622              	.LBB375:
 1623              	.LBB368:
 1624              	.LBB364:
 1625              	.LBB363:
 1626              	.LBB362:
 1627              	.LBB361:
 1628              		.loc 4 373 16 view .LVU310
 1629 0216 C7060000 		movl	$0, (%esi)
 1629      0000
 1630              	.LVL94:
 1631              		.loc 4 373 16 view .LVU311
 1632              	.LBE361:
 1633              	.LBE362:
 1634              	.LBE363:
 1635              	.LBE364:
 1636              	.LBE368:
 1637              	.LBE375:
 1638              		.loc 1 104 2 is_stmt 1 view .LVU312
 1639              	.LBB376:
 1640              	.LBI372:
 1641              		.loc 2 141 21 view .LVU313
 1642              	.LBB374:
 1643              		.loc 2 143 3 view .LVU314
 1644              		.loc 2 143 10 is_stmt 0 view .LVU315
 1645 021c 55       		pushl	%ebp
 1646              		.cfi_def_cfa_offset 48
 1647 021d E8FCFFFF 		call	chSemWait@PLT
 1647      FF
 1648              	.LVL95:
 1649              		.loc 2 143 10 view .LVU316
 1650              	.LBE374:
 1651              	.LBE376:
 1652              		.loc 1 105 2 is_stmt 1 view .LVU317
 1653 0222 58       		popl	%eax
GAS LISTING /tmp/ccffpNMU.s 			page 33


 1654              		.cfi_def_cfa_offset 44
 1655 0223 5A       		popl	%edx
 1656              		.cfi_def_cfa_offset 40
 1657 0224 6A00     		pushl	$0
 1658              		.cfi_def_cfa_offset 44
 1659 0226 6A00     		pushl	$0
 1660              		.cfi_def_cfa_offset 48
 1661 0228 E8FCFFFF 		call	clASetAllTargetpostion@PLT
 1661      FF
 1662              	.LVL96:
 1663              		.loc 1 107 2 view .LVU318
 1664 022d 68000200 		pushl	$512
 1664      00
 1665              		.cfi_def_cfa_offset 52
 1666 0232 68000100 		pushl	$256
 1666      00
 1667              		.cfi_def_cfa_offset 56
 1668 0237 6A00     		pushl	$0
 1669              		.cfi_def_cfa_offset 60
 1670 0239 6A00     		pushl	$0
 1671              		.cfi_def_cfa_offset 64
 1672 023b E8FCFFFF 		call	clASetTargetPosition@PLT
 1672      FF
 1673              	.LVL97:
 1674              		.loc 1 108 2 view .LVU319
 1675 0240 83C420   		addl	$32, %esp
 1676              		.cfi_def_cfa_offset 32
 1677 0243 68000600 		pushl	$1536
 1677      00
 1678              		.cfi_def_cfa_offset 36
 1679 0248 68000200 		pushl	$512
 1679      00
 1680              		.cfi_def_cfa_offset 40
 1681 024d 6A01     		pushl	$1
 1682              		.cfi_def_cfa_offset 44
 1683 024f 6A00     		pushl	$0
 1684              		.cfi_def_cfa_offset 48
 1685 0251 E8FCFFFF 		call	clASetTargetPosition@PLT
 1685      FF
 1686              	.LVL98:
 1687              		.loc 1 109 2 view .LVU320
 1688 0256 68000500 		pushl	$1280
 1688      00
 1689              		.cfi_def_cfa_offset 52
 1690 025b 68000100 		pushl	$256
 1690      00
 1691              		.cfi_def_cfa_offset 56
 1692 0260 6A01     		pushl	$1
 1693              		.cfi_def_cfa_offset 60
 1694 0262 6A01     		pushl	$1
 1695              		.cfi_def_cfa_offset 64
 1696 0264 E8FCFFFF 		call	clASetTargetPosition@PLT
 1696      FF
 1697              	.LVL99:
 1698              		.loc 1 110 2 view .LVU321
 1699 0269 83C420   		addl	$32, %esp
 1700              		.cfi_def_cfa_offset 32
GAS LISTING /tmp/ccffpNMU.s 			page 34


 1701 026c 68000600 		pushl	$1536
 1701      00
 1702              		.cfi_def_cfa_offset 36
 1703 0271 6A00     		pushl	$0
 1704              		.cfi_def_cfa_offset 40
 1705 0273 6A02     		pushl	$2
 1706              		.cfi_def_cfa_offset 44
 1707 0275 6A00     		pushl	$0
 1708              		.cfi_def_cfa_offset 48
 1709 0277 E8FCFFFF 		call	clASetTargetPosition@PLT
 1709      FF
 1710              	.LVL100:
 1711              		.loc 1 111 2 view .LVU322
 1712 027c 68000400 		pushl	$1024
 1712      00
 1713              		.cfi_def_cfa_offset 52
 1714 0281 6A00     		pushl	$0
 1715              		.cfi_def_cfa_offset 56
 1716 0283 6A02     		pushl	$2
 1717              		.cfi_def_cfa_offset 60
 1718 0285 6A01     		pushl	$1
 1719              		.cfi_def_cfa_offset 64
 1720 0287 E8FCFFFF 		call	clASetTargetPosition@PLT
 1720      FF
 1721              	.LVL101:
 1722              		.loc 1 112 2 view .LVU323
 1723 028c 83C420   		addl	$32, %esp
 1724              		.cfi_def_cfa_offset 32
 1725 028f 68000500 		pushl	$1280
 1725      00
 1726              		.cfi_def_cfa_offset 36
 1727 0294 68000400 		pushl	$1024
 1727      00
 1728              		.cfi_def_cfa_offset 40
 1729 0299 6A02     		pushl	$2
 1730              		.cfi_def_cfa_offset 44
 1731 029b 6A02     		pushl	$2
 1732              		.cfi_def_cfa_offset 48
 1733 029d E8FCFFFF 		call	clASetTargetPosition@PLT
 1733      FF
 1734              	.LVL102:
 1735              		.loc 1 114 2 view .LVU324
 1736 02a2 68000200 		pushl	$512
 1736      00
 1737              		.cfi_def_cfa_offset 52
 1738 02a7 68000100 		pushl	$256
 1738      00
 1739              		.cfi_def_cfa_offset 56
 1740 02ac 6A00     		pushl	$0
 1741              		.cfi_def_cfa_offset 60
 1742 02ae 6A04     		pushl	$4
 1743              		.cfi_def_cfa_offset 64
 1744 02b0 E8FCFFFF 		call	clASetTargetPosition@PLT
 1744      FF
 1745              	.LVL103:
 1746              		.loc 1 115 2 view .LVU325
 1747 02b5 83C420   		addl	$32, %esp
GAS LISTING /tmp/ccffpNMU.s 			page 35


 1748              		.cfi_def_cfa_offset 32
 1749 02b8 68000600 		pushl	$1536
 1749      00
 1750              		.cfi_def_cfa_offset 36
 1751 02bd 68000200 		pushl	$512
 1751      00
 1752              		.cfi_def_cfa_offset 40
 1753 02c2 6A01     		pushl	$1
 1754              		.cfi_def_cfa_offset 44
 1755 02c4 6A04     		pushl	$4
 1756              		.cfi_def_cfa_offset 48
 1757 02c6 E8FCFFFF 		call	clASetTargetPosition@PLT
 1757      FF
 1758              	.LVL104:
 1759              		.loc 1 116 2 view .LVU326
 1760 02cb 68000500 		pushl	$1280
 1760      00
 1761              		.cfi_def_cfa_offset 52
 1762 02d0 68000100 		pushl	$256
 1762      00
 1763              		.cfi_def_cfa_offset 56
 1764 02d5 6A01     		pushl	$1
 1765              		.cfi_def_cfa_offset 60
 1766 02d7 6A05     		pushl	$5
 1767              		.cfi_def_cfa_offset 64
 1768 02d9 E8FCFFFF 		call	clASetTargetPosition@PLT
 1768      FF
 1769              	.LVL105:
 1770              		.loc 1 117 2 view .LVU327
 1771 02de 83C420   		addl	$32, %esp
 1772              		.cfi_def_cfa_offset 32
 1773 02e1 68000600 		pushl	$1536
 1773      00
 1774              		.cfi_def_cfa_offset 36
 1775 02e6 6A00     		pushl	$0
 1776              		.cfi_def_cfa_offset 40
 1777 02e8 6A02     		pushl	$2
 1778              		.cfi_def_cfa_offset 44
 1779 02ea 6A04     		pushl	$4
 1780              		.cfi_def_cfa_offset 48
 1781 02ec E8FCFFFF 		call	clASetTargetPosition@PLT
 1781      FF
 1782              	.LVL106:
 1783              		.loc 1 118 2 view .LVU328
 1784 02f1 68000400 		pushl	$1024
 1784      00
 1785              		.cfi_def_cfa_offset 52
 1786 02f6 6A00     		pushl	$0
 1787              		.cfi_def_cfa_offset 56
 1788 02f8 6A02     		pushl	$2
 1789              		.cfi_def_cfa_offset 60
 1790 02fa 6A05     		pushl	$5
 1791              		.cfi_def_cfa_offset 64
 1792 02fc E8FCFFFF 		call	clASetTargetPosition@PLT
 1792      FF
 1793              	.LVL107:
 1794              		.loc 1 119 2 view .LVU329
GAS LISTING /tmp/ccffpNMU.s 			page 36


 1795 0301 83C420   		addl	$32, %esp
 1796              		.cfi_def_cfa_offset 32
 1797 0304 68000500 		pushl	$1280
 1797      00
 1798              		.cfi_def_cfa_offset 36
 1799 0309 68000400 		pushl	$1024
 1799      00
 1800              		.cfi_def_cfa_offset 40
 1801 030e 6A02     		pushl	$2
 1802              		.cfi_def_cfa_offset 44
 1803 0310 6A06     		pushl	$6
 1804              		.cfi_def_cfa_offset 48
 1805 0312 E8FCFFFF 		call	clASetTargetPosition@PLT
 1805      FF
 1806              	.LVL108:
 1807              		.loc 1 121 2 view .LVU330
 1808              	.LBB377:
 1809              	.LBI377:
 1810              		.loc 2 282 20 view .LVU331
 1811              	.LBB378:
 1812              		.loc 2 284 3 view .LVU332
 1813              	.LBB379:
 1814              	.LBI379:
 1815              		.loc 3 353 20 view .LVU333
 1816              	.LBE379:
 1817              	.LBE378:
 1818              	.LBE377:
 1819              		.loc 3 355 3 view .LVU334
 1820              	.LBB399:
 1821              	.LBB396:
 1822              	.LBB384:
 1823              	.LBB380:
 1824              	.LBI380:
 1825              		.loc 4 362 20 view .LVU335
 1826              	.LBB381:
 1827              		.loc 4 364 3 view .LVU336
 1828              	.LBE381:
 1829              	.LBE380:
 1830              	.LBE384:
 1831              	.LBB385:
 1832              	.LBB386:
 1833              		.loc 2 270 6 is_stmt 0 view .LVU337
 1834 0317 8B4F08   		movl	8(%edi), %ecx
 1835              	.LBE386:
 1836              	.LBE385:
 1837              	.LBB389:
 1838              	.LBB383:
 1839              	.LBB382:
 1840              		.loc 4 364 16 view .LVU338
 1841 031a C7060100 		movl	$1, (%esi)
 1841      0000
 1842              	.LBE382:
 1843              	.LBE383:
 1844              	.LBE389:
 1845              	.LBE396:
 1846              	.LBE399:
 1847              		.loc 3 356 34 is_stmt 1 view .LVU339
GAS LISTING /tmp/ccffpNMU.s 			page 37


 1848              		.loc 3 357 20 view .LVU340
 1849              	.LBB400:
 1850              	.LBB397:
 1851              		.loc 2 285 3 view .LVU341
 1852              	.LVL109:
 1853              	.LBB390:
 1854              	.LBI385:
 1855              		.loc 2 266 20 view .LVU342
 1856              	.LBB387:
 1857              		.loc 2 268 21 view .LVU343
 1858              		.loc 2 270 3 view .LVU344
 1859              		.loc 2 270 6 is_stmt 0 view .LVU345
 1860 0320 83C410   		addl	$16, %esp
 1861              		.cfi_def_cfa_offset 32
 1862 0323 85C9     		testl	%ecx, %ecx
 1863 0325 7E31     		jle	.L31
 1864              	.L28:
 1865              	.LVL110:
 1866              		.loc 2 270 6 view .LVU346
 1867              	.LBE387:
 1868              	.LBE390:
 1869              		.loc 2 286 3 is_stmt 1 view .LVU347
 1870 0327 E8FCFFFF 		call	chSchRescheduleS@PLT
 1870      FF
 1871              	.LVL111:
 1872              		.loc 2 287 3 view .LVU348
 1873              	.LBB391:
 1874              	.LBI391:
 1875              		.loc 3 365 20 view .LVU349
 1876              	.LBB392:
 1877              		.loc 3 367 22 view .LVU350
 1878              		.loc 3 368 33 view .LVU351
 1879              		.loc 3 374 3 view .LVU352
 1880              		.loc 3 374 3 view .LVU353
 1881              		.loc 3 378 3 view .LVU354
 1882              	.LBB393:
 1883              	.LBI393:
 1884              		.loc 4 371 20 view .LVU355
 1885              	.LBB394:
 1886              		.loc 4 373 3 view .LVU356
 1887              		.loc 4 373 16 is_stmt 0 view .LVU357
 1888 032c C7060000 		movl	$0, (%esi)
 1888      0000
 1889              	.LVL112:
 1890              		.loc 4 373 16 view .LVU358
 1891              	.LBE394:
 1892              	.LBE393:
 1893              	.LBE392:
 1894              	.LBE391:
 1895              	.LBE397:
 1896              	.LBE400:
 1897              		.loc 1 123 1 view .LVU359
 1898 0332 83C40C   		addl	$12, %esp
 1899              		.cfi_remember_state
 1900              		.cfi_def_cfa_offset 20
 1901 0335 5B       		popl	%ebx
 1902              		.cfi_restore 3
GAS LISTING /tmp/ccffpNMU.s 			page 38


 1903              		.cfi_def_cfa_offset 16
 1904 0336 5E       		popl	%esi
 1905              		.cfi_restore 6
 1906              		.cfi_def_cfa_offset 12
 1907 0337 5F       		popl	%edi
 1908              		.cfi_restore 7
 1909              		.cfi_def_cfa_offset 8
 1910 0338 5D       		popl	%ebp
 1911              		.cfi_restore 5
 1912              		.cfi_def_cfa_offset 4
 1913 0339 C3       		ret
 1914              	.LVL113:
 1915 033a 8DB60000 		.p2align 4,,10
 1915      0000
 1916              		.p2align 3
 1917              	.L30:
 1918              		.cfi_restore_state
 1919              	.LBB401:
 1920              	.LBB369:
 1921              	.LBB365:
 1922              	.LBB354:
 1923              		.loc 2 271 5 is_stmt 1 view .LVU360
 1924 0340 83EC0C   		subl	$12, %esp
 1925              		.cfi_def_cfa_offset 44
 1926 0343 57       		pushl	%edi
 1927              		.cfi_def_cfa_offset 48
 1928 0344 E8FCFFFF 		call	chSemSignalI@PLT
 1928      FF
 1929              	.LVL114:
 1930 0349 83C410   		addl	$16, %esp
 1931              		.cfi_def_cfa_offset 32
 1932 034c E9BDFEFF 		jmp	.L27
 1932      FF
 1933              	.LVL115:
 1934              		.p2align 4,,10
 1935 0351 8DB42600 		.p2align 3
 1935      000000
 1936              	.L31:
 1937              		.loc 2 271 5 is_stmt 0 view .LVU361
 1938              	.LBE354:
 1939              	.LBE365:
 1940              	.LBE369:
 1941              	.LBE401:
 1942              	.LBB402:
 1943              	.LBB398:
 1944              	.LBB395:
 1945              	.LBB388:
 1946              		.loc 2 271 5 is_stmt 1 view .LVU362
 1947 0358 83EC0C   		subl	$12, %esp
 1948              		.cfi_def_cfa_offset 44
 1949 035b 57       		pushl	%edi
 1950              		.cfi_def_cfa_offset 48
 1951 035c E8FCFFFF 		call	chSemSignalI@PLT
 1951      FF
 1952              	.LVL116:
 1953 0361 83C410   		addl	$16, %esp
 1954              		.cfi_def_cfa_offset 32
GAS LISTING /tmp/ccffpNMU.s 			page 39


 1955 0364 EBC1     		jmp	.L28
 1956              	.LBE388:
 1957              	.LBE395:
 1958              	.LBE398:
 1959              	.LBE402:
 1960              		.cfi_endproc
 1961              	.LFE226:
 1962              		.size	aniTriangle, .-aniTriangle
 1963              		.section	.text.aniSpiral,"ax",@progbits
 1964              		.p2align 4,,15
 1965              		.globl	aniSpiral
 1966              		.type	aniSpiral, @function
 1967              	aniSpiral:
 1968              	.LVL117:
 1969              	.LFB227:
 1970              		.loc 1 125 90 view -0
 1971              		.cfi_startproc
 1972              		.loc 1 125 90 is_stmt 0 view .LVU364
 1973 0000 55       		pushl	%ebp
 1974              		.cfi_def_cfa_offset 8
 1975              		.cfi_offset 5, -8
 1976 0001 57       		pushl	%edi
 1977              		.cfi_def_cfa_offset 12
 1978              		.cfi_offset 7, -12
 1979 0002 56       		pushl	%esi
 1980              		.cfi_def_cfa_offset 16
 1981              		.cfi_offset 6, -16
 1982 0003 53       		pushl	%ebx
 1983              		.cfi_def_cfa_offset 20
 1984              		.cfi_offset 3, -20
 1985 0004 E8FCFFFF 		call	__x86.get_pc_thunk.bx
 1985      FF
 1986 0009 81C30200 		addl	$_GLOBAL_OFFSET_TABLE_, %ebx
 1986      0000
 1987 000f 83EC18   		subl	$24, %esp
 1988              		.cfi_def_cfa_offset 44
 1989              		.loc 1 127 2 is_stmt 1 view .LVU365
 1990              	.LVL118:
 1991              	.LBB444:
 1992              	.LBI444:
 1993              		.loc 2 141 21 view .LVU366
 1994              	.LBB445:
 1995              		.loc 2 143 3 view .LVU367
 1996              	.LBE445:
 1997              	.LBE444:
 1998              		.loc 1 125 90 is_stmt 0 view .LVU368
 1999 0012 8B6C2430 		movl	48(%esp), %ebp
 2000              	.LBB447:
 2001              	.LBB446:
 2002              		.loc 2 143 10 view .LVU369
 2003 0016 FF74242C 		pushl	44(%esp)
 2004              		.cfi_def_cfa_offset 48
 2005 001a E8FCFFFF 		call	chSemWait@PLT
 2005      FF
 2006              	.LVL119:
 2007              		.loc 2 143 10 view .LVU370
 2008              	.LBE446:
GAS LISTING /tmp/ccffpNMU.s 			page 40


 2009              	.LBE447:
 2010              		.loc 1 128 2 is_stmt 1 view .LVU371
 2011 001f 59       		popl	%ecx
 2012              		.cfi_def_cfa_offset 44
 2013 0020 5E       		popl	%esi
 2014              		.cfi_def_cfa_offset 40
 2015 0021 68000500 		pushl	$1280
 2015      00
 2016              		.cfi_def_cfa_offset 44
 2017 0026 68000100 		pushl	$256
 2017      00
 2018              		.cfi_def_cfa_offset 48
 2019 002b E8FCFFFF 		call	clASetAllTargetpostion@PLT
 2019      FF
 2020              	.LVL120:
 2021              		.loc 1 129 2 view .LVU372
 2022              	.LBB448:
 2023              	.LBI448:
 2024              		.loc 2 282 20 view .LVU373
 2025              	.LBB449:
 2026              		.loc 2 284 3 view .LVU374
 2027              	.LBB450:
 2028              	.LBI450:
 2029              		.loc 3 353 20 view .LVU375
 2030              	.LBE450:
 2031              	.LBE449:
 2032              	.LBE448:
 2033              		.loc 3 355 3 view .LVU376
 2034              	.LBB475:
 2035              	.LBB471:
 2036              	.LBB455:
 2037              	.LBB451:
 2038              	.LBI451:
 2039              		.loc 4 362 20 view .LVU377
 2040              	.LBB452:
 2041              		.loc 4 364 3 view .LVU378
 2042              		.loc 4 364 16 is_stmt 0 view .LVU379
 2043 0030 8BBB0000 		movl	port_irq_sts@GOT(%ebx), %edi
 2043      0000
 2044              	.LBE452:
 2045              	.LBE451:
 2046              	.LBE455:
 2047              	.LBB456:
 2048              	.LBB457:
 2049              		.loc 2 270 6 view .LVU380
 2050 0036 8B4508   		movl	8(%ebp), %eax
 2051 0039 83C410   		addl	$16, %esp
 2052              		.cfi_def_cfa_offset 32
 2053              	.LBE457:
 2054              	.LBE456:
 2055              	.LBB460:
 2056              	.LBB454:
 2057              	.LBB453:
 2058              		.loc 4 364 16 view .LVU381
 2059 003c C7070100 		movl	$1, (%edi)
 2059      0000
 2060              	.LBE453:
GAS LISTING /tmp/ccffpNMU.s 			page 41


 2061              	.LBE454:
 2062              	.LBE460:
 2063              	.LBE471:
 2064              	.LBE475:
 2065              		.loc 3 356 34 is_stmt 1 view .LVU382
 2066              		.loc 3 357 20 view .LVU383
 2067              	.LBB476:
 2068              	.LBB472:
 2069              		.loc 2 285 3 view .LVU384
 2070              	.LVL121:
 2071              	.LBB461:
 2072              	.LBI456:
 2073              		.loc 2 266 20 view .LVU385
 2074              	.LBB458:
 2075              		.loc 2 268 21 view .LVU386
 2076              		.loc 2 270 3 view .LVU387
 2077              		.loc 2 270 6 is_stmt 0 view .LVU388
 2078 0042 85C0     		testl	%eax, %eax
 2079 0044 0F8E9E01 		jle	.L41
 2079      0000
 2080              	.L33:
 2081              	.LVL122:
 2082              		.loc 2 270 6 view .LVU389
 2083              	.LBE458:
 2084              	.LBE461:
 2085              		.loc 2 286 3 is_stmt 1 view .LVU390
 2086 004a E8FCFFFF 		call	chSchRescheduleS@PLT
 2086      FF
 2087              	.LVL123:
 2088              		.loc 2 287 3 view .LVU391
 2089              	.LBB462:
 2090              	.LBI462:
 2091              		.loc 3 365 20 view .LVU392
 2092              	.LBB463:
 2093              		.loc 3 367 22 view .LVU393
 2094              		.loc 3 368 33 view .LVU394
 2095              		.loc 3 374 3 view .LVU395
 2096              		.loc 3 374 3 view .LVU396
 2097              		.loc 3 378 3 view .LVU397
 2098              	.LBB464:
 2099              	.LBI464:
 2100              		.loc 4 371 20 view .LVU398
 2101              	.LBB465:
 2102              		.loc 4 373 3 view .LVU399
 2103              	.LBE465:
 2104              	.LBE464:
 2105              	.LBE463:
 2106              	.LBE462:
 2107              	.LBE472:
 2108              	.LBE476:
 2109              	.LBB477:
 2110              	.LBB478:
 2111              		.loc 2 143 10 is_stmt 0 view .LVU400
 2112 004f 83EC0C   		subl	$12, %esp
 2113              		.cfi_def_cfa_offset 44
 2114              	.LBE478:
 2115              	.LBE477:
GAS LISTING /tmp/ccffpNMU.s 			page 42


 2116              	.LBB480:
 2117              	.LBB473:
 2118              	.LBB469:
 2119              	.LBB468:
 2120              	.LBB467:
 2121              	.LBB466:
 2122              		.loc 4 373 16 view .LVU401
 2123 0052 C7070000 		movl	$0, (%edi)
 2123      0000
 2124              	.LVL124:
 2125              		.loc 4 373 16 view .LVU402
 2126              	.LBE466:
 2127              	.LBE467:
 2128              	.LBE468:
 2129              	.LBE469:
 2130              	.LBE473:
 2131              	.LBE480:
 2132              		.loc 1 130 2 is_stmt 1 view .LVU403
 2133              		.loc 1 131 2 view .LVU404
 2134              		.loc 1 132 2 view .LVU405
 2135              	.LBB481:
 2136              	.LBI477:
 2137              		.loc 2 141 21 view .LVU406
 2138              	.LBB479:
 2139              		.loc 2 143 3 view .LVU407
 2140              		.loc 2 143 10 is_stmt 0 view .LVU408
 2141 0058 FF74242C 		pushl	44(%esp)
 2142              		.cfi_def_cfa_offset 48
 2143 005c E8FCFFFF 		call	chSemWait@PLT
 2143      FF
 2144              	.LVL125:
 2145              		.loc 2 143 10 view .LVU409
 2146              	.LBE479:
 2147              	.LBE481:
 2148              		.loc 1 134 2 is_stmt 1 view .LVU410
 2149 0061 68000D00 		pushl	$3328
 2149      00
 2150              		.cfi_def_cfa_offset 52
 2151 0066 68000900 		pushl	$2304
 2151      00
 2152              		.cfi_def_cfa_offset 56
 2153 006b 6A00     		pushl	$0
 2154              		.cfi_def_cfa_offset 60
 2155 006d 6A00     		pushl	$0
 2156              		.cfi_def_cfa_offset 64
 2157 006f E8FCFFFF 		call	clASetTargetPosition@PLT
 2157      FF
 2158              	.LVL126:
 2159              		.loc 1 135 2 view .LVU411
 2160 0074 83C420   		addl	$32, %esp
 2161              		.cfi_def_cfa_offset 32
 2162 0077 68000D00 		pushl	$3328
 2162      00
 2163              		.cfi_def_cfa_offset 36
 2164 007c 68000900 		pushl	$2304
 2164      00
 2165              		.cfi_def_cfa_offset 40
GAS LISTING /tmp/ccffpNMU.s 			page 43


 2166 0081 6A01     		pushl	$1
 2167              		.cfi_def_cfa_offset 44
 2168 0083 6A00     		pushl	$0
 2169              		.cfi_def_cfa_offset 48
 2170 0085 E8FCFFFF 		call	clASetTargetPosition@PLT
 2170      FF
 2171              	.LVL127:
 2172              		.loc 1 136 2 view .LVU412
 2173 008a 68000D00 		pushl	$3328
 2173      00
 2174              		.cfi_def_cfa_offset 52
 2175 008f 68000900 		pushl	$2304
 2175      00
 2176              		.cfi_def_cfa_offset 56
 2177 0094 6A02     		pushl	$2
 2178              		.cfi_def_cfa_offset 60
 2179 0096 6A00     		pushl	$0
 2180              		.cfi_def_cfa_offset 64
 2181 0098 E8FCFFFF 		call	clASetTargetPosition@PLT
 2181      FF
 2182              	.LVL128:
 2183              		.loc 1 137 2 view .LVU413
 2184              	.LBB482:
 2185              	.LBI482:
 2186              		.loc 2 282 20 view .LVU414
 2187              	.LBB483:
 2188              		.loc 2 284 3 view .LVU415
 2189              	.LBB484:
 2190              	.LBI484:
 2191              		.loc 3 353 20 view .LVU416
 2192              	.LBE484:
 2193              	.LBE483:
 2194              	.LBE482:
 2195              		.loc 3 355 3 view .LVU417
 2196              	.LBB504:
 2197              	.LBB501:
 2198              	.LBB489:
 2199              	.LBB485:
 2200              	.LBI485:
 2201              		.loc 4 362 20 view .LVU418
 2202              	.LBB486:
 2203              		.loc 4 364 3 view .LVU419
 2204              	.LBE486:
 2205              	.LBE485:
 2206              	.LBE489:
 2207              	.LBB490:
 2208              	.LBB491:
 2209              		.loc 2 270 6 is_stmt 0 view .LVU420
 2210 009d 8B5508   		movl	8(%ebp), %edx
 2211              	.LBE491:
 2212              	.LBE490:
 2213              	.LBB494:
 2214              	.LBB488:
 2215              	.LBB487:
 2216              		.loc 4 364 16 view .LVU421
 2217 00a0 C7070100 		movl	$1, (%edi)
 2217      0000
GAS LISTING /tmp/ccffpNMU.s 			page 44


 2218              	.LBE487:
 2219              	.LBE488:
 2220              	.LBE494:
 2221              	.LBE501:
 2222              	.LBE504:
 2223              		.loc 3 356 34 is_stmt 1 view .LVU422
 2224              		.loc 3 357 20 view .LVU423
 2225              	.LBB505:
 2226              	.LBB502:
 2227              		.loc 2 285 3 view .LVU424
 2228              	.LVL129:
 2229              	.LBB495:
 2230              	.LBI490:
 2231              		.loc 2 266 20 view .LVU425
 2232              	.LBB492:
 2233              		.loc 2 268 21 view .LVU426
 2234              		.loc 2 270 3 view .LVU427
 2235              		.loc 2 270 6 is_stmt 0 view .LVU428
 2236 00a6 83C420   		addl	$32, %esp
 2237              		.cfi_def_cfa_offset 32
 2238 00a9 85D2     		testl	%edx, %edx
 2239 00ab 0F8E6701 		jle	.L42
 2239      0000
 2240              	.L34:
 2241              	.LVL130:
 2242              		.loc 2 270 6 view .LVU429
 2243              	.LBE492:
 2244              	.LBE495:
 2245              		.loc 2 286 3 is_stmt 1 view .LVU430
 2246 00b1 E8FCFFFF 		call	chSchRescheduleS@PLT
 2246      FF
 2247              	.LVL131:
 2248              		.loc 2 287 3 view .LVU431
 2249              	.LBB496:
 2250              	.LBI496:
 2251              		.loc 3 365 20 view .LVU432
 2252              	.LBB497:
 2253              		.loc 3 367 22 view .LVU433
 2254              		.loc 3 368 33 view .LVU434
 2255              		.loc 3 374 3 view .LVU435
 2256              		.loc 3 374 3 view .LVU436
 2257              		.loc 3 378 3 view .LVU437
 2258              	.LBB498:
 2259              	.LBI498:
 2260              		.loc 4 371 20 view .LVU438
 2261              	.LBB499:
 2262              		.loc 4 373 3 view .LVU439
 2263              		.loc 4 373 16 is_stmt 0 view .LVU440
 2264 00b6 C7070000 		movl	$0, (%edi)
 2264      0000
 2265              	.LVL132:
 2266              		.loc 4 373 16 view .LVU441
 2267 00bc BE010000 		movl	$1, %esi
 2267      00
 2268              	.LVL133:
 2269              		.p2align 4,,10
 2270 00c1 8DB42600 		.p2align 3
GAS LISTING /tmp/ccffpNMU.s 			page 45


 2270      000000
 2271              	.L35:
 2272              		.loc 4 373 16 view .LVU442
 2273              	.LBE499:
 2274              	.LBE498:
 2275              	.LBE497:
 2276              	.LBE496:
 2277              	.LBE502:
 2278              	.LBE505:
 2279              	.LBB506:
 2280              		.loc 1 140 3 is_stmt 1 discriminator 3 view .LVU443
 2281 00c8 83EC0C   		subl	$12, %esp
 2282              		.cfi_def_cfa_offset 44
 2283 00cb 68580200 		pushl	$600
 2283      00
 2284              		.cfi_def_cfa_offset 48
 2285 00d0 E8FCFFFF 		call	chThdSleep@PLT
 2285      FF
 2286              	.LVL134:
 2287              		.loc 1 141 3 discriminator 3 view .LVU444
 2288 00d5 68000D00 		pushl	$3328
 2288      00
 2289              		.cfi_def_cfa_offset 52
 2290 00da 68000900 		pushl	$2304
 2290      00
 2291              		.cfi_def_cfa_offset 56
 2292 00df 6A00     		pushl	$0
 2293              		.cfi_def_cfa_offset 60
 2294 00e1 56       		pushl	%esi
 2295              		.cfi_def_cfa_offset 64
 2296 00e2 E8FCFFFF 		call	clASetTargetPosition@PLT
 2296      FF
 2297              	.LVL135:
 2298              		.loc 1 142 3 discriminator 3 view .LVU445
 2299 00e7 83C420   		addl	$32, %esp
 2300              		.cfi_def_cfa_offset 32
 2301 00ea 68000D00 		pushl	$3328
 2301      00
 2302              		.cfi_def_cfa_offset 36
 2303 00ef 68000900 		pushl	$2304
 2303      00
 2304              		.cfi_def_cfa_offset 40
 2305 00f4 6A01     		pushl	$1
 2306              		.cfi_def_cfa_offset 44
 2307 00f6 56       		pushl	%esi
 2308              		.cfi_def_cfa_offset 48
 2309 00f7 E8FCFFFF 		call	clASetTargetPosition@PLT
 2309      FF
 2310              	.LVL136:
 2311              		.loc 1 143 3 discriminator 3 view .LVU446
 2312 00fc 68000D00 		pushl	$3328
 2312      00
 2313              		.cfi_def_cfa_offset 52
 2314 0101 68000900 		pushl	$2304
 2314      00
 2315              		.cfi_def_cfa_offset 56
 2316 0106 6A02     		pushl	$2
GAS LISTING /tmp/ccffpNMU.s 			page 46


 2317              		.cfi_def_cfa_offset 60
 2318 0108 56       		pushl	%esi
 2319              		.cfi_def_cfa_offset 64
 2320 0109 83C601   		addl	$1, %esi
 2321              	.LVL137:
 2322              		.loc 1 143 3 is_stmt 0 discriminator 3 view .LVU447
 2323 010c E8FCFFFF 		call	clASetTargetPosition@PLT
 2323      FF
 2324              	.LVL138:
 2325              		.loc 1 139 2 discriminator 3 view .LVU448
 2326 0111 83C420   		addl	$32, %esp
 2327              		.cfi_def_cfa_offset 32
 2328 0114 83FE08   		cmpl	$8, %esi
 2329 0117 75AF     		jne	.L35
 2330              	.LBE506:
 2331              		.loc 1 146 2 is_stmt 1 view .LVU449
 2332              	.LVL139:
 2333              	.LBB507:
 2334              	.LBI507:
 2335              		.loc 2 141 21 view .LVU450
 2336              	.LBB508:
 2337              		.loc 2 143 3 view .LVU451
 2338              		.loc 2 143 10 is_stmt 0 view .LVU452
 2339 0119 83EC0C   		subl	$12, %esp
 2340              		.cfi_def_cfa_offset 44
 2341 011c FF74242C 		pushl	44(%esp)
 2342              		.cfi_def_cfa_offset 48
 2343 0120 E8FCFFFF 		call	chSemWait@PLT
 2343      FF
 2344              	.LVL140:
 2345              		.loc 2 143 10 view .LVU453
 2346              	.LBE508:
 2347              	.LBE507:
 2348              		.loc 1 149 2 is_stmt 1 view .LVU454
 2349 0125 68000500 		pushl	$1280
 2349      00
 2350              		.cfi_def_cfa_offset 52
 2351 012a 68000100 		pushl	$256
 2351      00
 2352              		.cfi_def_cfa_offset 56
 2353 012f 6A00     		pushl	$0
 2354              		.cfi_def_cfa_offset 60
 2355 0131 6A07     		pushl	$7
 2356              		.cfi_def_cfa_offset 64
 2357 0133 E8FCFFFF 		call	clASetTargetPosition@PLT
 2357      FF
 2358              	.LVL141:
 2359              		.loc 1 150 2 view .LVU455
 2360 0138 83C420   		addl	$32, %esp
 2361              		.cfi_def_cfa_offset 32
 2362 013b 68000500 		pushl	$1280
 2362      00
 2363              		.cfi_def_cfa_offset 36
 2364 0140 68000100 		pushl	$256
 2364      00
 2365              		.cfi_def_cfa_offset 40
 2366 0145 6A01     		pushl	$1
GAS LISTING /tmp/ccffpNMU.s 			page 47


 2367              		.cfi_def_cfa_offset 44
 2368 0147 6A07     		pushl	$7
 2369              		.cfi_def_cfa_offset 48
 2370 0149 E8FCFFFF 		call	clASetTargetPosition@PLT
 2370      FF
 2371              	.LVL142:
 2372              		.loc 1 151 2 view .LVU456
 2373 014e 68000500 		pushl	$1280
 2373      00
 2374              		.cfi_def_cfa_offset 52
 2375 0153 68000100 		pushl	$256
 2375      00
 2376              		.cfi_def_cfa_offset 56
 2377 0158 6A02     		pushl	$2
 2378              		.cfi_def_cfa_offset 60
 2379 015a 6A07     		pushl	$7
 2380              		.cfi_def_cfa_offset 64
 2381 015c E8FCFFFF 		call	clASetTargetPosition@PLT
 2381      FF
 2382              	.LVL143:
 2383              		.loc 1 152 2 view .LVU457
 2384              	.LBB509:
 2385              	.LBI509:
 2386              		.loc 2 282 20 view .LVU458
 2387              	.LBB510:
 2388              		.loc 2 284 3 view .LVU459
 2389              	.LBB511:
 2390              	.LBI511:
 2391              		.loc 3 353 20 view .LVU460
 2392              	.LBE511:
 2393              	.LBE510:
 2394              	.LBE509:
 2395              		.loc 3 355 3 view .LVU461
 2396              	.LBB531:
 2397              	.LBB528:
 2398              	.LBB516:
 2399              	.LBB512:
 2400              	.LBI512:
 2401              		.loc 4 362 20 view .LVU462
 2402              	.LBB513:
 2403              		.loc 4 364 3 view .LVU463
 2404              	.LBE513:
 2405              	.LBE512:
 2406              	.LBE516:
 2407              	.LBB517:
 2408              	.LBB518:
 2409              		.loc 2 270 6 is_stmt 0 view .LVU464
 2410 0161 8B4508   		movl	8(%ebp), %eax
 2411              	.LBE518:
 2412              	.LBE517:
 2413              	.LBB521:
 2414              	.LBB515:
 2415              	.LBB514:
 2416              		.loc 4 364 16 view .LVU465
 2417 0164 C7070100 		movl	$1, (%edi)
 2417      0000
 2418              	.LBE514:
GAS LISTING /tmp/ccffpNMU.s 			page 48


 2419              	.LBE515:
 2420              	.LBE521:
 2421              	.LBE528:
 2422              	.LBE531:
 2423              		.loc 3 356 34 is_stmt 1 view .LVU466
 2424              		.loc 3 357 20 view .LVU467
 2425              	.LBB532:
 2426              	.LBB529:
 2427              		.loc 2 285 3 view .LVU468
 2428              	.LVL144:
 2429              	.LBB522:
 2430              	.LBI517:
 2431              		.loc 2 266 20 view .LVU469
 2432              	.LBB519:
 2433              		.loc 2 268 21 view .LVU470
 2434              		.loc 2 270 3 view .LVU471
 2435              		.loc 2 270 6 is_stmt 0 view .LVU472
 2436 016a 83C420   		addl	$32, %esp
 2437              		.cfi_def_cfa_offset 32
 2438 016d 85C0     		testl	%eax, %eax
 2439 016f 0F8E8B00 		jle	.L43
 2439      0000
 2440              	.L36:
 2441              	.LVL145:
 2442              		.loc 2 270 6 view .LVU473
 2443              	.LBE519:
 2444              	.LBE522:
 2445              		.loc 2 286 3 is_stmt 1 view .LVU474
 2446 0175 E8FCFFFF 		call	chSchRescheduleS@PLT
 2446      FF
 2447              	.LVL146:
 2448              		.loc 2 287 3 view .LVU475
 2449              	.LBB523:
 2450              	.LBI523:
 2451              		.loc 3 365 20 view .LVU476
 2452              	.LBB524:
 2453              		.loc 3 367 22 view .LVU477
 2454              		.loc 3 368 33 view .LVU478
 2455              		.loc 3 374 3 view .LVU479
 2456              		.loc 3 374 3 view .LVU480
 2457              		.loc 3 378 3 view .LVU481
 2458              	.LBB525:
 2459              	.LBI525:
 2460              		.loc 4 371 20 view .LVU482
 2461              	.LBB526:
 2462              		.loc 4 373 3 view .LVU483
 2463              		.loc 4 373 16 is_stmt 0 view .LVU484
 2464 017a C7070000 		movl	$0, (%edi)
 2464      0000
 2465              	.LVL147:
 2466              		.loc 4 373 16 view .LVU485
 2467 0180 BE060000 		movl	$6, %esi
 2467      00
 2468              	.LVL148:
 2469              		.p2align 4,,10
 2470 0185 8D7600   		.p2align 3
 2471              	.L37:
GAS LISTING /tmp/ccffpNMU.s 			page 49


 2472              		.loc 4 373 16 view .LVU486
 2473              	.LBE526:
 2474              	.LBE525:
 2475              	.LBE524:
 2476              	.LBE523:
 2477              	.LBE529:
 2478              	.LBE532:
 2479              	.LBB533:
 2480              		.loc 1 155 3 is_stmt 1 discriminator 3 view .LVU487
 2481 0188 83EC0C   		subl	$12, %esp
 2482              		.cfi_def_cfa_offset 44
 2483 018b 68580200 		pushl	$600
 2483      00
 2484              		.cfi_def_cfa_offset 48
 2485 0190 E8FCFFFF 		call	chThdSleep@PLT
 2485      FF
 2486              	.LVL149:
 2487              		.loc 1 156 3 discriminator 3 view .LVU488
 2488 0195 68000500 		pushl	$1280
 2488      00
 2489              		.cfi_def_cfa_offset 52
 2490 019a 68000100 		pushl	$256
 2490      00
 2491              		.cfi_def_cfa_offset 56
 2492 019f 6A00     		pushl	$0
 2493              		.cfi_def_cfa_offset 60
 2494 01a1 56       		pushl	%esi
 2495              		.cfi_def_cfa_offset 64
 2496 01a2 E8FCFFFF 		call	clASetTargetPosition@PLT
 2496      FF
 2497              	.LVL150:
 2498              		.loc 1 157 3 discriminator 3 view .LVU489
 2499 01a7 83C420   		addl	$32, %esp
 2500              		.cfi_def_cfa_offset 32
 2501 01aa 68000500 		pushl	$1280
 2501      00
 2502              		.cfi_def_cfa_offset 36
 2503 01af 68000100 		pushl	$256
 2503      00
 2504              		.cfi_def_cfa_offset 40
 2505 01b4 6A01     		pushl	$1
 2506              		.cfi_def_cfa_offset 44
 2507 01b6 56       		pushl	%esi
 2508              		.cfi_def_cfa_offset 48
 2509 01b7 E8FCFFFF 		call	clASetTargetPosition@PLT
 2509      FF
 2510              	.LVL151:
 2511              		.loc 1 158 3 discriminator 3 view .LVU490
 2512 01bc 68000500 		pushl	$1280
 2512      00
 2513              		.cfi_def_cfa_offset 52
 2514 01c1 68000100 		pushl	$256
 2514      00
 2515              		.cfi_def_cfa_offset 56
 2516 01c6 6A02     		pushl	$2
 2517              		.cfi_def_cfa_offset 60
 2518 01c8 56       		pushl	%esi
GAS LISTING /tmp/ccffpNMU.s 			page 50


 2519              		.cfi_def_cfa_offset 64
 2520 01c9 83EE01   		subl	$1, %esi
 2521              	.LVL152:
 2522              		.loc 1 158 3 is_stmt 0 discriminator 3 view .LVU491
 2523 01cc E8FCFFFF 		call	clASetTargetPosition@PLT
 2523      FF
 2524              	.LVL153:
 2525              		.loc 1 154 2 discriminator 3 view .LVU492
 2526 01d1 83C420   		addl	$32, %esp
 2527              		.cfi_def_cfa_offset 32
 2528 01d4 83FEFF   		cmpl	$-1, %esi
 2529 01d7 75AF     		jne	.L37
 2530              	.LBE533:
 2531              		.loc 1 162 1 view .LVU493
 2532 01d9 83C40C   		addl	$12, %esp
 2533              		.cfi_remember_state
 2534              		.cfi_def_cfa_offset 20
 2535 01dc 5B       		popl	%ebx
 2536              		.cfi_restore 3
 2537              		.cfi_def_cfa_offset 16
 2538 01dd 5E       		popl	%esi
 2539              		.cfi_restore 6
 2540              		.cfi_def_cfa_offset 12
 2541 01de 5F       		popl	%edi
 2542              		.cfi_restore 7
 2543              		.cfi_def_cfa_offset 8
 2544 01df 5D       		popl	%ebp
 2545              		.cfi_restore 5
 2546              		.cfi_def_cfa_offset 4
 2547              	.LVL154:
 2548              		.loc 1 162 1 view .LVU494
 2549 01e0 C3       		ret
 2550              	.LVL155:
 2551              		.p2align 4,,10
 2552 01e1 8DB42600 		.p2align 3
 2552      000000
 2553              	.L41:
 2554              		.cfi_restore_state
 2555              	.LBB534:
 2556              	.LBB474:
 2557              	.LBB470:
 2558              	.LBB459:
 2559              		.loc 2 271 5 is_stmt 1 view .LVU495
 2560 01e8 83EC0C   		subl	$12, %esp
 2561              		.cfi_def_cfa_offset 44
 2562 01eb 55       		pushl	%ebp
 2563              		.cfi_def_cfa_offset 48
 2564 01ec E8FCFFFF 		call	chSemSignalI@PLT
 2564      FF
 2565              	.LVL156:
 2566 01f1 83C410   		addl	$16, %esp
 2567              		.cfi_def_cfa_offset 32
 2568 01f4 E951FEFF 		jmp	.L33
 2568      FF
 2569              	.LVL157:
 2570 01f9 8DB42600 		.p2align 4,,10
 2570      000000
GAS LISTING /tmp/ccffpNMU.s 			page 51


 2571              		.p2align 3
 2572              	.L43:
 2573              		.loc 2 271 5 is_stmt 0 view .LVU496
 2574              	.LBE459:
 2575              	.LBE470:
 2576              	.LBE474:
 2577              	.LBE534:
 2578              	.LBB535:
 2579              	.LBB530:
 2580              	.LBB527:
 2581              	.LBB520:
 2582              		.loc 2 271 5 is_stmt 1 view .LVU497
 2583 0200 83EC0C   		subl	$12, %esp
 2584              		.cfi_def_cfa_offset 44
 2585 0203 55       		pushl	%ebp
 2586              		.cfi_def_cfa_offset 48
 2587 0204 E8FCFFFF 		call	chSemSignalI@PLT
 2587      FF
 2588              	.LVL158:
 2589 0209 83C410   		addl	$16, %esp
 2590              		.cfi_def_cfa_offset 32
 2591 020c E964FFFF 		jmp	.L36
 2591      FF
 2592              	.LVL159:
 2593              		.p2align 4,,10
 2594 0211 8DB42600 		.p2align 3
 2594      000000
 2595              	.L42:
 2596              		.loc 2 271 5 is_stmt 0 view .LVU498
 2597              	.LBE520:
 2598              	.LBE527:
 2599              	.LBE530:
 2600              	.LBE535:
 2601              	.LBB536:
 2602              	.LBB503:
 2603              	.LBB500:
 2604              	.LBB493:
 2605              		.loc 2 271 5 is_stmt 1 view .LVU499
 2606 0218 83EC0C   		subl	$12, %esp
 2607              		.cfi_def_cfa_offset 44
 2608 021b 55       		pushl	%ebp
 2609              		.cfi_def_cfa_offset 48
 2610 021c E8FCFFFF 		call	chSemSignalI@PLT
 2610      FF
 2611              	.LVL160:
 2612 0221 83C410   		addl	$16, %esp
 2613              		.cfi_def_cfa_offset 32
 2614 0224 E988FEFF 		jmp	.L34
 2614      FF
 2615              	.LBE493:
 2616              	.LBE500:
 2617              	.LBE503:
 2618              	.LBE536:
 2619              		.cfi_endproc
 2620              	.LFE227:
 2621              		.size	aniSpiral, .-aniSpiral
 2622              		.section	.text.aniDiamonds,"ax",@progbits
GAS LISTING /tmp/ccffpNMU.s 			page 52


 2623              		.p2align 4,,15
 2624              		.globl	aniDiamonds
 2625              		.type	aniDiamonds, @function
 2626              	aniDiamonds:
 2627              	.LVL161:
 2628              	.LFB228:
 2629              		.loc 1 164 92 view -0
 2630              		.cfi_startproc
 2631              		.loc 1 165 2 view .LVU501
 2632              		.loc 1 164 92 is_stmt 0 view .LVU502
 2633 0000 55       		pushl	%ebp
 2634              		.cfi_def_cfa_offset 8
 2635              		.cfi_offset 5, -8
 2636 0001 57       		pushl	%edi
 2637              		.cfi_def_cfa_offset 12
 2638              		.cfi_offset 7, -12
 2639 0002 56       		pushl	%esi
 2640              		.cfi_def_cfa_offset 16
 2641              		.cfi_offset 6, -16
 2642 0003 53       		pushl	%ebx
 2643              		.cfi_def_cfa_offset 20
 2644              		.cfi_offset 3, -20
 2645 0004 E8FCFFFF 		call	__x86.get_pc_thunk.bx
 2645      FF
 2646 0009 81C30200 		addl	$_GLOBAL_OFFSET_TABLE_, %ebx
 2646      0000
 2647 000f 83EC1C   		subl	$28, %esp
 2648              		.cfi_def_cfa_offset 48
 2649              		.loc 1 164 92 view .LVU503
 2650 0012 8B442430 		movl	48(%esp), %eax
 2651 0016 8944240C 		movl	%eax, 12(%esp)
 2652 001a 8B442434 		movl	52(%esp), %eax
 2653              	.LVL162:
 2654              	.LBB578:
 2655              	.LBI578:
 2656              		.loc 2 282 20 is_stmt 1 view .LVU504
 2657              	.LBB579:
 2658              		.loc 2 284 3 view .LVU505
 2659              	.LBB580:
 2660              	.LBI580:
 2661              		.loc 3 353 20 view .LVU506
 2662              	.LBE580:
 2663              	.LBE579:
 2664              	.LBE578:
 2665              		.loc 3 355 3 view .LVU507
 2666              	.LBB606:
 2667              	.LBB601:
 2668              	.LBB585:
 2669              	.LBB581:
 2670              	.LBI581:
 2671              		.loc 4 362 20 view .LVU508
 2672              	.LBB582:
 2673              		.loc 4 364 3 view .LVU509
 2674              		.loc 4 364 16 is_stmt 0 view .LVU510
 2675 001e 8B930000 		movl	port_irq_sts@GOT(%ebx), %edx
 2675      0000
 2676              	.LBE582:
GAS LISTING /tmp/ccffpNMU.s 			page 53


 2677              	.LBE581:
 2678              	.LBE585:
 2679              	.LBB586:
 2680              	.LBB587:
 2681              		.loc 2 270 6 view .LVU511
 2682 0024 8B4808   		movl	8(%eax), %ecx
 2683              	.LBE587:
 2684              	.LBE586:
 2685              	.LBE601:
 2686              	.LBE606:
 2687              		.loc 1 164 92 view .LVU512
 2688 0027 89442408 		movl	%eax, 8(%esp)
 2689              	.LBB607:
 2690              	.LBB602:
 2691              	.LBB590:
 2692              	.LBB584:
 2693              	.LBB583:
 2694              		.loc 4 364 16 view .LVU513
 2695 002b 89542404 		movl	%edx, 4(%esp)
 2696 002f C7020100 		movl	$1, (%edx)
 2696      0000
 2697              	.LBE583:
 2698              	.LBE584:
 2699              	.LBE590:
 2700              	.LBE602:
 2701              	.LBE607:
 2702              		.loc 3 356 34 is_stmt 1 view .LVU514
 2703              		.loc 3 357 20 view .LVU515
 2704              	.LBB608:
 2705              	.LBB603:
 2706              		.loc 2 285 3 view .LVU516
 2707              	.LVL163:
 2708              	.LBB591:
 2709              	.LBI586:
 2710              		.loc 2 266 20 view .LVU517
 2711              	.LBB588:
 2712              		.loc 2 268 21 view .LVU518
 2713              		.loc 2 270 3 view .LVU519
 2714              		.loc 2 270 6 is_stmt 0 view .LVU520
 2715 0035 85C9     		testl	%ecx, %ecx
 2716 0037 0F8E5E01 		jle	.L67
 2716      0000
 2717              	.LVL164:
 2718              	.L45:
 2719              		.loc 2 270 6 view .LVU521
 2720              	.LBE588:
 2721              	.LBE591:
 2722              		.loc 2 286 3 is_stmt 1 view .LVU522
 2723 003d E8FCFFFF 		call	chSchRescheduleS@PLT
 2723      FF
 2724              	.LVL165:
 2725              		.loc 2 287 3 view .LVU523
 2726              	.LBB592:
 2727              	.LBI592:
 2728              		.loc 3 365 20 view .LVU524
 2729              	.LBB593:
 2730              		.loc 3 367 22 view .LVU525
GAS LISTING /tmp/ccffpNMU.s 			page 54


 2731              		.loc 3 368 33 view .LVU526
 2732              		.loc 3 374 3 view .LVU527
 2733              		.loc 3 374 3 view .LVU528
 2734              		.loc 3 378 3 view .LVU529
 2735              	.LBB594:
 2736              	.LBI594:
 2737              		.loc 4 371 20 view .LVU530
 2738              	.LBB595:
 2739              		.loc 4 373 3 view .LVU531
 2740              		.loc 4 373 16 is_stmt 0 view .LVU532
 2741 0042 8B442404 		movl	4(%esp), %eax
 2742              	.LBE595:
 2743              	.LBE594:
 2744              	.LBE593:
 2745              	.LBE592:
 2746              	.LBE603:
 2747              	.LBE608:
 2748              	.LBB609:
 2749              	.LBB610:
 2750              		.loc 2 143 10 view .LVU533
 2751 0046 83EC0C   		subl	$12, %esp
 2752              		.cfi_def_cfa_offset 60
 2753 0049 31F6     		xorl	%esi, %esi
 2754              	.LBE610:
 2755              	.LBE609:
 2756              	.LBB614:
 2757              	.LBB604:
 2758              	.LBB599:
 2759              	.LBB598:
 2760              	.LBB597:
 2761              	.LBB596:
 2762              		.loc 4 373 16 view .LVU534
 2763 004b C7000000 		movl	$0, (%eax)
 2763      0000
 2764              	.LVL166:
 2765              		.loc 4 373 16 view .LVU535
 2766              	.LBE596:
 2767              	.LBE597:
 2768              	.LBE598:
 2769              	.LBE599:
 2770              	.LBE604:
 2771              	.LBE614:
 2772              		.loc 1 166 2 is_stmt 1 view .LVU536
 2773              		.loc 1 167 2 view .LVU537
 2774              	.LBB615:
 2775              	.LBI609:
 2776              		.loc 2 141 21 view .LVU538
 2777              	.LBB611:
 2778              		.loc 2 143 3 view .LVU539
 2779              		.loc 2 143 10 is_stmt 0 view .LVU540
 2780 0051 FF742418 		pushl	24(%esp)
 2781              		.cfi_def_cfa_offset 64
 2782 0055 E8FCFFFF 		call	chSemWait@PLT
 2782      FF
 2783              	.LVL167:
 2784              	.LBE611:
 2785              	.LBE615:
GAS LISTING /tmp/ccffpNMU.s 			page 55


 2786              		.loc 1 168 2 is_stmt 1 view .LVU541
 2787              	.LBB616:
 2788              		.loc 1 168 7 view .LVU542
 2789              		.loc 1 168 7 is_stmt 0 view .LVU543
 2790              	.LBE616:
 2791              	.LBB618:
 2792              	.LBB612:
 2793              		.loc 2 143 10 view .LVU544
 2794 005a 83C410   		addl	$16, %esp
 2795              		.cfi_def_cfa_offset 48
 2796              	.LVL168:
 2797              	.L46:
 2798              		.loc 2 143 10 view .LVU545
 2799 005d 89F5     		movl	%esi, %ebp
 2800              	.LBE612:
 2801              	.LBE618:
 2802              		.loc 1 164 92 view .LVU546
 2803 005f 31FF     		xorl	%edi, %edi
 2804 0061 83E501   		andl	$1, %ebp
 2805 0064 EB2A     		jmp	.L51
 2806              	.LVL169:
 2807 0066 8DB42600 		.p2align 4,,10
 2807      0000008D 
 2807      7600
 2808              		.p2align 3
 2809              	.L69:
 2810              	.LBB619:
 2811              	.LBB617:
 2812              		.loc 1 172 5 is_stmt 1 view .LVU547
 2813              		.loc 1 172 8 is_stmt 0 view .LVU548
 2814 0070 84C0     		testb	%al, %al
 2815 0072 742B     		je	.L65
 2816              	.LVL170:
 2817              	.L50:
 2818              		.loc 1 182 6 is_stmt 1 view .LVU549
 2819 0074 6800FFFF 		pushl	$-256
 2819      FF
 2820              		.cfi_def_cfa_offset 52
 2821 0079 68000500 		pushl	$1280
 2821      00
 2822              		.cfi_def_cfa_offset 56
 2823 007e 56       		pushl	%esi
 2824              		.cfi_def_cfa_offset 60
 2825 007f 57       		pushl	%edi
 2826              		.cfi_def_cfa_offset 64
 2827 0080 83C701   		addl	$1, %edi
 2828              	.LVL171:
 2829              		.loc 1 182 6 is_stmt 0 view .LVU550
 2830 0083 E8FCFFFF 		call	clASetTargetPosition@PLT
 2830      FF
 2831              	.LVL172:
 2832 0088 83C410   		addl	$16, %esp
 2833              		.cfi_def_cfa_offset 48
 2834              		.loc 1 169 3 view .LVU551
 2835 008b 83FF08   		cmpl	$8, %edi
 2836 008e 742B     		je	.L68
 2837              	.L51:
GAS LISTING /tmp/ccffpNMU.s 			page 56


 2838              	.LVL173:
 2839              		.loc 1 170 4 is_stmt 1 view .LVU552
 2840 0090 89F8     		movl	%edi, %eax
 2841              		.loc 1 170 7 is_stmt 0 view .LVU553
 2842 0092 89EA     		movl	%ebp, %edx
 2843 0094 83E001   		andl	$1, %eax
 2844 0097 84D2     		testb	%dl, %dl
 2845 0099 75D5     		jne	.L69
 2846              		.loc 1 178 5 is_stmt 1 view .LVU554
 2847              		.loc 1 178 8 is_stmt 0 view .LVU555
 2848 009b 84C0     		testb	%al, %al
 2849 009d 74D5     		je	.L50
 2850              	.LVL174:
 2851              	.L65:
 2852              		.loc 1 179 6 is_stmt 1 view .LVU556
 2853 009f 68000100 		pushl	$256
 2853      00
 2854              		.cfi_def_cfa_offset 52
 2855 00a4 68000300 		pushl	$768
 2855      00
 2856              		.cfi_def_cfa_offset 56
 2857 00a9 56       		pushl	%esi
 2858              		.cfi_def_cfa_offset 60
 2859 00aa 57       		pushl	%edi
 2860              		.cfi_def_cfa_offset 64
 2861 00ab 83C701   		addl	$1, %edi
 2862 00ae E8FCFFFF 		call	clASetTargetPosition@PLT
 2862      FF
 2863              	.LVL175:
 2864 00b3 83C410   		addl	$16, %esp
 2865              		.cfi_def_cfa_offset 48
 2866              		.loc 1 169 3 is_stmt 0 view .LVU557
 2867 00b6 83FF08   		cmpl	$8, %edi
 2868 00b9 75D5     		jne	.L51
 2869              	.L68:
 2870              	.LVL176:
 2871              		.loc 1 169 3 view .LVU558
 2872 00bb 83C601   		addl	$1, %esi
 2873              	.LVL177:
 2874              		.loc 1 169 3 view .LVU559
 2875              	.LBE617:
 2876              		.loc 1 168 2 discriminator 2 view .LVU560
 2877 00be 83FE03   		cmpl	$3, %esi
 2878 00c1 759A     		jne	.L46
 2879              	.LBE619:
 2880              		.loc 1 188 2 is_stmt 1 view .LVU561
 2881              	.LVL178:
 2882              	.LBB620:
 2883              	.LBI620:
 2884              		.loc 2 282 20 view .LVU562
 2885              	.LBB621:
 2886              		.loc 2 284 3 view .LVU563
 2887              	.LBB622:
 2888              	.LBI622:
 2889              		.loc 3 353 20 view .LVU564
 2890              	.LBE622:
 2891              	.LBE621:
GAS LISTING /tmp/ccffpNMU.s 			page 57


 2892              	.LBE620:
 2893              		.loc 3 355 3 view .LVU565
 2894              	.LBB642:
 2895              	.LBB638:
 2896              	.LBB625:
 2897              	.LBB623:
 2898              	.LBI623:
 2899              		.loc 4 362 20 view .LVU566
 2900              	.LBB624:
 2901              		.loc 4 364 3 view .LVU567
 2902              		.loc 4 364 16 is_stmt 0 view .LVU568
 2903 00c3 8B442404 		movl	4(%esp), %eax
 2904 00c7 C7000100 		movl	$1, (%eax)
 2904      0000
 2905              	.LBE624:
 2906              	.LBE623:
 2907              	.LBE625:
 2908              	.LBE638:
 2909              	.LBE642:
 2910              		.loc 3 356 34 is_stmt 1 view .LVU569
 2911              		.loc 3 357 20 view .LVU570
 2912              	.LBB643:
 2913              	.LBB639:
 2914              		.loc 2 285 3 view .LVU571
 2915              	.LVL179:
 2916              	.LBB626:
 2917              	.LBI626:
 2918              		.loc 2 266 20 view .LVU572
 2919              	.LBB627:
 2920              		.loc 2 268 21 view .LVU573
 2921              		.loc 2 270 3 view .LVU574
 2922              		.loc 2 270 6 is_stmt 0 view .LVU575
 2923 00cd 8B442408 		movl	8(%esp), %eax
 2924 00d1 8B5008   		movl	8(%eax), %edx
 2925 00d4 85D2     		testl	%edx, %edx
 2926 00d6 0F8EE400 		jle	.L70
 2926      0000
 2927              	.L53:
 2928              	.LVL180:
 2929              		.loc 2 270 6 view .LVU576
 2930              	.LBE627:
 2931              	.LBE626:
 2932              		.loc 2 286 3 is_stmt 1 view .LVU577
 2933 00dc E8FCFFFF 		call	chSchRescheduleS@PLT
 2933      FF
 2934              	.LVL181:
 2935              		.loc 2 287 3 view .LVU578
 2936              	.LBB629:
 2937              	.LBI629:
 2938              		.loc 3 365 20 view .LVU579
 2939              	.LBB630:
 2940              		.loc 3 367 22 view .LVU580
 2941              		.loc 3 368 33 view .LVU581
 2942              		.loc 3 374 3 view .LVU582
 2943              		.loc 3 374 3 view .LVU583
 2944              		.loc 3 378 3 view .LVU584
 2945              	.LBB631:
GAS LISTING /tmp/ccffpNMU.s 			page 58


 2946              	.LBI631:
 2947              		.loc 4 371 20 view .LVU585
 2948              	.LBB632:
 2949              		.loc 4 373 3 view .LVU586
 2950              		.loc 4 373 16 is_stmt 0 view .LVU587
 2951 00e1 8B442404 		movl	4(%esp), %eax
 2952              	.LBE632:
 2953              	.LBE631:
 2954              	.LBE630:
 2955              	.LBE629:
 2956              	.LBE639:
 2957              	.LBE643:
 2958              	.LBB644:
 2959              	.LBB645:
 2960              		.loc 2 143 10 view .LVU588
 2961 00e5 83EC0C   		subl	$12, %esp
 2962              		.cfi_def_cfa_offset 60
 2963 00e8 31F6     		xorl	%esi, %esi
 2964              	.LBE645:
 2965              	.LBE644:
 2966              	.LBB648:
 2967              	.LBB640:
 2968              	.LBB636:
 2969              	.LBB635:
 2970              	.LBB634:
 2971              	.LBB633:
 2972              		.loc 4 373 16 view .LVU589
 2973 00ea C7000000 		movl	$0, (%eax)
 2973      0000
 2974              	.LVL182:
 2975              		.loc 4 373 16 view .LVU590
 2976              	.LBE633:
 2977              	.LBE634:
 2978              	.LBE635:
 2979              	.LBE636:
 2980              	.LBE640:
 2981              	.LBE648:
 2982              		.loc 1 189 2 is_stmt 1 view .LVU591
 2983              	.LBB649:
 2984              	.LBI644:
 2985              		.loc 2 141 21 view .LVU592
 2986              	.LBB646:
 2987              		.loc 2 143 3 view .LVU593
 2988              		.loc 2 143 10 is_stmt 0 view .LVU594
 2989 00f0 FF742418 		pushl	24(%esp)
 2990              		.cfi_def_cfa_offset 64
 2991 00f4 E8FCFFFF 		call	chSemWait@PLT
 2991      FF
 2992              	.LVL183:
 2993              	.LBE646:
 2994              	.LBE649:
 2995              		.loc 1 190 2 is_stmt 1 view .LVU595
 2996              	.LBB650:
 2997              		.loc 1 190 7 view .LVU596
 2998              		.loc 1 190 7 is_stmt 0 view .LVU597
 2999              	.LBE650:
 3000              	.LBB652:
GAS LISTING /tmp/ccffpNMU.s 			page 59


 3001              	.LBB647:
 3002              		.loc 2 143 10 view .LVU598
 3003 00f9 83C410   		addl	$16, %esp
 3004              		.cfi_def_cfa_offset 48
 3005              	.LVL184:
 3006              	.L54:
 3007              		.loc 2 143 10 view .LVU599
 3008 00fc 89F5     		movl	%esi, %ebp
 3009              	.LBE647:
 3010              	.LBE652:
 3011              	.LBB653:
 3012              	.LBB613:
 3013 00fe 31FF     		xorl	%edi, %edi
 3014 0100 83E501   		andl	$1, %ebp
 3015 0103 EB23     		jmp	.L59
 3016              	.LVL185:
 3017              		.p2align 4,,10
 3018 0105 8D7600   		.p2align 3
 3019              	.L72:
 3020              		.loc 2 143 10 view .LVU600
 3021              	.LBE613:
 3022              	.LBE653:
 3023              	.LBB654:
 3024              	.LBB651:
 3025              		.loc 1 194 5 is_stmt 1 view .LVU601
 3026              		.loc 1 194 8 is_stmt 0 view .LVU602
 3027 0108 84C0     		testb	%al, %al
 3028 010a 742B     		je	.L66
 3029              	.LVL186:
 3030              	.L58:
 3031              		.loc 1 204 6 is_stmt 1 view .LVU603
 3032 010c 68000300 		pushl	$768
 3032      00
 3033              		.cfi_def_cfa_offset 52
 3034 0111 68000100 		pushl	$256
 3034      00
 3035              		.cfi_def_cfa_offset 56
 3036 0116 56       		pushl	%esi
 3037              		.cfi_def_cfa_offset 60
 3038 0117 57       		pushl	%edi
 3039              		.cfi_def_cfa_offset 64
 3040 0118 83C701   		addl	$1, %edi
 3041              	.LVL187:
 3042              		.loc 1 204 6 is_stmt 0 view .LVU604
 3043 011b E8FCFFFF 		call	clASetTargetPosition@PLT
 3043      FF
 3044              	.LVL188:
 3045 0120 83C410   		addl	$16, %esp
 3046              		.cfi_def_cfa_offset 48
 3047              		.loc 1 191 3 view .LVU605
 3048 0123 83FF08   		cmpl	$8, %edi
 3049 0126 742B     		je	.L71
 3050              	.L59:
 3051              	.LVL189:
 3052              		.loc 1 192 4 is_stmt 1 view .LVU606
 3053 0128 89F8     		movl	%edi, %eax
 3054              		.loc 1 192 7 is_stmt 0 view .LVU607
GAS LISTING /tmp/ccffpNMU.s 			page 60


 3055 012a 89E9     		movl	%ebp, %ecx
 3056 012c 83E001   		andl	$1, %eax
 3057 012f 84C9     		testb	%cl, %cl
 3058 0131 75D5     		jne	.L72
 3059              		.loc 1 200 5 is_stmt 1 view .LVU608
 3060              		.loc 1 200 8 is_stmt 0 view .LVU609
 3061 0133 84C0     		testb	%al, %al
 3062 0135 74D5     		je	.L58
 3063              	.LVL190:
 3064              	.L66:
 3065              		.loc 1 201 6 is_stmt 1 view .LVU610
 3066 0137 6800FDFF 		pushl	$-768
 3066      FF
 3067              		.cfi_def_cfa_offset 52
 3068 013c 68000700 		pushl	$1792
 3068      00
 3069              		.cfi_def_cfa_offset 56
 3070 0141 56       		pushl	%esi
 3071              		.cfi_def_cfa_offset 60
 3072 0142 57       		pushl	%edi
 3073              		.cfi_def_cfa_offset 64
 3074 0143 83C701   		addl	$1, %edi
 3075 0146 E8FCFFFF 		call	clASetTargetPosition@PLT
 3075      FF
 3076              	.LVL191:
 3077 014b 83C410   		addl	$16, %esp
 3078              		.cfi_def_cfa_offset 48
 3079              		.loc 1 191 3 is_stmt 0 view .LVU611
 3080 014e 83FF08   		cmpl	$8, %edi
 3081 0151 75D5     		jne	.L59
 3082              	.L71:
 3083              	.LVL192:
 3084              		.loc 1 191 3 view .LVU612
 3085 0153 83C601   		addl	$1, %esi
 3086              	.LVL193:
 3087              		.loc 1 191 3 view .LVU613
 3088              	.LBE651:
 3089              		.loc 1 190 2 discriminator 2 view .LVU614
 3090 0156 83FE03   		cmpl	$3, %esi
 3091 0159 75A1     		jne	.L54
 3092              	.LBE654:
 3093              		.loc 1 210 2 is_stmt 1 view .LVU615
 3094              	.LVL194:
 3095              	.LBB655:
 3096              	.LBI655:
 3097              		.loc 2 282 20 view .LVU616
 3098              	.LBB656:
 3099              		.loc 2 284 3 view .LVU617
 3100              	.LBB657:
 3101              	.LBI657:
 3102              		.loc 3 353 20 view .LVU618
 3103              	.LBE657:
 3104              	.LBE656:
 3105              	.LBE655:
 3106              		.loc 3 355 3 view .LVU619
 3107              	.LBB672:
 3108              	.LBB669:
GAS LISTING /tmp/ccffpNMU.s 			page 61


 3109              	.LBB660:
 3110              	.LBB658:
 3111              	.LBI658:
 3112              		.loc 4 362 20 view .LVU620
 3113              	.LBB659:
 3114              		.loc 4 364 3 view .LVU621
 3115              		.loc 4 364 16 is_stmt 0 view .LVU622
 3116 015b 8B442404 		movl	4(%esp), %eax
 3117 015f C7000100 		movl	$1, (%eax)
 3117      0000
 3118              	.LBE659:
 3119              	.LBE658:
 3120              	.LBE660:
 3121              	.LBE669:
 3122              	.LBE672:
 3123              		.loc 3 356 34 is_stmt 1 view .LVU623
 3124              		.loc 3 357 20 view .LVU624
 3125              	.LBB673:
 3126              	.LBB670:
 3127              		.loc 2 285 3 view .LVU625
 3128              	.LVL195:
 3129              	.LBB661:
 3130              	.LBI661:
 3131              		.loc 2 266 20 view .LVU626
 3132              	.LBB662:
 3133              		.loc 2 268 21 view .LVU627
 3134              		.loc 2 270 3 view .LVU628
 3135              		.loc 2 270 6 is_stmt 0 view .LVU629
 3136 0165 8B442408 		movl	8(%esp), %eax
 3137 0169 8B4008   		movl	8(%eax), %eax
 3138 016c 85C0     		testl	%eax, %eax
 3139 016e 7E3F     		jle	.L73
 3140              	.L61:
 3141              	.LVL196:
 3142              		.loc 2 270 6 view .LVU630
 3143              	.LBE662:
 3144              	.LBE661:
 3145              		.loc 2 286 3 is_stmt 1 view .LVU631
 3146 0170 E8FCFFFF 		call	chSchRescheduleS@PLT
 3146      FF
 3147              	.LVL197:
 3148              		.loc 2 287 3 view .LVU632
 3149              	.LBB664:
 3150              	.LBI664:
 3151              		.loc 3 365 20 view .LVU633
 3152              	.LBB665:
 3153              		.loc 3 367 22 view .LVU634
 3154              		.loc 3 368 33 view .LVU635
 3155              		.loc 3 374 3 view .LVU636
 3156              		.loc 3 374 3 view .LVU637
 3157              		.loc 3 378 3 view .LVU638
 3158              	.LBB666:
 3159              	.LBI666:
 3160              		.loc 4 371 20 view .LVU639
 3161              	.LBB667:
 3162              		.loc 4 373 3 view .LVU640
 3163              		.loc 4 373 16 is_stmt 0 view .LVU641
GAS LISTING /tmp/ccffpNMU.s 			page 62


 3164 0175 8B442404 		movl	4(%esp), %eax
 3165 0179 C7000000 		movl	$0, (%eax)
 3165      0000
 3166              	.LVL198:
 3167              		.loc 4 373 16 view .LVU642
 3168              	.LBE667:
 3169              	.LBE666:
 3170              	.LBE665:
 3171              	.LBE664:
 3172              	.LBE670:
 3173              	.LBE673:
 3174              		.loc 1 211 2 is_stmt 1 view .LVU643
 3175 017f 8B442408 		movl	8(%esp), %eax
 3176 0183 89442434 		movl	%eax, 52(%esp)
 3177              	.LVL199:
 3178              		.loc 1 211 2 is_stmt 0 view .LVU644
 3179 0187 8B44240C 		movl	12(%esp), %eax
 3180 018b 89442430 		movl	%eax, 48(%esp)
 3181              	.LVL200:
 3182              		.loc 1 213 1 view .LVU645
 3183 018f 83C41C   		addl	$28, %esp
 3184              		.cfi_remember_state
 3185              		.cfi_def_cfa_offset 20
 3186 0192 5B       		popl	%ebx
 3187              		.cfi_restore 3
 3188              		.cfi_def_cfa_offset 16
 3189 0193 5E       		popl	%esi
 3190              		.cfi_restore 6
 3191              		.cfi_def_cfa_offset 12
 3192 0194 5F       		popl	%edi
 3193              		.cfi_restore 7
 3194              		.cfi_def_cfa_offset 8
 3195 0195 5D       		popl	%ebp
 3196              		.cfi_restore 5
 3197              		.cfi_def_cfa_offset 4
 3198              		.loc 1 211 2 view .LVU646
 3199 0196 E9FCFFFF 		jmp	aniStandardTime
 3199      FF
 3200              	.LVL201:
 3201              	.L67:
 3202              		.cfi_restore_state
 3203              	.LBB674:
 3204              	.LBB605:
 3205              	.LBB600:
 3206              	.LBB589:
 3207              		.loc 2 271 5 is_stmt 1 view .LVU647
 3208 019b 83EC0C   		subl	$12, %esp
 3209              		.cfi_def_cfa_offset 60
 3210 019e FF742414 		pushl	20(%esp)
 3211              		.cfi_def_cfa_offset 64
 3212 01a2 E8FCFFFF 		call	chSemSignalI@PLT
 3212      FF
 3213              	.LVL202:
 3214              		.loc 2 271 5 is_stmt 0 view .LVU648
 3215 01a7 83C410   		addl	$16, %esp
 3216              		.cfi_def_cfa_offset 48
 3217 01aa E98EFEFF 		jmp	.L45
GAS LISTING /tmp/ccffpNMU.s 			page 63


 3217      FF
 3218              	.LVL203:
 3219              	.L73:
 3220              		.loc 2 271 5 view .LVU649
 3221              	.LBE589:
 3222              	.LBE600:
 3223              	.LBE605:
 3224              	.LBE674:
 3225              	.LBB675:
 3226              	.LBB671:
 3227              	.LBB668:
 3228              	.LBB663:
 3229              		.loc 2 271 5 is_stmt 1 view .LVU650
 3230 01af 83EC0C   		subl	$12, %esp
 3231              		.cfi_def_cfa_offset 60
 3232 01b2 FF742414 		pushl	20(%esp)
 3233              		.cfi_def_cfa_offset 64
 3234 01b6 E8FCFFFF 		call	chSemSignalI@PLT
 3234      FF
 3235              	.LVL204:
 3236 01bb 83C410   		addl	$16, %esp
 3237              		.cfi_def_cfa_offset 48
 3238 01be EBB0     		jmp	.L61
 3239              	.LVL205:
 3240              	.L70:
 3241              		.loc 2 271 5 is_stmt 0 view .LVU651
 3242              	.LBE663:
 3243              	.LBE668:
 3244              	.LBE671:
 3245              	.LBE675:
 3246              	.LBB676:
 3247              	.LBB641:
 3248              	.LBB637:
 3249              	.LBB628:
 3250              		.loc 2 271 5 is_stmt 1 view .LVU652
 3251 01c0 83EC0C   		subl	$12, %esp
 3252              		.cfi_def_cfa_offset 60
 3253 01c3 FF742414 		pushl	20(%esp)
 3254              		.cfi_def_cfa_offset 64
 3255 01c7 E8FCFFFF 		call	chSemSignalI@PLT
 3255      FF
 3256              	.LVL206:
 3257              		.loc 2 271 5 is_stmt 0 view .LVU653
 3258 01cc 83C410   		addl	$16, %esp
 3259              		.cfi_def_cfa_offset 48
 3260 01cf E908FFFF 		jmp	.L53
 3260      FF
 3261              	.LBE628:
 3262              	.LBE637:
 3263              	.LBE641:
 3264              	.LBE676:
 3265              		.cfi_endproc
 3266              	.LFE228:
 3267              		.size	aniDiamonds, .-aniDiamonds
 3268              		.section	.text.aniDiamonds2,"ax",@progbits
 3269              		.p2align 4,,15
 3270              		.globl	aniDiamonds2
GAS LISTING /tmp/ccffpNMU.s 			page 64


 3271              		.type	aniDiamonds2, @function
 3272              	aniDiamonds2:
 3273              	.LVL207:
 3274              	.LFB229:
 3275              		.loc 1 215 93 is_stmt 1 view -0
 3276              		.cfi_startproc
 3277              		.loc 1 216 2 view .LVU655
 3278              		.loc 1 215 93 is_stmt 0 view .LVU656
 3279 0000 55       		pushl	%ebp
 3280              		.cfi_def_cfa_offset 8
 3281              		.cfi_offset 5, -8
 3282 0001 57       		pushl	%edi
 3283              		.cfi_def_cfa_offset 12
 3284              		.cfi_offset 7, -12
 3285 0002 56       		pushl	%esi
 3286              		.cfi_def_cfa_offset 16
 3287              		.cfi_offset 6, -16
 3288 0003 53       		pushl	%ebx
 3289              		.cfi_def_cfa_offset 20
 3290              		.cfi_offset 3, -20
 3291 0004 E8FCFFFF 		call	__x86.get_pc_thunk.bx
 3291      FF
 3292 0009 81C30200 		addl	$_GLOBAL_OFFSET_TABLE_, %ebx
 3292      0000
 3293 000f 83EC1C   		subl	$28, %esp
 3294              		.cfi_def_cfa_offset 48
 3295              		.loc 1 215 93 view .LVU657
 3296 0012 8B442430 		movl	48(%esp), %eax
 3297 0016 8944240C 		movl	%eax, 12(%esp)
 3298 001a 8B442434 		movl	52(%esp), %eax
 3299              	.LVL208:
 3300              	.LBB718:
 3301              	.LBI718:
 3302              		.loc 2 282 20 is_stmt 1 view .LVU658
 3303              	.LBB719:
 3304              		.loc 2 284 3 view .LVU659
 3305              	.LBB720:
 3306              	.LBI720:
 3307              		.loc 3 353 20 view .LVU660
 3308              	.LBE720:
 3309              	.LBE719:
 3310              	.LBE718:
 3311              		.loc 3 355 3 view .LVU661
 3312              	.LBB746:
 3313              	.LBB741:
 3314              	.LBB725:
 3315              	.LBB721:
 3316              	.LBI721:
 3317              		.loc 4 362 20 view .LVU662
 3318              	.LBB722:
 3319              		.loc 4 364 3 view .LVU663
 3320              		.loc 4 364 16 is_stmt 0 view .LVU664
 3321 001e 8B930000 		movl	port_irq_sts@GOT(%ebx), %edx
 3321      0000
 3322              	.LBE722:
 3323              	.LBE721:
 3324              	.LBE725:
GAS LISTING /tmp/ccffpNMU.s 			page 65


 3325              	.LBB726:
 3326              	.LBB727:
 3327              		.loc 2 270 6 view .LVU665
 3328 0024 8B4808   		movl	8(%eax), %ecx
 3329              	.LBE727:
 3330              	.LBE726:
 3331              	.LBE741:
 3332              	.LBE746:
 3333              		.loc 1 215 93 view .LVU666
 3334 0027 89442408 		movl	%eax, 8(%esp)
 3335              	.LBB747:
 3336              	.LBB742:
 3337              	.LBB730:
 3338              	.LBB724:
 3339              	.LBB723:
 3340              		.loc 4 364 16 view .LVU667
 3341 002b 89542404 		movl	%edx, 4(%esp)
 3342 002f C7020100 		movl	$1, (%edx)
 3342      0000
 3343              	.LBE723:
 3344              	.LBE724:
 3345              	.LBE730:
 3346              	.LBE742:
 3347              	.LBE747:
 3348              		.loc 3 356 34 is_stmt 1 view .LVU668
 3349              		.loc 3 357 20 view .LVU669
 3350              	.LBB748:
 3351              	.LBB743:
 3352              		.loc 2 285 3 view .LVU670
 3353              	.LVL209:
 3354              	.LBB731:
 3355              	.LBI726:
 3356              		.loc 2 266 20 view .LVU671
 3357              	.LBB728:
 3358              		.loc 2 268 21 view .LVU672
 3359              		.loc 2 270 3 view .LVU673
 3360              		.loc 2 270 6 is_stmt 0 view .LVU674
 3361 0035 85C9     		testl	%ecx, %ecx
 3362 0037 0F8EAF01 		jle	.L98
 3362      0000
 3363              	.LVL210:
 3364              	.L75:
 3365              		.loc 2 270 6 view .LVU675
 3366              	.LBE728:
 3367              	.LBE731:
 3368              		.loc 2 286 3 is_stmt 1 view .LVU676
 3369 003d E8FCFFFF 		call	chSchRescheduleS@PLT
 3369      FF
 3370              	.LVL211:
 3371              		.loc 2 287 3 view .LVU677
 3372              	.LBB732:
 3373              	.LBI732:
 3374              		.loc 3 365 20 view .LVU678
 3375              	.LBB733:
 3376              		.loc 3 367 22 view .LVU679
 3377              		.loc 3 368 33 view .LVU680
 3378              		.loc 3 374 3 view .LVU681
GAS LISTING /tmp/ccffpNMU.s 			page 66


 3379              		.loc 3 374 3 view .LVU682
 3380              		.loc 3 378 3 view .LVU683
 3381              	.LBB734:
 3382              	.LBI734:
 3383              		.loc 4 371 20 view .LVU684
 3384              	.LBB735:
 3385              		.loc 4 373 3 view .LVU685
 3386              		.loc 4 373 16 is_stmt 0 view .LVU686
 3387 0042 8B442404 		movl	4(%esp), %eax
 3388              	.LBE735:
 3389              	.LBE734:
 3390              	.LBE733:
 3391              	.LBE732:
 3392              	.LBE743:
 3393              	.LBE748:
 3394              	.LBB749:
 3395              	.LBB750:
 3396              		.loc 2 143 10 view .LVU687
 3397 0046 83EC0C   		subl	$12, %esp
 3398              		.cfi_def_cfa_offset 60
 3399 0049 31F6     		xorl	%esi, %esi
 3400              	.LBE750:
 3401              	.LBE749:
 3402              	.LBB754:
 3403              	.LBB744:
 3404              	.LBB739:
 3405              	.LBB738:
 3406              	.LBB737:
 3407              	.LBB736:
 3408              		.loc 4 373 16 view .LVU688
 3409 004b C7000000 		movl	$0, (%eax)
 3409      0000
 3410              	.LVL212:
 3411              		.loc 4 373 16 view .LVU689
 3412              	.LBE736:
 3413              	.LBE737:
 3414              	.LBE738:
 3415              	.LBE739:
 3416              	.LBE744:
 3417              	.LBE754:
 3418              		.loc 1 217 2 is_stmt 1 view .LVU690
 3419              		.loc 1 218 2 view .LVU691
 3420              	.LBB755:
 3421              	.LBI749:
 3422              		.loc 2 141 21 view .LVU692
 3423              	.LBB751:
 3424              		.loc 2 143 3 view .LVU693
 3425              		.loc 2 143 10 is_stmt 0 view .LVU694
 3426 0051 FF742418 		pushl	24(%esp)
 3427              		.cfi_def_cfa_offset 64
 3428 0055 E8FCFFFF 		call	chSemWait@PLT
 3428      FF
 3429              	.LVL213:
 3430              	.LBE751:
 3431              	.LBE755:
 3432              		.loc 1 219 2 is_stmt 1 view .LVU695
 3433              	.LBB756:
GAS LISTING /tmp/ccffpNMU.s 			page 67


 3434              		.loc 1 219 7 view .LVU696
 3435              		.loc 1 219 7 is_stmt 0 view .LVU697
 3436              	.LBE756:
 3437              	.LBB758:
 3438              	.LBB752:
 3439              		.loc 2 143 10 view .LVU698
 3440 005a 83C410   		addl	$16, %esp
 3441              		.cfi_def_cfa_offset 48
 3442              	.LVL214:
 3443              	.L76:
 3444              		.loc 2 143 10 view .LVU699
 3445 005d 89F5     		movl	%esi, %ebp
 3446              	.LBE752:
 3447              	.LBE758:
 3448              		.loc 1 215 93 view .LVU700
 3449 005f 31FF     		xorl	%edi, %edi
 3450 0061 83E501   		andl	$1, %ebp
 3451 0064 EB2A     		jmp	.L81
 3452              	.LVL215:
 3453 0066 8DB42600 		.p2align 4,,10
 3453      0000008D 
 3453      7600
 3454              		.p2align 3
 3455              	.L100:
 3456              	.LBB759:
 3457              	.LBB757:
 3458              		.loc 1 223 5 is_stmt 1 view .LVU701
 3459              		.loc 1 223 8 is_stmt 0 view .LVU702
 3460 0070 84C0     		testb	%al, %al
 3461 0072 742B     		je	.L95
 3462              	.LVL216:
 3463              	.L80:
 3464              		.loc 1 233 6 is_stmt 1 view .LVU703
 3465 0074 6800FFFF 		pushl	$-256
 3465      FF
 3466              		.cfi_def_cfa_offset 52
 3467 0079 68000500 		pushl	$1280
 3467      00
 3468              		.cfi_def_cfa_offset 56
 3469 007e 56       		pushl	%esi
 3470              		.cfi_def_cfa_offset 60
 3471 007f 57       		pushl	%edi
 3472              		.cfi_def_cfa_offset 64
 3473 0080 83C701   		addl	$1, %edi
 3474              	.LVL217:
 3475              		.loc 1 233 6 is_stmt 0 view .LVU704
 3476 0083 E8FCFFFF 		call	clASetTargetPosition@PLT
 3476      FF
 3477              	.LVL218:
 3478 0088 83C410   		addl	$16, %esp
 3479              		.cfi_def_cfa_offset 48
 3480              		.loc 1 220 3 view .LVU705
 3481 008b 83FF08   		cmpl	$8, %edi
 3482 008e 742B     		je	.L99
 3483              	.L81:
 3484              	.LVL219:
 3485              		.loc 1 221 4 is_stmt 1 view .LVU706
GAS LISTING /tmp/ccffpNMU.s 			page 68


 3486 0090 89F8     		movl	%edi, %eax
 3487              		.loc 1 221 7 is_stmt 0 view .LVU707
 3488 0092 89EA     		movl	%ebp, %edx
 3489 0094 83E001   		andl	$1, %eax
 3490 0097 84D2     		testb	%dl, %dl
 3491 0099 75D5     		jne	.L100
 3492              		.loc 1 229 5 is_stmt 1 view .LVU708
 3493              		.loc 1 229 8 is_stmt 0 view .LVU709
 3494 009b 84C0     		testb	%al, %al
 3495 009d 74D5     		je	.L80
 3496              	.LVL220:
 3497              	.L95:
 3498              		.loc 1 230 6 is_stmt 1 view .LVU710
 3499 009f 68000100 		pushl	$256
 3499      00
 3500              		.cfi_def_cfa_offset 52
 3501 00a4 68000300 		pushl	$768
 3501      00
 3502              		.cfi_def_cfa_offset 56
 3503 00a9 56       		pushl	%esi
 3504              		.cfi_def_cfa_offset 60
 3505 00aa 57       		pushl	%edi
 3506              		.cfi_def_cfa_offset 64
 3507 00ab 83C701   		addl	$1, %edi
 3508 00ae E8FCFFFF 		call	clASetTargetPosition@PLT
 3508      FF
 3509              	.LVL221:
 3510 00b3 83C410   		addl	$16, %esp
 3511              		.cfi_def_cfa_offset 48
 3512              		.loc 1 220 3 is_stmt 0 view .LVU711
 3513 00b6 83FF08   		cmpl	$8, %edi
 3514 00b9 75D5     		jne	.L81
 3515              	.L99:
 3516              	.LVL222:
 3517              		.loc 1 220 3 view .LVU712
 3518 00bb 83C601   		addl	$1, %esi
 3519              	.LVL223:
 3520              		.loc 1 220 3 view .LVU713
 3521              	.LBE757:
 3522              		.loc 1 219 2 discriminator 2 view .LVU714
 3523 00be 83FE03   		cmpl	$3, %esi
 3524 00c1 759A     		jne	.L76
 3525              	.LBE759:
 3526              		.loc 1 239 2 is_stmt 1 view .LVU715
 3527              	.LVL224:
 3528              	.LBB760:
 3529              	.LBI760:
 3530              		.loc 2 282 20 view .LVU716
 3531              	.LBB761:
 3532              		.loc 2 284 3 view .LVU717
 3533              	.LBB762:
 3534              	.LBI762:
 3535              		.loc 3 353 20 view .LVU718
 3536              	.LBE762:
 3537              	.LBE761:
 3538              	.LBE760:
 3539              		.loc 3 355 3 view .LVU719
GAS LISTING /tmp/ccffpNMU.s 			page 69


 3540              	.LBB782:
 3541              	.LBB778:
 3542              	.LBB765:
 3543              	.LBB763:
 3544              	.LBI763:
 3545              		.loc 4 362 20 view .LVU720
 3546              	.LBB764:
 3547              		.loc 4 364 3 view .LVU721
 3548              		.loc 4 364 16 is_stmt 0 view .LVU722
 3549 00c3 8B442404 		movl	4(%esp), %eax
 3550 00c7 C7000100 		movl	$1, (%eax)
 3550      0000
 3551              	.LBE764:
 3552              	.LBE763:
 3553              	.LBE765:
 3554              	.LBE778:
 3555              	.LBE782:
 3556              		.loc 3 356 34 is_stmt 1 view .LVU723
 3557              		.loc 3 357 20 view .LVU724
 3558              	.LBB783:
 3559              	.LBB779:
 3560              		.loc 2 285 3 view .LVU725
 3561              	.LVL225:
 3562              	.LBB766:
 3563              	.LBI766:
 3564              		.loc 2 266 20 view .LVU726
 3565              	.LBB767:
 3566              		.loc 2 268 21 view .LVU727
 3567              		.loc 2 270 3 view .LVU728
 3568              		.loc 2 270 6 is_stmt 0 view .LVU729
 3569 00cd 8B442408 		movl	8(%esp), %eax
 3570 00d1 8B5008   		movl	8(%eax), %edx
 3571 00d4 85D2     		testl	%edx, %edx
 3572 00d6 0F8E3501 		jle	.L101
 3572      0000
 3573              	.L83:
 3574              	.LVL226:
 3575              		.loc 2 270 6 view .LVU730
 3576              	.LBE767:
 3577              	.LBE766:
 3578              		.loc 2 286 3 is_stmt 1 view .LVU731
 3579 00dc E8FCFFFF 		call	chSchRescheduleS@PLT
 3579      FF
 3580              	.LVL227:
 3581              		.loc 2 287 3 view .LVU732
 3582              	.LBB769:
 3583              	.LBI769:
 3584              		.loc 3 365 20 view .LVU733
 3585              	.LBB770:
 3586              		.loc 3 367 22 view .LVU734
 3587              		.loc 3 368 33 view .LVU735
 3588              		.loc 3 374 3 view .LVU736
 3589              		.loc 3 374 3 view .LVU737
 3590              		.loc 3 378 3 view .LVU738
 3591              	.LBB771:
 3592              	.LBI771:
 3593              		.loc 4 371 20 view .LVU739
GAS LISTING /tmp/ccffpNMU.s 			page 70


 3594              	.LBB772:
 3595              		.loc 4 373 3 view .LVU740
 3596              		.loc 4 373 16 is_stmt 0 view .LVU741
 3597 00e1 8B442404 		movl	4(%esp), %eax
 3598              	.LBE772:
 3599              	.LBE771:
 3600              	.LBE770:
 3601              	.LBE769:
 3602              	.LBE779:
 3603              	.LBE783:
 3604              	.LBB784:
 3605              	.LBB785:
 3606              		.loc 2 143 10 view .LVU742
 3607 00e5 83EC0C   		subl	$12, %esp
 3608              		.cfi_def_cfa_offset 60
 3609 00e8 31F6     		xorl	%esi, %esi
 3610              	.LBE785:
 3611              	.LBE784:
 3612              	.LBB788:
 3613              	.LBB780:
 3614              	.LBB776:
 3615              	.LBB775:
 3616              	.LBB774:
 3617              	.LBB773:
 3618              		.loc 4 373 16 view .LVU743
 3619 00ea C7000000 		movl	$0, (%eax)
 3619      0000
 3620              	.LVL228:
 3621              		.loc 4 373 16 view .LVU744
 3622              	.LBE773:
 3623              	.LBE774:
 3624              	.LBE775:
 3625              	.LBE776:
 3626              	.LBE780:
 3627              	.LBE788:
 3628              		.loc 1 240 2 is_stmt 1 view .LVU745
 3629              	.LBB789:
 3630              	.LBI784:
 3631              		.loc 2 141 21 view .LVU746
 3632              	.LBB786:
 3633              		.loc 2 143 3 view .LVU747
 3634              		.loc 2 143 10 is_stmt 0 view .LVU748
 3635 00f0 FF742418 		pushl	24(%esp)
 3636              		.cfi_def_cfa_offset 64
 3637 00f4 E8FCFFFF 		call	chSemWait@PLT
 3637      FF
 3638              	.LVL229:
 3639              	.LBE786:
 3640              	.LBE789:
 3641              		.loc 1 241 2 is_stmt 1 view .LVU749
 3642              	.LBB790:
 3643              		.loc 1 241 7 view .LVU750
 3644              		.loc 1 241 7 is_stmt 0 view .LVU751
 3645              	.LBE790:
 3646              	.LBB792:
 3647              	.LBB787:
 3648              		.loc 2 143 10 view .LVU752
GAS LISTING /tmp/ccffpNMU.s 			page 71


 3649 00f9 83C410   		addl	$16, %esp
 3650              		.cfi_def_cfa_offset 48
 3651              	.LVL230:
 3652              	.L84:
 3653              		.loc 2 143 10 view .LVU753
 3654 00fc 89F5     		movl	%esi, %ebp
 3655              	.LBE787:
 3656              	.LBE792:
 3657              	.LBB793:
 3658              	.LBB753:
 3659 00fe 31FF     		xorl	%edi, %edi
 3660 0100 83E501   		andl	$1, %ebp
 3661 0103 EB3A     		jmp	.L89
 3662              	.LVL231:
 3663              		.p2align 4,,10
 3664 0105 8D7600   		.p2align 3
 3665              	.L103:
 3666              		.loc 2 143 10 view .LVU754
 3667              	.LBE753:
 3668              	.LBE793:
 3669              	.LBB794:
 3670              	.LBB791:
 3671              		.loc 1 245 5 is_stmt 1 view .LVU755
 3672              		.loc 1 245 8 is_stmt 0 view .LVU756
 3673 0108 84C0     		testb	%al, %al
 3674 010a 7464     		je	.L86
 3675              		.loc 1 246 6 is_stmt 1 view .LVU757
 3676 010c 68000700 		pushl	$1792
 3676      00
 3677              		.cfi_def_cfa_offset 52
 3678 0111 68000D00 		pushl	$3328
 3678      00
 3679              		.cfi_def_cfa_offset 56
 3680 0116 56       		pushl	%esi
 3681              		.cfi_def_cfa_offset 60
 3682 0117 57       		pushl	%edi
 3683              		.cfi_def_cfa_offset 64
 3684 0118 E8FCFFFF 		call	clASetTargetPosition@PLT
 3684      FF
 3685              	.LVL232:
 3686              		.loc 1 247 6 view .LVU758
 3687 011d D9830000 		flds	.LC1@GOTOFF(%ebx)
 3687      0000
 3688              	.LVL233:
 3689              	.L96:
 3690              		.loc 1 260 6 is_stmt 0 view .LVU759
 3691 0123 83EC08   		subl	$8, %esp
 3692              		.cfi_def_cfa_offset 72
 3693 0126 D9542404 		fsts	4(%esp)
 3694 012a D91C24   		fstps	(%esp)
 3695 012d 56       		pushl	%esi
 3696              		.cfi_def_cfa_offset 76
 3697 012e 57       		pushl	%edi
 3698              		.cfi_def_cfa_offset 80
 3699 012f 83C701   		addl	$1, %edi
 3700 0132 E8FCFFFF 		call	clASetMaxSpeed@PLT
 3700      FF
GAS LISTING /tmp/ccffpNMU.s 			page 72


 3701              	.LVL234:
 3702 0137 83C420   		addl	$32, %esp
 3703              		.cfi_def_cfa_offset 48
 3704              		.loc 1 242 3 view .LVU760
 3705 013a 83FF08   		cmpl	$8, %edi
 3706 013d 7461     		je	.L102
 3707              	.L89:
 3708              	.LVL235:
 3709              		.loc 1 243 4 is_stmt 1 view .LVU761
 3710 013f 89F8     		movl	%edi, %eax
 3711              		.loc 1 243 7 is_stmt 0 view .LVU762
 3712 0141 89E9     		movl	%ebp, %ecx
 3713 0143 83E001   		andl	$1, %eax
 3714 0146 84C9     		testb	%cl, %cl
 3715 0148 75BE     		jne	.L103
 3716              		.loc 1 254 5 is_stmt 1 view .LVU763
 3717              		.loc 1 254 8 is_stmt 0 view .LVU764
 3718 014a 84C0     		testb	%al, %al
 3719 014c 7442     		je	.L88
 3720              		.loc 1 255 6 is_stmt 1 view .LVU765
 3721 014e 68000900 		pushl	$2304
 3721      00
 3722              		.cfi_remember_state
 3723              		.cfi_def_cfa_offset 52
 3724 0153 68000B00 		pushl	$2816
 3724      00
 3725              		.cfi_def_cfa_offset 56
 3726 0158 56       		pushl	%esi
 3727              		.cfi_def_cfa_offset 60
 3728 0159 57       		pushl	%edi
 3729              		.cfi_def_cfa_offset 64
 3730 015a E8FCFFFF 		call	clASetTargetPosition@PLT
 3730      FF
 3731              	.LVL236:
 3732              		.loc 1 256 6 view .LVU766
 3733 015f D9830000 		flds	.LC1@GOTOFF(%ebx)
 3733      0000
 3734 0165 EBBC     		jmp	.L96
 3735 0167 8DB42600 		.p2align 4,,10
 3735      00000066 
 3735      90
 3736              		.p2align 3
 3737              	.L86:
 3738              		.cfi_restore_state
 3739              		.loc 1 249 6 view .LVU767
 3740 0170 6800F9FF 		pushl	$-1792
 3740      FF
 3741              		.cfi_def_cfa_offset 52
 3742 0175 6800FBFF 		pushl	$-1280
 3742      FF
 3743              		.cfi_def_cfa_offset 56
 3744              	.LVL237:
 3745              	.L97:
 3746              		.loc 1 259 6 is_stmt 0 view .LVU768
 3747 017a 56       		pushl	%esi
 3748              		.cfi_def_cfa_offset 60
 3749 017b 57       		pushl	%edi
GAS LISTING /tmp/ccffpNMU.s 			page 73


 3750              		.cfi_def_cfa_offset 64
 3751 017c E8FCFFFF 		call	clASetTargetPosition@PLT
 3751      FF
 3752              	.LVL238:
 3753              		.loc 1 260 6 is_stmt 1 view .LVU769
 3754 0181 D9830000 		flds	.LC0@GOTOFF(%ebx)
 3754      0000
 3755 0187 EB9A     		jmp	.L96
 3756              	.LVL239:
 3757 0189 8DB42600 		.p2align 4,,10
 3757      000000
 3758              		.p2align 3
 3759              	.L88:
 3760              		.cfi_def_cfa_offset 48
 3761              		.loc 1 259 6 view .LVU770
 3762 0190 6800F7FF 		pushl	$-2304
 3762      FF
 3763              		.cfi_remember_state
 3764              		.cfi_def_cfa_offset 52
 3765 0195 6800FDFF 		pushl	$-768
 3765      FF
 3766              		.cfi_def_cfa_offset 56
 3767 019a EBDE     		jmp	.L97
 3768              	.LVL240:
 3769 019c 8D742600 		.p2align 4,,10
 3770              		.p2align 3
 3771              	.L102:
 3772              		.cfi_restore_state
 3773              		.loc 1 259 6 is_stmt 0 view .LVU771
 3774 01a0 83C601   		addl	$1, %esi
 3775              	.LVL241:
 3776              		.loc 1 259 6 view .LVU772
 3777              	.LBE791:
 3778              		.loc 1 241 2 discriminator 2 view .LVU773
 3779 01a3 83FE03   		cmpl	$3, %esi
 3780 01a6 0F8550FF 		jne	.L84
 3780      FFFF
 3781              	.LBE794:
 3782              		.loc 1 266 2 is_stmt 1 view .LVU774
 3783              	.LVL242:
 3784              	.LBB795:
 3785              	.LBI795:
 3786              		.loc 2 282 20 view .LVU775
 3787              	.LBB796:
 3788              		.loc 2 284 3 view .LVU776
 3789              	.LBB797:
 3790              	.LBI797:
 3791              		.loc 3 353 20 view .LVU777
 3792              	.LBE797:
 3793              	.LBE796:
 3794              	.LBE795:
 3795              		.loc 3 355 3 view .LVU778
 3796              	.LBB812:
 3797              	.LBB809:
 3798              	.LBB800:
 3799              	.LBB798:
 3800              	.LBI798:
GAS LISTING /tmp/ccffpNMU.s 			page 74


 3801              		.loc 4 362 20 view .LVU779
 3802              	.LBB799:
 3803              		.loc 4 364 3 view .LVU780
 3804              		.loc 4 364 16 is_stmt 0 view .LVU781
 3805 01ac 8B442404 		movl	4(%esp), %eax
 3806 01b0 C7000100 		movl	$1, (%eax)
 3806      0000
 3807              	.LBE799:
 3808              	.LBE798:
 3809              	.LBE800:
 3810              	.LBE809:
 3811              	.LBE812:
 3812              		.loc 3 356 34 is_stmt 1 view .LVU782
 3813              		.loc 3 357 20 view .LVU783
 3814              	.LBB813:
 3815              	.LBB810:
 3816              		.loc 2 285 3 view .LVU784
 3817              	.LVL243:
 3818              	.LBB801:
 3819              	.LBI801:
 3820              		.loc 2 266 20 view .LVU785
 3821              	.LBB802:
 3822              		.loc 2 268 21 view .LVU786
 3823              		.loc 2 270 3 view .LVU787
 3824              		.loc 2 270 6 is_stmt 0 view .LVU788
 3825 01b6 8B442408 		movl	8(%esp), %eax
 3826 01ba 8B4008   		movl	8(%eax), %eax
 3827 01bd 85C0     		testl	%eax, %eax
 3828 01bf 7E3F     		jle	.L104
 3829              	.L91:
 3830              	.LVL244:
 3831              		.loc 2 270 6 view .LVU789
 3832              	.LBE802:
 3833              	.LBE801:
 3834              		.loc 2 286 3 is_stmt 1 view .LVU790
 3835 01c1 E8FCFFFF 		call	chSchRescheduleS@PLT
 3835      FF
 3836              	.LVL245:
 3837              		.loc 2 287 3 view .LVU791
 3838              	.LBB804:
 3839              	.LBI804:
 3840              		.loc 3 365 20 view .LVU792
 3841              	.LBB805:
 3842              		.loc 3 367 22 view .LVU793
 3843              		.loc 3 368 33 view .LVU794
 3844              		.loc 3 374 3 view .LVU795
 3845              		.loc 3 374 3 view .LVU796
 3846              		.loc 3 378 3 view .LVU797
 3847              	.LBB806:
 3848              	.LBI806:
 3849              		.loc 4 371 20 view .LVU798
 3850              	.LBB807:
 3851              		.loc 4 373 3 view .LVU799
 3852              		.loc 4 373 16 is_stmt 0 view .LVU800
 3853 01c6 8B442404 		movl	4(%esp), %eax
 3854 01ca C7000000 		movl	$0, (%eax)
 3854      0000
GAS LISTING /tmp/ccffpNMU.s 			page 75


 3855              	.LVL246:
 3856              		.loc 4 373 16 view .LVU801
 3857              	.LBE807:
 3858              	.LBE806:
 3859              	.LBE805:
 3860              	.LBE804:
 3861              	.LBE810:
 3862              	.LBE813:
 3863              		.loc 1 267 2 is_stmt 1 view .LVU802
 3864 01d0 8B442408 		movl	8(%esp), %eax
 3865 01d4 89442434 		movl	%eax, 52(%esp)
 3866              	.LVL247:
 3867              		.loc 1 267 2 is_stmt 0 view .LVU803
 3868 01d8 8B44240C 		movl	12(%esp), %eax
 3869 01dc 89442430 		movl	%eax, 48(%esp)
 3870              	.LVL248:
 3871              		.loc 1 269 1 view .LVU804
 3872 01e0 83C41C   		addl	$28, %esp
 3873              		.cfi_remember_state
 3874              		.cfi_def_cfa_offset 20
 3875 01e3 5B       		popl	%ebx
 3876              		.cfi_restore 3
 3877              		.cfi_def_cfa_offset 16
 3878 01e4 5E       		popl	%esi
 3879              		.cfi_restore 6
 3880              		.cfi_def_cfa_offset 12
 3881 01e5 5F       		popl	%edi
 3882              		.cfi_restore 7
 3883              		.cfi_def_cfa_offset 8
 3884 01e6 5D       		popl	%ebp
 3885              		.cfi_restore 5
 3886              		.cfi_def_cfa_offset 4
 3887              		.loc 1 267 2 view .LVU805
 3888 01e7 E9FCFFFF 		jmp	aniStandardTime
 3888      FF
 3889              	.LVL249:
 3890              	.L98:
 3891              		.cfi_restore_state
 3892              	.LBB814:
 3893              	.LBB745:
 3894              	.LBB740:
 3895              	.LBB729:
 3896              		.loc 2 271 5 is_stmt 1 view .LVU806
 3897 01ec 83EC0C   		subl	$12, %esp
 3898              		.cfi_def_cfa_offset 60
 3899 01ef FF742414 		pushl	20(%esp)
 3900              		.cfi_def_cfa_offset 64
 3901 01f3 E8FCFFFF 		call	chSemSignalI@PLT
 3901      FF
 3902              	.LVL250:
 3903              		.loc 2 271 5 is_stmt 0 view .LVU807
 3904 01f8 83C410   		addl	$16, %esp
 3905              		.cfi_def_cfa_offset 48
 3906 01fb E93DFEFF 		jmp	.L75
 3906      FF
 3907              	.LVL251:
 3908              	.L104:
GAS LISTING /tmp/ccffpNMU.s 			page 76


 3909              		.loc 2 271 5 view .LVU808
 3910              	.LBE729:
 3911              	.LBE740:
 3912              	.LBE745:
 3913              	.LBE814:
 3914              	.LBB815:
 3915              	.LBB811:
 3916              	.LBB808:
 3917              	.LBB803:
 3918              		.loc 2 271 5 is_stmt 1 view .LVU809
 3919 0200 83EC0C   		subl	$12, %esp
 3920              		.cfi_def_cfa_offset 60
 3921 0203 FF742414 		pushl	20(%esp)
 3922              		.cfi_def_cfa_offset 64
 3923 0207 E8FCFFFF 		call	chSemSignalI@PLT
 3923      FF
 3924              	.LVL252:
 3925 020c 83C410   		addl	$16, %esp
 3926              		.cfi_def_cfa_offset 48
 3927 020f EBB0     		jmp	.L91
 3928              	.LVL253:
 3929              	.L101:
 3930              		.loc 2 271 5 is_stmt 0 view .LVU810
 3931              	.LBE803:
 3932              	.LBE808:
 3933              	.LBE811:
 3934              	.LBE815:
 3935              	.LBB816:
 3936              	.LBB781:
 3937              	.LBB777:
 3938              	.LBB768:
 3939              		.loc 2 271 5 is_stmt 1 view .LVU811
 3940 0211 83EC0C   		subl	$12, %esp
 3941              		.cfi_def_cfa_offset 60
 3942 0214 FF742414 		pushl	20(%esp)
 3943              		.cfi_def_cfa_offset 64
 3944 0218 E8FCFFFF 		call	chSemSignalI@PLT
 3944      FF
 3945              	.LVL254:
 3946              		.loc 2 271 5 is_stmt 0 view .LVU812
 3947 021d 83C410   		addl	$16, %esp
 3948              		.cfi_def_cfa_offset 48
 3949 0220 E9B7FEFF 		jmp	.L83
 3949      FF
 3950              	.LBE768:
 3951              	.LBE777:
 3952              	.LBE781:
 3953              	.LBE816:
 3954              		.cfi_endproc
 3955              	.LFE229:
 3956              		.size	aniDiamonds2, .-aniDiamonds2
 3957              		.section	.text.aniSquares,"ax",@progbits
 3958              		.p2align 4,,15
 3959              		.globl	aniSquares
 3960              		.type	aniSquares, @function
 3961              	aniSquares:
 3962              	.LVL255:
GAS LISTING /tmp/ccffpNMU.s 			page 77


 3963              	.LFB230:
 3964              		.loc 1 271 91 is_stmt 1 view -0
 3965              		.cfi_startproc
 3966              		.loc 1 271 91 is_stmt 0 view .LVU814
 3967 0000 55       		pushl	%ebp
 3968              		.cfi_def_cfa_offset 8
 3969              		.cfi_offset 5, -8
 3970 0001 57       		pushl	%edi
 3971              		.cfi_def_cfa_offset 12
 3972              		.cfi_offset 7, -12
 3973 0002 56       		pushl	%esi
 3974              		.cfi_def_cfa_offset 16
 3975              		.cfi_offset 6, -16
 3976 0003 53       		pushl	%ebx
 3977              		.cfi_def_cfa_offset 20
 3978              		.cfi_offset 3, -20
 3979 0004 E8FCFFFF 		call	__x86.get_pc_thunk.bx
 3979      FF
 3980 0009 81C30200 		addl	$_GLOBAL_OFFSET_TABLE_, %ebx
 3980      0000
 3981 000f 83EC3C   		subl	$60, %esp
 3982              		.cfi_def_cfa_offset 80
 3983              		.loc 1 272 2 is_stmt 1 view .LVU815
 3984              	.LVL256:
 3985              	.LBB860:
 3986              	.LBI860:
 3987              		.loc 2 282 20 view .LVU816
 3988              	.LBB861:
 3989              		.loc 2 284 3 view .LVU817
 3990              	.LBB862:
 3991              	.LBI862:
 3992              		.loc 3 353 20 view .LVU818
 3993              	.LBE862:
 3994              	.LBE861:
 3995              	.LBE860:
 3996              		.loc 3 355 3 view .LVU819
 3997              	.LBB882:
 3998              	.LBB878:
 3999              	.LBB865:
 4000              	.LBB863:
 4001              	.LBI863:
 4002              		.loc 4 362 20 view .LVU820
 4003              	.LBB864:
 4004              		.loc 4 364 3 view .LVU821
 4005              		.loc 4 364 16 is_stmt 0 view .LVU822
 4006 0012 8B830000 		movl	port_irq_sts@GOT(%ebx), %eax
 4006      0000
 4007 0018 8944242C 		movl	%eax, 44(%esp)
 4008 001c C7000100 		movl	$1, (%eax)
 4008      0000
 4009              	.LBE864:
 4010              	.LBE863:
 4011              	.LBE865:
 4012              	.LBE878:
 4013              	.LBE882:
 4014              		.loc 3 356 34 is_stmt 1 view .LVU823
 4015              		.loc 3 357 20 view .LVU824
GAS LISTING /tmp/ccffpNMU.s 			page 78


 4016              	.LBB883:
 4017              	.LBB879:
 4018              		.loc 2 285 3 view .LVU825
 4019              	.LVL257:
 4020              	.LBB866:
 4021              	.LBI866:
 4022              		.loc 2 266 20 view .LVU826
 4023              	.LBB867:
 4024              		.loc 2 268 21 view .LVU827
 4025              		.loc 2 270 3 view .LVU828
 4026              		.loc 2 270 6 is_stmt 0 view .LVU829
 4027 0022 8B442454 		movl	84(%esp), %eax
 4028 0026 8B4808   		movl	8(%eax), %ecx
 4029 0029 85C9     		testl	%ecx, %ecx
 4030 002b 0F8EEE02 		jle	.L130
 4030      0000
 4031              	.L106:
 4032              	.LVL258:
 4033              		.loc 2 270 6 view .LVU830
 4034              	.LBE867:
 4035              	.LBE866:
 4036              		.loc 2 286 3 is_stmt 1 view .LVU831
 4037 0031 E8FCFFFF 		call	chSchRescheduleS@PLT
 4037      FF
 4038              	.LVL259:
 4039              		.loc 2 287 3 view .LVU832
 4040              	.LBB869:
 4041              	.LBI869:
 4042              		.loc 3 365 20 view .LVU833
 4043              	.LBB870:
 4044              		.loc 3 367 22 view .LVU834
 4045              		.loc 3 368 33 view .LVU835
 4046              		.loc 3 374 3 view .LVU836
 4047              		.loc 3 374 3 view .LVU837
 4048              		.loc 3 378 3 view .LVU838
 4049              	.LBB871:
 4050              	.LBI871:
 4051              		.loc 4 371 20 view .LVU839
 4052              	.LBB872:
 4053              		.loc 4 373 3 view .LVU840
 4054              		.loc 4 373 16 is_stmt 0 view .LVU841
 4055 0036 8B44242C 		movl	44(%esp), %eax
 4056              	.LBE872:
 4057              	.LBE871:
 4058              	.LBE870:
 4059              	.LBE869:
 4060              	.LBE879:
 4061              	.LBE883:
 4062              	.LBB884:
 4063              	.LBB885:
 4064              		.loc 2 143 10 view .LVU842
 4065 003a 83EC0C   		subl	$12, %esp
 4066              		.cfi_def_cfa_offset 92
 4067 003d 31ED     		xorl	%ebp, %ebp
 4068              	.LBE885:
 4069              	.LBE884:
 4070              	.LBB889:
GAS LISTING /tmp/ccffpNMU.s 			page 79


 4071              	.LBB880:
 4072              	.LBB876:
 4073              	.LBB875:
 4074              	.LBB874:
 4075              	.LBB873:
 4076              		.loc 4 373 16 view .LVU843
 4077 003f C7000000 		movl	$0, (%eax)
 4077      0000
 4078              	.LVL260:
 4079              		.loc 4 373 16 view .LVU844
 4080              	.LBE873:
 4081              	.LBE874:
 4082              	.LBE875:
 4083              	.LBE876:
 4084              	.LBE880:
 4085              	.LBE889:
 4086              		.loc 1 273 2 is_stmt 1 view .LVU845
 4087              		.loc 1 274 2 view .LVU846
 4088              	.LBB890:
 4089              	.LBI884:
 4090              		.loc 2 141 21 view .LVU847
 4091              	.LBB886:
 4092              		.loc 2 143 3 view .LVU848
 4093              		.loc 2 143 10 is_stmt 0 view .LVU849
 4094 0045 FF74245C 		pushl	92(%esp)
 4095              		.cfi_def_cfa_offset 96
 4096 0049 E8FCFFFF 		call	chSemWait@PLT
 4096      FF
 4097              	.LVL261:
 4098              		.loc 2 143 10 view .LVU850
 4099              	.LBE886:
 4100              	.LBE890:
 4101              		.loc 1 276 2 is_stmt 1 view .LVU851
 4102              		.loc 1 278 2 view .LVU852
 4103              	.LBB891:
 4104              	.LBB887:
 4105              		.loc 2 143 10 is_stmt 0 view .LVU853
 4106 004e 83C410   		addl	$16, %esp
 4107              		.cfi_def_cfa_offset 80
 4108 0051 896C240C 		movl	%ebp, 12(%esp)
 4109              	.LVL262:
 4110              	.L107:
 4111              		.loc 2 143 10 view .LVU854
 4112 0055 8B4C240C 		movl	12(%esp), %ecx
 4113 0059 B8000200 		movl	$512, %eax
 4113      00
 4114              	.LBE887:
 4115              	.LBE891:
 4116              		.loc 1 271 91 view .LVU855
 4117 005e 31F6     		xorl	%esi, %esi
 4118 0060 29C8     		subl	%ecx, %eax
 4119 0062 89442420 		movl	%eax, 32(%esp)
 4120 0066 89C8     		movl	%ecx, %eax
 4121 0068 F7D8     		negl	%eax
 4122 006a 89442414 		movl	%eax, 20(%esp)
 4123 006e 8D810002 		leal	512(%ecx), %eax
 4123      0000
GAS LISTING /tmp/ccffpNMU.s 			page 80


 4124 0074 89442424 		movl	%eax, 36(%esp)
 4125 0078 8D810004 		leal	1024(%ecx), %eax
 4125      0000
 4126 007e 89442428 		movl	%eax, 40(%esp)
 4127 0082 8D8100FE 		leal	-512(%ecx), %eax
 4127      FFFF
 4128 0088 89442410 		movl	%eax, 16(%esp)
 4129 008c B800FEFF 		movl	$-512, %eax
 4129      FF
 4130 0091 29C8     		subl	%ecx, %eax
 4131 0093 89442418 		movl	%eax, 24(%esp)
 4132 0097 B8000400 		movl	$1024, %eax
 4132      00
 4133 009c 29C8     		subl	%ecx, %eax
 4134 009e 8944241C 		movl	%eax, 28(%esp)
 4135              	.LVL263:
 4136              	.L116:
 4137              		.loc 1 271 91 view .LVU856
 4138 00a2 89F7     		movl	%esi, %edi
 4139 00a4 31ED     		xorl	%ebp, %ebp
 4140 00a6 83E701   		andl	$1, %edi
 4141 00a9 89F8     		movl	%edi, %eax
 4142 00ab 89EF     		movl	%ebp, %edi
 4143 00ad 89C5     		movl	%eax, %ebp
 4144 00af EB29     		jmp	.L112
 4145              	.LVL264:
 4146              		.p2align 4,,10
 4147 00b1 8DB42600 		.p2align 3
 4147      000000
 4148              	.L132:
 4149              	.LBB892:
 4150              	.LBB893:
 4151              		.loc 1 284 6 is_stmt 1 view .LVU857
 4152              		.loc 1 284 9 is_stmt 0 view .LVU858
 4153 00b8 84D2     		testb	%dl, %dl
 4154 00ba 0F84C001 		je	.L109
 4154      0000
 4155              		.loc 1 285 7 is_stmt 1 view .LVU859
 4156 00c0 FF742418 		pushl	24(%esp)
 4157              		.cfi_def_cfa_offset 84
 4158 00c4 FF742420 		pushl	32(%esp)
 4159              		.cfi_def_cfa_offset 88
 4160 00c8 56       		pushl	%esi
 4161              		.cfi_def_cfa_offset 92
 4162 00c9 57       		pushl	%edi
 4163              		.cfi_def_cfa_offset 96
 4164 00ca E8FCFFFF 		call	clASetTargetPosition@PLT
 4164      FF
 4165              	.LVL265:
 4166 00cf 83C410   		addl	$16, %esp
 4167              		.cfi_def_cfa_offset 80
 4168              	.LVL266:
 4169              	.L110:
 4170              		.loc 1 285 7 is_stmt 0 view .LVU860
 4171 00d2 83C701   		addl	$1, %edi
 4172              	.LVL267:
 4173              		.loc 1 281 4 discriminator 2 view .LVU861
GAS LISTING /tmp/ccffpNMU.s 			page 81


 4174 00d5 83FF08   		cmpl	$8, %edi
 4175 00d8 742D     		je	.L131
 4176              	.L112:
 4177              	.LVL268:
 4178              		.loc 1 282 5 is_stmt 1 view .LVU862
 4179 00da 89FA     		movl	%edi, %edx
 4180              		.loc 1 282 8 is_stmt 0 view .LVU863
 4181 00dc 89E8     		movl	%ebp, %eax
 4182 00de 83E201   		andl	$1, %edx
 4183 00e1 84C0     		testb	%al, %al
 4184 00e3 75D3     		jne	.L132
 4185              		.loc 1 290 6 is_stmt 1 view .LVU864
 4186              		.loc 1 290 9 is_stmt 0 view .LVU865
 4187 00e5 84D2     		testb	%dl, %dl
 4188 00e7 0F84B301 		je	.L111
 4188      0000
 4189              		.loc 1 291 7 is_stmt 1 view .LVU866
 4190 00ed FF742424 		pushl	36(%esp)
 4191              		.cfi_def_cfa_offset 84
 4192 00f1 FF74242C 		pushl	44(%esp)
 4193              		.cfi_def_cfa_offset 88
 4194 00f5 56       		pushl	%esi
 4195              		.cfi_def_cfa_offset 92
 4196 00f6 57       		pushl	%edi
 4197              		.cfi_def_cfa_offset 96
 4198 00f7 83C701   		addl	$1, %edi
 4199              	.LVL269:
 4200              		.loc 1 291 7 is_stmt 0 view .LVU867
 4201 00fa E8FCFFFF 		call	clASetTargetPosition@PLT
 4201      FF
 4202              	.LVL270:
 4203 00ff 83C410   		addl	$16, %esp
 4204              		.cfi_def_cfa_offset 80
 4205              		.loc 1 281 4 view .LVU868
 4206 0102 83FF08   		cmpl	$8, %edi
 4207 0105 75D3     		jne	.L112
 4208              	.L131:
 4209              	.LVL271:
 4210              		.loc 1 281 4 view .LVU869
 4211 0107 83C601   		addl	$1, %esi
 4212              	.LVL272:
 4213              		.loc 1 281 4 view .LVU870
 4214              	.LBE893:
 4215              		.loc 1 280 3 discriminator 2 view .LVU871
 4216 010a 83FE03   		cmpl	$3, %esi
 4217 010d 7593     		jne	.L116
 4218              	.LBE892:
 4219              		.loc 1 300 3 is_stmt 1 view .LVU872
 4220              	.LVL273:
 4221              	.LBB895:
 4222              	.LBI895:
 4223              		.loc 2 282 20 view .LVU873
 4224              	.LBB896:
 4225              		.loc 2 284 3 view .LVU874
 4226              	.LBB897:
 4227              	.LBI897:
 4228              		.loc 3 353 20 view .LVU875
GAS LISTING /tmp/ccffpNMU.s 			page 82


 4229              	.LBE897:
 4230              	.LBE896:
 4231              	.LBE895:
 4232              		.loc 3 355 3 view .LVU876
 4233              	.LBB917:
 4234              	.LBB913:
 4235              	.LBB900:
 4236              	.LBB898:
 4237              	.LBI898:
 4238              		.loc 4 362 20 view .LVU877
 4239              	.LBB899:
 4240              		.loc 4 364 3 view .LVU878
 4241              		.loc 4 364 16 is_stmt 0 view .LVU879
 4242 010f 8B44242C 		movl	44(%esp), %eax
 4243 0113 C7000100 		movl	$1, (%eax)
 4243      0000
 4244              	.LBE899:
 4245              	.LBE898:
 4246              	.LBE900:
 4247              	.LBE913:
 4248              	.LBE917:
 4249              		.loc 3 356 34 is_stmt 1 view .LVU880
 4250              		.loc 3 357 20 view .LVU881
 4251              	.LBB918:
 4252              	.LBB914:
 4253              		.loc 2 285 3 view .LVU882
 4254              	.LVL274:
 4255              	.LBB901:
 4256              	.LBI901:
 4257              		.loc 2 266 20 view .LVU883
 4258              	.LBB902:
 4259              		.loc 2 268 21 view .LVU884
 4260              		.loc 2 270 3 view .LVU885
 4261              		.loc 2 270 6 is_stmt 0 view .LVU886
 4262 0119 8B442454 		movl	84(%esp), %eax
 4263 011d 8B5008   		movl	8(%eax), %edx
 4264 0120 85D2     		testl	%edx, %edx
 4265 0122 0F8EE301 		jle	.L133
 4265      0000
 4266              	.L114:
 4267              	.LVL275:
 4268              		.loc 2 270 6 view .LVU887
 4269              	.LBE902:
 4270              	.LBE901:
 4271              		.loc 2 286 3 is_stmt 1 view .LVU888
 4272 0128 E8FCFFFF 		call	chSchRescheduleS@PLT
 4272      FF
 4273              	.LVL276:
 4274              		.loc 2 287 3 view .LVU889
 4275              	.LBB904:
 4276              	.LBI904:
 4277              		.loc 3 365 20 view .LVU890
 4278              	.LBB905:
 4279              		.loc 3 367 22 view .LVU891
 4280              		.loc 3 368 33 view .LVU892
 4281              		.loc 3 374 3 view .LVU893
 4282              		.loc 3 374 3 view .LVU894
GAS LISTING /tmp/ccffpNMU.s 			page 83


 4283              		.loc 3 378 3 view .LVU895
 4284              	.LBB906:
 4285              	.LBI906:
 4286              		.loc 4 371 20 view .LVU896
 4287              	.LBB907:
 4288              		.loc 4 373 3 view .LVU897
 4289              		.loc 4 373 16 is_stmt 0 view .LVU898
 4290 012d 8B44242C 		movl	44(%esp), %eax
 4291              	.LBE907:
 4292              	.LBE906:
 4293              	.LBE905:
 4294              	.LBE904:
 4295              	.LBE914:
 4296              	.LBE918:
 4297              	.LBB919:
 4298              	.LBB920:
 4299              		.loc 2 143 10 view .LVU899
 4300 0131 83EC0C   		subl	$12, %esp
 4301              		.cfi_def_cfa_offset 92
 4302              	.LBE920:
 4303              	.LBE919:
 4304              	.LBB922:
 4305              	.LBB915:
 4306              	.LBB911:
 4307              	.LBB910:
 4308              	.LBB909:
 4309              	.LBB908:
 4310              		.loc 4 373 16 view .LVU900
 4311 0134 C7000000 		movl	$0, (%eax)
 4311      0000
 4312              	.LVL277:
 4313              		.loc 4 373 16 view .LVU901
 4314              	.LBE908:
 4315              	.LBE909:
 4316              	.LBE910:
 4317              	.LBE911:
 4318              	.LBE915:
 4319              	.LBE922:
 4320              		.loc 1 301 3 is_stmt 1 view .LVU902
 4321              	.LBB923:
 4322              	.LBI919:
 4323              		.loc 2 141 21 view .LVU903
 4324              	.LBB921:
 4325              		.loc 2 143 3 view .LVU904
 4326              		.loc 2 143 10 is_stmt 0 view .LVU905
 4327 013a FF74245C 		pushl	92(%esp)
 4328              		.cfi_def_cfa_offset 96
 4329 013e E8FCFFFF 		call	chSemWait@PLT
 4329      FF
 4330              	.LVL278:
 4331              		.loc 2 143 10 view .LVU906
 4332              	.LBE921:
 4333              	.LBE923:
 4334              		.loc 1 302 3 is_stmt 1 view .LVU907
 4335              		.loc 1 304 3 view .LVU908
 4336 0143 C70424A0 		movl	$4000, (%esp)
 4336      0F0000
GAS LISTING /tmp/ccffpNMU.s 			page 84


 4337 014a E8FCFFFF 		call	chThdSleep@PLT
 4337      FF
 4338              	.LVL279:
 4339              		.loc 1 304 3 is_stmt 0 view .LVU909
 4340 014f 8B442420 		movl	32(%esp), %eax
 4341 0153 8944241C 		movl	%eax, 28(%esp)
 4342              		.loc 1 278 8 view .LVU910
 4343 0157 83C410   		addl	$16, %esp
 4344              		.cfi_def_cfa_offset 80
 4345 015a 3D00F8FF 		cmpl	$-2048, %eax
 4345      FF
 4346 015f 0F85F0FE 		jne	.L107
 4346      FFFF
 4347              	.L115:
 4348              	.LVL280:
 4349              		.loc 1 278 8 view .LVU911
 4350 0165 8B4C240C 		movl	12(%esp), %ecx
 4351 0169 B8000200 		movl	$512, %eax
 4351      00
 4352              	.LBB924:
 4353              	.LBB888:
 4354              		.loc 2 143 10 view .LVU912
 4355 016e 31F6     		xorl	%esi, %esi
 4356 0170 29C8     		subl	%ecx, %eax
 4357 0172 89442420 		movl	%eax, 32(%esp)
 4358 0176 89C8     		movl	%ecx, %eax
 4359 0178 F7D8     		negl	%eax
 4360 017a 89442414 		movl	%eax, 20(%esp)
 4361 017e 8D810002 		leal	512(%ecx), %eax
 4361      0000
 4362 0184 89442410 		movl	%eax, 16(%esp)
 4363 0188 8D810004 		leal	1024(%ecx), %eax
 4363      0000
 4364 018e 89442424 		movl	%eax, 36(%esp)
 4365 0192 8D8100FE 		leal	-512(%ecx), %eax
 4365      FFFF
 4366 0198 89442428 		movl	%eax, 40(%esp)
 4367 019c B800FEFF 		movl	$-512, %eax
 4367      FF
 4368 01a1 29C8     		subl	%ecx, %eax
 4369 01a3 89442418 		movl	%eax, 24(%esp)
 4370 01a7 B8000400 		movl	$1024, %eax
 4370      00
 4371 01ac 29C8     		subl	%ecx, %eax
 4372 01ae 8944241C 		movl	%eax, 28(%esp)
 4373              	.LVL281:
 4374              	.L125:
 4375              		.loc 2 143 10 view .LVU913
 4376 01b2 89F7     		movl	%esi, %edi
 4377 01b4 31ED     		xorl	%ebp, %ebp
 4378 01b6 83E701   		andl	$1, %edi
 4379 01b9 89F8     		movl	%edi, %eax
 4380 01bb 89EF     		movl	%ebp, %edi
 4381 01bd 89C5     		movl	%eax, %ebp
 4382 01bf EB29     		jmp	.L121
 4383              	.LVL282:
 4384              		.p2align 4,,10
GAS LISTING /tmp/ccffpNMU.s 			page 85


 4385 01c1 8DB42600 		.p2align 3
 4385      000000
 4386              	.L135:
 4387              		.loc 2 143 10 view .LVU914
 4388              	.LBE888:
 4389              	.LBE924:
 4390              	.LBB925:
 4391              	.LBB926:
 4392              		.loc 1 314 6 is_stmt 1 view .LVU915
 4393              		.loc 1 314 9 is_stmt 0 view .LVU916
 4394 01c8 84D2     		testb	%dl, %dl
 4395 01ca 0F84F000 		je	.L118
 4395      0000
 4396              		.loc 1 315 7 is_stmt 1 view .LVU917
 4397 01d0 FF742418 		pushl	24(%esp)
 4398              		.cfi_def_cfa_offset 84
 4399 01d4 FF742420 		pushl	32(%esp)
 4400              		.cfi_def_cfa_offset 88
 4401 01d8 56       		pushl	%esi
 4402              		.cfi_def_cfa_offset 92
 4403 01d9 57       		pushl	%edi
 4404              		.cfi_def_cfa_offset 96
 4405 01da E8FCFFFF 		call	clASetTargetPosition@PLT
 4405      FF
 4406              	.LVL283:
 4407 01df 83C410   		addl	$16, %esp
 4408              		.cfi_def_cfa_offset 80
 4409              	.LVL284:
 4410              	.L119:
 4411              		.loc 1 315 7 is_stmt 0 view .LVU918
 4412 01e2 83C701   		addl	$1, %edi
 4413              	.LVL285:
 4414              		.loc 1 311 4 discriminator 2 view .LVU919
 4415 01e5 83FF08   		cmpl	$8, %edi
 4416 01e8 742D     		je	.L134
 4417              	.L121:
 4418              	.LVL286:
 4419              		.loc 1 312 5 is_stmt 1 view .LVU920
 4420 01ea 89FA     		movl	%edi, %edx
 4421              		.loc 1 312 8 is_stmt 0 view .LVU921
 4422 01ec 89E8     		movl	%ebp, %eax
 4423 01ee 83E201   		andl	$1, %edx
 4424 01f1 84C0     		testb	%al, %al
 4425 01f3 75D3     		jne	.L135
 4426              		.loc 1 320 6 is_stmt 1 view .LVU922
 4427              		.loc 1 320 9 is_stmt 0 view .LVU923
 4428 01f5 84D2     		testb	%dl, %dl
 4429 01f7 0F84E300 		je	.L120
 4429      0000
 4430              		.loc 1 321 7 is_stmt 1 view .LVU924
 4431 01fd FF742410 		pushl	16(%esp)
 4432              		.cfi_def_cfa_offset 84
 4433 0201 FF742428 		pushl	40(%esp)
 4434              		.cfi_def_cfa_offset 88
 4435 0205 56       		pushl	%esi
 4436              		.cfi_def_cfa_offset 92
 4437 0206 57       		pushl	%edi
GAS LISTING /tmp/ccffpNMU.s 			page 86


 4438              		.cfi_def_cfa_offset 96
 4439 0207 83C701   		addl	$1, %edi
 4440              	.LVL287:
 4441              		.loc 1 321 7 is_stmt 0 view .LVU925
 4442 020a E8FCFFFF 		call	clASetTargetPosition@PLT
 4442      FF
 4443              	.LVL288:
 4444 020f 83C410   		addl	$16, %esp
 4445              		.cfi_def_cfa_offset 80
 4446              		.loc 1 311 4 view .LVU926
 4447 0212 83FF08   		cmpl	$8, %edi
 4448 0215 75D3     		jne	.L121
 4449              	.L134:
 4450              	.LVL289:
 4451              		.loc 1 311 4 view .LVU927
 4452 0217 83C601   		addl	$1, %esi
 4453              	.LVL290:
 4454              		.loc 1 311 4 view .LVU928
 4455              	.LBE926:
 4456              		.loc 1 310 3 discriminator 2 view .LVU929
 4457 021a 83FE03   		cmpl	$3, %esi
 4458 021d 7593     		jne	.L125
 4459              	.LBE925:
 4460              		.loc 1 330 3 is_stmt 1 view .LVU930
 4461              	.LVL291:
 4462              	.LBB928:
 4463              	.LBI928:
 4464              		.loc 2 282 20 view .LVU931
 4465              	.LBB929:
 4466              		.loc 2 284 3 view .LVU932
 4467              	.LBB930:
 4468              	.LBI930:
 4469              		.loc 3 353 20 view .LVU933
 4470              	.LBE930:
 4471              	.LBE929:
 4472              	.LBE928:
 4473              		.loc 3 355 3 view .LVU934
 4474              	.LBB950:
 4475              	.LBB946:
 4476              	.LBB933:
 4477              	.LBB931:
 4478              	.LBI931:
 4479              		.loc 4 362 20 view .LVU935
 4480              	.LBB932:
 4481              		.loc 4 364 3 view .LVU936
 4482              		.loc 4 364 16 is_stmt 0 view .LVU937
 4483 021f 8B44242C 		movl	44(%esp), %eax
 4484 0223 C7000100 		movl	$1, (%eax)
 4484      0000
 4485              	.LBE932:
 4486              	.LBE931:
 4487              	.LBE933:
 4488              	.LBE946:
 4489              	.LBE950:
 4490              		.loc 3 356 34 is_stmt 1 view .LVU938
 4491              		.loc 3 357 20 view .LVU939
 4492              	.LBB951:
GAS LISTING /tmp/ccffpNMU.s 			page 87


 4493              	.LBB947:
 4494              		.loc 2 285 3 view .LVU940
 4495              	.LVL292:
 4496              	.LBB934:
 4497              	.LBI934:
 4498              		.loc 2 266 20 view .LVU941
 4499              	.LBB935:
 4500              		.loc 2 268 21 view .LVU942
 4501              		.loc 2 270 3 view .LVU943
 4502              		.loc 2 270 6 is_stmt 0 view .LVU944
 4503 0229 8B442454 		movl	84(%esp), %eax
 4504 022d 8B4008   		movl	8(%eax), %eax
 4505 0230 85C0     		testl	%eax, %eax
 4506 0232 0F8EBF00 		jle	.L136
 4506      0000
 4507              	.L123:
 4508              	.LVL293:
 4509              		.loc 2 270 6 view .LVU945
 4510              	.LBE935:
 4511              	.LBE934:
 4512              		.loc 2 286 3 is_stmt 1 view .LVU946
 4513 0238 E8FCFFFF 		call	chSchRescheduleS@PLT
 4513      FF
 4514              	.LVL294:
 4515              		.loc 2 287 3 view .LVU947
 4516              	.LBB937:
 4517              	.LBI937:
 4518              		.loc 3 365 20 view .LVU948
 4519              	.LBB938:
 4520              		.loc 3 367 22 view .LVU949
 4521              		.loc 3 368 33 view .LVU950
 4522              		.loc 3 374 3 view .LVU951
 4523              		.loc 3 374 3 view .LVU952
 4524              		.loc 3 378 3 view .LVU953
 4525              	.LBB939:
 4526              	.LBI939:
 4527              		.loc 4 371 20 view .LVU954
 4528              	.LBB940:
 4529              		.loc 4 373 3 view .LVU955
 4530              		.loc 4 373 16 is_stmt 0 view .LVU956
 4531 023d 8B44242C 		movl	44(%esp), %eax
 4532              	.LBE940:
 4533              	.LBE939:
 4534              	.LBE938:
 4535              	.LBE937:
 4536              	.LBE947:
 4537              	.LBE951:
 4538              	.LBB952:
 4539              	.LBB953:
 4540              		.loc 2 143 10 view .LVU957
 4541 0241 83EC0C   		subl	$12, %esp
 4542              		.cfi_def_cfa_offset 92
 4543              	.LBE953:
 4544              	.LBE952:
 4545              	.LBB955:
 4546              	.LBB948:
 4547              	.LBB944:
GAS LISTING /tmp/ccffpNMU.s 			page 88


 4548              	.LBB943:
 4549              	.LBB942:
 4550              	.LBB941:
 4551              		.loc 4 373 16 view .LVU958
 4552 0244 C7000000 		movl	$0, (%eax)
 4552      0000
 4553              	.LVL295:
 4554              		.loc 4 373 16 view .LVU959
 4555              	.LBE941:
 4556              	.LBE942:
 4557              	.LBE943:
 4558              	.LBE944:
 4559              	.LBE948:
 4560              	.LBE955:
 4561              		.loc 1 331 3 is_stmt 1 view .LVU960
 4562              		.loc 1 332 3 view .LVU961
 4563              	.LBB956:
 4564              	.LBI952:
 4565              		.loc 2 141 21 view .LVU962
 4566              	.LBB954:
 4567              		.loc 2 143 3 view .LVU963
 4568              		.loc 2 143 10 is_stmt 0 view .LVU964
 4569 024a FF74245C 		pushl	92(%esp)
 4570              		.cfi_def_cfa_offset 96
 4571 024e E8FCFFFF 		call	chSemWait@PLT
 4571      FF
 4572              	.LVL296:
 4573              		.loc 2 143 10 view .LVU965
 4574              	.LBE954:
 4575              	.LBE956:
 4576              		.loc 1 333 3 is_stmt 1 view .LVU966
 4577 0253 C70424D0 		movl	$2000, (%esp)
 4577      070000
 4578 025a E8FCFFFF 		call	chThdSleep@PLT
 4578      FF
 4579              	.LVL297:
 4580              		.loc 1 333 3 is_stmt 0 view .LVU967
 4581 025f 8B442420 		movl	32(%esp), %eax
 4582 0263 8944241C 		movl	%eax, 28(%esp)
 4583              		.loc 1 308 8 view .LVU968
 4584 0267 83C410   		addl	$16, %esp
 4585              		.cfi_def_cfa_offset 80
 4586 026a 85C0     		testl	%eax, %eax
 4587 026c 0F85F3FE 		jne	.L115
 4587      FFFF
 4588              		.loc 1 336 1 view .LVU969
 4589 0272 83C43C   		addl	$60, %esp
 4590              		.cfi_remember_state
 4591              		.cfi_def_cfa_offset 20
 4592 0275 5B       		popl	%ebx
 4593              		.cfi_restore 3
 4594              		.cfi_def_cfa_offset 16
 4595 0276 5E       		popl	%esi
 4596              		.cfi_restore 6
 4597              		.cfi_def_cfa_offset 12
 4598 0277 5F       		popl	%edi
 4599              		.cfi_restore 7
GAS LISTING /tmp/ccffpNMU.s 			page 89


 4600              		.cfi_def_cfa_offset 8
 4601 0278 5D       		popl	%ebp
 4602              		.cfi_restore 5
 4603              		.cfi_def_cfa_offset 4
 4604 0279 C3       		ret
 4605              	.LVL298:
 4606 027a 8DB60000 		.p2align 4,,10
 4606      0000
 4607              		.p2align 3
 4608              	.L109:
 4609              		.cfi_restore_state
 4610              	.LBB957:
 4611              	.LBB894:
 4612              		.loc 1 287 7 is_stmt 1 view .LVU970
 4613 0280 FF742410 		pushl	16(%esp)
 4614              		.cfi_def_cfa_offset 84
 4615 0284 FF742410 		pushl	16(%esp)
 4616              		.cfi_def_cfa_offset 88
 4617 0288 56       		pushl	%esi
 4618              		.cfi_def_cfa_offset 92
 4619 0289 57       		pushl	%edi
 4620              		.cfi_def_cfa_offset 96
 4621 028a E8FCFFFF 		call	clASetTargetPosition@PLT
 4621      FF
 4622              	.LVL299:
 4623 028f 83C410   		addl	$16, %esp
 4624              		.cfi_def_cfa_offset 80
 4625 0292 E93BFEFF 		jmp	.L110
 4625      FF
 4626 0297 8DB42600 		.p2align 4,,10
 4626      00000066 
 4626      90
 4627              		.p2align 3
 4628              	.L111:
 4629              		.loc 1 294 7 view .LVU971
 4630 02a0 FF742420 		pushl	32(%esp)
 4631              		.cfi_def_cfa_offset 84
 4632 02a4 FF742418 		pushl	24(%esp)
 4633              		.cfi_def_cfa_offset 88
 4634 02a8 56       		pushl	%esi
 4635              		.cfi_def_cfa_offset 92
 4636 02a9 57       		pushl	%edi
 4637              		.cfi_def_cfa_offset 96
 4638 02aa E8FCFFFF 		call	clASetTargetPosition@PLT
 4638      FF
 4639              	.LVL300:
 4640 02af 83C410   		addl	$16, %esp
 4641              		.cfi_def_cfa_offset 80
 4642 02b2 E91BFEFF 		jmp	.L110
 4642      FF
 4643              	.LVL301:
 4644 02b7 8DB42600 		.p2align 4,,10
 4644      00000066 
 4644      90
 4645              		.p2align 3
 4646              	.L118:
 4647              		.loc 1 294 7 is_stmt 0 view .LVU972
GAS LISTING /tmp/ccffpNMU.s 			page 90


 4648              	.LBE894:
 4649              	.LBE957:
 4650              	.LBB958:
 4651              	.LBB927:
 4652              		.loc 1 317 7 is_stmt 1 view .LVU973
 4653 02c0 FF742428 		pushl	40(%esp)
 4654              		.cfi_def_cfa_offset 84
 4655 02c4 FF742410 		pushl	16(%esp)
 4656              		.cfi_def_cfa_offset 88
 4657 02c8 56       		pushl	%esi
 4658              		.cfi_def_cfa_offset 92
 4659 02c9 57       		pushl	%edi
 4660              		.cfi_def_cfa_offset 96
 4661 02ca E8FCFFFF 		call	clASetTargetPosition@PLT
 4661      FF
 4662              	.LVL302:
 4663 02cf 83C410   		addl	$16, %esp
 4664              		.cfi_def_cfa_offset 80
 4665 02d2 E90BFFFF 		jmp	.L119
 4665      FF
 4666 02d7 8DB42600 		.p2align 4,,10
 4666      00000066 
 4666      90
 4667              		.p2align 3
 4668              	.L120:
 4669              		.loc 1 324 7 view .LVU974
 4670 02e0 FF742420 		pushl	32(%esp)
 4671              		.cfi_def_cfa_offset 84
 4672 02e4 FF742418 		pushl	24(%esp)
 4673              		.cfi_def_cfa_offset 88
 4674 02e8 56       		pushl	%esi
 4675              		.cfi_def_cfa_offset 92
 4676 02e9 57       		pushl	%edi
 4677              		.cfi_def_cfa_offset 96
 4678 02ea E8FCFFFF 		call	clASetTargetPosition@PLT
 4678      FF
 4679              	.LVL303:
 4680 02ef 83C410   		addl	$16, %esp
 4681              		.cfi_def_cfa_offset 80
 4682 02f2 E9EBFEFF 		jmp	.L119
 4682      FF
 4683              	.LVL304:
 4684              	.L136:
 4685              		.loc 1 324 7 is_stmt 0 view .LVU975
 4686              	.LBE927:
 4687              	.LBE958:
 4688              	.LBB959:
 4689              	.LBB949:
 4690              	.LBB945:
 4691              	.LBB936:
 4692              		.loc 2 271 5 is_stmt 1 view .LVU976
 4693 02f7 83EC0C   		subl	$12, %esp
 4694              		.cfi_def_cfa_offset 92
 4695 02fa FF742460 		pushl	96(%esp)
 4696              		.cfi_def_cfa_offset 96
 4697 02fe E8FCFFFF 		call	chSemSignalI@PLT
 4697      FF
GAS LISTING /tmp/ccffpNMU.s 			page 91


 4698              	.LVL305:
 4699 0303 83C410   		addl	$16, %esp
 4700              		.cfi_def_cfa_offset 80
 4701 0306 E92DFFFF 		jmp	.L123
 4701      FF
 4702              	.LVL306:
 4703              	.L133:
 4704              		.loc 2 271 5 is_stmt 0 view .LVU977
 4705              	.LBE936:
 4706              	.LBE945:
 4707              	.LBE949:
 4708              	.LBE959:
 4709              	.LBB960:
 4710              	.LBB916:
 4711              	.LBB912:
 4712              	.LBB903:
 4713              		.loc 2 271 5 is_stmt 1 view .LVU978
 4714 030b 83EC0C   		subl	$12, %esp
 4715              		.cfi_def_cfa_offset 92
 4716 030e FF742460 		pushl	96(%esp)
 4717              		.cfi_def_cfa_offset 96
 4718 0312 E8FCFFFF 		call	chSemSignalI@PLT
 4718      FF
 4719              	.LVL307:
 4720              		.loc 2 271 5 is_stmt 0 view .LVU979
 4721 0317 83C410   		addl	$16, %esp
 4722              		.cfi_def_cfa_offset 80
 4723 031a E909FEFF 		jmp	.L114
 4723      FF
 4724              	.LVL308:
 4725              	.L130:
 4726              		.loc 2 271 5 view .LVU980
 4727              	.LBE903:
 4728              	.LBE912:
 4729              	.LBE916:
 4730              	.LBE960:
 4731              	.LBB961:
 4732              	.LBB881:
 4733              	.LBB877:
 4734              	.LBB868:
 4735              		.loc 2 271 5 is_stmt 1 view .LVU981
 4736 031f 83EC0C   		subl	$12, %esp
 4737              		.cfi_def_cfa_offset 92
 4738 0322 FF742460 		pushl	96(%esp)
 4739              		.cfi_def_cfa_offset 96
 4740 0326 E8FCFFFF 		call	chSemSignalI@PLT
 4740      FF
 4741              	.LVL309:
 4742              		.loc 2 271 5 is_stmt 0 view .LVU982
 4743 032b 83C410   		addl	$16, %esp
 4744              		.cfi_def_cfa_offset 80
 4745 032e E9FEFCFF 		jmp	.L106
 4745      FF
 4746              	.LBE868:
 4747              	.LBE877:
 4748              	.LBE881:
 4749              	.LBE961:
GAS LISTING /tmp/ccffpNMU.s 			page 92


 4750              		.cfi_endproc
 4751              	.LFE230:
 4752              		.size	aniSquares, .-aniSquares
 4753              		.section	.text.aniStairs,"ax",@progbits
 4754              		.p2align 4,,15
 4755              		.globl	aniStairs
 4756              		.type	aniStairs, @function
 4757              	aniStairs:
 4758              	.LVL310:
 4759              	.LFB231:
 4760              		.loc 1 338 90 is_stmt 1 view -0
 4761              		.cfi_startproc
 4762              		.loc 1 338 90 is_stmt 0 view .LVU984
 4763 0000 55       		pushl	%ebp
 4764              		.cfi_def_cfa_offset 8
 4765              		.cfi_offset 5, -8
 4766 0001 57       		pushl	%edi
 4767              		.cfi_def_cfa_offset 12
 4768              		.cfi_offset 7, -12
 4769 0002 56       		pushl	%esi
 4770              		.cfi_def_cfa_offset 16
 4771              		.cfi_offset 6, -16
 4772              	.LBB1033:
 4773              	.LBB1034:
 4774              		.loc 2 143 10 view .LVU985
 4775 0003 31F6     		xorl	%esi, %esi
 4776              	.LBE1034:
 4777              	.LBE1033:
 4778              		.loc 1 338 90 view .LVU986
 4779 0005 53       		pushl	%ebx
 4780              		.cfi_def_cfa_offset 20
 4781              		.cfi_offset 3, -20
 4782 0006 E8FCFFFF 		call	__x86.get_pc_thunk.bx
 4782      FF
 4783 000b 81C30200 		addl	$_GLOBAL_OFFSET_TABLE_, %ebx
 4783      0000
 4784 0011 83EC18   		subl	$24, %esp
 4785              		.cfi_def_cfa_offset 44
 4786              		.loc 1 339 2 is_stmt 1 view .LVU987
 4787              	.LVL311:
 4788              		.loc 1 340 2 view .LVU988
 4789              		.loc 1 342 2 view .LVU989
 4790              	.LBB1038:
 4791              	.LBI1033:
 4792              		.loc 2 141 21 view .LVU990
 4793              	.LBB1035:
 4794              		.loc 2 143 3 view .LVU991
 4795              		.loc 2 143 10 is_stmt 0 view .LVU992
 4796 0014 FF74242C 		pushl	44(%esp)
 4797              		.cfi_def_cfa_offset 48
 4798 0018 E8FCFFFF 		call	chSemWait@PLT
 4798      FF
 4799              	.LVL312:
 4800              		.loc 2 143 10 view .LVU993
 4801              	.LBE1035:
 4802              	.LBE1038:
 4803              		.loc 1 344 2 is_stmt 1 view .LVU994
GAS LISTING /tmp/ccffpNMU.s 			page 93


 4804              	.LBB1039:
 4805              		.loc 1 344 7 view .LVU995
 4806              		.loc 1 344 7 is_stmt 0 view .LVU996
 4807              	.LBE1039:
 4808              	.LBB1041:
 4809              	.LBB1036:
 4810              		.loc 2 143 10 view .LVU997
 4811 001d 83C410   		addl	$16, %esp
 4812              		.cfi_def_cfa_offset 32
 4813              	.LVL313:
 4814              	.L138:
 4815              		.loc 2 143 10 view .LVU998
 4816 0020 89F5     		movl	%esi, %ebp
 4817              	.LBE1036:
 4818              	.LBE1041:
 4819              		.loc 1 338 90 view .LVU999
 4820 0022 31FF     		xorl	%edi, %edi
 4821 0024 83E501   		andl	$1, %ebp
 4822 0027 EB27     		jmp	.L143
 4823              	.LVL314:
 4824 0029 8DB42600 		.p2align 4,,10
 4824      000000
 4825              		.p2align 3
 4826              	.L166:
 4827              	.LBB1042:
 4828              	.LBB1040:
 4829              		.loc 1 347 5 is_stmt 1 view .LVU1000
 4830              		.loc 1 347 8 is_stmt 0 view .LVU1001
 4831 0030 84D2     		testb	%dl, %dl
 4832 0032 742B     		je	.L164
 4833              	.LVL315:
 4834              	.L142:
 4835              		.loc 1 357 6 is_stmt 1 view .LVU1002
 4836 0034 68000400 		pushl	$1024
 4836      00
 4837              		.cfi_def_cfa_offset 36
 4838 0039 68000200 		pushl	$512
 4838      00
 4839              		.cfi_def_cfa_offset 40
 4840 003e 56       		pushl	%esi
 4841              		.cfi_def_cfa_offset 44
 4842 003f 57       		pushl	%edi
 4843              		.cfi_def_cfa_offset 48
 4844 0040 83C701   		addl	$1, %edi
 4845              	.LVL316:
 4846              		.loc 1 357 6 is_stmt 0 view .LVU1003
 4847 0043 E8FCFFFF 		call	clASetTargetPosition@PLT
 4847      FF
 4848              	.LVL317:
 4849 0048 83C410   		addl	$16, %esp
 4850              		.cfi_def_cfa_offset 32
 4851              		.loc 1 345 3 view .LVU1004
 4852 004b 83FF08   		cmpl	$8, %edi
 4853 004e 7428     		je	.L165
 4854              	.L143:
 4855              	.LVL318:
 4856              		.loc 1 346 4 is_stmt 1 view .LVU1005
GAS LISTING /tmp/ccffpNMU.s 			page 94


 4857 0050 89FA     		movl	%edi, %edx
 4858              		.loc 1 346 7 is_stmt 0 view .LVU1006
 4859 0052 89E8     		movl	%ebp, %eax
 4860 0054 83E201   		andl	$1, %edx
 4861 0057 84C0     		testb	%al, %al
 4862 0059 75D5     		jne	.L166
 4863              		.loc 1 353 5 is_stmt 1 view .LVU1007
 4864              		.loc 1 353 8 is_stmt 0 view .LVU1008
 4865 005b 84D2     		testb	%dl, %dl
 4866 005d 74D5     		je	.L142
 4867              	.LVL319:
 4868              	.L164:
 4869              		.loc 1 354 6 is_stmt 1 view .LVU1009
 4870 005f 68000600 		pushl	$1536
 4870      00
 4871              		.cfi_def_cfa_offset 36
 4872 0064 6A00     		pushl	$0
 4873              		.cfi_def_cfa_offset 40
 4874 0066 56       		pushl	%esi
 4875              		.cfi_def_cfa_offset 44
 4876 0067 57       		pushl	%edi
 4877              		.cfi_def_cfa_offset 48
 4878 0068 83C701   		addl	$1, %edi
 4879 006b E8FCFFFF 		call	clASetTargetPosition@PLT
 4879      FF
 4880              	.LVL320:
 4881 0070 83C410   		addl	$16, %esp
 4882              		.cfi_def_cfa_offset 32
 4883              		.loc 1 345 3 is_stmt 0 view .LVU1010
 4884 0073 83FF08   		cmpl	$8, %edi
 4885 0076 75D8     		jne	.L143
 4886              	.L165:
 4887              	.LVL321:
 4888              		.loc 1 345 3 view .LVU1011
 4889 0078 83C601   		addl	$1, %esi
 4890              	.LVL322:
 4891              		.loc 1 345 3 view .LVU1012
 4892              	.LBE1040:
 4893              		.loc 1 344 2 discriminator 2 view .LVU1013
 4894 007b 83FE03   		cmpl	$3, %esi
 4895 007e 75A0     		jne	.L138
 4896              	.LBE1042:
 4897              		.loc 1 363 2 is_stmt 1 view .LVU1014
 4898              	.LVL323:
 4899              	.LBB1043:
 4900              	.LBI1043:
 4901              		.loc 2 282 20 view .LVU1015
 4902              	.LBB1044:
 4903              		.loc 2 284 3 view .LVU1016
 4904              	.LBB1045:
 4905              	.LBI1045:
 4906              		.loc 3 353 20 view .LVU1017
 4907              	.LBE1045:
 4908              	.LBE1044:
 4909              	.LBE1043:
 4910              		.loc 3 355 3 view .LVU1018
 4911              	.LBB1075:
GAS LISTING /tmp/ccffpNMU.s 			page 95


 4912              	.LBB1071:
 4913              	.LBB1052:
 4914              	.LBB1046:
 4915              	.LBI1046:
 4916              		.loc 4 362 20 view .LVU1019
 4917              	.LBB1047:
 4918              		.loc 4 364 3 view .LVU1020
 4919              	.LBE1047:
 4920              	.LBE1046:
 4921              	.LBE1052:
 4922              	.LBB1053:
 4923              	.LBB1054:
 4924              		.loc 2 270 6 is_stmt 0 view .LVU1021
 4925 0080 8B442424 		movl	36(%esp), %eax
 4926              	.LBE1054:
 4927              	.LBE1053:
 4928              	.LBB1058:
 4929              	.LBB1050:
 4930              	.LBB1048:
 4931              		.loc 4 364 16 view .LVU1022
 4932 0084 8BAB0000 		movl	port_irq_sts@GOT(%ebx), %ebp
 4932      0000
 4933              	.LBE1048:
 4934              	.LBE1050:
 4935              	.LBE1058:
 4936              	.LBB1059:
 4937              	.LBB1055:
 4938              		.loc 2 270 6 view .LVU1023
 4939 008a 8B7808   		movl	8(%eax), %edi
 4940              	.LBE1055:
 4941              	.LBE1059:
 4942              	.LBB1060:
 4943              	.LBB1051:
 4944              	.LBB1049:
 4945              		.loc 4 364 16 view .LVU1024
 4946 008d C7450001 		movl	$1, 0(%ebp)
 4946      000000
 4947              	.LBE1049:
 4948              	.LBE1051:
 4949              	.LBE1060:
 4950              	.LBE1071:
 4951              	.LBE1075:
 4952              		.loc 3 356 34 is_stmt 1 view .LVU1025
 4953              		.loc 3 357 20 view .LVU1026
 4954              	.LBB1076:
 4955              	.LBB1072:
 4956              		.loc 2 285 3 view .LVU1027
 4957              	.LVL324:
 4958              	.LBB1061:
 4959              	.LBI1053:
 4960              		.loc 2 266 20 view .LVU1028
 4961              	.LBB1056:
 4962              		.loc 2 268 21 view .LVU1029
 4963              		.loc 2 270 3 view .LVU1030
 4964              		.loc 2 270 6 is_stmt 0 view .LVU1031
 4965 0094 85FF     		testl	%edi, %edi
 4966 0096 0F8E4601 		jle	.L167
GAS LISTING /tmp/ccffpNMU.s 			page 96


 4966      0000
 4967              	.L145:
 4968              	.LVL325:
 4969              		.loc 2 270 6 view .LVU1032
 4970              	.LBE1056:
 4971              	.LBE1061:
 4972              		.loc 2 286 3 is_stmt 1 view .LVU1033
 4973 009c E8FCFFFF 		call	chSchRescheduleS@PLT
 4973      FF
 4974              	.LVL326:
 4975              		.loc 2 287 3 view .LVU1034
 4976              	.LBB1062:
 4977              	.LBI1062:
 4978              		.loc 3 365 20 view .LVU1035
 4979              	.LBB1063:
 4980              		.loc 3 367 22 view .LVU1036
 4981              		.loc 3 368 33 view .LVU1037
 4982              		.loc 3 374 3 view .LVU1038
 4983              		.loc 3 374 3 view .LVU1039
 4984              		.loc 3 378 3 view .LVU1040
 4985              	.LBB1064:
 4986              	.LBI1064:
 4987              		.loc 4 371 20 view .LVU1041
 4988              	.LBB1065:
 4989              		.loc 4 373 3 view .LVU1042
 4990              	.LBE1065:
 4991              	.LBE1064:
 4992              	.LBE1063:
 4993              	.LBE1062:
 4994              	.LBE1072:
 4995              	.LBE1076:
 4996              	.LBB1077:
 4997              	.LBB1078:
 4998              		.loc 2 143 10 is_stmt 0 view .LVU1043
 4999 00a1 83EC0C   		subl	$12, %esp
 5000              		.cfi_def_cfa_offset 44
 5001              	.LBE1078:
 5002              	.LBE1077:
 5003              	.LBB1082:
 5004              	.LBB1073:
 5005              	.LBB1069:
 5006              	.LBB1068:
 5007              	.LBB1067:
 5008              	.LBB1066:
 5009              		.loc 4 373 16 view .LVU1044
 5010 00a4 C7450000 		movl	$0, 0(%ebp)
 5010      000000
 5011              	.LVL327:
 5012              		.loc 4 373 16 view .LVU1045
 5013              	.LBE1066:
 5014              	.LBE1067:
 5015              	.LBE1068:
 5016              	.LBE1069:
 5017              	.LBE1073:
 5018              	.LBE1082:
 5019              		.loc 1 364 2 is_stmt 1 view .LVU1046
 5020              	.LBB1083:
GAS LISTING /tmp/ccffpNMU.s 			page 97


 5021              	.LBI1077:
 5022              		.loc 2 141 21 view .LVU1047
 5023              	.LBB1079:
 5024              		.loc 2 143 3 view .LVU1048
 5025              		.loc 2 143 10 is_stmt 0 view .LVU1049
 5026 00ab 31F6     		xorl	%esi, %esi
 5027 00ad FF74242C 		pushl	44(%esp)
 5028              		.cfi_def_cfa_offset 48
 5029 00b1 E8FCFFFF 		call	chSemWait@PLT
 5029      FF
 5030              	.LVL328:
 5031              		.loc 2 143 10 view .LVU1050
 5032              	.LBE1079:
 5033              	.LBE1083:
 5034              		.loc 1 366 2 is_stmt 1 view .LVU1051
 5035              	.LBB1084:
 5036              		.loc 1 366 7 view .LVU1052
 5037              		.loc 1 366 7 is_stmt 0 view .LVU1053
 5038              	.LBE1084:
 5039              	.LBB1086:
 5040              	.LBB1080:
 5041              		.loc 2 143 10 view .LVU1054
 5042 00b6 83C410   		addl	$16, %esp
 5043              		.cfi_def_cfa_offset 32
 5044              	.LVL329:
 5045              	.L146:
 5046              		.loc 2 143 10 view .LVU1055
 5047              	.LBE1080:
 5048              	.LBE1086:
 5049              	.LBB1087:
 5050              	.LBB1037:
 5051 00b9 31FF     		xorl	%edi, %edi
 5052              	.LVL330:
 5053 00bb 8D742600 		.p2align 4,,10
 5053      90
 5054              		.p2align 3
 5055              	.L147:
 5056              		.loc 2 143 10 view .LVU1056
 5057              	.LBE1037:
 5058              	.LBE1087:
 5059              	.LBB1088:
 5060              	.LBB1085:
 5061              		.loc 1 368 4 is_stmt 1 discriminator 3 view .LVU1057
 5062 00c0 68000200 		pushl	$512
 5062      00
 5063              		.cfi_def_cfa_offset 36
 5064 00c5 68000200 		pushl	$512
 5064      00
 5065              		.cfi_def_cfa_offset 40
 5066 00ca 56       		pushl	%esi
 5067              		.cfi_def_cfa_offset 44
 5068 00cb 57       		pushl	%edi
 5069              		.cfi_def_cfa_offset 48
 5070 00cc 83C701   		addl	$1, %edi
 5071              	.LVL331:
 5072              		.loc 1 368 4 is_stmt 0 discriminator 3 view .LVU1058
 5073 00cf E8FCFFFF 		call	clASetTargetRelative@PLT
GAS LISTING /tmp/ccffpNMU.s 			page 98


 5073      FF
 5074              	.LVL332:
 5075              		.loc 1 367 3 discriminator 3 view .LVU1059
 5076 00d4 83C410   		addl	$16, %esp
 5077              		.cfi_def_cfa_offset 32
 5078 00d7 83FF08   		cmpl	$8, %edi
 5079 00da 75E4     		jne	.L147
 5080              	.LVL333:
 5081              		.loc 1 367 3 discriminator 3 view .LVU1060
 5082 00dc 83C601   		addl	$1, %esi
 5083              	.LVL334:
 5084              		.loc 1 367 3 discriminator 3 view .LVU1061
 5085              	.LBE1085:
 5086              		.loc 1 366 2 discriminator 2 view .LVU1062
 5087 00df 83FE03   		cmpl	$3, %esi
 5088 00e2 75D5     		jne	.L146
 5089              	.LBE1088:
 5090              		.loc 1 371 2 is_stmt 1 view .LVU1063
 5091              	.LVL335:
 5092              	.LBB1089:
 5093              	.LBI1089:
 5094              		.loc 2 282 20 view .LVU1064
 5095              	.LBB1090:
 5096              		.loc 2 284 3 view .LVU1065
 5097              	.LBB1091:
 5098              	.LBI1091:
 5099              		.loc 3 353 20 view .LVU1066
 5100              	.LBE1091:
 5101              	.LBE1090:
 5102              	.LBE1089:
 5103              		.loc 3 355 3 view .LVU1067
 5104              	.LBB1116:
 5105              	.LBB1112:
 5106              	.LBB1096:
 5107              	.LBB1092:
 5108              	.LBI1092:
 5109              		.loc 4 362 20 view .LVU1068
 5110              	.LBB1093:
 5111              		.loc 4 364 3 view .LVU1069
 5112              	.LBE1093:
 5113              	.LBE1092:
 5114              	.LBE1096:
 5115              	.LBB1097:
 5116              	.LBB1098:
 5117              		.loc 2 270 6 is_stmt 0 view .LVU1070
 5118 00e4 8B442424 		movl	36(%esp), %eax
 5119              	.LBE1098:
 5120              	.LBE1097:
 5121              	.LBB1101:
 5122              	.LBB1095:
 5123              	.LBB1094:
 5124              		.loc 4 364 16 view .LVU1071
 5125 00e8 C7450001 		movl	$1, 0(%ebp)
 5125      000000
 5126              	.LBE1094:
 5127              	.LBE1095:
 5128              	.LBE1101:
GAS LISTING /tmp/ccffpNMU.s 			page 99


 5129              	.LBE1112:
 5130              	.LBE1116:
 5131              		.loc 3 356 34 is_stmt 1 view .LVU1072
 5132              		.loc 3 357 20 view .LVU1073
 5133              	.LBB1117:
 5134              	.LBB1113:
 5135              		.loc 2 285 3 view .LVU1074
 5136              	.LVL336:
 5137              	.LBB1102:
 5138              	.LBI1097:
 5139              		.loc 2 266 20 view .LVU1075
 5140              	.LBB1099:
 5141              		.loc 2 268 21 view .LVU1076
 5142              		.loc 2 270 3 view .LVU1077
 5143              		.loc 2 270 6 is_stmt 0 view .LVU1078
 5144 00ef 8B7008   		movl	8(%eax), %esi
 5145 00f2 85F6     		testl	%esi, %esi
 5146 00f4 0F8E3501 		jle	.L168
 5146      0000
 5147              	.L149:
 5148              	.LVL337:
 5149              		.loc 2 270 6 view .LVU1079
 5150              	.LBE1099:
 5151              	.LBE1102:
 5152              		.loc 2 286 3 is_stmt 1 view .LVU1080
 5153 00fa E8FCFFFF 		call	chSchRescheduleS@PLT
 5153      FF
 5154              	.LVL338:
 5155              		.loc 2 287 3 view .LVU1081
 5156              	.LBB1103:
 5157              	.LBI1103:
 5158              		.loc 3 365 20 view .LVU1082
 5159              	.LBB1104:
 5160              		.loc 3 367 22 view .LVU1083
 5161              		.loc 3 368 33 view .LVU1084
 5162              		.loc 3 374 3 view .LVU1085
 5163              		.loc 3 374 3 view .LVU1086
 5164              		.loc 3 378 3 view .LVU1087
 5165              	.LBB1105:
 5166              	.LBI1105:
 5167              		.loc 4 371 20 view .LVU1088
 5168              	.LBB1106:
 5169              		.loc 4 373 3 view .LVU1089
 5170              	.LBE1106:
 5171              	.LBE1105:
 5172              	.LBE1104:
 5173              	.LBE1103:
 5174              	.LBE1113:
 5175              	.LBE1117:
 5176              	.LBB1118:
 5177              	.LBB1119:
 5178              		.loc 2 143 10 is_stmt 0 view .LVU1090
 5179 00ff 83EC0C   		subl	$12, %esp
 5180              		.cfi_def_cfa_offset 44
 5181              	.LBE1119:
 5182              	.LBE1118:
 5183              	.LBB1123:
GAS LISTING /tmp/ccffpNMU.s 			page 100


 5184              	.LBB1114:
 5185              	.LBB1110:
 5186              	.LBB1109:
 5187              	.LBB1108:
 5188              	.LBB1107:
 5189              		.loc 4 373 16 view .LVU1091
 5190 0102 C7450000 		movl	$0, 0(%ebp)
 5190      000000
 5191              	.LVL339:
 5192              		.loc 4 373 16 view .LVU1092
 5193              	.LBE1107:
 5194              	.LBE1108:
 5195              	.LBE1109:
 5196              	.LBE1110:
 5197              	.LBE1114:
 5198              	.LBE1123:
 5199              		.loc 1 372 2 is_stmt 1 view .LVU1093
 5200              	.LBB1124:
 5201              	.LBI1118:
 5202              		.loc 2 141 21 view .LVU1094
 5203              	.LBB1120:
 5204              		.loc 2 143 3 view .LVU1095
 5205              		.loc 2 143 10 is_stmt 0 view .LVU1096
 5206 0109 31F6     		xorl	%esi, %esi
 5207 010b FF74242C 		pushl	44(%esp)
 5208              		.cfi_def_cfa_offset 48
 5209 010f E8FCFFFF 		call	chSemWait@PLT
 5209      FF
 5210              	.LVL340:
 5211              		.loc 2 143 10 view .LVU1097
 5212              	.LBE1120:
 5213              	.LBE1124:
 5214              		.loc 1 374 2 is_stmt 1 view .LVU1098
 5215              	.LBB1125:
 5216              		.loc 1 374 7 view .LVU1099
 5217              		.loc 1 374 7 is_stmt 0 view .LVU1100
 5218              	.LBE1125:
 5219              	.LBB1127:
 5220              	.LBB1121:
 5221              		.loc 2 143 10 view .LVU1101
 5222 0114 83C410   		addl	$16, %esp
 5223              		.cfi_def_cfa_offset 32
 5224              	.LVL341:
 5225              	.L150:
 5226              		.loc 2 143 10 view .LVU1102
 5227              	.LBE1121:
 5228              	.LBE1127:
 5229              	.LBB1128:
 5230              	.LBB1081:
 5231 0117 31FF     		xorl	%edi, %edi
 5232              	.LVL342:
 5233 0119 8DB42600 		.p2align 4,,10
 5233      000000
 5234              		.p2align 3
 5235              	.L151:
 5236              		.loc 2 143 10 view .LVU1103
 5237              	.LBE1081:
GAS LISTING /tmp/ccffpNMU.s 			page 101


 5238              	.LBE1128:
 5239              	.LBB1129:
 5240              	.LBB1126:
 5241              		.loc 1 376 4 is_stmt 1 discriminator 3 view .LVU1104
 5242 0120 68000200 		pushl	$512
 5242      00
 5243              		.cfi_def_cfa_offset 36
 5244 0125 68000200 		pushl	$512
 5244      00
 5245              		.cfi_def_cfa_offset 40
 5246 012a 56       		pushl	%esi
 5247              		.cfi_def_cfa_offset 44
 5248 012b 57       		pushl	%edi
 5249              		.cfi_def_cfa_offset 48
 5250 012c 83C701   		addl	$1, %edi
 5251              	.LVL343:
 5252              		.loc 1 376 4 is_stmt 0 discriminator 3 view .LVU1105
 5253 012f E8FCFFFF 		call	clASetTargetRelative@PLT
 5253      FF
 5254              	.LVL344:
 5255              		.loc 1 375 3 discriminator 3 view .LVU1106
 5256 0134 83C410   		addl	$16, %esp
 5257              		.cfi_def_cfa_offset 32
 5258 0137 83FF08   		cmpl	$8, %edi
 5259 013a 75E4     		jne	.L151
 5260              	.LVL345:
 5261              		.loc 1 375 3 discriminator 3 view .LVU1107
 5262 013c 83C601   		addl	$1, %esi
 5263              	.LVL346:
 5264              		.loc 1 375 3 discriminator 3 view .LVU1108
 5265              	.LBE1126:
 5266              		.loc 1 374 2 discriminator 2 view .LVU1109
 5267 013f 83FE03   		cmpl	$3, %esi
 5268 0142 75D3     		jne	.L150
 5269              	.LBE1129:
 5270              		.loc 1 379 2 is_stmt 1 view .LVU1110
 5271              	.LVL347:
 5272              	.LBB1130:
 5273              	.LBI1130:
 5274              		.loc 2 282 20 view .LVU1111
 5275              	.LBB1131:
 5276              		.loc 2 284 3 view .LVU1112
 5277              	.LBB1132:
 5278              	.LBI1132:
 5279              		.loc 3 353 20 view .LVU1113
 5280              	.LBE1132:
 5281              	.LBE1131:
 5282              	.LBE1130:
 5283              		.loc 3 355 3 view .LVU1114
 5284              	.LBB1148:
 5285              	.LBB1145:
 5286              	.LBB1137:
 5287              	.LBB1133:
 5288              	.LBI1133:
 5289              		.loc 4 362 20 view .LVU1115
 5290              	.LBB1134:
 5291              		.loc 4 364 3 view .LVU1116
GAS LISTING /tmp/ccffpNMU.s 			page 102


 5292              	.LBE1134:
 5293              	.LBE1133:
 5294              	.LBE1137:
 5295              	.LBB1138:
 5296              	.LBB1139:
 5297              		.loc 2 270 6 is_stmt 0 view .LVU1117
 5298 0144 8B442424 		movl	36(%esp), %eax
 5299              	.LBE1139:
 5300              	.LBE1138:
 5301              	.LBB1142:
 5302              	.LBB1136:
 5303              	.LBB1135:
 5304              		.loc 4 364 16 view .LVU1118
 5305 0148 C7450001 		movl	$1, 0(%ebp)
 5305      000000
 5306              	.LBE1135:
 5307              	.LBE1136:
 5308              	.LBE1142:
 5309              	.LBE1145:
 5310              	.LBE1148:
 5311              		.loc 3 356 34 is_stmt 1 view .LVU1119
 5312              		.loc 3 357 20 view .LVU1120
 5313              	.LBB1149:
 5314              	.LBB1146:
 5315              		.loc 2 285 3 view .LVU1121
 5316              	.LVL348:
 5317              	.LBB1143:
 5318              	.LBI1138:
 5319              		.loc 2 266 20 view .LVU1122
 5320              	.LBB1140:
 5321              		.loc 2 268 21 view .LVU1123
 5322              		.loc 2 270 3 view .LVU1124
 5323              		.loc 2 270 6 is_stmt 0 view .LVU1125
 5324 014f 8B4808   		movl	8(%eax), %ecx
 5325 0152 85C9     		testl	%ecx, %ecx
 5326 0154 0F8EC100 		jle	.L169
 5326      0000
 5327              	.L153:
 5328              	.LVL349:
 5329              		.loc 2 270 6 view .LVU1126
 5330              	.LBE1140:
 5331              	.LBE1143:
 5332              		.loc 2 286 3 is_stmt 1 view .LVU1127
 5333 015a E8FCFFFF 		call	chSchRescheduleS@PLT
 5333      FF
 5334              	.LVL350:
 5335              		.loc 2 287 3 view .LVU1128
 5336              	.LBE1146:
 5337              	.LBE1149:
 5338              		.loc 3 367 22 view .LVU1129
 5339              		.loc 3 368 33 view .LVU1130
 5340              		.loc 3 374 3 view .LVU1131
 5341              		.loc 3 374 3 view .LVU1132
 5342              		.loc 3 378 3 view .LVU1133
 5343              		.loc 4 373 3 view .LVU1134
 5344              		.loc 1 380 2 view .LVU1135
 5345              	.LBB1150:
GAS LISTING /tmp/ccffpNMU.s 			page 103


 5346              	.LBI1150:
 5347              		.loc 2 282 20 view .LVU1136
 5348              	.LBB1151:
 5349              		.loc 2 284 3 view .LVU1137
 5350              	.LBB1152:
 5351              	.LBI1152:
 5352              		.loc 3 353 20 view .LVU1138
 5353              	.LBE1152:
 5354              	.LBE1151:
 5355              	.LBE1150:
 5356              		.loc 3 355 3 view .LVU1139
 5357              	.LBB1177:
 5358              	.LBB1173:
 5359              	.LBB1157:
 5360              	.LBB1153:
 5361              	.LBI1153:
 5362              		.loc 4 362 20 view .LVU1140
 5363              	.LBB1154:
 5364              		.loc 4 364 3 view .LVU1141
 5365              	.LBE1154:
 5366              	.LBE1153:
 5367              	.LBE1157:
 5368              	.LBB1158:
 5369              	.LBB1159:
 5370              		.loc 2 270 6 is_stmt 0 view .LVU1142
 5371 015f 8B442424 		movl	36(%esp), %eax
 5372              	.LBE1159:
 5373              	.LBE1158:
 5374              	.LBB1162:
 5375              	.LBB1156:
 5376              	.LBB1155:
 5377              		.loc 4 364 16 view .LVU1143
 5378 0163 C7450001 		movl	$1, 0(%ebp)
 5378      000000
 5379              	.LBE1155:
 5380              	.LBE1156:
 5381              	.LBE1162:
 5382              	.LBE1173:
 5383              	.LBE1177:
 5384              		.loc 3 356 34 is_stmt 1 view .LVU1144
 5385              		.loc 3 357 20 view .LVU1145
 5386              	.LBB1178:
 5387              	.LBB1174:
 5388              		.loc 2 285 3 view .LVU1146
 5389              	.LVL351:
 5390              	.LBB1163:
 5391              	.LBI1158:
 5392              		.loc 2 266 20 view .LVU1147
 5393              	.LBB1160:
 5394              		.loc 2 268 21 view .LVU1148
 5395              		.loc 2 270 3 view .LVU1149
 5396              		.loc 2 270 6 is_stmt 0 view .LVU1150
 5397 016a 8B5008   		movl	8(%eax), %edx
 5398 016d 85D2     		testl	%edx, %edx
 5399 016f 0F8E9200 		jle	.L170
 5399      0000
 5400              	.L154:
GAS LISTING /tmp/ccffpNMU.s 			page 104


 5401              	.LVL352:
 5402              		.loc 2 270 6 view .LVU1151
 5403              	.LBE1160:
 5404              	.LBE1163:
 5405              		.loc 2 286 3 is_stmt 1 view .LVU1152
 5406 0175 E8FCFFFF 		call	chSchRescheduleS@PLT
 5406      FF
 5407              	.LVL353:
 5408              		.loc 2 287 3 view .LVU1153
 5409              	.LBB1164:
 5410              	.LBI1164:
 5411              		.loc 3 365 20 view .LVU1154
 5412              	.LBB1165:
 5413              		.loc 3 367 22 view .LVU1155
 5414              		.loc 3 368 33 view .LVU1156
 5415              		.loc 3 374 3 view .LVU1157
 5416              		.loc 3 374 3 view .LVU1158
 5417              		.loc 3 378 3 view .LVU1159
 5418              	.LBB1166:
 5419              	.LBI1166:
 5420              		.loc 4 371 20 view .LVU1160
 5421              	.LBB1167:
 5422              		.loc 4 373 3 view .LVU1161
 5423              	.LBE1167:
 5424              	.LBE1166:
 5425              	.LBE1165:
 5426              	.LBE1164:
 5427              	.LBE1174:
 5428              	.LBE1178:
 5429              	.LBB1179:
 5430              	.LBB1180:
 5431              		.loc 2 143 10 is_stmt 0 view .LVU1162
 5432 017a 83EC0C   		subl	$12, %esp
 5433              		.cfi_def_cfa_offset 44
 5434              	.LBE1180:
 5435              	.LBE1179:
 5436              	.LBB1183:
 5437              	.LBB1175:
 5438              	.LBB1171:
 5439              	.LBB1170:
 5440              	.LBB1169:
 5441              	.LBB1168:
 5442              		.loc 4 373 16 view .LVU1163
 5443 017d C7450000 		movl	$0, 0(%ebp)
 5443      000000
 5444              	.LVL354:
 5445              		.loc 4 373 16 view .LVU1164
 5446              	.LBE1168:
 5447              	.LBE1169:
 5448              	.LBE1170:
 5449              	.LBE1171:
 5450              	.LBE1175:
 5451              	.LBE1183:
 5452              		.loc 1 381 2 is_stmt 1 view .LVU1165
 5453              	.LBB1184:
 5454              	.LBI1179:
 5455              		.loc 2 141 21 view .LVU1166
GAS LISTING /tmp/ccffpNMU.s 			page 105


 5456              	.LBB1181:
 5457              		.loc 2 143 3 view .LVU1167
 5458              		.loc 2 143 10 is_stmt 0 view .LVU1168
 5459 0184 31F6     		xorl	%esi, %esi
 5460 0186 FF74242C 		pushl	44(%esp)
 5461              		.cfi_def_cfa_offset 48
 5462 018a E8FCFFFF 		call	chSemWait@PLT
 5462      FF
 5463              	.LVL355:
 5464              		.loc 2 143 10 view .LVU1169
 5465              	.LBE1181:
 5466              	.LBE1184:
 5467              		.loc 1 383 2 is_stmt 1 view .LVU1170
 5468              	.LBB1185:
 5469              		.loc 1 383 7 view .LVU1171
 5470              		.loc 1 383 7 is_stmt 0 view .LVU1172
 5471              	.LBE1185:
 5472              	.LBB1187:
 5473              	.LBB1182:
 5474              		.loc 2 143 10 view .LVU1173
 5475 018f 83C410   		addl	$16, %esp
 5476              		.cfi_def_cfa_offset 32
 5477              	.LVL356:
 5478              	.L155:
 5479              		.loc 2 143 10 view .LVU1174
 5480              	.LBE1182:
 5481              	.LBE1187:
 5482              	.LBB1188:
 5483              	.LBB1122:
 5484 0192 31FF     		xorl	%edi, %edi
 5485              	.LVL357:
 5486              		.p2align 4,,10
 5487 0194 8D742600 		.p2align 3
 5488              	.L156:
 5489              		.loc 2 143 10 view .LVU1175
 5490              	.LBE1122:
 5491              	.LBE1188:
 5492              	.LBB1189:
 5493              	.LBB1186:
 5494              		.loc 1 385 4 is_stmt 1 discriminator 3 view .LVU1176
 5495 0198 68000200 		pushl	$512
 5495      00
 5496              		.cfi_def_cfa_offset 36
 5497 019d 68000200 		pushl	$512
 5497      00
 5498              		.cfi_def_cfa_offset 40
 5499 01a2 56       		pushl	%esi
 5500              		.cfi_def_cfa_offset 44
 5501 01a3 57       		pushl	%edi
 5502              		.cfi_def_cfa_offset 48
 5503 01a4 83C701   		addl	$1, %edi
 5504              	.LVL358:
 5505              		.loc 1 385 4 is_stmt 0 discriminator 3 view .LVU1177
 5506 01a7 E8FCFFFF 		call	clASetTargetRelative@PLT
 5506      FF
 5507              	.LVL359:
 5508              		.loc 1 384 3 discriminator 3 view .LVU1178
GAS LISTING /tmp/ccffpNMU.s 			page 106


 5509 01ac 83C410   		addl	$16, %esp
 5510              		.cfi_def_cfa_offset 32
 5511 01af 83FF08   		cmpl	$8, %edi
 5512 01b2 75E4     		jne	.L156
 5513              	.LVL360:
 5514              		.loc 1 384 3 discriminator 3 view .LVU1179
 5515 01b4 83C601   		addl	$1, %esi
 5516              	.LVL361:
 5517              		.loc 1 384 3 discriminator 3 view .LVU1180
 5518              	.LBE1186:
 5519              		.loc 1 383 2 discriminator 2 view .LVU1181
 5520 01b7 83FE03   		cmpl	$3, %esi
 5521 01ba 75D6     		jne	.L155
 5522              	.LBE1189:
 5523              		.loc 1 388 2 is_stmt 1 view .LVU1182
 5524              	.LVL362:
 5525              	.LBB1190:
 5526              	.LBI1190:
 5527              		.loc 2 282 20 view .LVU1183
 5528              	.LBB1191:
 5529              		.loc 2 284 3 view .LVU1184
 5530              	.LBB1192:
 5531              	.LBI1192:
 5532              		.loc 3 353 20 view .LVU1185
 5533              	.LBE1192:
 5534              	.LBE1191:
 5535              	.LBE1190:
 5536              		.loc 3 355 3 view .LVU1186
 5537              	.LBB1212:
 5538              	.LBB1209:
 5539              	.LBB1197:
 5540              	.LBB1193:
 5541              	.LBI1193:
 5542              		.loc 4 362 20 view .LVU1187
 5543              	.LBB1194:
 5544              		.loc 4 364 3 view .LVU1188
 5545              	.LBE1194:
 5546              	.LBE1193:
 5547              	.LBE1197:
 5548              	.LBB1198:
 5549              	.LBB1199:
 5550              		.loc 2 270 6 is_stmt 0 view .LVU1189
 5551 01bc 8B442424 		movl	36(%esp), %eax
 5552              	.LBE1199:
 5553              	.LBE1198:
 5554              	.LBB1202:
 5555              	.LBB1196:
 5556              	.LBB1195:
 5557              		.loc 4 364 16 view .LVU1190
 5558 01c0 C7450001 		movl	$1, 0(%ebp)
 5558      000000
 5559              	.LBE1195:
 5560              	.LBE1196:
 5561              	.LBE1202:
 5562              	.LBE1209:
 5563              	.LBE1212:
 5564              		.loc 3 356 34 is_stmt 1 view .LVU1191
GAS LISTING /tmp/ccffpNMU.s 			page 107


 5565              		.loc 3 357 20 view .LVU1192
 5566              	.LBB1213:
 5567              	.LBB1210:
 5568              		.loc 2 285 3 view .LVU1193
 5569              	.LVL363:
 5570              	.LBB1203:
 5571              	.LBI1198:
 5572              		.loc 2 266 20 view .LVU1194
 5573              	.LBB1200:
 5574              		.loc 2 268 21 view .LVU1195
 5575              		.loc 2 270 3 view .LVU1196
 5576              		.loc 2 270 6 is_stmt 0 view .LVU1197
 5577 01c7 8B4008   		movl	8(%eax), %eax
 5578 01ca 85C0     		testl	%eax, %eax
 5579 01cc 7E28     		jle	.L171
 5580              	.L158:
 5581              	.LVL364:
 5582              		.loc 2 270 6 view .LVU1198
 5583              	.LBE1200:
 5584              	.LBE1203:
 5585              		.loc 2 286 3 is_stmt 1 view .LVU1199
 5586 01ce E8FCFFFF 		call	chSchRescheduleS@PLT
 5586      FF
 5587              	.LVL365:
 5588              		.loc 2 287 3 view .LVU1200
 5589              	.LBB1204:
 5590              	.LBI1204:
 5591              		.loc 3 365 20 view .LVU1201
 5592              	.LBB1205:
 5593              		.loc 3 367 22 view .LVU1202
 5594              		.loc 3 368 33 view .LVU1203
 5595              		.loc 3 374 3 view .LVU1204
 5596              		.loc 3 374 3 view .LVU1205
 5597              		.loc 3 378 3 view .LVU1206
 5598              	.LBB1206:
 5599              	.LBI1206:
 5600              		.loc 4 371 20 view .LVU1207
 5601              	.LBB1207:
 5602              		.loc 4 373 3 view .LVU1208
 5603              		.loc 4 373 16 is_stmt 0 view .LVU1209
 5604 01d3 C7450000 		movl	$0, 0(%ebp)
 5604      000000
 5605              	.LVL366:
 5606              		.loc 4 373 16 view .LVU1210
 5607              	.LBE1207:
 5608              	.LBE1206:
 5609              	.LBE1205:
 5610              	.LBE1204:
 5611              	.LBE1210:
 5612              	.LBE1213:
 5613              		.loc 1 390 1 view .LVU1211
 5614 01da 83C40C   		addl	$12, %esp
 5615              		.cfi_remember_state
 5616              		.cfi_def_cfa_offset 20
 5617 01dd 5B       		popl	%ebx
 5618              		.cfi_restore 3
 5619              		.cfi_def_cfa_offset 16
GAS LISTING /tmp/ccffpNMU.s 			page 108


 5620 01de 5E       		popl	%esi
 5621              		.cfi_restore 6
 5622              		.cfi_def_cfa_offset 12
 5623 01df 5F       		popl	%edi
 5624              		.cfi_restore 7
 5625              		.cfi_def_cfa_offset 8
 5626 01e0 5D       		popl	%ebp
 5627              		.cfi_restore 5
 5628              		.cfi_def_cfa_offset 4
 5629 01e1 C3       		ret
 5630              	.LVL367:
 5631              	.L167:
 5632              		.cfi_restore_state
 5633              	.LBB1214:
 5634              	.LBB1074:
 5635              	.LBB1070:
 5636              	.LBB1057:
 5637              		.loc 2 271 5 is_stmt 1 view .LVU1212
 5638 01e2 83EC0C   		subl	$12, %esp
 5639              		.cfi_def_cfa_offset 44
 5640 01e5 FF742430 		pushl	48(%esp)
 5641              		.cfi_def_cfa_offset 48
 5642 01e9 E8FCFFFF 		call	chSemSignalI@PLT
 5642      FF
 5643              	.LVL368:
 5644              		.loc 2 271 5 is_stmt 0 view .LVU1213
 5645 01ee 83C410   		addl	$16, %esp
 5646              		.cfi_def_cfa_offset 32
 5647 01f1 E9A6FEFF 		jmp	.L145
 5647      FF
 5648              	.LVL369:
 5649              	.L171:
 5650              		.loc 2 271 5 view .LVU1214
 5651              	.LBE1057:
 5652              	.LBE1070:
 5653              	.LBE1074:
 5654              	.LBE1214:
 5655              	.LBB1215:
 5656              	.LBB1211:
 5657              	.LBB1208:
 5658              	.LBB1201:
 5659              		.loc 2 271 5 is_stmt 1 view .LVU1215
 5660 01f6 83EC0C   		subl	$12, %esp
 5661              		.cfi_def_cfa_offset 44
 5662 01f9 FF742430 		pushl	48(%esp)
 5663              		.cfi_def_cfa_offset 48
 5664 01fd E8FCFFFF 		call	chSemSignalI@PLT
 5664      FF
 5665              	.LVL370:
 5666 0202 83C410   		addl	$16, %esp
 5667              		.cfi_def_cfa_offset 32
 5668 0205 EBC7     		jmp	.L158
 5669              	.LVL371:
 5670              	.L170:
 5671              		.loc 2 271 5 is_stmt 0 view .LVU1216
 5672              	.LBE1201:
 5673              	.LBE1208:
GAS LISTING /tmp/ccffpNMU.s 			page 109


 5674              	.LBE1211:
 5675              	.LBE1215:
 5676              	.LBB1216:
 5677              	.LBB1176:
 5678              	.LBB1172:
 5679              	.LBB1161:
 5680              		.loc 2 271 5 is_stmt 1 view .LVU1217
 5681 0207 83EC0C   		subl	$12, %esp
 5682              		.cfi_def_cfa_offset 44
 5683 020a FF742430 		pushl	48(%esp)
 5684              		.cfi_def_cfa_offset 48
 5685 020e E8FCFFFF 		call	chSemSignalI@PLT
 5685      FF
 5686              	.LVL372:
 5687              		.loc 2 271 5 is_stmt 0 view .LVU1218
 5688 0213 83C410   		addl	$16, %esp
 5689              		.cfi_def_cfa_offset 32
 5690 0216 E95AFFFF 		jmp	.L154
 5690      FF
 5691              	.LVL373:
 5692              	.L169:
 5693              		.loc 2 271 5 view .LVU1219
 5694              	.LBE1161:
 5695              	.LBE1172:
 5696              	.LBE1176:
 5697              	.LBE1216:
 5698              	.LBB1217:
 5699              	.LBB1147:
 5700              	.LBB1144:
 5701              	.LBB1141:
 5702              		.loc 2 271 5 is_stmt 1 view .LVU1220
 5703 021b 83EC0C   		subl	$12, %esp
 5704              		.cfi_def_cfa_offset 44
 5705 021e FF742430 		pushl	48(%esp)
 5706              		.cfi_def_cfa_offset 48
 5707 0222 E8FCFFFF 		call	chSemSignalI@PLT
 5707      FF
 5708              	.LVL374:
 5709              		.loc 2 271 5 is_stmt 0 view .LVU1221
 5710 0227 83C410   		addl	$16, %esp
 5711              		.cfi_def_cfa_offset 32
 5712 022a E92BFFFF 		jmp	.L153
 5712      FF
 5713              	.LVL375:
 5714              	.L168:
 5715              		.loc 2 271 5 view .LVU1222
 5716              	.LBE1141:
 5717              	.LBE1144:
 5718              	.LBE1147:
 5719              	.LBE1217:
 5720              	.LBB1218:
 5721              	.LBB1115:
 5722              	.LBB1111:
 5723              	.LBB1100:
 5724              		.loc 2 271 5 is_stmt 1 view .LVU1223
 5725 022f 83EC0C   		subl	$12, %esp
 5726              		.cfi_def_cfa_offset 44
GAS LISTING /tmp/ccffpNMU.s 			page 110


 5727 0232 FF742430 		pushl	48(%esp)
 5728              		.cfi_def_cfa_offset 48
 5729 0236 E8FCFFFF 		call	chSemSignalI@PLT
 5729      FF
 5730              	.LVL376:
 5731              		.loc 2 271 5 is_stmt 0 view .LVU1224
 5732 023b 83C410   		addl	$16, %esp
 5733              		.cfi_def_cfa_offset 32
 5734 023e E9B7FEFF 		jmp	.L149
 5734      FF
 5735              	.LBE1100:
 5736              	.LBE1111:
 5737              	.LBE1115:
 5738              	.LBE1218:
 5739              		.cfi_endproc
 5740              	.LFE231:
 5741              		.size	aniStairs, .-aniStairs
 5742              		.section	.text.aniFlower,"ax",@progbits
 5743              		.p2align 4,,15
 5744              		.globl	aniFlower
 5745              		.type	aniFlower, @function
 5746              	aniFlower:
 5747              	.LVL377:
 5748              	.LFB232:
 5749              		.loc 1 391 90 is_stmt 1 view -0
 5750              		.cfi_startproc
 5751              		.loc 1 391 90 is_stmt 0 view .LVU1226
 5752 0000 55       		pushl	%ebp
 5753              		.cfi_def_cfa_offset 8
 5754              		.cfi_offset 5, -8
 5755 0001 57       		pushl	%edi
 5756              		.cfi_def_cfa_offset 12
 5757              		.cfi_offset 7, -12
 5758 0002 56       		pushl	%esi
 5759              		.cfi_def_cfa_offset 16
 5760              		.cfi_offset 6, -16
 5761 0003 53       		pushl	%ebx
 5762              		.cfi_def_cfa_offset 20
 5763              		.cfi_offset 3, -20
 5764 0004 E8FCFFFF 		call	__x86.get_pc_thunk.bx
 5764      FF
 5765 0009 81C30200 		addl	$_GLOBAL_OFFSET_TABLE_, %ebx
 5765      0000
 5766 000f 83EC28   		subl	$40, %esp
 5767              		.cfi_def_cfa_offset 60
 5768              		.loc 1 392 2 is_stmt 1 view .LVU1227
 5769              	.LVL378:
 5770              		.loc 1 393 2 view .LVU1228
 5771              		.loc 1 395 2 view .LVU1229
 5772              	.LBB1246:
 5773              	.LBI1246:
 5774              		.loc 2 141 21 view .LVU1230
 5775              	.LBB1247:
 5776              		.loc 2 143 3 view .LVU1231
 5777              	.LBE1247:
 5778              	.LBE1246:
 5779              		.loc 1 391 90 is_stmt 0 view .LVU1232
GAS LISTING /tmp/ccffpNMU.s 			page 111


 5780 0012 8B74243C 		movl	60(%esp), %esi
 5781              	.LBB1249:
 5782              	.LBB1248:
 5783              		.loc 2 143 10 view .LVU1233
 5784 0016 56       		pushl	%esi
 5785              		.cfi_def_cfa_offset 64
 5786 0017 E8FCFFFF 		call	chSemWait@PLT
 5786      FF
 5787              	.LVL379:
 5788              		.loc 2 143 10 view .LVU1234
 5789              	.LBE1248:
 5790              	.LBE1249:
 5791              		.loc 1 397 2 is_stmt 1 view .LVU1235
 5792 001c 5A       		popl	%edx
 5793              		.cfi_def_cfa_offset 60
 5794 001d 59       		popl	%ecx
 5795              		.cfi_def_cfa_offset 56
 5796 001e 6800FEFF 		pushl	$-512
 5796      FF
 5797              		.cfi_def_cfa_offset 60
 5798 0023 68000200 		pushl	$512
 5798      00
 5799              		.cfi_def_cfa_offset 64
 5800 0028 E8FCFFFF 		call	clASetAllTargetpostion@PLT
 5800      FF
 5801              	.LVL380:
 5802              		.loc 1 398 2 view .LVU1236
 5803              	.LBB1250:
 5804              	.LBI1250:
 5805              		.loc 2 282 20 view .LVU1237
 5806              	.LBB1251:
 5807              		.loc 2 284 3 view .LVU1238
 5808              	.LBB1252:
 5809              	.LBI1252:
 5810              		.loc 3 353 20 view .LVU1239
 5811              	.LBE1252:
 5812              	.LBE1251:
 5813              	.LBE1250:
 5814              		.loc 3 355 3 view .LVU1240
 5815              	.LBB1282:
 5816              	.LBB1278:
 5817              	.LBB1259:
 5818              	.LBB1253:
 5819              	.LBI1253:
 5820              		.loc 4 362 20 view .LVU1241
 5821              	.LBB1254:
 5822              		.loc 4 364 3 view .LVU1242
 5823              	.LBE1254:
 5824              	.LBE1253:
 5825              	.LBE1259:
 5826              	.LBB1260:
 5827              	.LBB1261:
 5828              		.loc 2 270 6 is_stmt 0 view .LVU1243
 5829 002d 83C410   		addl	$16, %esp
 5830              		.cfi_def_cfa_offset 48
 5831 0030 8B442434 		movl	52(%esp), %eax
 5832              	.LBE1261:
GAS LISTING /tmp/ccffpNMU.s 			page 112


 5833              	.LBE1260:
 5834              	.LBB1265:
 5835              	.LBB1257:
 5836              	.LBB1255:
 5837              		.loc 4 364 16 view .LVU1244
 5838 0034 8BAB0000 		movl	port_irq_sts@GOT(%ebx), %ebp
 5838      0000
 5839              	.LBE1255:
 5840              	.LBE1257:
 5841              	.LBE1265:
 5842              	.LBB1266:
 5843              	.LBB1262:
 5844              		.loc 2 270 6 view .LVU1245
 5845 003a 8B7808   		movl	8(%eax), %edi
 5846              	.LBE1262:
 5847              	.LBE1266:
 5848              	.LBB1267:
 5849              	.LBB1258:
 5850              	.LBB1256:
 5851              		.loc 4 364 16 view .LVU1246
 5852 003d C7450001 		movl	$1, 0(%ebp)
 5852      000000
 5853              	.LBE1256:
 5854              	.LBE1258:
 5855              	.LBE1267:
 5856              	.LBE1278:
 5857              	.LBE1282:
 5858              		.loc 3 356 34 is_stmt 1 view .LVU1247
 5859              		.loc 3 357 20 view .LVU1248
 5860              	.LBB1283:
 5861              	.LBB1279:
 5862              		.loc 2 285 3 view .LVU1249
 5863              	.LBB1268:
 5864              	.LBI1260:
 5865              		.loc 2 266 20 view .LVU1250
 5866              	.LBB1263:
 5867              		.loc 2 268 21 view .LVU1251
 5868              		.loc 2 270 3 view .LVU1252
 5869              		.loc 2 270 6 is_stmt 0 view .LVU1253
 5870 0044 85FF     		testl	%edi, %edi
 5871 0046 0F8E7C01 		jle	.L178
 5871      0000
 5872              	.L173:
 5873              		.loc 2 270 6 view .LVU1254
 5874              	.LBE1263:
 5875              	.LBE1268:
 5876              		.loc 2 286 3 is_stmt 1 view .LVU1255
 5877 004c E8FCFFFF 		call	chSchRescheduleS@PLT
 5877      FF
 5878              	.LVL381:
 5879              		.loc 2 287 3 view .LVU1256
 5880              	.LBB1269:
 5881              	.LBI1269:
 5882              		.loc 3 365 20 view .LVU1257
 5883              	.LBB1270:
 5884              		.loc 3 367 22 view .LVU1258
 5885              		.loc 3 368 33 view .LVU1259
GAS LISTING /tmp/ccffpNMU.s 			page 113


 5886              		.loc 3 374 3 view .LVU1260
 5887              		.loc 3 374 3 view .LVU1261
 5888              		.loc 3 378 3 view .LVU1262
 5889              	.LBB1271:
 5890              	.LBI1271:
 5891              		.loc 4 371 20 view .LVU1263
 5892              	.LBB1272:
 5893              		.loc 4 373 3 view .LVU1264
 5894              	.LBE1272:
 5895              	.LBE1271:
 5896              	.LBE1270:
 5897              	.LBE1269:
 5898              	.LBE1279:
 5899              	.LBE1283:
 5900              	.LBB1284:
 5901              	.LBB1285:
 5902              		.loc 2 143 10 is_stmt 0 view .LVU1265
 5903 0051 83EC0C   		subl	$12, %esp
 5904              		.cfi_def_cfa_offset 60
 5905              	.LBE1285:
 5906              	.LBE1284:
 5907              	.LBB1288:
 5908              	.LBB1280:
 5909              	.LBB1276:
 5910              	.LBB1275:
 5911              	.LBB1274:
 5912              	.LBB1273:
 5913              		.loc 4 373 16 view .LVU1266
 5914 0054 C7450000 		movl	$0, 0(%ebp)
 5914      000000
 5915              	.LVL382:
 5916              		.loc 4 373 16 view .LVU1267
 5917              	.LBE1273:
 5918              	.LBE1274:
 5919              	.LBE1275:
 5920              	.LBE1276:
 5921              	.LBE1280:
 5922              	.LBE1288:
 5923              		.loc 1 400 2 is_stmt 1 view .LVU1268
 5924              	.LBB1289:
 5925              	.LBI1284:
 5926              		.loc 2 141 21 view .LVU1269
 5927              	.LBB1286:
 5928              		.loc 2 143 3 view .LVU1270
 5929              		.loc 2 143 10 is_stmt 0 view .LVU1271
 5930 005b 56       		pushl	%esi
 5931              		.cfi_def_cfa_offset 64
 5932 005c BE030000 		movl	$3, %esi
 5932      00
 5933 0061 E8FCFFFF 		call	chSemWait@PLT
 5933      FF
 5934              	.LVL383:
 5935              		.loc 2 143 10 view .LVU1272
 5936              	.LBE1286:
 5937              	.LBE1289:
 5938              		.loc 1 401 2 is_stmt 1 view .LVU1273
 5939              		.loc 1 402 2 view .LVU1274
GAS LISTING /tmp/ccffpNMU.s 			page 114


 5940              	.LBB1290:
 5941              		.loc 1 402 7 view .LVU1275
 5942              		.loc 1 402 7 is_stmt 0 view .LVU1276
 5943              	.LBE1290:
 5944              		.loc 1 401 8 view .LVU1277
 5945 0066 D9830000 		flds	.LC2@GOTOFF(%ebx)
 5945      0000
 5946              	.LBB1291:
 5947              	.LBB1287:
 5948              		.loc 2 143 10 view .LVU1278
 5949 006c 83C410   		addl	$16, %esp
 5950              		.cfi_def_cfa_offset 48
 5951              	.LVL384:
 5952              	.L174:
 5953              		.loc 2 143 10 view .LVU1279
 5954              	.LBE1287:
 5955              	.LBE1291:
 5956              	.LBB1292:
 5957              		.loc 1 403 3 is_stmt 1 discriminator 3 view .LVU1280
 5958 006f 83EC08   		subl	$8, %esp
 5959              		.cfi_def_cfa_offset 56
 5960 0072 BF070000 		movl	$7, %edi
 5960      00
 5961 0077 D9542404 		fsts	4(%esp)
 5962 007b 29F7     		subl	%esi, %edi
 5963 007d D91424   		fsts	(%esp)
 5964 0080 D95C2414 		fstps	20(%esp)
 5965 0084 6A01     		pushl	$1
 5966              		.cfi_def_cfa_offset 60
 5967 0086 56       		pushl	%esi
 5968              		.cfi_def_cfa_offset 64
 5969 0087 E8FCFFFF 		call	clASetMaxSpeed@PLT
 5969      FF
 5970              	.LVL385:
 5971              		.loc 1 404 3 discriminator 3 view .LVU1281
 5972 008c D944241C 		flds	28(%esp)
 5973 0090 83EC08   		subl	$8, %esp
 5974              		.cfi_def_cfa_offset 72
 5975 0093 D9542404 		fsts	4(%esp)
 5976 0097 D91424   		fsts	(%esp)
 5977 009a D95C2424 		fstps	36(%esp)
 5978              	.LVL386:
 5979              		.loc 1 404 3 is_stmt 0 discriminator 3 view .LVU1282
 5980 009e 6A01     		pushl	$1
 5981              		.cfi_def_cfa_offset 76
 5982 00a0 57       		pushl	%edi
 5983              		.cfi_def_cfa_offset 80
 5984 00a1 E8FCFFFF 		call	clASetMaxSpeed@PLT
 5984      FF
 5985              	.LVL387:
 5986              		.loc 1 405 3 is_stmt 1 discriminator 3 view .LVU1283
 5987 00a6 83C420   		addl	$32, %esp
 5988              		.cfi_def_cfa_offset 48
 5989 00a9 6800EEFF 		pushl	$-4608
 5989      FF
 5990              		.cfi_def_cfa_offset 52
 5991 00ae 68001200 		pushl	$4608
GAS LISTING /tmp/ccffpNMU.s 			page 115


 5991      00
 5992              		.cfi_def_cfa_offset 56
 5993 00b3 6A01     		pushl	$1
 5994              		.cfi_def_cfa_offset 60
 5995 00b5 56       		pushl	%esi
 5996              		.cfi_def_cfa_offset 64
 5997 00b6 E8FCFFFF 		call	clASetTargetPosition@PLT
 5997      FF
 5998              	.LVL388:
 5999              		.loc 1 406 3 discriminator 3 view .LVU1284
 6000 00bb 68000E00 		pushl	$3584
 6000      00
 6001              		.cfi_def_cfa_offset 68
 6002 00c0 6800F2FF 		pushl	$-3584
 6002      FF
 6003              		.cfi_def_cfa_offset 72
 6004 00c5 6A01     		pushl	$1
 6005              		.cfi_def_cfa_offset 76
 6006 00c7 57       		pushl	%edi
 6007              		.cfi_def_cfa_offset 80
 6008 00c8 E8FCFFFF 		call	clASetTargetPosition@PLT
 6008      FF
 6009              	.LVL389:
 6010              		.loc 1 407 3 discriminator 3 view .LVU1285
 6011 00cd D944242C 		flds	44(%esp)
 6012 00d1 D8A30000 		fsubs	.LC3@GOTOFF(%ebx)
 6012      0000
 6013 00d7 83C418   		addl	$24, %esp
 6014              		.cfi_def_cfa_offset 56
 6015 00da D9542404 		fsts	4(%esp)
 6016 00de D91424   		fsts	(%esp)
 6017 00e1 D95C2414 		fstps	20(%esp)
 6018 00e5 6A00     		pushl	$0
 6019              		.cfi_def_cfa_offset 60
 6020 00e7 56       		pushl	%esi
 6021              		.cfi_def_cfa_offset 64
 6022 00e8 E8FCFFFF 		call	clASetMaxSpeed@PLT
 6022      FF
 6023              	.LVL390:
 6024              		.loc 1 408 3 discriminator 3 view .LVU1286
 6025 00ed D944241C 		flds	28(%esp)
 6026 00f1 83EC08   		subl	$8, %esp
 6027              		.cfi_def_cfa_offset 72
 6028 00f4 D9542404 		fsts	4(%esp)
 6029 00f8 D91424   		fsts	(%esp)
 6030 00fb D95C2424 		fstps	36(%esp)
 6031 00ff 6A00     		pushl	$0
 6032              		.cfi_def_cfa_offset 76
 6033 0101 57       		pushl	%edi
 6034              		.cfi_def_cfa_offset 80
 6035 0102 E8FCFFFF 		call	clASetMaxSpeed@PLT
 6035      FF
 6036              	.LVL391:
 6037              		.loc 1 409 3 discriminator 3 view .LVU1287
 6038 0107 83C420   		addl	$32, %esp
 6039              		.cfi_def_cfa_offset 48
 6040 010a 6800EEFF 		pushl	$-4608
GAS LISTING /tmp/ccffpNMU.s 			page 116


 6040      FF
 6041              		.cfi_def_cfa_offset 52
 6042 010f 68001200 		pushl	$4608
 6042      00
 6043              		.cfi_def_cfa_offset 56
 6044 0114 6A00     		pushl	$0
 6045              		.cfi_def_cfa_offset 60
 6046 0116 56       		pushl	%esi
 6047              		.cfi_def_cfa_offset 64
 6048 0117 E8FCFFFF 		call	clASetTargetPosition@PLT
 6048      FF
 6049              	.LVL392:
 6050              		.loc 1 410 3 discriminator 3 view .LVU1288
 6051 011c 68000E00 		pushl	$3584
 6051      00
 6052              		.cfi_def_cfa_offset 68
 6053 0121 6800F2FF 		pushl	$-3584
 6053      FF
 6054              		.cfi_def_cfa_offset 72
 6055 0126 6A00     		pushl	$0
 6056              		.cfi_def_cfa_offset 76
 6057 0128 57       		pushl	%edi
 6058              		.cfi_def_cfa_offset 80
 6059 0129 E8FCFFFF 		call	clASetTargetPosition@PLT
 6059      FF
 6060              	.LVL393:
 6061              		.loc 1 411 3 discriminator 3 view .LVU1289
 6062 012e 83C418   		addl	$24, %esp
 6063              		.cfi_def_cfa_offset 56
 6064 0131 D9442414 		flds	20(%esp)
 6065 0135 D9542404 		fsts	4(%esp)
 6066 0139 D91424   		fsts	(%esp)
 6067 013c D95C2414 		fstps	20(%esp)
 6068 0140 6A02     		pushl	$2
 6069              		.cfi_def_cfa_offset 60
 6070 0142 56       		pushl	%esi
 6071              		.cfi_def_cfa_offset 64
 6072 0143 E8FCFFFF 		call	clASetMaxSpeed@PLT
 6072      FF
 6073              	.LVL394:
 6074              		.loc 1 412 3 discriminator 3 view .LVU1290
 6075 0148 D944241C 		flds	28(%esp)
 6076 014c 83EC08   		subl	$8, %esp
 6077              		.cfi_def_cfa_offset 72
 6078 014f D9542404 		fsts	4(%esp)
 6079 0153 D91424   		fsts	(%esp)
 6080 0156 D95C2424 		fstps	36(%esp)
 6081 015a 6A02     		pushl	$2
 6082              		.cfi_def_cfa_offset 76
 6083 015c 57       		pushl	%edi
 6084              		.cfi_def_cfa_offset 80
 6085 015d E8FCFFFF 		call	clASetMaxSpeed@PLT
 6085      FF
 6086              	.LVL395:
 6087              		.loc 1 413 3 discriminator 3 view .LVU1291
 6088 0162 83C420   		addl	$32, %esp
 6089              		.cfi_def_cfa_offset 48
GAS LISTING /tmp/ccffpNMU.s 			page 117


 6090 0165 6800EEFF 		pushl	$-4608
 6090      FF
 6091              		.cfi_def_cfa_offset 52
 6092 016a 68001200 		pushl	$4608
 6092      00
 6093              		.cfi_def_cfa_offset 56
 6094 016f 6A02     		pushl	$2
 6095              		.cfi_def_cfa_offset 60
 6096 0171 56       		pushl	%esi
 6097              		.cfi_def_cfa_offset 64
 6098 0172 83EE01   		subl	$1, %esi
 6099              	.LVL396:
 6100              		.loc 1 413 3 is_stmt 0 discriminator 3 view .LVU1292
 6101 0175 E8FCFFFF 		call	clASetTargetPosition@PLT
 6101      FF
 6102              	.LVL397:
 6103              		.loc 1 414 3 is_stmt 1 discriminator 3 view .LVU1293
 6104 017a 68000E00 		pushl	$3584
 6104      00
 6105              		.cfi_def_cfa_offset 68
 6106 017f 6800F2FF 		pushl	$-3584
 6106      FF
 6107              		.cfi_def_cfa_offset 72
 6108 0184 6A02     		pushl	$2
 6109              		.cfi_def_cfa_offset 76
 6110 0186 57       		pushl	%edi
 6111              		.cfi_def_cfa_offset 80
 6112 0187 E8FCFFFF 		call	clASetTargetPosition@PLT
 6112      FF
 6113              	.LVL398:
 6114              		.loc 1 415 3 discriminator 3 view .LVU1294
 6115              		.loc 1 402 2 is_stmt 0 discriminator 3 view .LVU1295
 6116 018c 83C420   		addl	$32, %esp
 6117              		.cfi_def_cfa_offset 48
 6118 018f 83FEFF   		cmpl	$-1, %esi
 6119 0192 D944240C 		flds	12(%esp)
 6120 0196 0F85D3FE 		jne	.L174
 6120      FFFF
 6121 019c DDD8     		fstp	%st(0)
 6122              	.LBE1292:
 6123              		.loc 1 417 2 is_stmt 1 view .LVU1296
 6124              	.LVL399:
 6125              	.LBB1293:
 6126              	.LBI1293:
 6127              		.loc 2 282 20 view .LVU1297
 6128              	.LBB1294:
 6129              		.loc 2 284 3 view .LVU1298
 6130              	.LBB1295:
 6131              	.LBI1295:
 6132              		.loc 3 353 20 view .LVU1299
 6133              	.LBE1295:
 6134              	.LBE1294:
 6135              	.LBE1293:
 6136              		.loc 3 355 3 view .LVU1300
 6137              	.LBB1315:
 6138              	.LBB1312:
 6139              	.LBB1300:
GAS LISTING /tmp/ccffpNMU.s 			page 118


 6140              	.LBB1296:
 6141              	.LBI1296:
 6142              		.loc 4 362 20 view .LVU1301
 6143              	.LBB1297:
 6144              		.loc 4 364 3 view .LVU1302
 6145              	.LBE1297:
 6146              	.LBE1296:
 6147              	.LBE1300:
 6148              	.LBB1301:
 6149              	.LBB1302:
 6150              		.loc 2 270 6 is_stmt 0 view .LVU1303
 6151 019e 8B442434 		movl	52(%esp), %eax
 6152              	.LBE1302:
 6153              	.LBE1301:
 6154              	.LBB1305:
 6155              	.LBB1299:
 6156              	.LBB1298:
 6157              		.loc 4 364 16 view .LVU1304
 6158 01a2 C7450001 		movl	$1, 0(%ebp)
 6158      000000
 6159              	.LBE1298:
 6160              	.LBE1299:
 6161              	.LBE1305:
 6162              	.LBE1312:
 6163              	.LBE1315:
 6164              		.loc 3 356 34 is_stmt 1 view .LVU1305
 6165              		.loc 3 357 20 view .LVU1306
 6166              	.LBB1316:
 6167              	.LBB1313:
 6168              		.loc 2 285 3 view .LVU1307
 6169              	.LVL400:
 6170              	.LBB1306:
 6171              	.LBI1301:
 6172              		.loc 2 266 20 view .LVU1308
 6173              	.LBB1303:
 6174              		.loc 2 268 21 view .LVU1309
 6175              		.loc 2 270 3 view .LVU1310
 6176              		.loc 2 270 6 is_stmt 0 view .LVU1311
 6177 01a9 8B4008   		movl	8(%eax), %eax
 6178 01ac 85C0     		testl	%eax, %eax
 6179 01ae 7E30     		jle	.L179
 6180              	.L175:
 6181              	.LVL401:
 6182              		.loc 2 270 6 view .LVU1312
 6183              	.LBE1303:
 6184              	.LBE1306:
 6185              		.loc 2 286 3 is_stmt 1 view .LVU1313
 6186 01b0 E8FCFFFF 		call	chSchRescheduleS@PLT
 6186      FF
 6187              	.LVL402:
 6188              		.loc 2 287 3 view .LVU1314
 6189              	.LBB1307:
 6190              	.LBI1307:
 6191              		.loc 3 365 20 view .LVU1315
 6192              	.LBB1308:
 6193              		.loc 3 367 22 view .LVU1316
 6194              		.loc 3 368 33 view .LVU1317
GAS LISTING /tmp/ccffpNMU.s 			page 119


 6195              		.loc 3 374 3 view .LVU1318
 6196              		.loc 3 374 3 view .LVU1319
 6197              		.loc 3 378 3 view .LVU1320
 6198              	.LBB1309:
 6199              	.LBI1309:
 6200              		.loc 4 371 20 view .LVU1321
 6201              	.LBB1310:
 6202              		.loc 4 373 3 view .LVU1322
 6203              		.loc 4 373 16 is_stmt 0 view .LVU1323
 6204 01b5 C7450000 		movl	$0, 0(%ebp)
 6204      000000
 6205              	.LVL403:
 6206              		.loc 4 373 16 view .LVU1324
 6207              	.LBE1310:
 6208              	.LBE1309:
 6209              	.LBE1308:
 6210              	.LBE1307:
 6211              	.LBE1313:
 6212              	.LBE1316:
 6213              		.loc 1 466 1 view .LVU1325
 6214 01bc 83C41C   		addl	$28, %esp
 6215              		.cfi_remember_state
 6216              		.cfi_def_cfa_offset 20
 6217 01bf 5B       		popl	%ebx
 6218              		.cfi_restore 3
 6219              		.cfi_def_cfa_offset 16
 6220 01c0 5E       		popl	%esi
 6221              		.cfi_restore 6
 6222              		.cfi_def_cfa_offset 12
 6223 01c1 5F       		popl	%edi
 6224              		.cfi_restore 7
 6225              		.cfi_def_cfa_offset 8
 6226 01c2 5D       		popl	%ebp
 6227              		.cfi_restore 5
 6228              		.cfi_def_cfa_offset 4
 6229 01c3 C3       		ret
 6230              	.LVL404:
 6231              		.p2align 4,,10
 6232 01c4 8D742600 		.p2align 3
 6233              	.L178:
 6234              		.cfi_restore_state
 6235              	.LBB1317:
 6236              	.LBB1281:
 6237              	.LBB1277:
 6238              	.LBB1264:
 6239              		.loc 2 271 5 is_stmt 1 view .LVU1326
 6240 01c8 83EC0C   		subl	$12, %esp
 6241              		.cfi_def_cfa_offset 60
 6242 01cb FF742440 		pushl	64(%esp)
 6243              		.cfi_def_cfa_offset 64
 6244 01cf E8FCFFFF 		call	chSemSignalI@PLT
 6244      FF
 6245              	.LVL405:
 6246              		.loc 2 271 5 is_stmt 0 view .LVU1327
 6247 01d4 83C410   		addl	$16, %esp
 6248              		.cfi_def_cfa_offset 48
 6249 01d7 E970FEFF 		jmp	.L173
GAS LISTING /tmp/ccffpNMU.s 			page 120


 6249      FF
 6250              	.LVL406:
 6251 01dc 8D742600 		.p2align 4,,10
 6252              		.p2align 3
 6253              	.L179:
 6254              		.loc 2 271 5 view .LVU1328
 6255              	.LBE1264:
 6256              	.LBE1277:
 6257              	.LBE1281:
 6258              	.LBE1317:
 6259              	.LBB1318:
 6260              	.LBB1314:
 6261              	.LBB1311:
 6262              	.LBB1304:
 6263              		.loc 2 271 5 is_stmt 1 view .LVU1329
 6264 01e0 83EC0C   		subl	$12, %esp
 6265              		.cfi_def_cfa_offset 60
 6266 01e3 FF742440 		pushl	64(%esp)
 6267              		.cfi_def_cfa_offset 64
 6268 01e7 E8FCFFFF 		call	chSemSignalI@PLT
 6268      FF
 6269              	.LVL407:
 6270 01ec 83C410   		addl	$16, %esp
 6271              		.cfi_def_cfa_offset 48
 6272 01ef EBBF     		jmp	.L175
 6273              	.LBE1304:
 6274              	.LBE1311:
 6275              	.LBE1314:
 6276              	.LBE1318:
 6277              		.cfi_endproc
 6278              	.LFE232:
 6279              		.size	aniFlower, .-aniFlower
 6280              		.section	.bss.counter.7190,"aw",@nobits
 6281              		.type	counter.7190, @object
 6282              		.size	counter.7190, 1
 6283              	counter.7190:
 6284 0000 00       		.zero	1
