GAS LISTING /tmp/ccmJ5FoE.s 			page 1


   1              		.file	"chcore.c"
   2              		.text
   3              	.Ltext0:
   4              		.section	.text.__dummy,"ax",@progbits
   5              		.p2align 4,,15
   6              		.type	__dummy, @function
   7              	__dummy:
   8              	.LVL0:
   9              	.LFB138:
  10              		.file 1 "../../../os/common/ports/SIMIA32/chcore.c"
  11              		.loc 1 69 51 view -0
  12              		.cfi_startproc
  13              		.loc 1 70 3 view .LVU1
  14              		.loc 1 70 14 view .LVU2
  15              		.loc 1 72 3 view .LVU3
  16              	#APP
  17              	# 72 "../../../os/common/ports/SIMIA32/chcore.c" 1
  18              		.globl port_switch                             
  19 0000 55       		port_switch:push    %ebp                                   
  20 0001 56       		push    %esi                                   
  21 0002 57       		push    %edi                                   
  22 0003 53       		push    %ebx                                   
  23 0004 89620C   		movl    %esp, 12(%edx)                         
  24 0007 8B610C   		movl    12(%ecx), %esp                         
  25 000a 5B       		pop     %ebx                                   
  26 000b 5F       		pop     %edi                                   
  27 000c 5E       		pop     %esi                                   
  28 000d 5D       		pop     %ebp                                   
  29 000e C3       		ret
  30              	# 0 "" 2
  31              		.loc 1 94 1 is_stmt 0 view .LVU4
  32              	#NO_APP
  33 000f C3       		ret
  34              		.cfi_endproc
  35              	.LFE138:
  36              		.size	__dummy, .-__dummy
  37              		.section	.text._port_thread_start,"ax",@progbits
  38              		.p2align 4,,15
  39              		.globl	_port_thread_start
  40              		.type	_port_thread_start, @function
  41              	_port_thread_start:
  42              	.LVL1:
  43              	.LFB139:
  44              		.loc 1 102 55 is_stmt 1 view -0
  45              		.cfi_startproc
  46              		.loc 1 104 3 view .LVU6
  47              	.LBB8:
  48              	.LBI8:
  49              		.file 2 "../../../os/rt/include/chsys.h"
  50              		.loc 2 365 20 view .LVU7
  51              	.LBB9:
  52              		.loc 2 367 22 view .LVU8
  53              		.loc 2 368 33 view .LVU9
  54              		.loc 2 374 3 view .LVU10
  55              		.loc 2 374 3 view .LVU11
  56              		.loc 2 378 3 view .LVU12
  57              	.LBB10:
GAS LISTING /tmp/ccmJ5FoE.s 			page 2


  58              	.LBI10:
  59              		.file 3 "../../../os/common/ports/SIMIA32/chcore.h"
  60              		.loc 3 371 20 view .LVU13
  61              	.LBB11:
  62              		.loc 3 373 3 view .LVU14
  63              	.LBE11:
  64              	.LBE10:
  65              	.LBE9:
  66              	.LBE8:
  67              		.loc 1 102 55 is_stmt 0 view .LVU15
  68 0000 53       		pushl	%ebx
  69              		.cfi_def_cfa_offset 8
  70              		.cfi_offset 3, -8
  71 0001 E8FCFFFF 		call	__x86.get_pc_thunk.bx
  71      FF
  72 0006 81C30200 		addl	$_GLOBAL_OFFSET_TABLE_, %ebx
  72      0000
  73 000c 83EC14   		subl	$20, %esp
  74              		.cfi_def_cfa_offset 28
  75              		.loc 1 105 3 view .LVU16
  76 000f FF742420 		pushl	32(%esp)
  77              		.cfi_def_cfa_offset 32
  78              	.LBB15:
  79              	.LBB14:
  80              	.LBB13:
  81              	.LBB12:
  82              		.loc 3 373 16 view .LVU17
  83 0013 C7830000 		movl	$0, port_irq_sts@GOTOFF(%ebx)
  83      00000000 
  83      0000
  84              	.LBE12:
  85              	.LBE13:
  86              	.LBE14:
  87              	.LBE15:
  88              		.loc 1 105 3 is_stmt 1 view .LVU18
  89 001d FF542420 		call	*32(%esp)
  90              	.LVL2:
  91              		.loc 1 106 3 view .LVU19
  92 0021 C7042400 		movl	$0, (%esp)
  92      000000
  93 0028 E8FCFFFF 		call	chThdExit@PLT
  93      FF
  94              	.LVL3:
  95 002d 83C410   		addl	$16, %esp
  96              		.cfi_def_cfa_offset 16
  97              	.L4:
  98              		.loc 1 107 3 discriminator 1 view .LVU20
  99              		.loc 1 107 11 discriminator 1 view .LVU21
 100              		.loc 1 107 3 discriminator 1 view .LVU22
 101              		.loc 1 107 11 discriminator 1 view .LVU23
 102 0030 EBFE     		jmp	.L4
 103              		.cfi_endproc
 104              	.LFE139:
 105              		.size	_port_thread_start, .-_port_thread_start
 106              		.section	.text.port_rt_get_counter_value,"ax",@progbits
 107              		.p2align 4,,15
 108              		.globl	port_rt_get_counter_value
GAS LISTING /tmp/ccmJ5FoE.s 			page 3


 109              		.type	port_rt_get_counter_value, @function
 110              	port_rt_get_counter_value:
 111              	.LFB140:
 112              		.loc 1 116 41 view -0
 113              		.cfi_startproc
 114 0000 53       		pushl	%ebx
 115              		.cfi_def_cfa_offset 8
 116              		.cfi_offset 3, -8
 117 0001 E8FCFFFF 		call	__x86.get_pc_thunk.bx
 117      FF
 118 0006 81C30200 		addl	$_GLOBAL_OFFSET_TABLE_, %ebx
 118      0000
 119 000c 83EC20   		subl	$32, %esp
 120              		.cfi_def_cfa_offset 40
 121              		.loc 1 116 41 is_stmt 0 view .LVU25
 122 000f 65A11400 		movl	%gs:20, %eax
 122      0000
 123 0015 89442414 		movl	%eax, 20(%esp)
 124 0019 31C0     		xorl	%eax, %eax
 125              		.loc 1 124 3 is_stmt 1 view .LVU26
 126              		.loc 1 126 3 view .LVU27
 127 001b 6A00     		pushl	$0
 128              		.cfi_def_cfa_offset 44
 129 001d 8D442410 		leal	16(%esp), %eax
 130 0021 50       		pushl	%eax
 131              		.cfi_def_cfa_offset 48
 132 0022 E8FCFFFF 		call	gettimeofday@PLT
 132      FF
 133              	.LVL4:
 134              		.loc 1 127 3 view .LVU28
 135              		.loc 1 127 30 is_stmt 0 view .LVU29
 136 0027 69442414 		imull	$1000000, 20(%esp), %eax
 136      40420F00 
 137              		.loc 1 127 50 view .LVU30
 138 002f 03442418 		addl	24(%esp), %eax
 139 0033 83C410   		addl	$16, %esp
 140              		.cfi_def_cfa_offset 32
 141              		.loc 1 129 1 view .LVU31
 142 0036 8B54240C 		movl	12(%esp), %edx
 143 003a 65331514 		xorl	%gs:20, %edx
 143      000000
 144 0041 7505     		jne	.L9
 145 0043 83C418   		addl	$24, %esp
 146              		.cfi_remember_state
 147              		.cfi_def_cfa_offset 8
 148 0046 5B       		popl	%ebx
 149              		.cfi_restore 3
 150              		.cfi_def_cfa_offset 4
 151 0047 C3       		ret
 152              	.L9:
 153              		.cfi_restore_state
 154 0048 E8FCFFFF 		call	__stack_chk_fail_local
 154      FF
 155              	.LVL5:
 156              		.cfi_endproc
 157              	.LFE140:
 158              		.size	port_rt_get_counter_value, .-port_rt_get_counter_value
GAS LISTING /tmp/ccmJ5FoE.s 			page 4


 159              		.globl	port_irq_sts
 160              		.section	.bss.port_irq_sts,"aw",@nobits
 161              		.align 4
 162              		.type	port_irq_sts, @object
 163              		.size	port_irq_sts, 4
 164              	port_irq_sts:
 165 0000 00000000 		.zero	4
 166              		.globl	port_isr_context_flag
 167              		.section	.bss.port_isr_context_flag,"aw",@nobits
 168              		.type	port_isr_context_flag, @object
 169              		.size	port_isr_context_flag, 1
 170              	port_isr_context_flag:
 171 0000 00       		.zero	1
 172              		.section	.text.__x86.get_pc_thunk.bx,"axG",@progbits,__x86.get_pc_thunk.bx,comdat
 173              		.globl	__x86.get_pc_thunk.bx
 174              		.hidden	__x86.get_pc_thunk.bx
 175              		.type	__x86.get_pc_thunk.bx, @function
 176              	__x86.get_pc_thunk.bx:
 177              	.LFB141:
 178              		.cfi_startproc
 179 0000 8B1C24   		movl	(%esp), %ebx
 180 0003 C3       		ret
 181              		.cfi_endproc
 182              	.LFE141:
 183              		.text
 184              	.Letext0:
 185              		.file 4 "/usr/include/i386-linux-gnu/bits/types.h"
 186              		.file 5 "/usr/include/i386-linux-gnu/bits/types/struct_timeval.h"
 187              		.file 6 "/usr/include/i386-linux-gnu/sys/time.h"
 188              		.file 7 "/usr/lib/gcc/x86_64-linux-gnu/8/include/stddef.h"
 189              		.file 8 "/usr/include/i386-linux-gnu/bits/stdint-intn.h"
 190              		.file 9 "/usr/include/i386-linux-gnu/bits/stdint-uintn.h"
 191              		.file 10 "../../../os/common/ports/SIMIA32/compilers/GCC/chtypes.h"
 192              		.file 11 "../../../os/rt/include/chsystypes.h"
 193              		.file 12 "../../../os/rt/include/chschd.h"
 194              		.file 13 "../../../os/rt/include/chtime.h"
 195              		.file 14 "../../../os/rt/include/chtm.h"
 196              		.file 15 "../../../os/rt/include/chsem.h"
 197              		.file 16 "../../../os/rt/include/chmtx.h"
 198              		.file 17 "../../../os/rt/include/chregistry.h"
 199              		.file 18 "../../../os/common/oslib/include/chmemcore.h"
 200              		.file 19 "../../../os/common/oslib/include/chmempools.h"
 201              		.file 20 "../../../os/common/oslib/include/chfactory.h"
 202              		.file 21 "../../../os/rt/include/chthreads.h"
 2806              		.section	.note.GNU-stack,"",@progbits
GAS LISTING /tmp/ccmJ5FoE.s 			page 57

