GAS LISTING /tmp/ccmJ5FoE.s 			page 1


   1              		.file	"chcore.c"
   2              		.text
   3              	.Ltext0:
   4              		.section	.text.__dummy,"ax",@progbits
   5              		.p2align 4,,15
   6              		.type	__dummy, @function
   7              	__dummy:
   8              	.LVL0:
   9              	.LFB138:
  10              		.file 1 "../../../os/common/ports/SIMIA32/chcore.c"
  11              		.loc 1 69 51 view -0
  12              		.cfi_startproc
  13              		.loc 1 70 3 view .LVU1
  14              		.loc 1 70 14 view .LVU2
  15              		.loc 1 72 3 view .LVU3
  16              	#APP
  17              	# 72 "../../../os/common/ports/SIMIA32/chcore.c" 1
  18              		.globl port_switch                             
  19 0000 55       		port_switch:push    %ebp                                   
  20 0001 56       		push    %esi                                   
  21 0002 57       		push    %edi                                   
  22 0003 53       		push    %ebx                                   
  23 0004 89620C   		movl    %esp, 12(%edx)                         
  24 0007 8B610C   		movl    12(%ecx), %esp                         
  25 000a 5B       		pop     %ebx                                   
  26 000b 5F       		pop     %edi                                   
  27 000c 5E       		pop     %esi                                   
  28 000d 5D       		pop     %ebp                                   
  29 000e C3       		ret
  30              	# 0 "" 2
  31              		.loc 1 94 1 is_stmt 0 view .LVU4
  32              	#NO_APP
  33 000f C3       		ret
  34              		.cfi_endproc
  35              	.LFE138:
  36              		.size	__dummy, .-__dummy
  37              		.section	.text._port_thread_start,"ax",@progbits
  38              		.p2align 4,,15
  39              		.globl	_port_thread_start
  40              		.type	_port_thread_start, @function
  41              	_port_thread_start:
  42              	.LVL1:
  43              	.LFB139:
  44              		.loc 1 102 55 is_stmt 1 view -0
  45              		.cfi_startproc
  46              		.loc 1 104 3 view .LVU6
  47              	.LBB8:
  48              	.LBI8:
  49              		.file 2 "../../../os/rt/include/chsys.h"
  50              		.loc 2 365 20 view .LVU7
  51              	.LBB9:
  52              		.loc 2 367 22 view .LVU8
  53              		.loc 2 368 33 view .LVU9
  54              		.loc 2 374 3 view .LVU10
  55              		.loc 2 374 3 view .LVU11
  56              		.loc 2 378 3 view .LVU12
  57              	.LBB10:
GAS LISTING /tmp/ccmJ5FoE.s 			page 2


  58              	.LBI10:
  59              		.file 3 "../../../os/common/ports/SIMIA32/chcore.h"
  60              		.loc 3 371 20 view .LVU13
  61              	.LBB11:
  62              		.loc 3 373 3 view .LVU14
  63              	.LBE11:
  64              	.LBE10:
  65              	.LBE9:
  66              	.LBE8:
  67              		.loc 1 102 55 is_stmt 0 view .LVU15
  68 0000 53       		pushl	%ebx
  69              		.cfi_def_cfa_offset 8
  70              		.cfi_offset 3, -8
  71 0001 E8FCFFFF 		call	__x86.get_pc_thunk.bx
  71      FF
  72 0006 81C30200 		addl	$_GLOBAL_OFFSET_TABLE_, %ebx
  72      0000
  73 000c 83EC14   		subl	$20, %esp
  74              		.cfi_def_cfa_offset 28
  75              		.loc 1 105 3 view .LVU16
  76 000f FF742420 		pushl	32(%esp)
  77              		.cfi_def_cfa_offset 32
  78              	.LBB15:
  79              	.LBB14:
  80              	.LBB13:
  81              	.LBB12:
  82              		.loc 3 373 16 view .LVU17
  83 0013 C7830000 		movl	$0, port_irq_sts@GOTOFF(%ebx)
  83      00000000 
  83      0000
  84              	.LBE12:
  85              	.LBE13:
  86              	.LBE14:
  87              	.LBE15:
  88              		.loc 1 105 3 is_stmt 1 view .LVU18
  89 001d FF542420 		call	*32(%esp)
  90              	.LVL2:
  91              		.loc 1 106 3 view .LVU19
  92 0021 C7042400 		movl	$0, (%esp)
  92      000000
  93 0028 E8FCFFFF 		call	chThdExit@PLT
  93      FF
  94              	.LVL3:
  95 002d 83C410   		addl	$16, %esp
  96              		.cfi_def_cfa_offset 16
  97              	.L4:
  98              		.loc 1 107 3 discriminator 1 view .LVU20
  99              		.loc 1 107 11 discriminator 1 view .LVU21
 100              		.loc 1 107 3 discriminator 1 view .LVU22
 101              		.loc 1 107 11 discriminator 1 view .LVU23
 102 0030 EBFE     		jmp	.L4
 103              		.cfi_endproc
 104              	.LFE139:
 105              		.size	_port_thread_start, .-_port_thread_start
 106              		.section	.text.port_rt_get_counter_value,"ax",@progbits
 107              		.p2align 4,,15
 108              		.globl	port_rt_get_counter_value
GAS LISTING /tmp/ccmJ5FoE.s 			page 3


 109              		.type	port_rt_get_counter_value, @function
 110              	port_rt_get_counter_value:
 111              	.LFB140:
 112              		.loc 1 116 41 view -0
 113              		.cfi_startproc
 114 0000 53       		pushl	%ebx
 115              		.cfi_def_cfa_offset 8
 116              		.cfi_offset 3, -8
 117 0001 E8FCFFFF 		call	__x86.get_pc_thunk.bx
 117      FF
 118 0006 81C30200 		addl	$_GLOBAL_OFFSET_TABLE_, %ebx
 118      0000
 119 000c 83EC20   		subl	$32, %esp
 120              		.cfi_def_cfa_offset 40
 121              		.loc 1 116 41 is_stmt 0 view .LVU25
 122 000f 65A11400 		movl	%gs:20, %eax
 122      0000
 123 0015 89442414 		movl	%eax, 20(%esp)
 124 0019 31C0     		xorl	%eax, %eax
 125              		.loc 1 124 3 is_stmt 1 view .LVU26
 126              		.loc 1 126 3 view .LVU27
 127 001b 6A00     		pushl	$0
 128              		.cfi_def_cfa_offset 44
 129 001d 8D442410 		leal	16(%esp), %eax
 130 0021 50       		pushl	%eax
 131              		.cfi_def_cfa_offset 48
 132 0022 E8FCFFFF 		call	gettimeofday@PLT
 132      FF
 133              	.LVL4:
 134              		.loc 1 127 3 view .LVU28
 135              		.loc 1 127 30 is_stmt 0 view .LVU29
 136 0027 69442414 		imull	$1000000, 20(%esp), %eax
 136      40420F00 
 137              		.loc 1 127 50 view .LVU30
 138 002f 03442418 		addl	24(%esp), %eax
 139 0033 83C410   		addl	$16, %esp
 140              		.cfi_def_cfa_offset 32
 141              		.loc 1 129 1 view .LVU31
 142 0036 8B54240C 		movl	12(%esp), %edx
 143 003a 65331514 		xorl	%gs:20, %edx
 143      000000
 144 0041 7505     		jne	.L9
 145 0043 83C418   		addl	$24, %esp
 146              		.cfi_remember_state
 147              		.cfi_def_cfa_offset 8
 148 0046 5B       		popl	%ebx
 149              		.cfi_restore 3
 150              		.cfi_def_cfa_offset 4
 151 0047 C3       		ret
 152              	.L9:
 153              		.cfi_restore_state
 154 0048 E8FCFFFF 		call	__stack_chk_fail_local
 154      FF
 155              	.LVL5:
 156              		.cfi_endproc
 157              	.LFE140:
 158              		.size	port_rt_get_counter_value, .-port_rt_get_counter_value
GAS LISTING /tmp/ccmJ5FoE.s 			page 4


 159              		.globl	port_irq_sts
 160              		.section	.bss.port_irq_sts,"aw",@nobits
 161              		.align 4
 162              		.type	port_irq_sts, @object
 163              		.size	port_irq_sts, 4
 164              	port_irq_sts:
 165 0000 00000000 		.zero	4
 166              		.globl	port_isr_context_flag
 167              		.section	.bss.port_isr_context_flag,"aw",@nobits
 168              		.type	port_isr_context_flag, @object
 169              		.size	port_isr_context_flag, 1
 170              	port_isr_context_flag:
 171 0000 00       		.zero	1
 172              		.section	.text.__x86.get_pc_thunk.bx,"axG",@progbits,__x86.get_pc_thunk.bx,comdat
 173              		.globl	__x86.get_pc_thunk.bx
 174              		.hidden	__x86.get_pc_thunk.bx
 175              		.type	__x86.get_pc_thunk.bx, @function
 176              	__x86.get_pc_thunk.bx:
 177              	.LFB141:
 178              		.cfi_startproc
 179 0000 8B1C24   		movl	(%esp), %ebx
 180 0003 C3       		ret
 181              		.cfi_endproc
 182              	.LFE141:
 183              		.text
 184              	.Letext0:
 185              		.file 4 "/usr/include/i386-linux-gnu/bits/types.h"
 186              		.file 5 "/usr/include/i386-linux-gnu/bits/types/struct_timeval.h"
 187              		.file 6 "/usr/include/i386-linux-gnu/sys/time.h"
 188              		.file 7 "/usr/lib/gcc/x86_64-linux-gnu/8/include/stddef.h"
 189              		.file 8 "/usr/include/i386-linux-gnu/bits/stdint-intn.h"
 190              		.file 9 "/usr/include/i386-linux-gnu/bits/stdint-uintn.h"
 191              		.file 10 "../../../os/common/ports/SIMIA32/compilers/GCC/chtypes.h"
 192              		.file 11 "../../../os/rt/include/chsystypes.h"
 193              		.file 12 "../../../os/rt/include/chschd.h"
 194              		.file 13 "../../../os/rt/include/chtime.h"
 195              		.file 14 "../../../os/rt/include/chtm.h"
 196              		.file 15 "../../../os/rt/include/chsem.h"
 197              		.file 16 "../../../os/rt/include/chmtx.h"
 198              		.file 17 "../../../os/rt/include/chregistry.h"
 199              		.file 18 "../../../os/common/oslib/include/chmemcore.h"
 200              		.file 19 "../../../os/common/oslib/include/chmempools.h"
 201              		.file 20 "../../../os/common/oslib/include/chfactory.h"
 202              		.file 21 "../../../os/rt/include/chthreads.h"
 203              		.section	.debug_info,"",@progbits
 204              	.Ldebug_info0:
 205 0000 BF0B0000 		.long	0xbbf
 206 0004 0400     		.value	0x4
 207 0006 00000000 		.long	.Ldebug_abbrev0
 208 000a 04       		.byte	0x4
 209 000b 01       		.uleb128 0x1
 210 000c A1060000 		.long	.LASF153
 211 0010 0C       		.byte	0xc
 212 0011 B0030000 		.long	.LASF154
 213 0015 65010000 		.long	.LASF155
 214 0019 18000000 		.long	.Ldebug_ranges0+0x18
 215 001d 00000000 		.long	0
GAS LISTING /tmp/ccmJ5FoE.s 			page 5


 216 0021 00000000 		.long	.Ldebug_line0
 217 0025 02       		.uleb128 0x2
 218 0026 01       		.byte	0x1
 219 0027 08       		.byte	0x8
 220 0028 75040000 		.long	.LASF0
 221 002c 02       		.uleb128 0x2
 222 002d 02       		.byte	0x2
 223 002e 07       		.byte	0x7
 224 002f 8C020000 		.long	.LASF1
 225 0033 02       		.uleb128 0x2
 226 0034 04       		.byte	0x4
 227 0035 07       		.byte	0x7
 228 0036 10020000 		.long	.LASF2
 229 003a 02       		.uleb128 0x2
 230 003b 04       		.byte	0x4
 231 003c 07       		.byte	0x7
 232 003d 2D020000 		.long	.LASF3
 233 0041 02       		.uleb128 0x2
 234 0042 01       		.byte	0x1
 235 0043 06       		.byte	0x6
 236 0044 F7000000 		.long	.LASF4
 237 0048 03       		.uleb128 0x3
 238 0049 3A000000 		.long	.LASF6
 239 004d 04       		.byte	0x4
 240 004e 26       		.byte	0x26
 241 004f 17       		.byte	0x17
 242 0050 25000000 		.long	0x25
 243 0054 02       		.uleb128 0x2
 244 0055 02       		.byte	0x2
 245 0056 05       		.byte	0x5
 246 0057 97040000 		.long	.LASF5
 247 005b 03       		.uleb128 0x3
 248 005c 75050000 		.long	.LASF7
 249 0060 04       		.byte	0x4
 250 0061 28       		.byte	0x28
 251 0062 1C       		.byte	0x1c
 252 0063 2C000000 		.long	0x2c
 253 0067 03       		.uleb128 0x3
 254 0068 CA050000 		.long	.LASF8
 255 006c 04       		.byte	0x4
 256 006d 29       		.byte	0x29
 257 006e 14       		.byte	0x14
 258 006f 73000000 		.long	0x73
 259 0073 04       		.uleb128 0x4
 260 0074 04       		.byte	0x4
 261 0075 05       		.byte	0x5
 262 0076 696E7400 		.string	"int"
 263 007a 03       		.uleb128 0x3
 264 007b CD010000 		.long	.LASF9
 265 007f 04       		.byte	0x4
 266 0080 2A       		.byte	0x2a
 267 0081 16       		.byte	0x16
 268 0082 33000000 		.long	0x33
 269 0086 02       		.uleb128 0x2
 270 0087 08       		.byte	0x8
 271 0088 05       		.byte	0x5
 272 0089 E9000000 		.long	.LASF10
GAS LISTING /tmp/ccmJ5FoE.s 			page 6


 273 008d 02       		.uleb128 0x2
 274 008e 08       		.byte	0x8
 275 008f 07       		.byte	0x7
 276 0090 83000000 		.long	.LASF11
 277 0094 02       		.uleb128 0x2
 278 0095 04       		.byte	0x4
 279 0096 05       		.byte	0x5
 280 0097 30010000 		.long	.LASF12
 281 009b 03       		.uleb128 0x3
 282 009c FB050000 		.long	.LASF13
 283 00a0 04       		.byte	0x4
 284 00a1 A0       		.byte	0xa0
 285 00a2 1A       		.byte	0x1a
 286 00a3 94000000 		.long	0x94
 287 00a7 03       		.uleb128 0x3
 288 00a8 5F020000 		.long	.LASF14
 289 00ac 04       		.byte	0x4
 290 00ad A2       		.byte	0xa2
 291 00ae 1F       		.byte	0x1f
 292 00af 94000000 		.long	0x94
 293 00b3 05       		.uleb128 0x5
 294 00b4 04       		.byte	0x4
 295 00b5 02       		.uleb128 0x2
 296 00b6 01       		.byte	0x1
 297 00b7 06       		.byte	0x6
 298 00b8 61050000 		.long	.LASF15
 299 00bc 06       		.uleb128 0x6
 300 00bd B5000000 		.long	0xb5
 301 00c1 07       		.uleb128 0x7
 302 00c2 21030000 		.long	.LASF18
 303 00c6 08       		.byte	0x8
 304 00c7 05       		.byte	0x5
 305 00c8 08       		.byte	0x8
 306 00c9 08       		.byte	0x8
 307 00ca E9000000 		.long	0xe9
 308 00ce 08       		.uleb128 0x8
 309 00cf 9F030000 		.long	.LASF16
 310 00d3 05       		.byte	0x5
 311 00d4 0A       		.byte	0xa
 312 00d5 0C       		.byte	0xc
 313 00d6 9B000000 		.long	0x9b
 314 00da 00       		.byte	0
 315 00db 08       		.uleb128 0x8
 316 00dc 1F050000 		.long	.LASF17
 317 00e0 05       		.byte	0x5
 318 00e1 0B       		.byte	0xb
 319 00e2 11       		.byte	0x11
 320 00e3 A7000000 		.long	0xa7
 321 00e7 04       		.byte	0x4
 322 00e8 00       		.byte	0
 323 00e9 07       		.uleb128 0x7
 324 00ea D8010000 		.long	.LASF19
 325 00ee 08       		.byte	0x8
 326 00ef 06       		.byte	0x6
 327 00f0 34       		.byte	0x34
 328 00f1 08       		.byte	0x8
 329 00f2 11010000 		.long	0x111
GAS LISTING /tmp/ccmJ5FoE.s 			page 7


 330 00f6 08       		.uleb128 0x8
 331 00f7 EF020000 		.long	.LASF20
 332 00fb 06       		.byte	0x6
 333 00fc 36       		.byte	0x36
 334 00fd 09       		.byte	0x9
 335 00fe 73000000 		.long	0x73
 336 0102 00       		.byte	0
 337 0103 08       		.uleb128 0x8
 338 0104 59060000 		.long	.LASF21
 339 0108 06       		.byte	0x6
 340 0109 37       		.byte	0x37
 341 010a 09       		.byte	0x9
 342 010b 73000000 		.long	0x73
 343 010f 04       		.byte	0x4
 344 0110 00       		.byte	0
 345 0111 09       		.uleb128 0x9
 346 0112 04       		.byte	0x4
 347 0113 E9000000 		.long	0xe9
 348 0117 0A       		.uleb128 0xa
 349 0118 11010000 		.long	0x111
 350 011c 03       		.uleb128 0x3
 351 011d 23000000 		.long	.LASF22
 352 0121 07       		.byte	0x7
 353 0122 D8       		.byte	0xd8
 354 0123 17       		.byte	0x17
 355 0124 33000000 		.long	0x33
 356 0128 02       		.uleb128 0x2
 357 0129 0C       		.byte	0xc
 358 012a 04       		.byte	0x4
 359 012b 93030000 		.long	.LASF23
 360 012f 02       		.uleb128 0x2
 361 0130 10       		.byte	0x10
 362 0131 04       		.byte	0x4
 363 0132 0D010000 		.long	.LASF24
 364 0136 03       		.uleb128 0x3
 365 0137 6D040000 		.long	.LASF25
 366 013b 08       		.byte	0x8
 367 013c 1A       		.byte	0x1a
 368 013d 13       		.byte	0x13
 369 013e 67000000 		.long	0x67
 370 0142 03       		.uleb128 0x3
 371 0143 64060000 		.long	.LASF26
 372 0147 09       		.byte	0x9
 373 0148 18       		.byte	0x18
 374 0149 13       		.byte	0x13
 375 014a 48000000 		.long	0x48
 376 014e 03       		.uleb128 0x3
 377 014f 1D020000 		.long	.LASF27
 378 0153 09       		.byte	0x9
 379 0154 19       		.byte	0x19
 380 0155 14       		.byte	0x14
 381 0156 5B000000 		.long	0x5b
 382 015a 03       		.uleb128 0x3
 383 015b 27050000 		.long	.LASF28
 384 015f 09       		.byte	0x9
 385 0160 1A       		.byte	0x1a
 386 0161 14       		.byte	0x14
GAS LISTING /tmp/ccmJ5FoE.s 			page 8


 387 0162 7A000000 		.long	0x7a
 388 0166 03       		.uleb128 0x3
 389 0167 61030000 		.long	.LASF29
 390 016b 0A       		.byte	0xa
 391 016c 45       		.byte	0x45
 392 016d 1D       		.byte	0x1d
 393 016e 5A010000 		.long	0x15a
 394 0172 03       		.uleb128 0x3
 395 0173 C4010000 		.long	.LASF30
 396 0177 0A       		.byte	0xa
 397 0178 47       		.byte	0x47
 398 0179 1D       		.byte	0x1d
 399 017a 5A010000 		.long	0x15a
 400 017e 03       		.uleb128 0x3
 401 017f E7020000 		.long	.LASF31
 402 0183 0A       		.byte	0xa
 403 0184 48       		.byte	0x48
 404 0185 1D       		.byte	0x1d
 405 0186 42010000 		.long	0x142
 406 018a 03       		.uleb128 0x3
 407 018b 39010000 		.long	.LASF32
 408 018f 0A       		.byte	0xa
 409 0190 49       		.byte	0x49
 410 0191 1D       		.byte	0x1d
 411 0192 42010000 		.long	0x142
 412 0196 03       		.uleb128 0x3
 413 0197 18040000 		.long	.LASF33
 414 019b 0A       		.byte	0xa
 415 019c 4A       		.byte	0x4a
 416 019d 1D       		.byte	0x1d
 417 019e 42010000 		.long	0x142
 418 01a2 03       		.uleb128 0x3
 419 01a3 4F040000 		.long	.LASF34
 420 01a7 0A       		.byte	0xa
 421 01a8 4C       		.byte	0x4c
 422 01a9 1D       		.byte	0x1d
 423 01aa 5A010000 		.long	0x15a
 424 01ae 03       		.uleb128 0x3
 425 01af B2020000 		.long	.LASF35
 426 01b3 0A       		.byte	0xa
 427 01b4 4D       		.byte	0x4d
 428 01b5 1D       		.byte	0x1d
 429 01b6 36010000 		.long	0x136
 430 01ba 03       		.uleb128 0x3
 431 01bb 0C030000 		.long	.LASF36
 432 01bf 0A       		.byte	0xa
 433 01c0 4F       		.byte	0x4f
 434 01c1 1D       		.byte	0x1d
 435 01c2 5A010000 		.long	0x15a
 436 01c6 03       		.uleb128 0x3
 437 01c7 0A020000 		.long	.LASF37
 438 01cb 0A       		.byte	0xa
 439 01cc 51       		.byte	0x51
 440 01cd 1D       		.byte	0x1d
 441 01ce 36010000 		.long	0x136
 442 01d2 03       		.uleb128 0x3
 443 01d3 B8020000 		.long	.LASF38
GAS LISTING /tmp/ccmJ5FoE.s 			page 9


 444 01d7 0A       		.byte	0xa
 445 01d8 52       		.byte	0x52
 446 01d9 1D       		.byte	0x1d
 447 01da 5A010000 		.long	0x15a
 448 01de 03       		.uleb128 0x3
 449 01df 96050000 		.long	.LASF39
 450 01e3 0B       		.byte	0xb
 451 01e4 34       		.byte	0x34
 452 01e5 1A       		.byte	0x1a
 453 01e6 EA010000 		.long	0x1ea
 454 01ea 07       		.uleb128 0x7
 455 01eb A8020000 		.long	.LASF40
 456 01ef 44       		.byte	0x44
 457 01f0 0C       		.byte	0xc
 458 01f1 8E       		.byte	0x8e
 459 01f2 08       		.byte	0x8
 460 01f3 DA020000 		.long	0x2da
 461 01f7 08       		.uleb128 0x8
 462 01f8 80020000 		.long	.LASF41
 463 01fc 0C       		.byte	0xc
 464 01fd 8F       		.byte	0x8f
 465 01fe 19       		.byte	0x19
 466 01ff 13030000 		.long	0x313
 467 0203 00       		.byte	0
 468 0204 08       		.uleb128 0x8
 469 0205 F8030000 		.long	.LASF42
 470 0209 0C       		.byte	0xc
 471 020a 90       		.byte	0x90
 472 020b 19       		.byte	0x19
 473 020c A2010000 		.long	0x1a2
 474 0210 08       		.byte	0x8
 475 0211 0B       		.uleb128 0xb
 476 0212 63747800 		.string	"ctx"
 477 0216 0C       		.byte	0xc
 478 0217 91       		.byte	0x91
 479 0218 19       		.byte	0x19
 480 0219 BA050000 		.long	0x5ba
 481 021d 0C       		.byte	0xc
 482 021e 08       		.uleb128 0x8
 483 021f 4A030000 		.long	.LASF43
 484 0223 0C       		.byte	0xc
 485 0224 93       		.byte	0x93
 486 0225 1A       		.byte	0x1a
 487 0226 E6020000 		.long	0x2e6
 488 022a 10       		.byte	0x10
 489 022b 08       		.uleb128 0x8
 490 022c 66050000 		.long	.LASF44
 491 0230 0C       		.byte	0xc
 492 0231 94       		.byte	0x94
 493 0232 1A       		.byte	0x1a
 494 0233 E6020000 		.long	0x2e6
 495 0237 14       		.byte	0x14
 496 0238 08       		.uleb128 0x8
 497 0239 7B020000 		.long	.LASF45
 498 023d 0C       		.byte	0xc
 499 023e 9B       		.byte	0x9b
 500 023f 1A       		.byte	0x1a
GAS LISTING /tmp/ccmJ5FoE.s 			page 10


 501 0240 F8060000 		.long	0x6f8
 502 0244 18       		.byte	0x18
 503 0245 08       		.uleb128 0x8
 504 0246 5A050000 		.long	.LASF46
 505 024a 0C       		.byte	0xc
 506 024b A4       		.byte	0xa4
 507 024c 1A       		.byte	0x1a
 508 024d 03070000 		.long	0x703
 509 0251 1C       		.byte	0x1c
 510 0252 08       		.uleb128 0x8
 511 0253 2A010000 		.long	.LASF47
 512 0257 0C       		.byte	0xc
 513 0258 A9       		.byte	0xa9
 514 0259 19       		.byte	0x19
 515 025a 8A010000 		.long	0x18a
 516 025e 20       		.byte	0x20
 517 025f 08       		.uleb128 0x8
 518 0260 6C060000 		.long	.LASF48
 519 0264 0C       		.byte	0xc
 520 0265 AD       		.byte	0xad
 521 0266 19       		.byte	0x19
 522 0267 7E010000 		.long	0x17e
 523 026b 21       		.byte	0x21
 524 026c 08       		.uleb128 0x8
 525 026d 2B040000 		.long	.LASF49
 526 0271 0C       		.byte	0xc
 527 0272 B2       		.byte	0xb2
 528 0273 19       		.byte	0x19
 529 0274 96010000 		.long	0x196
 530 0278 22       		.byte	0x22
 531 0279 0C       		.uleb128 0xc
 532 027a 7500     		.string	"u"
 533 027c 0C       		.byte	0xc
 534 027d 0301     		.value	0x103
 535 027f 19       		.byte	0x19
 536 0280 1E060000 		.long	0x61e
 537 0284 24       		.byte	0x24
 538 0285 0D       		.uleb128 0xd
 539 0286 E1010000 		.long	.LASF50
 540 028a 0C       		.byte	0xc
 541 028b 0801     		.value	0x108
 542 028d 19       		.byte	0x19
 543 028e EC020000 		.long	0x2ec
 544 0292 28       		.byte	0x28
 545 0293 0D       		.uleb128 0xd
 546 0294 31000000 		.long	.LASF51
 547 0298 0C       		.byte	0xc
 548 0299 0E01     		.value	0x10e
 549 029b 19       		.byte	0x19
 550 029c 13030000 		.long	0x313
 551 02a0 2C       		.byte	0x2c
 552 02a1 0D       		.uleb128 0xd
 553 02a2 BF020000 		.long	.LASF52
 554 02a6 0C       		.byte	0xc
 555 02a7 1401     		.value	0x114
 556 02a9 19       		.byte	0x19
 557 02aa BA010000 		.long	0x1ba
GAS LISTING /tmp/ccmJ5FoE.s 			page 11


 558 02ae 34       		.byte	0x34
 559 02af 0D       		.uleb128 0xd
 560 02b0 6C070000 		.long	.LASF53
 561 02b4 0C       		.byte	0xc
 562 02b5 1B01     		.value	0x11b
 563 02b7 1A       		.byte	0x1a
 564 02b8 F2060000 		.long	0x6f2
 565 02bc 38       		.byte	0x38
 566 02bd 0D       		.uleb128 0xd
 567 02be 50030000 		.long	.LASF54
 568 02c2 0C       		.byte	0xc
 569 02c3 1F01     		.value	0x11f
 570 02c5 19       		.byte	0x19
 571 02c6 A2010000 		.long	0x1a2
 572 02ca 3C       		.byte	0x3c
 573 02cb 0D       		.uleb128 0xd
 574 02cc 86020000 		.long	.LASF55
 575 02d0 0C       		.byte	0xc
 576 02d1 2601     		.value	0x126
 577 02d3 1A       		.byte	0x1a
 578 02d4 B3000000 		.long	0xb3
 579 02d8 40       		.byte	0x40
 580 02d9 00       		.byte	0
 581 02da 03       		.uleb128 0x3
 582 02db 69030000 		.long	.LASF56
 583 02df 0B       		.byte	0xb
 584 02e0 39       		.byte	0x39
 585 02e1 14       		.byte	0x14
 586 02e2 E6020000 		.long	0x2e6
 587 02e6 09       		.uleb128 0x9
 588 02e7 04       		.byte	0x4
 589 02e8 DE010000 		.long	0x1de
 590 02ec 03       		.uleb128 0x3
 591 02ed 22070000 		.long	.LASF57
 592 02f1 0B       		.byte	0xb
 593 02f2 3E       		.byte	0x3e
 594 02f3 20       		.byte	0x20
 595 02f4 F8020000 		.long	0x2f8
 596 02f8 07       		.uleb128 0x7
 597 02f9 37050000 		.long	.LASF58
 598 02fd 04       		.byte	0x4
 599 02fe 0C       		.byte	0xc
 600 02ff 7C       		.byte	0x7c
 601 0300 08       		.byte	0x8
 602 0301 13030000 		.long	0x313
 603 0305 08       		.uleb128 0x8
 604 0306 D3000000 		.long	.LASF59
 605 030a 0C       		.byte	0xc
 606 030b 7D       		.byte	0x7d
 607 030c 1A       		.byte	0x1a
 608 030d E6020000 		.long	0x2e6
 609 0311 00       		.byte	0
 610 0312 00       		.byte	0
 611 0313 03       		.uleb128 0x3
 612 0314 2B060000 		.long	.LASF60
 613 0318 0B       		.byte	0xb
 614 0319 45       		.byte	0x45
GAS LISTING /tmp/ccmJ5FoE.s 			page 12


 615 031a 21       		.byte	0x21
 616 031b 1F030000 		.long	0x31f
 617 031f 07       		.uleb128 0x7
 618 0320 D8000000 		.long	.LASF61
 619 0324 08       		.byte	0x8
 620 0325 0C       		.byte	0xc
 621 0326 83       		.byte	0x83
 622 0327 08       		.byte	0x8
 623 0328 47030000 		.long	0x347
 624 032c 08       		.uleb128 0x8
 625 032d D3000000 		.long	.LASF59
 626 0331 0C       		.byte	0xc
 627 0332 84       		.byte	0x84
 628 0333 1A       		.byte	0x1a
 629 0334 E6020000 		.long	0x2e6
 630 0338 00       		.byte	0
 631 0339 08       		.uleb128 0x8
 632 033a 44000000 		.long	.LASF62
 633 033e 0C       		.byte	0xc
 634 033f 85       		.byte	0x85
 635 0340 1A       		.byte	0x1a
 636 0341 E6020000 		.long	0x2e6
 637 0345 04       		.byte	0x4
 638 0346 00       		.byte	0
 639 0347 03       		.uleb128 0x3
 640 0348 16000000 		.long	.LASF63
 641 034c 0B       		.byte	0xb
 642 034d 4C       		.byte	0x4c
 643 034e 1E       		.byte	0x1e
 644 034f 53030000 		.long	0x353
 645 0353 0E       		.uleb128 0xe
 646 0354 FE020000 		.long	.LASF64
 647 0358 1C       		.byte	0x1c
 648 0359 0C       		.byte	0xc
 649 035a 5E01     		.value	0x15e
 650 035c 08       		.byte	0x8
 651 035d B6030000 		.long	0x3b6
 652 0361 0D       		.uleb128 0xd
 653 0362 80020000 		.long	.LASF41
 654 0366 0C       		.byte	0xc
 655 0367 5F01     		.value	0x15f
 656 0369 19       		.byte	0x19
 657 036a 13030000 		.long	0x313
 658 036e 00       		.byte	0
 659 036f 0D       		.uleb128 0xd
 660 0370 F8030000 		.long	.LASF42
 661 0374 0C       		.byte	0xc
 662 0375 6001     		.value	0x160
 663 0377 19       		.byte	0x19
 664 0378 A2010000 		.long	0x1a2
 665 037c 08       		.byte	0x8
 666 037d 0C       		.uleb128 0xc
 667 037e 63747800 		.string	"ctx"
 668 0382 0C       		.byte	0xc
 669 0383 6201     		.value	0x162
 670 0385 19       		.byte	0x19
 671 0386 BA050000 		.long	0x5ba
GAS LISTING /tmp/ccmJ5FoE.s 			page 13


 672 038a 0C       		.byte	0xc
 673 038b 0D       		.uleb128 0xd
 674 038c 4A030000 		.long	.LASF43
 675 0390 0C       		.byte	0xc
 676 0391 6501     		.value	0x165
 677 0393 1A       		.byte	0x1a
 678 0394 E6020000 		.long	0x2e6
 679 0398 10       		.byte	0x10
 680 0399 0D       		.uleb128 0xd
 681 039a 66050000 		.long	.LASF44
 682 039e 0C       		.byte	0xc
 683 039f 6601     		.value	0x166
 684 03a1 1A       		.byte	0x1a
 685 03a2 E6020000 		.long	0x2e6
 686 03a6 14       		.byte	0x14
 687 03a7 0D       		.uleb128 0xd
 688 03a8 06040000 		.long	.LASF65
 689 03ac 0C       		.byte	0xc
 690 03ad 6901     		.value	0x169
 691 03af 1A       		.byte	0x1a
 692 03b0 E6020000 		.long	0x2e6
 693 03b4 18       		.byte	0x18
 694 03b5 00       		.byte	0
 695 03b6 03       		.uleb128 0x3
 696 03b7 31070000 		.long	.LASF66
 697 03bb 0B       		.byte	0xb
 698 03bc 51       		.byte	0x51
 699 03bd 10       		.byte	0x10
 700 03be C2030000 		.long	0x3c2
 701 03c2 09       		.uleb128 0x9
 702 03c3 04       		.byte	0x4
 703 03c4 C8030000 		.long	0x3c8
 704 03c8 0F       		.uleb128 0xf
 705 03c9 D3030000 		.long	0x3d3
 706 03cd 10       		.uleb128 0x10
 707 03ce B3000000 		.long	0xb3
 708 03d2 00       		.byte	0
 709 03d3 03       		.uleb128 0x3
 710 03d4 30040000 		.long	.LASF67
 711 03d8 0B       		.byte	0xb
 712 03d9 56       		.byte	0x56
 713 03da 21       		.byte	0x21
 714 03db DF030000 		.long	0x3df
 715 03df 0E       		.uleb128 0xe
 716 03e0 DD040000 		.long	.LASF68
 717 03e4 14       		.byte	0x14
 718 03e5 0C       		.byte	0xc
 719 03e6 3901     		.value	0x139
 720 03e8 08       		.byte	0x8
 721 03e9 34040000 		.long	0x434
 722 03ed 0D       		.uleb128 0xd
 723 03ee D3000000 		.long	.LASF59
 724 03f2 0C       		.byte	0xc
 725 03f3 3A01     		.value	0x13a
 726 03f5 1A       		.byte	0x1a
 727 03f6 09070000 		.long	0x709
 728 03fa 00       		.byte	0
GAS LISTING /tmp/ccmJ5FoE.s 			page 14


 729 03fb 0D       		.uleb128 0xd
 730 03fc 44000000 		.long	.LASF62
 731 0400 0C       		.byte	0xc
 732 0401 3B01     		.value	0x13b
 733 0403 1A       		.byte	0x1a
 734 0404 09070000 		.long	0x709
 735 0408 04       		.byte	0x4
 736 0409 0D       		.uleb128 0xd
 737 040a B6000000 		.long	.LASF69
 738 040e 0C       		.byte	0xc
 739 040f 3C01     		.value	0x13c
 740 0411 19       		.byte	0x19
 741 0412 21050000 		.long	0x521
 742 0416 08       		.byte	0x8
 743 0417 0D       		.uleb128 0xd
 744 0418 42010000 		.long	.LASF70
 745 041c 0C       		.byte	0xc
 746 041d 3D01     		.value	0x13d
 747 041f 19       		.byte	0x19
 748 0420 B6030000 		.long	0x3b6
 749 0424 0C       		.byte	0xc
 750 0425 0C       		.uleb128 0xc
 751 0426 70617200 		.string	"par"
 752 042a 0C       		.byte	0xc
 753 042b 3F01     		.value	0x13f
 754 042d 1A       		.byte	0x1a
 755 042e B3000000 		.long	0xb3
 756 0432 10       		.byte	0x10
 757 0433 00       		.byte	0
 758 0434 03       		.uleb128 0x3
 759 0435 29030000 		.long	.LASF71
 760 0439 0B       		.byte	0xb
 761 043a 5B       		.byte	0x5b
 762 043b 28       		.byte	0x28
 763 043c 40040000 		.long	0x440
 764 0440 0E       		.uleb128 0xe
 765 0441 7C030000 		.long	.LASF72
 766 0445 10       		.byte	0x10
 767 0446 0C       		.byte	0xc
 768 0447 4901     		.value	0x149
 769 0449 08       		.byte	0x8
 770 044a 87040000 		.long	0x487
 771 044e 0D       		.uleb128 0xd
 772 044f D3000000 		.long	.LASF59
 773 0453 0C       		.byte	0xc
 774 0454 4A01     		.value	0x14a
 775 0456 1A       		.byte	0x1a
 776 0457 09070000 		.long	0x709
 777 045b 00       		.byte	0
 778 045c 0D       		.uleb128 0xd
 779 045d 44000000 		.long	.LASF62
 780 0461 0C       		.byte	0xc
 781 0462 4C01     		.value	0x14c
 782 0464 1A       		.byte	0x1a
 783 0465 09070000 		.long	0x709
 784 0469 04       		.byte	0x4
 785 046a 0D       		.uleb128 0xd
GAS LISTING /tmp/ccmJ5FoE.s 			page 15


 786 046b B6000000 		.long	.LASF69
 787 046f 0C       		.byte	0xc
 788 0470 4E01     		.value	0x14e
 789 0472 19       		.byte	0x19
 790 0473 21050000 		.long	0x521
 791 0477 08       		.byte	0x8
 792 0478 0D       		.uleb128 0xd
 793 0479 44060000 		.long	.LASF73
 794 047d 0C       		.byte	0xc
 795 047e 5001     		.value	0x150
 796 0480 19       		.byte	0x19
 797 0481 1C050000 		.long	0x51c
 798 0485 0C       		.byte	0xc
 799 0486 00       		.byte	0
 800 0487 03       		.uleb128 0x3
 801 0488 55000000 		.long	.LASF74
 802 048c 0B       		.byte	0xb
 803 048d 60       		.byte	0x60
 804 048e 20       		.byte	0x20
 805 048f 93040000 		.long	0x493
 806 0493 0E       		.uleb128 0xe
 807 0494 57040000 		.long	.LASF75
 808 0498 04       		.byte	0x4
 809 0499 0C       		.byte	0xc
 810 049a 7001     		.value	0x170
 811 049c 08       		.byte	0x8
 812 049d B0040000 		.long	0x4b0
 813 04a1 0D       		.uleb128 0xd
 814 04a2 D4050000 		.long	.LASF76
 815 04a6 0C       		.byte	0xc
 816 04a7 7801     		.value	0x178
 817 04a9 24       		.byte	0x24
 818 04aa FE060000 		.long	0x6fe
 819 04ae 00       		.byte	0
 820 04af 00       		.byte	0
 821 04b0 03       		.uleb128 0x3
 822 04b1 D3020000 		.long	.LASF77
 823 04b5 0B       		.byte	0xb
 824 04b6 65       		.byte	0x65
 825 04b7 1A       		.byte	0x1a
 826 04b8 BC040000 		.long	0x4bc
 827 04bc 0E       		.uleb128 0xe
 828 04bd AE040000 		.long	.LASF78
 829 04c1 78       		.byte	0x78
 830 04c2 0C       		.byte	0xc
 831 04c3 9001     		.value	0x190
 832 04c5 08       		.byte	0x8
 833 04c6 10050000 		.long	0x510
 834 04ca 0D       		.uleb128 0xd
 835 04cb 53060000 		.long	.LASF79
 836 04cf 0C       		.byte	0xc
 837 04d0 9401     		.value	0x194
 838 04d2 19       		.byte	0x19
 839 04d3 47030000 		.long	0x347
 840 04d7 00       		.byte	0
 841 04d8 0D       		.uleb128 0xd
 842 04d9 17010000 		.long	.LASF80
GAS LISTING /tmp/ccmJ5FoE.s 			page 16


 843 04dd 0C       		.byte	0xc
 844 04de 9801     		.value	0x198
 845 04e0 19       		.byte	0x19
 846 04e1 34040000 		.long	0x434
 847 04e5 1C       		.byte	0x1c
 848 04e6 0C       		.uleb128 0xc
 849 04e7 64626700 		.string	"dbg"
 850 04eb 0C       		.byte	0xc
 851 04ec 9C01     		.value	0x19c
 852 04ee 19       		.byte	0x19
 853 04ef 87040000 		.long	0x487
 854 04f3 2C       		.byte	0x2c
 855 04f4 0D       		.uleb128 0xd
 856 04f5 A3000000 		.long	.LASF81
 857 04f9 0C       		.byte	0xc
 858 04fa A001     		.value	0x1a0
 859 04fc 19       		.byte	0x19
 860 04fd DE010000 		.long	0x1de
 861 0501 30       		.byte	0x30
 862 0502 0C       		.uleb128 0xc
 863 0503 746D00   		.string	"tm"
 864 0506 0C       		.byte	0xc
 865 0507 A501     		.value	0x1a5
 866 0509 19       		.byte	0x19
 867 050a 12060000 		.long	0x612
 868 050e 74       		.byte	0x74
 869 050f 00       		.byte	0
 870 0510 03       		.uleb128 0x3
 871 0511 B9050000 		.long	.LASF82
 872 0515 0D       		.byte	0xd
 873 0516 8E       		.byte	0x8e
 874 0517 12       		.byte	0x12
 875 0518 4E010000 		.long	0x14e
 876 051c 11       		.uleb128 0x11
 877 051d 10050000 		.long	0x510
 878 0521 03       		.uleb128 0x3
 879 0522 FC010000 		.long	.LASF83
 880 0526 0D       		.byte	0xd
 881 0527 98       		.byte	0x98
 882 0528 12       		.byte	0x12
 883 0529 5A010000 		.long	0x15a
 884 052d 12       		.uleb128 0x12
 885 052e 10       		.byte	0x10
 886 052f 03       		.byte	0x3
 887 0530 91       		.byte	0x91
 888 0531 09       		.byte	0x9
 889 0532 42050000 		.long	0x542
 890 0536 0B       		.uleb128 0xb
 891 0537 6100     		.string	"a"
 892 0539 03       		.byte	0x3
 893 053a 92       		.byte	0x92
 894 053b 0B       		.byte	0xb
 895 053c 42050000 		.long	0x542
 896 0540 00       		.byte	0
 897 0541 00       		.byte	0
 898 0542 13       		.uleb128 0x13
 899 0543 42010000 		.long	0x142
GAS LISTING /tmp/ccmJ5FoE.s 			page 17


 900 0547 52050000 		.long	0x552
 901 054b 14       		.uleb128 0x14
 902 054c 33000000 		.long	0x33
 903 0550 0F       		.byte	0xf
 904 0551 00       		.byte	0
 905 0552 15       		.uleb128 0x15
 906 0553 3F030000 		.long	.LASF156
 907 0557 03       		.byte	0x3
 908 0558 93       		.byte	0x93
 909 0559 03       		.byte	0x3
 910 055a 2D050000 		.long	0x52d
 911 055e 10       		.byte	0x10
 912 055f 03       		.uleb128 0x3
 913 0560 C3050000 		.long	.LASF84
 914 0564 03       		.byte	0x3
 915 0565 98       		.byte	0x98
 916 0566 0F       		.byte	0xf
 917 0567 B3000000 		.long	0xb3
 918 056b 07       		.uleb128 0x7
 919 056c 49000000 		.long	.LASF85
 920 0570 14       		.byte	0x14
 921 0571 03       		.byte	0x3
 922 0572 A7       		.byte	0xa7
 923 0573 08       		.byte	0x8
 924 0574 BA050000 		.long	0x5ba
 925 0578 0B       		.uleb128 0xb
 926 0579 65627800 		.string	"ebx"
 927 057d 03       		.byte	0x3
 928 057e A8       		.byte	0xa8
 929 057f 0B       		.byte	0xb
 930 0580 5F050000 		.long	0x55f
 931 0584 00       		.byte	0
 932 0585 0B       		.uleb128 0xb
 933 0586 65646900 		.string	"edi"
 934 058a 03       		.byte	0x3
 935 058b A9       		.byte	0xa9
 936 058c 0B       		.byte	0xb
 937 058d 5F050000 		.long	0x55f
 938 0591 04       		.byte	0x4
 939 0592 0B       		.uleb128 0xb
 940 0593 65736900 		.string	"esi"
 941 0597 03       		.byte	0x3
 942 0598 AA       		.byte	0xaa
 943 0599 0B       		.byte	0xb
 944 059a 5F050000 		.long	0x55f
 945 059e 08       		.byte	0x8
 946 059f 0B       		.uleb128 0xb
 947 05a0 65627000 		.string	"ebp"
 948 05a4 03       		.byte	0x3
 949 05a5 AB       		.byte	0xab
 950 05a6 0B       		.byte	0xb
 951 05a7 5F050000 		.long	0x55f
 952 05ab 0C       		.byte	0xc
 953 05ac 0B       		.uleb128 0xb
 954 05ad 65697000 		.string	"eip"
 955 05b1 03       		.byte	0x3
 956 05b2 AC       		.byte	0xac
GAS LISTING /tmp/ccmJ5FoE.s 			page 18


 957 05b3 0B       		.byte	0xb
 958 05b4 5F050000 		.long	0x55f
 959 05b8 10       		.byte	0x10
 960 05b9 00       		.byte	0
 961 05ba 07       		.uleb128 0x7
 962 05bb DA030000 		.long	.LASF86
 963 05bf 04       		.byte	0x4
 964 05c0 03       		.byte	0x3
 965 05c1 B4       		.byte	0xb4
 966 05c2 08       		.byte	0x8
 967 05c3 D4050000 		.long	0x5d4
 968 05c7 0B       		.uleb128 0xb
 969 05c8 737000   		.string	"sp"
 970 05cb 03       		.byte	0x3
 971 05cc B5       		.byte	0xb5
 972 05cd 17       		.byte	0x17
 973 05ce D4050000 		.long	0x5d4
 974 05d2 00       		.byte	0
 975 05d3 00       		.byte	0
 976 05d4 09       		.uleb128 0x9
 977 05d5 04       		.byte	0x4
 978 05d6 6B050000 		.long	0x56b
 979 05da 16       		.uleb128 0x16
 980 05db 80050000 		.long	.LASF88
 981 05df 03       		.byte	0x3
 982 05e0 1E01     		.value	0x11e
 983 05e2 0D       		.byte	0xd
 984 05e3 E7050000 		.long	0x5e7
 985 05e7 02       		.uleb128 0x2
 986 05e8 01       		.byte	0x1
 987 05e9 02       		.byte	0x2
 988 05ea 67040000 		.long	.LASF87
 989 05ee 16       		.uleb128 0x16
 990 05ef 4D050000 		.long	.LASF89
 991 05f3 03       		.byte	0x3
 992 05f4 1F01     		.value	0x11f
 993 05f6 11       		.byte	0x11
 994 05f7 72010000 		.long	0x172
 995 05fb 12       		.uleb128 0x12
 996 05fc 04       		.byte	0x4
 997 05fd 0E       		.byte	0xe
 998 05fe 38       		.byte	0x38
 999 05ff 09       		.byte	0x9
 1000 0600 12060000 		.long	0x612
 1001 0604 08       		.uleb128 0x8
 1002 0605 DE050000 		.long	.LASF90
 1003 0609 0E       		.byte	0xe
 1004 060a 3C       		.byte	0x3c
 1005 060b 19       		.byte	0x19
 1006 060c 66010000 		.long	0x166
 1007 0610 00       		.byte	0
 1008 0611 00       		.byte	0
 1009 0612 03       		.uleb128 0x3
 1010 0613 E7030000 		.long	.LASF91
 1011 0617 0E       		.byte	0xe
 1012 0618 3D       		.byte	0x3d
 1013 0619 03       		.byte	0x3
GAS LISTING /tmp/ccmJ5FoE.s 			page 19


 1014 061a FB050000 		.long	0x5fb
 1015 061e 17       		.uleb128 0x17
 1016 061f 04       		.byte	0x4
 1017 0620 0C       		.byte	0xc
 1018 0621 C6       		.byte	0xc6
 1019 0622 03       		.byte	0x3
 1020 0623 89060000 		.long	0x689
 1021 0627 18       		.uleb128 0x18
 1022 0628 2A000000 		.long	.LASF92
 1023 062c 0C       		.byte	0xc
 1024 062d CD       		.byte	0xcd
 1025 062e 19       		.byte	0x19
 1026 062f AE010000 		.long	0x1ae
 1027 0633 18       		.uleb128 0x18
 1028 0634 9A000000 		.long	.LASF93
 1029 0638 0C       		.byte	0xc
 1030 0639 D4       		.byte	0xd4
 1031 063a 19       		.byte	0x19
 1032 063b AE010000 		.long	0x1ae
 1033 063f 18       		.uleb128 0x18
 1034 0640 89060000 		.long	.LASF94
 1035 0644 0C       		.byte	0xc
 1036 0645 DB       		.byte	0xdb
 1037 0646 1A       		.byte	0x1a
 1038 0647 B3000000 		.long	0xb3
 1039 064b 18       		.uleb128 0x18
 1040 064c A1040000 		.long	.LASF95
 1041 0650 0C       		.byte	0xc
 1042 0651 E2       		.byte	0xe2
 1043 0652 1A       		.byte	0x1a
 1044 0653 89060000 		.long	0x689
 1045 0657 18       		.uleb128 0x18
 1046 0658 AE000000 		.long	.LASF96
 1047 065c 0C       		.byte	0xc
 1048 065d E7       		.byte	0xe7
 1049 065e 19       		.byte	0x19
 1050 065f AE010000 		.long	0x1ae
 1051 0663 18       		.uleb128 0x18
 1052 0664 26020000 		.long	.LASF97
 1053 0668 0C       		.byte	0xc
 1054 0669 F0       		.byte	0xf0
 1055 066a 1A       		.byte	0x1a
 1056 066b B7060000 		.long	0x6b7
 1057 066f 18       		.uleb128 0x18
 1058 0670 30050000 		.long	.LASF98
 1059 0674 0C       		.byte	0xc
 1060 0675 F9       		.byte	0xf9
 1061 0676 1A       		.byte	0x1a
 1062 0677 F2060000 		.long	0x6f2
 1063 067b 19       		.uleb128 0x19
 1064 067c A7040000 		.long	.LASF99
 1065 0680 0C       		.byte	0xc
 1066 0681 0101     		.value	0x101
 1067 0683 19       		.byte	0x19
 1068 0684 BA010000 		.long	0x1ba
 1069 0688 00       		.byte	0
 1070 0689 09       		.uleb128 0x9
GAS LISTING /tmp/ccmJ5FoE.s 			page 20


 1071 068a 04       		.byte	0x4
 1072 068b DA020000 		.long	0x2da
 1073 068f 07       		.uleb128 0x7
 1074 0690 EE040000 		.long	.LASF100
 1075 0694 0C       		.byte	0xc
 1076 0695 0F       		.byte	0xf
 1077 0696 34       		.byte	0x34
 1078 0697 10       		.byte	0x10
 1079 0698 B7060000 		.long	0x6b7
 1080 069c 08       		.uleb128 0x8
 1081 069d 80020000 		.long	.LASF41
 1082 06a1 0F       		.byte	0xf
 1083 06a2 35       		.byte	0x35
 1084 06a3 19       		.byte	0x19
 1085 06a4 13030000 		.long	0x313
 1086 06a8 00       		.byte	0
 1087 06a9 0B       		.uleb128 0xb
 1088 06aa 636E7400 		.string	"cnt"
 1089 06ae 0F       		.byte	0xf
 1090 06af 37       		.byte	0x37
 1091 06b0 19       		.byte	0x19
 1092 06b1 C6010000 		.long	0x1c6
 1093 06b5 08       		.byte	0x8
 1094 06b6 00       		.byte	0
 1095 06b7 09       		.uleb128 0x9
 1096 06b8 04       		.byte	0x4
 1097 06b9 8F060000 		.long	0x68f
 1098 06bd 07       		.uleb128 0x7
 1099 06be 3B060000 		.long	.LASF101
 1100 06c2 10       		.byte	0x10
 1101 06c3 10       		.byte	0x10
 1102 06c4 39       		.byte	0x39
 1103 06c5 08       		.byte	0x8
 1104 06c6 F2060000 		.long	0x6f2
 1105 06ca 08       		.uleb128 0x8
 1106 06cb 80020000 		.long	.LASF41
 1107 06cf 10       		.byte	0x10
 1108 06d0 3A       		.byte	0x3a
 1109 06d1 19       		.byte	0x19
 1110 06d2 13030000 		.long	0x313
 1111 06d6 00       		.byte	0
 1112 06d7 08       		.uleb128 0x8
 1113 06d8 47050000 		.long	.LASF102
 1114 06dc 10       		.byte	0x10
 1115 06dd 3C       		.byte	0x3c
 1116 06de 1A       		.byte	0x1a
 1117 06df E6020000 		.long	0x2e6
 1118 06e3 08       		.byte	0x8
 1119 06e4 08       		.uleb128 0x8
 1120 06e5 D3000000 		.long	.LASF59
 1121 06e9 10       		.byte	0x10
 1122 06ea 3E       		.byte	0x3e
 1123 06eb 1A       		.byte	0x1a
 1124 06ec 61080000 		.long	0x861
 1125 06f0 0C       		.byte	0xc
 1126 06f1 00       		.byte	0
 1127 06f2 09       		.uleb128 0x9
GAS LISTING /tmp/ccmJ5FoE.s 			page 21


 1128 06f3 04       		.byte	0x4
 1129 06f4 BD060000 		.long	0x6bd
 1130 06f8 09       		.uleb128 0x9
 1131 06f9 04       		.byte	0x4
 1132 06fa BC000000 		.long	0xbc
 1133 06fe 11       		.uleb128 0x11
 1134 06ff F8060000 		.long	0x6f8
 1135 0703 09       		.uleb128 0x9
 1136 0704 04       		.byte	0x4
 1137 0705 52050000 		.long	0x552
 1138 0709 09       		.uleb128 0x9
 1139 070a 04       		.byte	0x4
 1140 070b D3030000 		.long	0x3d3
 1141 070f 1A       		.uleb128 0x1a
 1142 0710 636800   		.string	"ch"
 1143 0713 0C       		.byte	0xc
 1144 0714 C701     		.value	0x1c7
 1145 0716 14       		.byte	0x14
 1146 0717 B0040000 		.long	0x4b0
 1147 071b 1B       		.uleb128 0x1b
 1148 071c 52050000 		.long	0x552
 1149 0720 10       		.byte	0x10
 1150 0721 27070000 		.long	0x727
 1151 0725 1C       		.uleb128 0x1c
 1152 0726 00       		.byte	0
 1153 0727 16       		.uleb128 0x16
 1154 0728 04050000 		.long	.LASF103
 1155 072c 02       		.byte	0x2
 1156 072d 1701     		.value	0x117
 1157 072f 13       		.byte	0x13
 1158 0730 1B070000 		.long	0x71b
 1159 0734 12       		.uleb128 0x12
 1160 0735 16       		.byte	0x16
 1161 0736 11       		.byte	0x11
 1162 0737 34       		.byte	0x34
 1163 0738 09       		.byte	0x9
 1164 0739 28080000 		.long	0x828
 1165 073d 08       		.uleb128 0x8
 1166 073e 5A010000 		.long	.LASF104
 1167 0742 11       		.byte	0x11
 1168 0743 35       		.byte	0x35
 1169 0744 0D       		.byte	0xd
 1170 0745 28080000 		.long	0x828
 1171 0749 00       		.byte	0
 1172 074a 08       		.uleb128 0x8
 1173 074b E9010000 		.long	.LASF105
 1174 074f 11       		.byte	0x11
 1175 0750 36       		.byte	0x36
 1176 0751 0D       		.byte	0xd
 1177 0752 42010000 		.long	0x142
 1178 0756 04       		.byte	0x4
 1179 0757 08       		.uleb128 0x8
 1180 0758 9C060000 		.long	.LASF106
 1181 075c 11       		.byte	0x11
 1182 075d 37       		.byte	0x37
 1183 075e 0D       		.byte	0xd
 1184 075f 42010000 		.long	0x142
GAS LISTING /tmp/ccmJ5FoE.s 			page 22


 1185 0763 05       		.byte	0x5
 1186 0764 08       		.uleb128 0x8
 1187 0765 59030000 		.long	.LASF107
 1188 0769 11       		.byte	0x11
 1189 076a 38       		.byte	0x38
 1190 076b 0D       		.byte	0xd
 1191 076c 4E010000 		.long	0x14e
 1192 0770 06       		.byte	0x6
 1193 0771 08       		.uleb128 0x8
 1194 0772 10060000 		.long	.LASF108
 1195 0776 11       		.byte	0x11
 1196 0777 39       		.byte	0x39
 1197 0778 0D       		.byte	0xd
 1198 0779 42010000 		.long	0x142
 1199 077d 08       		.byte	0x8
 1200 077e 08       		.uleb128 0x8
 1201 077f 16050000 		.long	.LASF109
 1202 0783 11       		.byte	0x11
 1203 0784 3A       		.byte	0x3a
 1204 0785 0D       		.byte	0xd
 1205 0786 42010000 		.long	0x142
 1206 078a 09       		.byte	0x9
 1207 078b 08       		.uleb128 0x8
 1208 078c 20040000 		.long	.LASF110
 1209 0790 11       		.byte	0x11
 1210 0791 3B       		.byte	0x3b
 1211 0792 0D       		.byte	0xd
 1212 0793 42010000 		.long	0x142
 1213 0797 0A       		.byte	0xa
 1214 0798 08       		.uleb128 0x8
 1215 0799 83040000 		.long	.LASF111
 1216 079d 11       		.byte	0x11
 1217 079e 3C       		.byte	0x3c
 1218 079f 0D       		.byte	0xd
 1219 07a0 42010000 		.long	0x142
 1220 07a4 0B       		.byte	0xb
 1221 07a5 08       		.uleb128 0x8
 1222 07a6 DF020000 		.long	.LASF112
 1223 07aa 11       		.byte	0x11
 1224 07ab 3D       		.byte	0x3d
 1225 07ac 0D       		.byte	0xd
 1226 07ad 42010000 		.long	0x142
 1227 07b1 0C       		.byte	0xc
 1228 07b2 08       		.uleb128 0x8
 1229 07b3 A6030000 		.long	.LASF113
 1230 07b7 11       		.byte	0x11
 1231 07b8 3E       		.byte	0x3e
 1232 07b9 0D       		.byte	0xd
 1233 07ba 42010000 		.long	0x142
 1234 07be 0D       		.byte	0xd
 1235 07bf 08       		.uleb128 0x8
 1236 07c0 E5050000 		.long	.LASF114
 1237 07c4 11       		.byte	0x11
 1238 07c5 3F       		.byte	0x3f
 1239 07c6 0D       		.byte	0xd
 1240 07c7 42010000 		.long	0x142
 1241 07cb 0E       		.byte	0xe
GAS LISTING /tmp/ccmJ5FoE.s 			page 23


 1242 07cc 08       		.uleb128 0x8
 1243 07cd 18030000 		.long	.LASF115
 1244 07d1 11       		.byte	0x11
 1245 07d2 40       		.byte	0x40
 1246 07d3 0D       		.byte	0xd
 1247 07d4 42010000 		.long	0x142
 1248 07d8 0F       		.byte	0xf
 1249 07d9 08       		.uleb128 0x8
 1250 07da 09000000 		.long	.LASF116
 1251 07de 11       		.byte	0x11
 1252 07df 41       		.byte	0x41
 1253 07e0 0D       		.byte	0xd
 1254 07e1 42010000 		.long	0x142
 1255 07e5 10       		.byte	0x10
 1256 07e6 08       		.uleb128 0x8
 1257 07e7 3A070000 		.long	.LASF117
 1258 07eb 11       		.byte	0x11
 1259 07ec 42       		.byte	0x42
 1260 07ed 0D       		.byte	0xd
 1261 07ee 42010000 		.long	0x142
 1262 07f2 11       		.byte	0x11
 1263 07f3 08       		.uleb128 0x8
 1264 07f4 62070000 		.long	.LASF118
 1265 07f8 11       		.byte	0x11
 1266 07f9 43       		.byte	0x43
 1267 07fa 0D       		.byte	0xd
 1268 07fb 42010000 		.long	0x142
 1269 07ff 12       		.byte	0x12
 1270 0800 08       		.uleb128 0x8
 1271 0801 00000000 		.long	.LASF119
 1272 0805 11       		.byte	0x11
 1273 0806 44       		.byte	0x44
 1274 0807 0D       		.byte	0xd
 1275 0808 42010000 		.long	0x142
 1276 080c 13       		.byte	0x13
 1277 080d 08       		.uleb128 0x8
 1278 080e B8010000 		.long	.LASF120
 1279 0812 11       		.byte	0x11
 1280 0813 45       		.byte	0x45
 1281 0814 0D       		.byte	0xd
 1282 0815 42010000 		.long	0x142
 1283 0819 14       		.byte	0x14
 1284 081a 08       		.uleb128 0x8
 1285 081b FB040000 		.long	.LASF121
 1286 081f 11       		.byte	0x11
 1287 0820 46       		.byte	0x46
 1288 0821 0D       		.byte	0xd
 1289 0822 42010000 		.long	0x142
 1290 0826 15       		.byte	0x15
 1291 0827 00       		.byte	0
 1292 0828 13       		.uleb128 0x13
 1293 0829 B5000000 		.long	0xb5
 1294 082d 38080000 		.long	0x838
 1295 0831 14       		.uleb128 0x14
 1296 0832 33000000 		.long	0x33
 1297 0836 03       		.byte	0x3
 1298 0837 00       		.byte	0
GAS LISTING /tmp/ccmJ5FoE.s 			page 24


 1299 0838 03       		.uleb128 0x3
 1300 0839 AE010000 		.long	.LASF122
 1301 083d 11       		.byte	0x11
 1302 083e 47       		.byte	0x47
 1303 083f 03       		.byte	0x3
 1304 0840 34070000 		.long	0x734
 1305 0844 06       		.uleb128 0x6
 1306 0845 38080000 		.long	0x838
 1307 0849 1D       		.uleb128 0x1d
 1308 084a 3F020000 		.long	.LASF123
 1309 084e 11       		.byte	0x11
 1310 084f 6C       		.byte	0x6c
 1311 0850 1D       		.byte	0x1d
 1312 0851 44080000 		.long	0x844
 1313 0855 03       		.uleb128 0x3
 1314 0856 EE010000 		.long	.LASF124
 1315 085a 10       		.byte	0x10
 1316 085b 34       		.byte	0x34
 1317 085c 19       		.byte	0x19
 1318 085d BD060000 		.long	0x6bd
 1319 0861 09       		.uleb128 0x9
 1320 0862 04       		.byte	0x4
 1321 0863 55080000 		.long	0x855
 1322 0867 03       		.uleb128 0x3
 1323 0868 76000000 		.long	.LASF125
 1324 086c 12       		.byte	0x12
 1325 086d 4B       		.byte	0x4b
 1326 086e 11       		.byte	0x11
 1327 086f 73080000 		.long	0x873
 1328 0873 09       		.uleb128 0x9
 1329 0874 04       		.byte	0x4
 1330 0875 79080000 		.long	0x879
 1331 0879 1E       		.uleb128 0x1e
 1332 087a B3000000 		.long	0xb3
 1333 087e 8D080000 		.long	0x88d
 1334 0882 10       		.uleb128 0x10
 1335 0883 1C010000 		.long	0x11c
 1336 0887 10       		.uleb128 0x10
 1337 0888 33000000 		.long	0x33
 1338 088c 00       		.byte	0
 1339 088d 12       		.uleb128 0x12
 1340 088e 08       		.byte	0x8
 1341 088f 12       		.byte	0x12
 1342 0890 55       		.byte	0x55
 1343 0891 09       		.byte	0x9
 1344 0892 B1080000 		.long	0x8b1
 1345 0896 08       		.uleb128 0x8
 1346 0897 74070000 		.long	.LASF126
 1347 089b 12       		.byte	0x12
 1348 089c 59       		.byte	0x59
 1349 089d 0C       		.byte	0xc
 1350 089e B1080000 		.long	0x8b1
 1351 08a2 00       		.byte	0
 1352 08a3 08       		.uleb128 0x8
 1353 08a4 4C060000 		.long	.LASF127
 1354 08a8 12       		.byte	0x12
 1355 08a9 5D       		.byte	0x5d
GAS LISTING /tmp/ccmJ5FoE.s 			page 25


 1356 08aa 0C       		.byte	0xc
 1357 08ab B1080000 		.long	0x8b1
 1358 08af 04       		.byte	0x4
 1359 08b0 00       		.byte	0
 1360 08b1 09       		.uleb128 0x9
 1361 08b2 04       		.byte	0x4
 1362 08b3 42010000 		.long	0x142
 1363 08b7 03       		.uleb128 0x3
 1364 08b8 0E040000 		.long	.LASF128
 1365 08bc 12       		.byte	0x12
 1366 08bd 5E       		.byte	0x5e
 1367 08be 03       		.byte	0x3
 1368 08bf 8D080000 		.long	0x88d
 1369 08c3 1D       		.uleb128 0x1d
 1370 08c4 8C040000 		.long	.LASF129
 1371 08c8 12       		.byte	0x12
 1372 08c9 69       		.byte	0x69
 1373 08ca 12       		.byte	0x12
 1374 08cb B7080000 		.long	0x8b7
 1375 08cf 07       		.uleb128 0x7
 1376 08d0 90060000 		.long	.LASF130
 1377 08d4 04       		.byte	0x4
 1378 08d5 13       		.byte	0x13
 1379 08d6 3C       		.byte	0x3c
 1380 08d7 08       		.byte	0x8
 1381 08d8 EA080000 		.long	0x8ea
 1382 08dc 08       		.uleb128 0x8
 1383 08dd D3000000 		.long	.LASF59
 1384 08e1 13       		.byte	0x13
 1385 08e2 3D       		.byte	0x3d
 1386 08e3 1A       		.byte	0x1a
 1387 08e4 EA080000 		.long	0x8ea
 1388 08e8 00       		.byte	0
 1389 08e9 00       		.byte	0
 1390 08ea 09       		.uleb128 0x9
 1391 08eb 04       		.byte	0x4
 1392 08ec CF080000 		.long	0x8cf
 1393 08f0 12       		.uleb128 0x12
 1394 08f1 10       		.byte	0x10
 1395 08f2 13       		.byte	0x13
 1396 08f3 44       		.byte	0x44
 1397 08f4 09       		.byte	0x9
 1398 08f5 2E090000 		.long	0x92e
 1399 08f9 08       		.uleb128 0x8
 1400 08fa D3000000 		.long	.LASF59
 1401 08fe 13       		.byte	0x13
 1402 08ff 45       		.byte	0x45
 1403 0900 1A       		.byte	0x1a
 1404 0901 EA080000 		.long	0x8ea
 1405 0905 00       		.byte	0
 1406 0906 08       		.uleb128 0x8
 1407 0907 04060000 		.long	.LASF131
 1408 090b 13       		.byte	0x13
 1409 090c 46       		.byte	0x46
 1410 090d 19       		.byte	0x19
 1411 090e 1C010000 		.long	0x11c
 1412 0912 04       		.byte	0x4
GAS LISTING /tmp/ccmJ5FoE.s 			page 26


 1413 0913 08       		.uleb128 0x8
 1414 0914 F6010000 		.long	.LASF132
 1415 0918 13       		.byte	0x13
 1416 0919 48       		.byte	0x48
 1417 091a 19       		.byte	0x19
 1418 091b 33000000 		.long	0x33
 1419 091f 08       		.byte	0x8
 1420 0920 08       		.uleb128 0x8
 1421 0921 64000000 		.long	.LASF133
 1422 0925 13       		.byte	0x13
 1423 0926 49       		.byte	0x49
 1424 0927 19       		.byte	0x19
 1425 0928 67080000 		.long	0x867
 1426 092c 0C       		.byte	0xc
 1427 092d 00       		.byte	0
 1428 092e 03       		.uleb128 0x3
 1429 092f 6D020000 		.long	.LASF134
 1430 0933 13       		.byte	0x13
 1431 0934 4B       		.byte	0x4b
 1432 0935 03       		.byte	0x3
 1433 0936 F0080000 		.long	0x8f0
 1434 093a 07       		.uleb128 0x7
 1435 093b 40040000 		.long	.LASF135
 1436 093f 10       		.byte	0x10
 1437 0940 14       		.byte	0x14
 1438 0941 97       		.byte	0x97
 1439 0942 10       		.byte	0x10
 1440 0943 6F090000 		.long	0x96f
 1441 0947 08       		.uleb128 0x8
 1442 0948 D3000000 		.long	.LASF59
 1443 094c 14       		.byte	0x14
 1444 094d 9B       		.byte	0x9b
 1445 094e 1A       		.byte	0x1a
 1446 094f 6F090000 		.long	0x96f
 1447 0953 00       		.byte	0
 1448 0954 08       		.uleb128 0x8
 1449 0955 2B040000 		.long	.LASF49
 1450 0959 14       		.byte	0x14
 1451 095a 9F       		.byte	0x9f
 1452 095b 19       		.byte	0x19
 1453 095c D2010000 		.long	0x1d2
 1454 0960 04       		.byte	0x4
 1455 0961 08       		.uleb128 0x8
 1456 0962 7B020000 		.long	.LASF45
 1457 0966 14       		.byte	0x14
 1458 0967 A1       		.byte	0xa1
 1459 0968 19       		.byte	0x19
 1460 0969 75090000 		.long	0x975
 1461 096d 08       		.byte	0x8
 1462 096e 00       		.byte	0
 1463 096f 09       		.uleb128 0x9
 1464 0970 04       		.byte	0x4
 1465 0971 3A090000 		.long	0x93a
 1466 0975 13       		.uleb128 0x13
 1467 0976 B5000000 		.long	0xb5
 1468 097a 85090000 		.long	0x985
 1469 097e 14       		.uleb128 0x14
GAS LISTING /tmp/ccmJ5FoE.s 			page 27


 1470 097f 33000000 		.long	0x33
 1471 0983 07       		.byte	0x7
 1472 0984 00       		.byte	0
 1473 0985 03       		.uleb128 0x3
 1474 0986 C5000000 		.long	.LASF136
 1475 098a 14       		.byte	0x14
 1476 098b A5       		.byte	0xa5
 1477 098c 03       		.byte	0x3
 1478 098d 3A090000 		.long	0x93a
 1479 0991 07       		.uleb128 0x7
 1480 0992 EF050000 		.long	.LASF137
 1481 0996 04       		.byte	0x4
 1482 0997 14       		.byte	0x14
 1483 0998 AA       		.byte	0xaa
 1484 0999 10       		.byte	0x10
 1485 099a AC090000 		.long	0x9ac
 1486 099e 08       		.uleb128 0x8
 1487 099f D3000000 		.long	.LASF59
 1488 09a3 14       		.byte	0x14
 1489 09a4 AB       		.byte	0xab
 1490 09a5 1A       		.byte	0x1a
 1491 09a6 AC090000 		.long	0x9ac
 1492 09aa 00       		.byte	0
 1493 09ab 00       		.byte	0
 1494 09ac 09       		.uleb128 0x9
 1495 09ad 04       		.byte	0x4
 1496 09ae 85090000 		.long	0x985
 1497 09b2 03       		.uleb128 0x3
 1498 09b3 C8020000 		.long	.LASF138
 1499 09b7 14       		.byte	0x14
 1500 09b8 AC       		.byte	0xac
 1501 09b9 03       		.byte	0x3
 1502 09ba 91090000 		.long	0x991
 1503 09be 0E       		.uleb128 0xe
 1504 09bf 18060000 		.long	.LASF139
 1505 09c3 44       		.byte	0x44
 1506 09c4 14       		.byte	0x14
 1507 09c5 1501     		.value	0x115
 1508 09c7 10       		.byte	0x10
 1509 09c8 3D0A0000 		.long	0xa3d
 1510 09cc 0C       		.uleb128 0xc
 1511 09cd 6D747800 		.string	"mtx"
 1512 09d1 14       		.byte	0x14
 1513 09d2 1A01     		.value	0x11a
 1514 09d4 19       		.byte	0x19
 1515 09d5 55080000 		.long	0x855
 1516 09d9 00       		.byte	0
 1517 09da 0D       		.uleb128 0xd
 1518 09db 6C050000 		.long	.LASF140
 1519 09df 14       		.byte	0x14
 1520 09e0 2101     		.value	0x121
 1521 09e2 19       		.byte	0x19
 1522 09e3 B2090000 		.long	0x9b2
 1523 09e7 10       		.byte	0x10
 1524 09e8 0D       		.uleb128 0xd
 1525 09e9 CB040000 		.long	.LASF141
 1526 09ed 14       		.byte	0x14
GAS LISTING /tmp/ccmJ5FoE.s 			page 28


 1527 09ee 2501     		.value	0x125
 1528 09f0 19       		.byte	0x19
 1529 09f1 2E090000 		.long	0x92e
 1530 09f5 14       		.byte	0x14
 1531 09f6 0D       		.uleb128 0xd
 1532 09f7 9F020000 		.long	.LASF142
 1533 09fb 14       		.byte	0x14
 1534 09fc 2A01     		.value	0x12a
 1535 09fe 19       		.byte	0x19
 1536 09ff B2090000 		.long	0x9b2
 1537 0a03 24       		.byte	0x24
 1538 0a04 0D       		.uleb128 0xd
 1539 0a05 6D000000 		.long	.LASF143
 1540 0a09 14       		.byte	0x14
 1541 0a0a 3001     		.value	0x130
 1542 0a0c 19       		.byte	0x19
 1543 0a0d B2090000 		.long	0x9b2
 1544 0a11 28       		.byte	0x28
 1545 0a12 0D       		.uleb128 0xd
 1546 0a13 FD030000 		.long	.LASF144
 1547 0a17 14       		.byte	0x14
 1548 0a18 3401     		.value	0x134
 1549 0a1a 19       		.byte	0x19
 1550 0a1b 2E090000 		.long	0x92e
 1551 0a1f 2C       		.byte	0x2c
 1552 0a20 0D       		.uleb128 0xd
 1553 0a21 D4040000 		.long	.LASF145
 1554 0a25 14       		.byte	0x14
 1555 0a26 3A01     		.value	0x13a
 1556 0a28 19       		.byte	0x19
 1557 0a29 B2090000 		.long	0x9b2
 1558 0a2d 3C       		.byte	0x3c
 1559 0a2e 0D       		.uleb128 0xd
 1560 0a2f 72060000 		.long	.LASF146
 1561 0a33 14       		.byte	0x14
 1562 0a34 4001     		.value	0x140
 1563 0a36 19       		.byte	0x19
 1564 0a37 B2090000 		.long	0x9b2
 1565 0a3b 40       		.byte	0x40
 1566 0a3c 00       		.byte	0
 1567 0a3d 1F       		.uleb128 0x1f
 1568 0a3e 50070000 		.long	.LASF147
 1569 0a42 14       		.byte	0x14
 1570 0a43 4201     		.value	0x142
 1571 0a45 03       		.byte	0x3
 1572 0a46 BE090000 		.long	0x9be
 1573 0a4a 16       		.uleb128 0x16
 1574 0a4b C0040000 		.long	.LASF148
 1575 0a4f 14       		.byte	0x14
 1576 0a50 4D01     		.value	0x14d
 1577 0a52 1A       		.byte	0x1a
 1578 0a53 3D0A0000 		.long	0xa3d
 1579 0a57 20       		.uleb128 0x20
 1580 0a58 DA050000 		.long	0x5da
 1581 0a5c 01       		.byte	0x1
 1582 0a5d 2C       		.byte	0x2c
 1583 0a5e 06       		.byte	0x6
GAS LISTING /tmp/ccmJ5FoE.s 			page 29


 1584 0a5f 05       		.uleb128 0x5
 1585 0a60 03       		.byte	0x3
 1586 0a61 00000000 		.long	port_isr_context_flag
 1587 0a65 20       		.uleb128 0x20
 1588 0a66 EE050000 		.long	0x5ee
 1589 0a6a 01       		.byte	0x1
 1590 0a6b 2D       		.byte	0x2d
 1591 0a6c 0A       		.byte	0xa
 1592 0a6d 05       		.uleb128 0x5
 1593 0a6e 03       		.byte	0x3
 1594 0a6f 00000000 		.long	port_irq_sts
 1595 0a73 21       		.uleb128 0x21
 1596 0a74 9F050000 		.long	.LASF149
 1597 0a78 01       		.byte	0x1
 1598 0a79 74       		.byte	0x74
 1599 0a7a 09       		.byte	0x9
 1600 0a7b 66010000 		.long	0x166
 1601 0a7f 00000000 		.long	.LFB140
 1602 0a83 4D000000 		.long	.LFE140-.LFB140
 1603 0a87 01       		.uleb128 0x1
 1604 0a88 9C       		.byte	0x9c
 1605 0a89 AE0A0000 		.long	0xaae
 1606 0a8d 22       		.uleb128 0x22
 1607 0a8e 747600   		.string	"tv"
 1608 0a91 01       		.byte	0x1
 1609 0a92 7C       		.byte	0x7c
 1610 0a93 12       		.byte	0x12
 1611 0a94 C1000000 		.long	0xc1
 1612 0a98 02       		.uleb128 0x2
 1613 0a99 91       		.byte	0x91
 1614 0a9a 64       		.sleb128 -28
 1615 0a9b 23       		.uleb128 0x23
 1616 0a9c 27000000 		.long	.LVL4
 1617 0aa0 A10B0000 		.long	0xba1
 1618 0aa4 23       		.uleb128 0x23
 1619 0aa5 4D000000 		.long	.LVL5
 1620 0aa9 AD0B0000 		.long	0xbad
 1621 0aad 00       		.byte	0
 1622 0aae 24       		.uleb128 0x24
 1623 0aaf 47010000 		.long	.LASF150
 1624 0ab3 01       		.byte	0x1
 1625 0ab4 66       		.byte	0x66
 1626 0ab5 06       		.byte	0x6
 1627 0ab6 00000000 		.long	.LFB139
 1628 0aba 32000000 		.long	.LFE139-.LFB139
 1629 0abe 01       		.uleb128 0x1
 1630 0abf 9C       		.byte	0x9c
 1631 0ac0 200B0000 		.long	0xb20
 1632 0ac4 25       		.uleb128 0x25
 1633 0ac5 706600   		.string	"pf"
 1634 0ac8 01       		.byte	0x1
 1635 0ac9 66       		.byte	0x66
 1636 0aca 21       		.byte	0x21
 1637 0acb 2F0B0000 		.long	0xb2f
 1638 0acf 02       		.uleb128 0x2
 1639 0ad0 91       		.byte	0x91
 1640 0ad1 00       		.sleb128 0
GAS LISTING /tmp/ccmJ5FoE.s 			page 30


 1641 0ad2 25       		.uleb128 0x25
 1642 0ad3 7000     		.string	"p"
 1643 0ad5 01       		.byte	0x1
 1644 0ad6 66       		.byte	0x66
 1645 0ad7 34       		.byte	0x34
 1646 0ad8 B3000000 		.long	0xb3
 1647 0adc 02       		.uleb128 0x2
 1648 0add 91       		.byte	0x91
 1649 0ade 04       		.sleb128 4
 1650 0adf 26       		.uleb128 0x26
 1651 0ae0 6A0B0000 		.long	0xb6a
 1652 0ae4 00000000 		.long	.LBI8
 1653 0ae8 02       		.byte	.LVU7
 1654 0ae9 00000000 		.long	.Ldebug_ranges0+0
 1655 0aed 01       		.byte	0x1
 1656 0aee 68       		.byte	0x68
 1657 0aef 03       		.byte	0x3
 1658 0af0 0D0B0000 		.long	0xb0d
 1659 0af4 27       		.uleb128 0x27
 1660 0af5 00000000 		.long	.Ldebug_ranges0+0
 1661 0af9 28       		.uleb128 0x28
 1662 0afa 970B0000 		.long	0xb97
 1663 0afe 00000000 		.long	.LBI10
 1664 0b02 08       		.byte	.LVU13
 1665 0b03 00000000 		.long	.Ldebug_ranges0+0
 1666 0b07 02       		.byte	0x2
 1667 0b08 7A01     		.value	0x17a
 1668 0b0a 03       		.byte	0x3
 1669 0b0b 00       		.byte	0
 1670 0b0c 00       		.byte	0
 1671 0b0d 29       		.uleb128 0x29
 1672 0b0e 21000000 		.long	.LVL2
 1673 0b12 03       		.uleb128 0x3
 1674 0b13 91       		.byte	0x91
 1675 0b14 00       		.sleb128 0
 1676 0b15 06       		.byte	0x6
 1677 0b16 23       		.uleb128 0x23
 1678 0b17 2D000000 		.long	.LVL3
 1679 0b1b B60B0000 		.long	0xbb6
 1680 0b1f 00       		.byte	0
 1681 0b20 1E       		.uleb128 0x1e
 1682 0b21 AE010000 		.long	0x1ae
 1683 0b25 2F0B0000 		.long	0xb2f
 1684 0b29 10       		.uleb128 0x10
 1685 0b2a B3000000 		.long	0xb3
 1686 0b2e 00       		.byte	0
 1687 0b2f 09       		.uleb128 0x9
 1688 0b30 04       		.byte	0x4
 1689 0b31 200B0000 		.long	0xb20
 1690 0b35 2A       		.uleb128 0x2a
 1691 0b36 B8040000 		.long	.LASF157
 1692 0b3a 01       		.byte	0x1
 1693 0b3b 45       		.byte	0x45
 1694 0b3c 0D       		.byte	0xd
 1695 0b3d 00000000 		.long	.LFB138
 1696 0b41 10000000 		.long	.LFE138-.LFB138
 1697 0b45 01       		.uleb128 0x1
GAS LISTING /tmp/ccmJ5FoE.s 			page 31


 1698 0b46 9C       		.byte	0x9c
 1699 0b47 6A0B0000 		.long	0xb6a
 1700 0b4b 25       		.uleb128 0x25
 1701 0b4c 6E747000 		.string	"ntp"
 1702 0b50 01       		.byte	0x1
 1703 0b51 45       		.byte	0x45
 1704 0b52 1F       		.byte	0x1f
 1705 0b53 E6020000 		.long	0x2e6
 1706 0b57 02       		.uleb128 0x2
 1707 0b58 91       		.byte	0x91
 1708 0b59 00       		.sleb128 0
 1709 0b5a 25       		.uleb128 0x25
 1710 0b5b 6F747000 		.string	"otp"
 1711 0b5f 01       		.byte	0x1
 1712 0b60 45       		.byte	0x45
 1713 0b61 2E       		.byte	0x2e
 1714 0b62 E6020000 		.long	0x2e6
 1715 0b66 02       		.uleb128 0x2
 1716 0b67 91       		.byte	0x91
 1717 0b68 04       		.sleb128 4
 1718 0b69 00       		.byte	0
 1719 0b6a 2B       		.uleb128 0x2b
 1720 0b6b 44070000 		.long	.LASF158
 1721 0b6f 02       		.byte	0x2
 1722 0b70 6D01     		.value	0x16d
 1723 0b72 14       		.byte	0x14
 1724 0b73 03       		.byte	0x3
 1725 0b74 820B0000 		.long	0xb82
 1726 0b78 2C       		.uleb128 0x2c
 1727 0b79 BC000000 		.long	.LASF159
 1728 0b7d 920B0000 		.long	0xb92
 1729 0b81 00       		.byte	0
 1730 0b82 13       		.uleb128 0x13
 1731 0b83 BC000000 		.long	0xbc
 1732 0b87 920B0000 		.long	0xb92
 1733 0b8b 14       		.uleb128 0x14
 1734 0b8c 33000000 		.long	0x33
 1735 0b90 0B       		.byte	0xb
 1736 0b91 00       		.byte	0
 1737 0b92 06       		.uleb128 0x6
 1738 0b93 820B0000 		.long	0xb82
 1739 0b97 2D       		.uleb128 0x2d
 1740 0b98 1E010000 		.long	.LASF160
 1741 0b9c 03       		.byte	0x3
 1742 0b9d 7301     		.value	0x173
 1743 0b9f 14       		.byte	0x14
 1744 0ba0 03       		.byte	0x3
 1745 0ba1 2E       		.uleb128 0x2e
 1746 0ba2 7C060000 		.long	.LASF151
 1747 0ba6 7C060000 		.long	.LASF151
 1748 0baa 06       		.byte	0x6
 1749 0bab 44       		.byte	0x44
 1750 0bac 0C       		.byte	0xc
 1751 0bad 2F       		.uleb128 0x2f
 1752 0bae 48020000 		.long	.LASF161
 1753 0bb2 48020000 		.long	.LASF161
 1754 0bb6 2E       		.uleb128 0x2e
GAS LISTING /tmp/ccmJ5FoE.s 			page 32


 1755 0bb7 03010000 		.long	.LASF152
 1756 0bbb 03010000 		.long	.LASF152
 1757 0bbf 15       		.byte	0x15
 1758 0bc0 EE       		.byte	0xee
 1759 0bc1 08       		.byte	0x8
 1760 0bc2 00       		.byte	0
 1761              		.section	.debug_abbrev,"",@progbits
 1762              	.Ldebug_abbrev0:
 1763 0000 01       		.uleb128 0x1
 1764 0001 11       		.uleb128 0x11
 1765 0002 01       		.byte	0x1
 1766 0003 25       		.uleb128 0x25
 1767 0004 0E       		.uleb128 0xe
 1768 0005 13       		.uleb128 0x13
 1769 0006 0B       		.uleb128 0xb
 1770 0007 03       		.uleb128 0x3
 1771 0008 0E       		.uleb128 0xe
 1772 0009 1B       		.uleb128 0x1b
 1773 000a 0E       		.uleb128 0xe
 1774 000b 55       		.uleb128 0x55
 1775 000c 17       		.uleb128 0x17
 1776 000d 11       		.uleb128 0x11
 1777 000e 01       		.uleb128 0x1
 1778 000f 10       		.uleb128 0x10
 1779 0010 17       		.uleb128 0x17
 1780 0011 00       		.byte	0
 1781 0012 00       		.byte	0
 1782 0013 02       		.uleb128 0x2
 1783 0014 24       		.uleb128 0x24
 1784 0015 00       		.byte	0
 1785 0016 0B       		.uleb128 0xb
 1786 0017 0B       		.uleb128 0xb
 1787 0018 3E       		.uleb128 0x3e
 1788 0019 0B       		.uleb128 0xb
 1789 001a 03       		.uleb128 0x3
 1790 001b 0E       		.uleb128 0xe
 1791 001c 00       		.byte	0
 1792 001d 00       		.byte	0
 1793 001e 03       		.uleb128 0x3
 1794 001f 16       		.uleb128 0x16
 1795 0020 00       		.byte	0
 1796 0021 03       		.uleb128 0x3
 1797 0022 0E       		.uleb128 0xe
 1798 0023 3A       		.uleb128 0x3a
 1799 0024 0B       		.uleb128 0xb
 1800 0025 3B       		.uleb128 0x3b
 1801 0026 0B       		.uleb128 0xb
 1802 0027 39       		.uleb128 0x39
 1803 0028 0B       		.uleb128 0xb
 1804 0029 49       		.uleb128 0x49
 1805 002a 13       		.uleb128 0x13
 1806 002b 00       		.byte	0
 1807 002c 00       		.byte	0
 1808 002d 04       		.uleb128 0x4
 1809 002e 24       		.uleb128 0x24
 1810 002f 00       		.byte	0
 1811 0030 0B       		.uleb128 0xb
GAS LISTING /tmp/ccmJ5FoE.s 			page 33


 1812 0031 0B       		.uleb128 0xb
 1813 0032 3E       		.uleb128 0x3e
 1814 0033 0B       		.uleb128 0xb
 1815 0034 03       		.uleb128 0x3
 1816 0035 08       		.uleb128 0x8
 1817 0036 00       		.byte	0
 1818 0037 00       		.byte	0
 1819 0038 05       		.uleb128 0x5
 1820 0039 0F       		.uleb128 0xf
 1821 003a 00       		.byte	0
 1822 003b 0B       		.uleb128 0xb
 1823 003c 0B       		.uleb128 0xb
 1824 003d 00       		.byte	0
 1825 003e 00       		.byte	0
 1826 003f 06       		.uleb128 0x6
 1827 0040 26       		.uleb128 0x26
 1828 0041 00       		.byte	0
 1829 0042 49       		.uleb128 0x49
 1830 0043 13       		.uleb128 0x13
 1831 0044 00       		.byte	0
 1832 0045 00       		.byte	0
 1833 0046 07       		.uleb128 0x7
 1834 0047 13       		.uleb128 0x13
 1835 0048 01       		.byte	0x1
 1836 0049 03       		.uleb128 0x3
 1837 004a 0E       		.uleb128 0xe
 1838 004b 0B       		.uleb128 0xb
 1839 004c 0B       		.uleb128 0xb
 1840 004d 3A       		.uleb128 0x3a
 1841 004e 0B       		.uleb128 0xb
 1842 004f 3B       		.uleb128 0x3b
 1843 0050 0B       		.uleb128 0xb
 1844 0051 39       		.uleb128 0x39
 1845 0052 0B       		.uleb128 0xb
 1846 0053 01       		.uleb128 0x1
 1847 0054 13       		.uleb128 0x13
 1848 0055 00       		.byte	0
 1849 0056 00       		.byte	0
 1850 0057 08       		.uleb128 0x8
 1851 0058 0D       		.uleb128 0xd
 1852 0059 00       		.byte	0
 1853 005a 03       		.uleb128 0x3
 1854 005b 0E       		.uleb128 0xe
 1855 005c 3A       		.uleb128 0x3a
 1856 005d 0B       		.uleb128 0xb
 1857 005e 3B       		.uleb128 0x3b
 1858 005f 0B       		.uleb128 0xb
 1859 0060 39       		.uleb128 0x39
 1860 0061 0B       		.uleb128 0xb
 1861 0062 49       		.uleb128 0x49
 1862 0063 13       		.uleb128 0x13
 1863 0064 38       		.uleb128 0x38
 1864 0065 0B       		.uleb128 0xb
 1865 0066 00       		.byte	0
 1866 0067 00       		.byte	0
 1867 0068 09       		.uleb128 0x9
 1868 0069 0F       		.uleb128 0xf
GAS LISTING /tmp/ccmJ5FoE.s 			page 34


 1869 006a 00       		.byte	0
 1870 006b 0B       		.uleb128 0xb
 1871 006c 0B       		.uleb128 0xb
 1872 006d 49       		.uleb128 0x49
 1873 006e 13       		.uleb128 0x13
 1874 006f 00       		.byte	0
 1875 0070 00       		.byte	0
 1876 0071 0A       		.uleb128 0xa
 1877 0072 37       		.uleb128 0x37
 1878 0073 00       		.byte	0
 1879 0074 49       		.uleb128 0x49
 1880 0075 13       		.uleb128 0x13
 1881 0076 00       		.byte	0
 1882 0077 00       		.byte	0
 1883 0078 0B       		.uleb128 0xb
 1884 0079 0D       		.uleb128 0xd
 1885 007a 00       		.byte	0
 1886 007b 03       		.uleb128 0x3
 1887 007c 08       		.uleb128 0x8
 1888 007d 3A       		.uleb128 0x3a
 1889 007e 0B       		.uleb128 0xb
 1890 007f 3B       		.uleb128 0x3b
 1891 0080 0B       		.uleb128 0xb
 1892 0081 39       		.uleb128 0x39
 1893 0082 0B       		.uleb128 0xb
 1894 0083 49       		.uleb128 0x49
 1895 0084 13       		.uleb128 0x13
 1896 0085 38       		.uleb128 0x38
 1897 0086 0B       		.uleb128 0xb
 1898 0087 00       		.byte	0
 1899 0088 00       		.byte	0
 1900 0089 0C       		.uleb128 0xc
 1901 008a 0D       		.uleb128 0xd
 1902 008b 00       		.byte	0
 1903 008c 03       		.uleb128 0x3
 1904 008d 08       		.uleb128 0x8
 1905 008e 3A       		.uleb128 0x3a
 1906 008f 0B       		.uleb128 0xb
 1907 0090 3B       		.uleb128 0x3b
 1908 0091 05       		.uleb128 0x5
 1909 0092 39       		.uleb128 0x39
 1910 0093 0B       		.uleb128 0xb
 1911 0094 49       		.uleb128 0x49
 1912 0095 13       		.uleb128 0x13
 1913 0096 38       		.uleb128 0x38
 1914 0097 0B       		.uleb128 0xb
 1915 0098 00       		.byte	0
 1916 0099 00       		.byte	0
 1917 009a 0D       		.uleb128 0xd
 1918 009b 0D       		.uleb128 0xd
 1919 009c 00       		.byte	0
 1920 009d 03       		.uleb128 0x3
 1921 009e 0E       		.uleb128 0xe
 1922 009f 3A       		.uleb128 0x3a
 1923 00a0 0B       		.uleb128 0xb
 1924 00a1 3B       		.uleb128 0x3b
 1925 00a2 05       		.uleb128 0x5
GAS LISTING /tmp/ccmJ5FoE.s 			page 35


 1926 00a3 39       		.uleb128 0x39
 1927 00a4 0B       		.uleb128 0xb
 1928 00a5 49       		.uleb128 0x49
 1929 00a6 13       		.uleb128 0x13
 1930 00a7 38       		.uleb128 0x38
 1931 00a8 0B       		.uleb128 0xb
 1932 00a9 00       		.byte	0
 1933 00aa 00       		.byte	0
 1934 00ab 0E       		.uleb128 0xe
 1935 00ac 13       		.uleb128 0x13
 1936 00ad 01       		.byte	0x1
 1937 00ae 03       		.uleb128 0x3
 1938 00af 0E       		.uleb128 0xe
 1939 00b0 0B       		.uleb128 0xb
 1940 00b1 0B       		.uleb128 0xb
 1941 00b2 3A       		.uleb128 0x3a
 1942 00b3 0B       		.uleb128 0xb
 1943 00b4 3B       		.uleb128 0x3b
 1944 00b5 05       		.uleb128 0x5
 1945 00b6 39       		.uleb128 0x39
 1946 00b7 0B       		.uleb128 0xb
 1947 00b8 01       		.uleb128 0x1
 1948 00b9 13       		.uleb128 0x13
 1949 00ba 00       		.byte	0
 1950 00bb 00       		.byte	0
 1951 00bc 0F       		.uleb128 0xf
 1952 00bd 15       		.uleb128 0x15
 1953 00be 01       		.byte	0x1
 1954 00bf 27       		.uleb128 0x27
 1955 00c0 19       		.uleb128 0x19
 1956 00c1 01       		.uleb128 0x1
 1957 00c2 13       		.uleb128 0x13
 1958 00c3 00       		.byte	0
 1959 00c4 00       		.byte	0
 1960 00c5 10       		.uleb128 0x10
 1961 00c6 05       		.uleb128 0x5
 1962 00c7 00       		.byte	0
 1963 00c8 49       		.uleb128 0x49
 1964 00c9 13       		.uleb128 0x13
 1965 00ca 00       		.byte	0
 1966 00cb 00       		.byte	0
 1967 00cc 11       		.uleb128 0x11
 1968 00cd 35       		.uleb128 0x35
 1969 00ce 00       		.byte	0
 1970 00cf 49       		.uleb128 0x49
 1971 00d0 13       		.uleb128 0x13
 1972 00d1 00       		.byte	0
 1973 00d2 00       		.byte	0
 1974 00d3 12       		.uleb128 0x12
 1975 00d4 13       		.uleb128 0x13
 1976 00d5 01       		.byte	0x1
 1977 00d6 0B       		.uleb128 0xb
 1978 00d7 0B       		.uleb128 0xb
 1979 00d8 3A       		.uleb128 0x3a
 1980 00d9 0B       		.uleb128 0xb
 1981 00da 3B       		.uleb128 0x3b
 1982 00db 0B       		.uleb128 0xb
GAS LISTING /tmp/ccmJ5FoE.s 			page 36


 1983 00dc 39       		.uleb128 0x39
 1984 00dd 0B       		.uleb128 0xb
 1985 00de 01       		.uleb128 0x1
 1986 00df 13       		.uleb128 0x13
 1987 00e0 00       		.byte	0
 1988 00e1 00       		.byte	0
 1989 00e2 13       		.uleb128 0x13
 1990 00e3 01       		.uleb128 0x1
 1991 00e4 01       		.byte	0x1
 1992 00e5 49       		.uleb128 0x49
 1993 00e6 13       		.uleb128 0x13
 1994 00e7 01       		.uleb128 0x1
 1995 00e8 13       		.uleb128 0x13
 1996 00e9 00       		.byte	0
 1997 00ea 00       		.byte	0
 1998 00eb 14       		.uleb128 0x14
 1999 00ec 21       		.uleb128 0x21
 2000 00ed 00       		.byte	0
 2001 00ee 49       		.uleb128 0x49
 2002 00ef 13       		.uleb128 0x13
 2003 00f0 2F       		.uleb128 0x2f
 2004 00f1 0B       		.uleb128 0xb
 2005 00f2 00       		.byte	0
 2006 00f3 00       		.byte	0
 2007 00f4 15       		.uleb128 0x15
 2008 00f5 16       		.uleb128 0x16
 2009 00f6 00       		.byte	0
 2010 00f7 03       		.uleb128 0x3
 2011 00f8 0E       		.uleb128 0xe
 2012 00f9 3A       		.uleb128 0x3a
 2013 00fa 0B       		.uleb128 0xb
 2014 00fb 3B       		.uleb128 0x3b
 2015 00fc 0B       		.uleb128 0xb
 2016 00fd 39       		.uleb128 0x39
 2017 00fe 0B       		.uleb128 0xb
 2018 00ff 49       		.uleb128 0x49
 2019 0100 13       		.uleb128 0x13
 2020 0101 8801     		.uleb128 0x88
 2021 0103 0B       		.uleb128 0xb
 2022 0104 00       		.byte	0
 2023 0105 00       		.byte	0
 2024 0106 16       		.uleb128 0x16
 2025 0107 34       		.uleb128 0x34
 2026 0108 00       		.byte	0
 2027 0109 03       		.uleb128 0x3
 2028 010a 0E       		.uleb128 0xe
 2029 010b 3A       		.uleb128 0x3a
 2030 010c 0B       		.uleb128 0xb
 2031 010d 3B       		.uleb128 0x3b
 2032 010e 05       		.uleb128 0x5
 2033 010f 39       		.uleb128 0x39
 2034 0110 0B       		.uleb128 0xb
 2035 0111 49       		.uleb128 0x49
 2036 0112 13       		.uleb128 0x13
 2037 0113 3F       		.uleb128 0x3f
 2038 0114 19       		.uleb128 0x19
 2039 0115 3C       		.uleb128 0x3c
GAS LISTING /tmp/ccmJ5FoE.s 			page 37


 2040 0116 19       		.uleb128 0x19
 2041 0117 00       		.byte	0
 2042 0118 00       		.byte	0
 2043 0119 17       		.uleb128 0x17
 2044 011a 17       		.uleb128 0x17
 2045 011b 01       		.byte	0x1
 2046 011c 0B       		.uleb128 0xb
 2047 011d 0B       		.uleb128 0xb
 2048 011e 3A       		.uleb128 0x3a
 2049 011f 0B       		.uleb128 0xb
 2050 0120 3B       		.uleb128 0x3b
 2051 0121 0B       		.uleb128 0xb
 2052 0122 39       		.uleb128 0x39
 2053 0123 0B       		.uleb128 0xb
 2054 0124 01       		.uleb128 0x1
 2055 0125 13       		.uleb128 0x13
 2056 0126 00       		.byte	0
 2057 0127 00       		.byte	0
 2058 0128 18       		.uleb128 0x18
 2059 0129 0D       		.uleb128 0xd
 2060 012a 00       		.byte	0
 2061 012b 03       		.uleb128 0x3
 2062 012c 0E       		.uleb128 0xe
 2063 012d 3A       		.uleb128 0x3a
 2064 012e 0B       		.uleb128 0xb
 2065 012f 3B       		.uleb128 0x3b
 2066 0130 0B       		.uleb128 0xb
 2067 0131 39       		.uleb128 0x39
 2068 0132 0B       		.uleb128 0xb
 2069 0133 49       		.uleb128 0x49
 2070 0134 13       		.uleb128 0x13
 2071 0135 00       		.byte	0
 2072 0136 00       		.byte	0
 2073 0137 19       		.uleb128 0x19
 2074 0138 0D       		.uleb128 0xd
 2075 0139 00       		.byte	0
 2076 013a 03       		.uleb128 0x3
 2077 013b 0E       		.uleb128 0xe
 2078 013c 3A       		.uleb128 0x3a
 2079 013d 0B       		.uleb128 0xb
 2080 013e 3B       		.uleb128 0x3b
 2081 013f 05       		.uleb128 0x5
 2082 0140 39       		.uleb128 0x39
 2083 0141 0B       		.uleb128 0xb
 2084 0142 49       		.uleb128 0x49
 2085 0143 13       		.uleb128 0x13
 2086 0144 00       		.byte	0
 2087 0145 00       		.byte	0
 2088 0146 1A       		.uleb128 0x1a
 2089 0147 34       		.uleb128 0x34
 2090 0148 00       		.byte	0
 2091 0149 03       		.uleb128 0x3
 2092 014a 08       		.uleb128 0x8
 2093 014b 3A       		.uleb128 0x3a
 2094 014c 0B       		.uleb128 0xb
 2095 014d 3B       		.uleb128 0x3b
 2096 014e 05       		.uleb128 0x5
GAS LISTING /tmp/ccmJ5FoE.s 			page 38


 2097 014f 39       		.uleb128 0x39
 2098 0150 0B       		.uleb128 0xb
 2099 0151 49       		.uleb128 0x49
 2100 0152 13       		.uleb128 0x13
 2101 0153 3F       		.uleb128 0x3f
 2102 0154 19       		.uleb128 0x19
 2103 0155 3C       		.uleb128 0x3c
 2104 0156 19       		.uleb128 0x19
 2105 0157 00       		.byte	0
 2106 0158 00       		.byte	0
 2107 0159 1B       		.uleb128 0x1b
 2108 015a 01       		.uleb128 0x1
 2109 015b 01       		.byte	0x1
 2110 015c 49       		.uleb128 0x49
 2111 015d 13       		.uleb128 0x13
 2112 015e 8801     		.uleb128 0x88
 2113 0160 0B       		.uleb128 0xb
 2114 0161 01       		.uleb128 0x1
 2115 0162 13       		.uleb128 0x13
 2116 0163 00       		.byte	0
 2117 0164 00       		.byte	0
 2118 0165 1C       		.uleb128 0x1c
 2119 0166 21       		.uleb128 0x21
 2120 0167 00       		.byte	0
 2121 0168 00       		.byte	0
 2122 0169 00       		.byte	0
 2123 016a 1D       		.uleb128 0x1d
 2124 016b 34       		.uleb128 0x34
 2125 016c 00       		.byte	0
 2126 016d 03       		.uleb128 0x3
 2127 016e 0E       		.uleb128 0xe
 2128 016f 3A       		.uleb128 0x3a
 2129 0170 0B       		.uleb128 0xb
 2130 0171 3B       		.uleb128 0x3b
 2131 0172 0B       		.uleb128 0xb
 2132 0173 39       		.uleb128 0x39
 2133 0174 0B       		.uleb128 0xb
 2134 0175 49       		.uleb128 0x49
 2135 0176 13       		.uleb128 0x13
 2136 0177 3F       		.uleb128 0x3f
 2137 0178 19       		.uleb128 0x19
 2138 0179 3C       		.uleb128 0x3c
 2139 017a 19       		.uleb128 0x19
 2140 017b 00       		.byte	0
 2141 017c 00       		.byte	0
 2142 017d 1E       		.uleb128 0x1e
 2143 017e 15       		.uleb128 0x15
 2144 017f 01       		.byte	0x1
 2145 0180 27       		.uleb128 0x27
 2146 0181 19       		.uleb128 0x19
 2147 0182 49       		.uleb128 0x49
 2148 0183 13       		.uleb128 0x13
 2149 0184 01       		.uleb128 0x1
 2150 0185 13       		.uleb128 0x13
 2151 0186 00       		.byte	0
 2152 0187 00       		.byte	0
 2153 0188 1F       		.uleb128 0x1f
GAS LISTING /tmp/ccmJ5FoE.s 			page 39


 2154 0189 16       		.uleb128 0x16
 2155 018a 00       		.byte	0
 2156 018b 03       		.uleb128 0x3
 2157 018c 0E       		.uleb128 0xe
 2158 018d 3A       		.uleb128 0x3a
 2159 018e 0B       		.uleb128 0xb
 2160 018f 3B       		.uleb128 0x3b
 2161 0190 05       		.uleb128 0x5
 2162 0191 39       		.uleb128 0x39
 2163 0192 0B       		.uleb128 0xb
 2164 0193 49       		.uleb128 0x49
 2165 0194 13       		.uleb128 0x13
 2166 0195 00       		.byte	0
 2167 0196 00       		.byte	0
 2168 0197 20       		.uleb128 0x20
 2169 0198 34       		.uleb128 0x34
 2170 0199 00       		.byte	0
 2171 019a 47       		.uleb128 0x47
 2172 019b 13       		.uleb128 0x13
 2173 019c 3A       		.uleb128 0x3a
 2174 019d 0B       		.uleb128 0xb
 2175 019e 3B       		.uleb128 0x3b
 2176 019f 0B       		.uleb128 0xb
 2177 01a0 39       		.uleb128 0x39
 2178 01a1 0B       		.uleb128 0xb
 2179 01a2 02       		.uleb128 0x2
 2180 01a3 18       		.uleb128 0x18
 2181 01a4 00       		.byte	0
 2182 01a5 00       		.byte	0
 2183 01a6 21       		.uleb128 0x21
 2184 01a7 2E       		.uleb128 0x2e
 2185 01a8 01       		.byte	0x1
 2186 01a9 3F       		.uleb128 0x3f
 2187 01aa 19       		.uleb128 0x19
 2188 01ab 03       		.uleb128 0x3
 2189 01ac 0E       		.uleb128 0xe
 2190 01ad 3A       		.uleb128 0x3a
 2191 01ae 0B       		.uleb128 0xb
 2192 01af 3B       		.uleb128 0x3b
 2193 01b0 0B       		.uleb128 0xb
 2194 01b1 39       		.uleb128 0x39
 2195 01b2 0B       		.uleb128 0xb
 2196 01b3 27       		.uleb128 0x27
 2197 01b4 19       		.uleb128 0x19
 2198 01b5 49       		.uleb128 0x49
 2199 01b6 13       		.uleb128 0x13
 2200 01b7 11       		.uleb128 0x11
 2201 01b8 01       		.uleb128 0x1
 2202 01b9 12       		.uleb128 0x12
 2203 01ba 06       		.uleb128 0x6
 2204 01bb 40       		.uleb128 0x40
 2205 01bc 18       		.uleb128 0x18
 2206 01bd 9742     		.uleb128 0x2117
 2207 01bf 19       		.uleb128 0x19
 2208 01c0 01       		.uleb128 0x1
 2209 01c1 13       		.uleb128 0x13
 2210 01c2 00       		.byte	0
GAS LISTING /tmp/ccmJ5FoE.s 			page 40


 2211 01c3 00       		.byte	0
 2212 01c4 22       		.uleb128 0x22
 2213 01c5 34       		.uleb128 0x34
 2214 01c6 00       		.byte	0
 2215 01c7 03       		.uleb128 0x3
 2216 01c8 08       		.uleb128 0x8
 2217 01c9 3A       		.uleb128 0x3a
 2218 01ca 0B       		.uleb128 0xb
 2219 01cb 3B       		.uleb128 0x3b
 2220 01cc 0B       		.uleb128 0xb
 2221 01cd 39       		.uleb128 0x39
 2222 01ce 0B       		.uleb128 0xb
 2223 01cf 49       		.uleb128 0x49
 2224 01d0 13       		.uleb128 0x13
 2225 01d1 02       		.uleb128 0x2
 2226 01d2 18       		.uleb128 0x18
 2227 01d3 00       		.byte	0
 2228 01d4 00       		.byte	0
 2229 01d5 23       		.uleb128 0x23
 2230 01d6 898201   		.uleb128 0x4109
 2231 01d9 00       		.byte	0
 2232 01da 11       		.uleb128 0x11
 2233 01db 01       		.uleb128 0x1
 2234 01dc 31       		.uleb128 0x31
 2235 01dd 13       		.uleb128 0x13
 2236 01de 00       		.byte	0
 2237 01df 00       		.byte	0
 2238 01e0 24       		.uleb128 0x24
 2239 01e1 2E       		.uleb128 0x2e
 2240 01e2 01       		.byte	0x1
 2241 01e3 3F       		.uleb128 0x3f
 2242 01e4 19       		.uleb128 0x19
 2243 01e5 03       		.uleb128 0x3
 2244 01e6 0E       		.uleb128 0xe
 2245 01e7 3A       		.uleb128 0x3a
 2246 01e8 0B       		.uleb128 0xb
 2247 01e9 3B       		.uleb128 0x3b
 2248 01ea 0B       		.uleb128 0xb
 2249 01eb 39       		.uleb128 0x39
 2250 01ec 0B       		.uleb128 0xb
 2251 01ed 27       		.uleb128 0x27
 2252 01ee 19       		.uleb128 0x19
 2253 01ef 8701     		.uleb128 0x87
 2254 01f1 19       		.uleb128 0x19
 2255 01f2 11       		.uleb128 0x11
 2256 01f3 01       		.uleb128 0x1
 2257 01f4 12       		.uleb128 0x12
 2258 01f5 06       		.uleb128 0x6
 2259 01f6 40       		.uleb128 0x40
 2260 01f7 18       		.uleb128 0x18
 2261 01f8 9742     		.uleb128 0x2117
 2262 01fa 19       		.uleb128 0x19
 2263 01fb 01       		.uleb128 0x1
 2264 01fc 13       		.uleb128 0x13
 2265 01fd 00       		.byte	0
 2266 01fe 00       		.byte	0
 2267 01ff 25       		.uleb128 0x25
GAS LISTING /tmp/ccmJ5FoE.s 			page 41


 2268 0200 05       		.uleb128 0x5
 2269 0201 00       		.byte	0
 2270 0202 03       		.uleb128 0x3
 2271 0203 08       		.uleb128 0x8
 2272 0204 3A       		.uleb128 0x3a
 2273 0205 0B       		.uleb128 0xb
 2274 0206 3B       		.uleb128 0x3b
 2275 0207 0B       		.uleb128 0xb
 2276 0208 39       		.uleb128 0x39
 2277 0209 0B       		.uleb128 0xb
 2278 020a 49       		.uleb128 0x49
 2279 020b 13       		.uleb128 0x13
 2280 020c 02       		.uleb128 0x2
 2281 020d 18       		.uleb128 0x18
 2282 020e 00       		.byte	0
 2283 020f 00       		.byte	0
 2284 0210 26       		.uleb128 0x26
 2285 0211 1D       		.uleb128 0x1d
 2286 0212 01       		.byte	0x1
 2287 0213 31       		.uleb128 0x31
 2288 0214 13       		.uleb128 0x13
 2289 0215 52       		.uleb128 0x52
 2290 0216 01       		.uleb128 0x1
 2291 0217 B842     		.uleb128 0x2138
 2292 0219 0B       		.uleb128 0xb
 2293 021a 55       		.uleb128 0x55
 2294 021b 17       		.uleb128 0x17
 2295 021c 58       		.uleb128 0x58
 2296 021d 0B       		.uleb128 0xb
 2297 021e 59       		.uleb128 0x59
 2298 021f 0B       		.uleb128 0xb
 2299 0220 57       		.uleb128 0x57
 2300 0221 0B       		.uleb128 0xb
 2301 0222 01       		.uleb128 0x1
 2302 0223 13       		.uleb128 0x13
 2303 0224 00       		.byte	0
 2304 0225 00       		.byte	0
 2305 0226 27       		.uleb128 0x27
 2306 0227 0B       		.uleb128 0xb
 2307 0228 01       		.byte	0x1
 2308 0229 55       		.uleb128 0x55
 2309 022a 17       		.uleb128 0x17
 2310 022b 00       		.byte	0
 2311 022c 00       		.byte	0
 2312 022d 28       		.uleb128 0x28
 2313 022e 1D       		.uleb128 0x1d
 2314 022f 00       		.byte	0
 2315 0230 31       		.uleb128 0x31
 2316 0231 13       		.uleb128 0x13
 2317 0232 52       		.uleb128 0x52
 2318 0233 01       		.uleb128 0x1
 2319 0234 B842     		.uleb128 0x2138
 2320 0236 0B       		.uleb128 0xb
 2321 0237 55       		.uleb128 0x55
 2322 0238 17       		.uleb128 0x17
 2323 0239 58       		.uleb128 0x58
 2324 023a 0B       		.uleb128 0xb
GAS LISTING /tmp/ccmJ5FoE.s 			page 42


 2325 023b 59       		.uleb128 0x59
 2326 023c 05       		.uleb128 0x5
 2327 023d 57       		.uleb128 0x57
 2328 023e 0B       		.uleb128 0xb
 2329 023f 00       		.byte	0
 2330 0240 00       		.byte	0
 2331 0241 29       		.uleb128 0x29
 2332 0242 898201   		.uleb128 0x4109
 2333 0245 00       		.byte	0
 2334 0246 11       		.uleb128 0x11
 2335 0247 01       		.uleb128 0x1
 2336 0248 9342     		.uleb128 0x2113
 2337 024a 18       		.uleb128 0x18
 2338 024b 00       		.byte	0
 2339 024c 00       		.byte	0
 2340 024d 2A       		.uleb128 0x2a
 2341 024e 2E       		.uleb128 0x2e
 2342 024f 01       		.byte	0x1
 2343 0250 03       		.uleb128 0x3
 2344 0251 0E       		.uleb128 0xe
 2345 0252 3A       		.uleb128 0x3a
 2346 0253 0B       		.uleb128 0xb
 2347 0254 3B       		.uleb128 0x3b
 2348 0255 0B       		.uleb128 0xb
 2349 0256 39       		.uleb128 0x39
 2350 0257 0B       		.uleb128 0xb
 2351 0258 27       		.uleb128 0x27
 2352 0259 19       		.uleb128 0x19
 2353 025a 11       		.uleb128 0x11
 2354 025b 01       		.uleb128 0x1
 2355 025c 12       		.uleb128 0x12
 2356 025d 06       		.uleb128 0x6
 2357 025e 40       		.uleb128 0x40
 2358 025f 18       		.uleb128 0x18
 2359 0260 9742     		.uleb128 0x2117
 2360 0262 19       		.uleb128 0x19
 2361 0263 01       		.uleb128 0x1
 2362 0264 13       		.uleb128 0x13
 2363 0265 00       		.byte	0
 2364 0266 00       		.byte	0
 2365 0267 2B       		.uleb128 0x2b
 2366 0268 2E       		.uleb128 0x2e
 2367 0269 01       		.byte	0x1
 2368 026a 03       		.uleb128 0x3
 2369 026b 0E       		.uleb128 0xe
 2370 026c 3A       		.uleb128 0x3a
 2371 026d 0B       		.uleb128 0xb
 2372 026e 3B       		.uleb128 0x3b
 2373 026f 05       		.uleb128 0x5
 2374 0270 39       		.uleb128 0x39
 2375 0271 0B       		.uleb128 0xb
 2376 0272 27       		.uleb128 0x27
 2377 0273 19       		.uleb128 0x19
 2378 0274 20       		.uleb128 0x20
 2379 0275 0B       		.uleb128 0xb
 2380 0276 01       		.uleb128 0x1
 2381 0277 13       		.uleb128 0x13
GAS LISTING /tmp/ccmJ5FoE.s 			page 43


 2382 0278 00       		.byte	0
 2383 0279 00       		.byte	0
 2384 027a 2C       		.uleb128 0x2c
 2385 027b 34       		.uleb128 0x34
 2386 027c 00       		.byte	0
 2387 027d 03       		.uleb128 0x3
 2388 027e 0E       		.uleb128 0xe
 2389 027f 49       		.uleb128 0x49
 2390 0280 13       		.uleb128 0x13
 2391 0281 34       		.uleb128 0x34
 2392 0282 19       		.uleb128 0x19
 2393 0283 00       		.byte	0
 2394 0284 00       		.byte	0
 2395 0285 2D       		.uleb128 0x2d
 2396 0286 2E       		.uleb128 0x2e
 2397 0287 00       		.byte	0
 2398 0288 03       		.uleb128 0x3
 2399 0289 0E       		.uleb128 0xe
 2400 028a 3A       		.uleb128 0x3a
 2401 028b 0B       		.uleb128 0xb
 2402 028c 3B       		.uleb128 0x3b
 2403 028d 05       		.uleb128 0x5
 2404 028e 39       		.uleb128 0x39
 2405 028f 0B       		.uleb128 0xb
 2406 0290 27       		.uleb128 0x27
 2407 0291 19       		.uleb128 0x19
 2408 0292 20       		.uleb128 0x20
 2409 0293 0B       		.uleb128 0xb
 2410 0294 00       		.byte	0
 2411 0295 00       		.byte	0
 2412 0296 2E       		.uleb128 0x2e
 2413 0297 2E       		.uleb128 0x2e
 2414 0298 00       		.byte	0
 2415 0299 3F       		.uleb128 0x3f
 2416 029a 19       		.uleb128 0x19
 2417 029b 3C       		.uleb128 0x3c
 2418 029c 19       		.uleb128 0x19
 2419 029d 6E       		.uleb128 0x6e
 2420 029e 0E       		.uleb128 0xe
 2421 029f 03       		.uleb128 0x3
 2422 02a0 0E       		.uleb128 0xe
 2423 02a1 3A       		.uleb128 0x3a
 2424 02a2 0B       		.uleb128 0xb
 2425 02a3 3B       		.uleb128 0x3b
 2426 02a4 0B       		.uleb128 0xb
 2427 02a5 39       		.uleb128 0x39
 2428 02a6 0B       		.uleb128 0xb
 2429 02a7 00       		.byte	0
 2430 02a8 00       		.byte	0
 2431 02a9 2F       		.uleb128 0x2f
 2432 02aa 2E       		.uleb128 0x2e
 2433 02ab 00       		.byte	0
 2434 02ac 3F       		.uleb128 0x3f
 2435 02ad 19       		.uleb128 0x19
 2436 02ae 3C       		.uleb128 0x3c
 2437 02af 19       		.uleb128 0x19
 2438 02b0 6E       		.uleb128 0x6e
GAS LISTING /tmp/ccmJ5FoE.s 			page 44


 2439 02b1 0E       		.uleb128 0xe
 2440 02b2 03       		.uleb128 0x3
 2441 02b3 0E       		.uleb128 0xe
 2442 02b4 00       		.byte	0
 2443 02b5 00       		.byte	0
 2444 02b6 00       		.byte	0
 2445              		.section	.debug_aranges,"",@progbits
 2446 0000 2C000000 		.long	0x2c
 2447 0004 0200     		.value	0x2
 2448 0006 00000000 		.long	.Ldebug_info0
 2449 000a 04       		.byte	0x4
 2450 000b 00       		.byte	0
 2451 000c 0000     		.value	0
 2452 000e 0000     		.value	0
 2453 0010 00000000 		.long	.LFB138
 2454 0014 10000000 		.long	.LFE138-.LFB138
 2455 0018 00000000 		.long	.LFB139
 2456 001c 32000000 		.long	.LFE139-.LFB139
 2457 0020 00000000 		.long	.LFB140
 2458 0024 4D000000 		.long	.LFE140-.LFB140
 2459 0028 00000000 		.long	0
 2460 002c 00000000 		.long	0
 2461              		.section	.debug_ranges,"",@progbits
 2462              	.Ldebug_ranges0:
 2463 0000 00000000 		.long	.LBB8
 2464 0004 00000000 		.long	.LBE8
 2465 0008 13000000 		.long	.LBB15
 2466 000c 1D000000 		.long	.LBE15
 2467 0010 00000000 		.long	0
 2468 0014 00000000 		.long	0
 2469 0018 00000000 		.long	.LFB138
 2470 001c 10000000 		.long	.LFE138
 2471 0020 00000000 		.long	.LFB139
 2472 0024 32000000 		.long	.LFE139
 2473 0028 00000000 		.long	.LFB140
 2474 002c 4D000000 		.long	.LFE140
 2475 0030 00000000 		.long	0
 2476 0034 00000000 		.long	0
 2477              		.section	.debug_line,"",@progbits
 2478              	.Ldebug_line0:
 2479 0000 FD020000 		.section	.debug_str,"MS",@progbits,1
 2479      03004802 
 2479      00000101 
 2479      FB0E0D00 
 2479      01010101 
 2480              	.LASF119:
 2481 0000 6F66665F 		.string	"off_refs"
 2481      72656673 
 2481      00
 2482              	.LASF116:
 2483 0009 6F66665F 		.string	"off_stklimit"
 2483      73746B6C 
 2483      696D6974 
 2483      00
 2484              	.LASF63:
 2485 0016 72656164 		.string	"ready_list_t"
 2485      795F6C69 
GAS LISTING /tmp/ccmJ5FoE.s 			page 45


 2485      73745F74 
 2485      00
 2486              	.LASF22:
 2487 0023 73697A65 		.string	"size_t"
 2487      5F7400
 2488              	.LASF92:
 2489 002a 7264796D 		.string	"rdymsg"
 2489      736700
 2490              	.LASF51:
 2491 0031 6D736771 		.string	"msgqueue"
 2491      75657565 
 2491      00
 2492              	.LASF6:
 2493 003a 5F5F7569 		.string	"__uint8_t"
 2493      6E74385F 
 2493      7400
 2494              	.LASF62:
 2495 0044 70726576 		.string	"prev"
 2495      00
 2496              	.LASF85:
 2497 0049 706F7274 		.string	"port_intctx"
 2497      5F696E74 
 2497      63747800 
 2498              	.LASF74:
 2499 0055 73797374 		.string	"system_debug_t"
 2499      656D5F64 
 2499      65627567 
 2499      5F7400
 2500              	.LASF133:
 2501 0064 70726F76 		.string	"provider"
 2501      69646572 
 2501      00
 2502              	.LASF143:
 2503 006d 73656D5F 		.string	"sem_list"
 2503      6C697374 
 2503      00
 2504              	.LASF125:
 2505 0076 6D656D67 		.string	"memgetfunc_t"
 2505      65746675 
 2505      6E635F74 
 2505      00
 2506              	.LASF11:
 2507 0083 6C6F6E67 		.string	"long long unsigned int"
 2507      206C6F6E 
 2507      6720756E 
 2507      7369676E 
 2507      65642069 
 2508              	.LASF93:
 2509 009a 65786974 		.string	"exitcode"
 2509      636F6465 
 2509      00
 2510              	.LASF81:
 2511 00a3 6D61696E 		.string	"mainthread"
 2511      74687265 
 2511      616400
 2512              	.LASF96:
 2513 00ae 73656E74 		.string	"sentmsg"
GAS LISTING /tmp/ccmJ5FoE.s 			page 46


 2513      6D736700 
 2514              	.LASF69:
 2515 00b6 64656C74 		.string	"delta"
 2515      6100
 2516              	.LASF159:
 2517 00bc 5F5F6675 		.string	"__func__"
 2517      6E635F5F 
 2517      00
 2518              	.LASF136:
 2519 00c5 64796E5F 		.string	"dyn_element_t"
 2519      656C656D 
 2519      656E745F 
 2519      7400
 2520              	.LASF59:
 2521 00d3 6E657874 		.string	"next"
 2521      00
 2522              	.LASF61:
 2523 00d8 63685F74 		.string	"ch_threads_queue"
 2523      68726561 
 2523      64735F71 
 2523      75657565 
 2523      00
 2524              	.LASF10:
 2525 00e9 6C6F6E67 		.string	"long long int"
 2525      206C6F6E 
 2525      6720696E 
 2525      7400
 2526              	.LASF4:
 2527 00f7 7369676E 		.string	"signed char"
 2527      65642063 
 2527      68617200 
 2528              	.LASF152:
 2529 0103 63685468 		.string	"chThdExit"
 2529      64457869 
 2529      7400
 2530              	.LASF24:
 2531 010d 5F466C6F 		.string	"_Float128"
 2531      61743132 
 2531      3800
 2532              	.LASF80:
 2533 0117 76746C69 		.string	"vtlist"
 2533      737400
 2534              	.LASF160:
 2535 011e 706F7274 		.string	"port_unlock"
 2535      5F756E6C 
 2535      6F636B00 
 2536              	.LASF47:
 2537 012a 73746174 		.string	"state"
 2537      6500
 2538              	.LASF12:
 2539 0130 6C6F6E67 		.string	"long int"
 2539      20696E74 
 2539      00
 2540              	.LASF32:
 2541 0139 74737461 		.string	"tstate_t"
 2541      74655F74 
 2541      00
GAS LISTING /tmp/ccmJ5FoE.s 			page 47


 2542              	.LASF70:
 2543 0142 66756E63 		.string	"func"
 2543      00
 2544              	.LASF150:
 2545 0147 5F706F72 		.string	"_port_thread_start"
 2545      745F7468 
 2545      72656164 
 2545      5F737461 
 2545      727400
 2546              	.LASF104:
 2547 015a 6964656E 		.string	"identifier"
 2547      74696669 
 2547      657200
 2548              	.LASF155:
 2549 0165 2F686F6D 		.string	"/home/phil/Documents/ChibiOS_18.2.1/demos/various/RT-Posix-SimulatorAtom"
 2549      652F7068 
 2549      696C2F44 
 2549      6F63756D 
 2549      656E7473 
 2550              	.LASF122:
 2551 01ae 63686465 		.string	"chdebug_t"
 2551      6275675F 
 2551      7400
 2552              	.LASF120:
 2553 01b8 6F66665F 		.string	"off_preempt"
 2553      70726565 
 2553      6D707400 
 2554              	.LASF30:
 2555 01c4 73797373 		.string	"syssts_t"
 2555      74735F74 
 2555      00
 2556              	.LASF9:
 2557 01cd 5F5F7569 		.string	"__uint32_t"
 2557      6E743332 
 2557      5F7400
 2558              	.LASF19:
 2559 01d8 74696D65 		.string	"timezone"
 2559      7A6F6E65 
 2559      00
 2560              	.LASF50:
 2561 01e1 77616974 		.string	"waiting"
 2561      696E6700 
 2562              	.LASF105:
 2563 01e9 7A65726F 		.string	"zero"
 2563      00
 2564              	.LASF124:
 2565 01ee 6D757465 		.string	"mutex_t"
 2565      785F7400 
 2566              	.LASF132:
 2567 01f6 616C6967 		.string	"align"
 2567      6E00
 2568              	.LASF83:
 2569 01fc 73797369 		.string	"sysinterval_t"
 2569      6E746572 
 2569      76616C5F 
 2569      7400
 2570              	.LASF37:
GAS LISTING /tmp/ccmJ5FoE.s 			page 48


 2571 020a 636E745F 		.string	"cnt_t"
 2571      7400
 2572              	.LASF2:
 2573 0210 756E7369 		.string	"unsigned int"
 2573      676E6564 
 2573      20696E74 
 2573      00
 2574              	.LASF27:
 2575 021d 75696E74 		.string	"uint16_t"
 2575      31365F74 
 2575      00
 2576              	.LASF97:
 2577 0226 77747365 		.string	"wtsemp"
 2577      6D7000
 2578              	.LASF3:
 2579 022d 6C6F6E67 		.string	"long unsigned int"
 2579      20756E73 
 2579      69676E65 
 2579      6420696E 
 2579      7400
 2580              	.LASF123:
 2581 023f 63685F64 		.string	"ch_debug"
 2581      65627567 
 2581      00
 2582              	.LASF161:
 2583 0248 5F5F7374 		.string	"__stack_chk_fail_local"
 2583      61636B5F 
 2583      63686B5F 
 2583      6661696C 
 2583      5F6C6F63 
 2584              	.LASF14:
 2585 025f 5F5F7375 		.string	"__suseconds_t"
 2585      7365636F 
 2585      6E64735F 
 2585      7400
 2586              	.LASF134:
 2587 026d 6D656D6F 		.string	"memory_pool_t"
 2587      72795F70 
 2587      6F6F6C5F 
 2587      7400
 2588              	.LASF45:
 2589 027b 6E616D65 		.string	"name"
 2589      00
 2590              	.LASF41:
 2591 0280 71756575 		.string	"queue"
 2591      6500
 2592              	.LASF55:
 2593 0286 6D706F6F 		.string	"mpool"
 2593      6C00
 2594              	.LASF1:
 2595 028c 73686F72 		.string	"short unsigned int"
 2595      7420756E 
 2595      7369676E 
 2595      65642069 
 2595      6E7400
 2596              	.LASF142:
 2597 029f 6275665F 		.string	"buf_list"
GAS LISTING /tmp/ccmJ5FoE.s 			page 49


 2597      6C697374 
 2597      00
 2598              	.LASF40:
 2599 02a8 63685F74 		.string	"ch_thread"
 2599      68726561 
 2599      6400
 2600              	.LASF35:
 2601 02b2 6D73675F 		.string	"msg_t"
 2601      7400
 2602              	.LASF38:
 2603 02b8 75636E74 		.string	"ucnt_t"
 2603      5F7400
 2604              	.LASF52:
 2605 02bf 6570656E 		.string	"epending"
 2605      64696E67 
 2605      00
 2606              	.LASF138:
 2607 02c8 64796E5F 		.string	"dyn_list_t"
 2607      6C697374 
 2607      5F7400
 2608              	.LASF77:
 2609 02d3 63685F73 		.string	"ch_system_t"
 2609      79737465 
 2609      6D5F7400 
 2610              	.LASF112:
 2611 02df 6F66665F 		.string	"off_ctx"
 2611      63747800 
 2612              	.LASF31:
 2613 02e7 746D6F64 		.string	"tmode_t"
 2613      655F7400 
 2614              	.LASF20:
 2615 02ef 747A5F6D 		.string	"tz_minuteswest"
 2615      696E7574 
 2615      65737765 
 2615      737400
 2616              	.LASF64:
 2617 02fe 63685F72 		.string	"ch_ready_list"
 2617      65616479 
 2617      5F6C6973 
 2617      7400
 2618              	.LASF36:
 2619 030c 6576656E 		.string	"eventmask_t"
 2619      746D6173 
 2619      6B5F7400 
 2620              	.LASF115:
 2621 0318 6F66665F 		.string	"off_name"
 2621      6E616D65 
 2621      00
 2622              	.LASF18:
 2623 0321 74696D65 		.string	"timeval"
 2623      76616C00 
 2624              	.LASF71:
 2625 0329 76697274 		.string	"virtual_timers_list_t"
 2625      75616C5F 
 2625      74696D65 
 2625      72735F6C 
 2625      6973745F 
GAS LISTING /tmp/ccmJ5FoE.s 			page 50


 2626              	.LASF156:
 2627 033f 73746B61 		.string	"stkalign_t"
 2627      6C69676E 
 2627      5F7400
 2628              	.LASF43:
 2629 034a 6E657765 		.string	"newer"
 2629      7200
 2630              	.LASF54:
 2631 0350 7265616C 		.string	"realprio"
 2631      7072696F 
 2631      00
 2632              	.LASF107:
 2633 0359 76657273 		.string	"version"
 2633      696F6E00 
 2634              	.LASF29:
 2635 0361 7274636E 		.string	"rtcnt_t"
 2635      745F7400 
 2636              	.LASF56:
 2637 0369 74687265 		.string	"thread_reference_t"
 2637      61645F72 
 2637      65666572 
 2637      656E6365 
 2637      5F7400
 2638              	.LASF72:
 2639 037c 63685F76 		.string	"ch_virtual_timers_list"
 2639      69727475 
 2639      616C5F74 
 2639      696D6572 
 2639      735F6C69 
 2640              	.LASF23:
 2641 0393 6C6F6E67 		.string	"long double"
 2641      20646F75 
 2641      626C6500 
 2642              	.LASF16:
 2643 039f 74765F73 		.string	"tv_sec"
 2643      656300
 2644              	.LASF113:
 2645 03a6 6F66665F 		.string	"off_newer"
 2645      6E657765 
 2645      7200
 2646              	.LASF154:
 2647 03b0 2E2E2F2E 		.string	"../../../os/common/ports/SIMIA32/chcore.c"
 2647      2E2F2E2E 
 2647      2F6F732F 
 2647      636F6D6D 
 2647      6F6E2F70 
 2648              	.LASF86:
 2649 03da 706F7274 		.string	"port_context"
 2649      5F636F6E 
 2649      74657874 
 2649      00
 2650              	.LASF91:
 2651 03e7 746D5F63 		.string	"tm_calibration_t"
 2651      616C6962 
 2651      72617469 
 2651      6F6E5F74 
 2651      00
GAS LISTING /tmp/ccmJ5FoE.s 			page 51


 2652              	.LASF42:
 2653 03f8 7072696F 		.string	"prio"
 2653      00
 2654              	.LASF144:
 2655 03fd 73656D5F 		.string	"sem_pool"
 2655      706F6F6C 
 2655      00
 2656              	.LASF65:
 2657 0406 63757272 		.string	"current"
 2657      656E7400 
 2658              	.LASF128:
 2659 040e 6D656D63 		.string	"memcore_t"
 2659      6F72655F 
 2659      7400
 2660              	.LASF33:
 2661 0418 74726566 		.string	"trefs_t"
 2661      735F7400 
 2662              	.LASF110:
 2663 0420 74687265 		.string	"threadsize"
 2663      61647369 
 2663      7A6500
 2664              	.LASF49:
 2665 042b 72656673 		.string	"refs"
 2665      00
 2666              	.LASF67:
 2667 0430 76697274 		.string	"virtual_timer_t"
 2667      75616C5F 
 2667      74696D65 
 2667      725F7400 
 2668              	.LASF135:
 2669 0440 63685F64 		.string	"ch_dyn_element"
 2669      796E5F65 
 2669      6C656D65 
 2669      6E7400
 2670              	.LASF34:
 2671 044f 74707269 		.string	"tprio_t"
 2671      6F5F7400 
 2672              	.LASF75:
 2673 0457 63685F73 		.string	"ch_system_debug"
 2673      79737465 
 2673      6D5F6465 
 2673      62756700 
 2674              	.LASF87:
 2675 0467 5F426F6F 		.string	"_Bool"
 2675      6C00
 2676              	.LASF25:
 2677 046d 696E7433 		.string	"int32_t"
 2677      325F7400 
 2678              	.LASF0:
 2679 0475 756E7369 		.string	"unsigned char"
 2679      676E6564 
 2679      20636861 
 2679      7200
 2680              	.LASF111:
 2681 0483 6F66665F 		.string	"off_prio"
 2681      7072696F 
 2681      00
GAS LISTING /tmp/ccmJ5FoE.s 			page 52


 2682              	.LASF129:
 2683 048c 63685F6D 		.string	"ch_memcore"
 2683      656D636F 
 2683      726500
 2684              	.LASF5:
 2685 0497 73686F72 		.string	"short int"
 2685      7420696E 
 2685      7400
 2686              	.LASF95:
 2687 04a1 77747472 		.string	"wttrp"
 2687      7000
 2688              	.LASF99:
 2689 04a7 65776D61 		.string	"ewmask"
 2689      736B00
 2690              	.LASF78:
 2691 04ae 63685F73 		.string	"ch_system"
 2691      79737465 
 2691      6D00
 2692              	.LASF157:
 2693 04b8 5F5F6475 		.string	"__dummy"
 2693      6D6D7900 
 2694              	.LASF148:
 2695 04c0 63685F66 		.string	"ch_factory"
 2695      6163746F 
 2695      727900
 2696              	.LASF141:
 2697 04cb 6F626A5F 		.string	"obj_pool"
 2697      706F6F6C 
 2697      00
 2698              	.LASF145:
 2699 04d4 6D62785F 		.string	"mbx_list"
 2699      6C697374 
 2699      00
 2700              	.LASF68:
 2701 04dd 63685F76 		.string	"ch_virtual_timer"
 2701      69727475 
 2701      616C5F74 
 2701      696D6572 
 2701      00
 2702              	.LASF100:
 2703 04ee 63685F73 		.string	"ch_semaphore"
 2703      656D6170 
 2703      686F7265 
 2703      00
 2704              	.LASF121:
 2705 04fb 6F66665F 		.string	"off_time"
 2705      74696D65 
 2705      00
 2706              	.LASF103:
 2707 0504 63685F69 		.string	"ch_idle_thread_wa"
 2707      646C655F 
 2707      74687265 
 2707      61645F77 
 2707      6100
 2708              	.LASF109:
 2709 0516 74696D65 		.string	"timesize"
 2709      73697A65 
GAS LISTING /tmp/ccmJ5FoE.s 			page 53


 2709      00
 2710              	.LASF17:
 2711 051f 74765F75 		.string	"tv_usec"
 2711      73656300 
 2712              	.LASF28:
 2713 0527 75696E74 		.string	"uint32_t"
 2713      33325F74 
 2713      00
 2714              	.LASF98:
 2715 0530 77746D74 		.string	"wtmtxp"
 2715      787000
 2716              	.LASF58:
 2717 0537 63685F74 		.string	"ch_threads_list"
 2717      68726561 
 2717      64735F6C 
 2717      69737400 
 2718              	.LASF102:
 2719 0547 6F776E65 		.string	"owner"
 2719      7200
 2720              	.LASF89:
 2721 054d 706F7274 		.string	"port_irq_sts"
 2721      5F697271 
 2721      5F737473 
 2721      00
 2722              	.LASF46:
 2723 055a 77616261 		.string	"wabase"
 2723      736500
 2724              	.LASF15:
 2725 0561 63686172 		.string	"char"
 2725      00
 2726              	.LASF44:
 2727 0566 6F6C6465 		.string	"older"
 2727      7200
 2728              	.LASF140:
 2729 056c 6F626A5F 		.string	"obj_list"
 2729      6C697374 
 2729      00
 2730              	.LASF7:
 2731 0575 5F5F7569 		.string	"__uint16_t"
 2731      6E743136 
 2731      5F7400
 2732              	.LASF88:
 2733 0580 706F7274 		.string	"port_isr_context_flag"
 2733      5F697372 
 2733      5F636F6E 
 2733      74657874 
 2733      5F666C61 
 2734              	.LASF39:
 2735 0596 74687265 		.string	"thread_t"
 2735      61645F74 
 2735      00
 2736              	.LASF149:
 2737 059f 706F7274 		.string	"port_rt_get_counter_value"
 2737      5F72745F 
 2737      6765745F 
 2737      636F756E 
 2737      7465725F 
GAS LISTING /tmp/ccmJ5FoE.s 			page 54


 2738              	.LASF82:
 2739 05b9 73797374 		.string	"systime_t"
 2739      696D655F 
 2739      7400
 2740              	.LASF84:
 2741 05c3 72656778 		.string	"regx86"
 2741      383600
 2742              	.LASF8:
 2743 05ca 5F5F696E 		.string	"__int32_t"
 2743      7433325F 
 2743      7400
 2744              	.LASF76:
 2745 05d4 70616E69 		.string	"panic_msg"
 2745      635F6D73 
 2745      6700
 2746              	.LASF90:
 2747 05de 6F666673 		.string	"offset"
 2747      657400
 2748              	.LASF114:
 2749 05e5 6F66665F 		.string	"off_older"
 2749      6F6C6465 
 2749      7200
 2750              	.LASF137:
 2751 05ef 63685F64 		.string	"ch_dyn_list"
 2751      796E5F6C 
 2751      69737400 
 2752              	.LASF13:
 2753 05fb 5F5F7469 		.string	"__time_t"
 2753      6D655F74 
 2753      00
 2754              	.LASF131:
 2755 0604 6F626A65 		.string	"object_size"
 2755      63745F73 
 2755      697A6500 
 2756              	.LASF108:
 2757 0610 70747273 		.string	"ptrsize"
 2757      697A6500 
 2758              	.LASF139:
 2759 0618 63685F6F 		.string	"ch_objects_factory"
 2759      626A6563 
 2759      74735F66 
 2759      6163746F 
 2759      727900
 2760              	.LASF60:
 2761 062b 74687265 		.string	"threads_queue_t"
 2761      6164735F 
 2761      71756575 
 2761      655F7400 
 2762              	.LASF101:
 2763 063b 63685F6D 		.string	"ch_mutex"
 2763      75746578 
 2763      00
 2764              	.LASF73:
 2765 0644 73797374 		.string	"systime"
 2765      696D6500 
 2766              	.LASF127:
 2767 064c 656E646D 		.string	"endmem"
GAS LISTING /tmp/ccmJ5FoE.s 			page 55


 2767      656D00
 2768              	.LASF79:
 2769 0653 726C6973 		.string	"rlist"
 2769      7400
 2770              	.LASF21:
 2771 0659 747A5F64 		.string	"tz_dsttime"
 2771      73747469 
 2771      6D6500
 2772              	.LASF26:
 2773 0664 75696E74 		.string	"uint8_t"
 2773      385F7400 
 2774              	.LASF48:
 2775 066c 666C6167 		.string	"flags"
 2775      7300
 2776              	.LASF146:
 2777 0672 6669666F 		.string	"fifo_list"
 2777      5F6C6973 
 2777      7400
 2778              	.LASF151:
 2779 067c 67657474 		.string	"gettimeofday"
 2779      696D656F 
 2779      66646179 
 2779      00
 2780              	.LASF94:
 2781 0689 77746F62 		.string	"wtobjp"
 2781      6A7000
 2782              	.LASF130:
 2783 0690 706F6F6C 		.string	"pool_header"
 2783      5F686561 
 2783      64657200 
 2784              	.LASF106:
 2785 069c 73697A65 		.string	"size"
 2785      00
 2786              	.LASF153:
 2787 06a1 474E5520 		.string	"GNU C17 8.3.0 -m32 -mtune=generic -march=i686 -ggdb -O2 -ffunction-sections -fdata-sectio
 2787      43313720 
 2787      382E332E 
 2787      30202D6D 
 2787      3332202D 
 2788              	.LASF57:
 2789 0722 74687265 		.string	"threads_list_t"
 2789      6164735F 
 2789      6C697374 
 2789      5F7400
 2790              	.LASF66:
 2791 0731 76746675 		.string	"vtfunc_t"
 2791      6E635F74 
 2791      00
 2792              	.LASF117:
 2793 073a 6F66665F 		.string	"off_state"
 2793      73746174 
 2793      6500
 2794              	.LASF158:
 2795 0744 63685379 		.string	"chSysUnlock"
 2795      73556E6C 
 2795      6F636B00 
 2796              	.LASF147:
GAS LISTING /tmp/ccmJ5FoE.s 			page 56


 2797 0750 6F626A65 		.string	"objects_factory_t"
 2797      6374735F 
 2797      66616374 
 2797      6F72795F 
 2797      7400
 2798              	.LASF118:
 2799 0762 6F66665F 		.string	"off_flags"
 2799      666C6167 
 2799      7300
 2800              	.LASF53:
 2801 076c 6D74786C 		.string	"mtxlist"
 2801      69737400 
 2802              	.LASF126:
 2803 0774 6E657874 		.string	"nextmem"
 2803      6D656D00 
 2804              		.hidden	__stack_chk_fail_local
 2805              		.ident	"GCC: (Ubuntu 8.3.0-6ubuntu1) 8.3.0"
 2806              		.section	.note.GNU-stack,"",@progbits
GAS LISTING /tmp/ccmJ5FoE.s 			page 57


DEFINED SYMBOLS
                            *ABS*:0000000000000000 chcore.c
     /tmp/ccmJ5FoE.s:7      .text.__dummy:0000000000000000 __dummy
     /tmp/ccmJ5FoE.s:19     .text.__dummy:0000000000000000 port_switch
     /tmp/ccmJ5FoE.s:41     .text._port_thread_start:0000000000000000 _port_thread_start
     /tmp/ccmJ5FoE.s:176    .text.__x86.get_pc_thunk.bx:0000000000000000 __x86.get_pc_thunk.bx
     /tmp/ccmJ5FoE.s:164    .bss.port_irq_sts:0000000000000000 port_irq_sts
     /tmp/ccmJ5FoE.s:110    .text.port_rt_get_counter_value:0000000000000000 port_rt_get_counter_value
     /tmp/ccmJ5FoE.s:170    .bss.port_isr_context_flag:0000000000000000 port_isr_context_flag

UNDEFINED SYMBOLS
_GLOBAL_OFFSET_TABLE_
chThdExit
gettimeofday
__stack_chk_fail_local
