GAS LISTING /tmp/ccCxnYCc.s 			page 1


   1              		.file	"chcond.c"
   2              		.text
   3              	.Ltext0:
   4              		.section	.text.chCondObjectInit,"ax",@progbits
   5              		.p2align 4,,15
   6              		.globl	chCondObjectInit
   7              		.type	chCondObjectInit, @function
   8              	chCondObjectInit:
   9              	.LVL0:
  10              	.LFB138:
  11              		.file 1 "../../../os/rt/src/chcond.c"
  12              		.loc 1 75 49 view -0
  13              		.cfi_startproc
  14              		.loc 1 77 3 view .LVU1
  15              		.loc 1 77 3 view .LVU2
  16              		.loc 1 79 3 view .LVU3
  17              		.loc 1 75 49 is_stmt 0 view .LVU4
  18 0000 8B442404 		movl	4(%esp), %eax
  19              	.LVL1:
  20              	.LBB73:
  21              	.LBI73:
  22              		.file 2 "../../../os/rt/include/chschd.h"
  23              		.loc 2 537 20 is_stmt 1 view .LVU5
  24              	.LBB74:
  25              		.loc 2 539 3 view .LVU6
  26              		.loc 2 539 13 is_stmt 0 view .LVU7
  27 0004 8900     		movl	%eax, (%eax)
  28              		.loc 2 540 3 is_stmt 1 view .LVU8
  29              		.loc 2 540 13 is_stmt 0 view .LVU9
  30 0006 894004   		movl	%eax, 4(%eax)
  31              	.LVL2:
  32              		.loc 2 540 13 view .LVU10
  33              	.LBE74:
  34              	.LBE73:
  35              		.loc 1 80 1 view .LVU11
  36 0009 C3       		ret
  37              		.cfi_endproc
  38              	.LFE138:
  39              		.size	chCondObjectInit, .-chCondObjectInit
  40              		.section	.text.chCondSignal,"ax",@progbits
  41              		.p2align 4,,15
  42              		.globl	chCondSignal
  43              		.type	chCondSignal, @function
  44              	chCondSignal:
  45              	.LVL3:
  46              	.LFB139:
  47              		.loc 1 89 45 is_stmt 1 view -0
  48              		.cfi_startproc
  49              		.loc 1 91 3 view .LVU13
  50              		.loc 1 91 3 view .LVU14
  51              		.loc 1 93 3 view .LVU15
  52              	.LBB75:
  53              	.LBI75:
  54              		.file 3 "../../../os/rt/include/chsys.h"
  55              		.loc 3 353 20 view .LVU16
  56              	.LBE75:
  57              		.loc 3 355 3 view .LVU17
GAS LISTING /tmp/ccCxnYCc.s 			page 2


  58              	.LBB80:
  59              	.LBB76:
  60              	.LBI76:
  61              		.file 4 "../../../os/common/ports/SIMIA32/chcore.h"
  62              		.loc 4 362 20 view .LVU18
  63              	.LBB77:
  64              		.loc 4 364 3 view .LVU19
  65              	.LBE77:
  66              	.LBE76:
  67              	.LBE80:
  68              		.loc 1 89 45 is_stmt 0 view .LVU20
  69 0000 56       		pushl	%esi
  70              		.cfi_def_cfa_offset 8
  71              		.cfi_offset 6, -8
  72 0001 53       		pushl	%ebx
  73              		.cfi_def_cfa_offset 12
  74              		.cfi_offset 3, -12
  75 0002 E8FCFFFF 		call	__x86.get_pc_thunk.bx
  75      FF
  76 0007 81C30200 		addl	$_GLOBAL_OFFSET_TABLE_, %ebx
  76      0000
  77 000d 83EC04   		subl	$4, %esp
  78              		.cfi_def_cfa_offset 16
  79              		.loc 1 89 45 view .LVU21
  80 0010 8B442410 		movl	16(%esp), %eax
  81              	.LBB81:
  82              	.LBB82:
  83              		.loc 2 566 20 view .LVU22
  84 0014 8B10     		movl	(%eax), %edx
  85              	.LBE82:
  86              	.LBE81:
  87              	.LBB84:
  88              	.LBB79:
  89              	.LBB78:
  90              		.loc 4 364 16 view .LVU23
  91 0016 8BB30000 		movl	port_irq_sts@GOT(%ebx), %esi
  91      0000
  92 001c C7060100 		movl	$1, (%esi)
  92      0000
  93              	.LBE78:
  94              	.LBE79:
  95              	.LBE84:
  96              		.loc 3 356 34 is_stmt 1 view .LVU24
  97              		.loc 3 357 20 view .LVU25
  98              		.loc 1 94 3 view .LVU26
  99              	.LVL4:
 100              	.LBB85:
 101              	.LBI81:
 102              		.loc 2 564 20 view .LVU27
 103              	.LBB83:
 104              		.loc 2 566 3 view .LVU28
 105              		.loc 2 566 3 is_stmt 0 view .LVU29
 106              	.LBE83:
 107              	.LBE85:
 108              		.loc 1 94 6 view .LVU30
 109 0022 39D0     		cmpl	%edx, %eax
 110 0024 7415     		je	.L4
GAS LISTING /tmp/ccCxnYCc.s 			page 3


 111              		.loc 1 95 5 is_stmt 1 view .LVU31
 112              	.LVL5:
 113              	.LBB86:
 114              	.LBI86:
 115              		.loc 2 606 25 view .LVU32
 116              	.LBB87:
 117              		.loc 2 607 3 view .LVU33
 118              		.loc 2 609 3 view .LVU34
 119              		.loc 2 609 36 is_stmt 0 view .LVU35
 120 0026 8B0A     		movl	(%edx), %ecx
 121              	.LBE87:
 122              	.LBE86:
 123              		.loc 1 95 5 view .LVU36
 124 0028 83EC08   		subl	$8, %esp
 125              		.cfi_def_cfa_offset 24
 126              	.LBB89:
 127              	.LBB88:
 128              		.loc 2 609 25 view .LVU37
 129 002b 8908     		movl	%ecx, (%eax)
 130              		.loc 2 610 3 is_stmt 1 view .LVU38
 131              		.loc 2 610 25 is_stmt 0 view .LVU39
 132 002d 894104   		movl	%eax, 4(%ecx)
 133              		.loc 2 612 3 is_stmt 1 view .LVU40
 134              	.LVL6:
 135              		.loc 2 612 3 is_stmt 0 view .LVU41
 136              	.LBE88:
 137              	.LBE89:
 138              		.loc 1 95 5 view .LVU42
 139 0030 6A00     		pushl	$0
 140              		.cfi_def_cfa_offset 28
 141 0032 52       		pushl	%edx
 142              		.cfi_def_cfa_offset 32
 143 0033 E8FCFFFF 		call	chSchWakeupS@PLT
 143      FF
 144              	.LVL7:
 145 0038 83C410   		addl	$16, %esp
 146              		.cfi_def_cfa_offset 16
 147              	.L4:
 148              		.loc 1 97 3 is_stmt 1 view .LVU43
 149              	.LBB90:
 150              	.LBI90:
 151              		.loc 3 365 20 view .LVU44
 152              	.LBB91:
 153              		.loc 3 367 22 view .LVU45
 154              		.loc 3 368 33 view .LVU46
 155              		.loc 3 374 3 view .LVU47
 156              		.loc 3 374 3 view .LVU48
 157              		.loc 3 378 3 view .LVU49
 158              	.LBB92:
 159              	.LBI92:
 160              		.loc 4 371 20 view .LVU50
 161              	.LBB93:
 162              		.loc 4 373 3 view .LVU51
 163              		.loc 4 373 16 is_stmt 0 view .LVU52
 164 003b C7060000 		movl	$0, (%esi)
 164      0000
 165              	.LBE93:
GAS LISTING /tmp/ccCxnYCc.s 			page 4


 166              	.LBE92:
 167              	.LBE91:
 168              	.LBE90:
 169              		.loc 1 98 1 view .LVU53
 170 0041 83C404   		addl	$4, %esp
 171              		.cfi_def_cfa_offset 12
 172 0044 5B       		popl	%ebx
 173              		.cfi_restore 3
 174              		.cfi_def_cfa_offset 8
 175 0045 5E       		popl	%esi
 176              		.cfi_restore 6
 177              		.cfi_def_cfa_offset 4
 178 0046 C3       		ret
 179              		.cfi_endproc
 180              	.LFE139:
 181              		.size	chCondSignal, .-chCondSignal
 182              		.section	.text.chCondSignalI,"ax",@progbits
 183              		.p2align 4,,15
 184              		.globl	chCondSignalI
 185              		.type	chCondSignalI, @function
 186              	chCondSignalI:
 187              	.LVL8:
 188              	.LFB140:
 189              		.loc 1 111 46 is_stmt 1 view -0
 190              		.cfi_startproc
 191              		.loc 1 113 21 view .LVU55
 192              		.loc 1 114 3 view .LVU56
 193              		.loc 1 114 3 view .LVU57
 194              		.loc 1 116 3 view .LVU58
 195              		.loc 1 111 46 is_stmt 0 view .LVU59
 196 0000 53       		pushl	%ebx
 197              		.cfi_def_cfa_offset 8
 198              		.cfi_offset 3, -8
 199 0001 E8FCFFFF 		call	__x86.get_pc_thunk.bx
 199      FF
 200 0006 81C30200 		addl	$_GLOBAL_OFFSET_TABLE_, %ebx
 200      0000
 201 000c 83EC08   		subl	$8, %esp
 202              		.cfi_def_cfa_offset 16
 203              		.loc 1 111 46 view .LVU60
 204 000f 8B442410 		movl	16(%esp), %eax
 205              	.LVL9:
 206              	.LBB94:
 207              	.LBI94:
 208              		.loc 2 564 20 is_stmt 1 view .LVU61
 209              	.LBB95:
 210              		.loc 2 566 3 view .LVU62
 211              		.loc 2 566 20 is_stmt 0 view .LVU63
 212 0013 8B10     		movl	(%eax), %edx
 213              	.LVL10:
 214              		.loc 2 566 20 view .LVU64
 215              	.LBE95:
 216              	.LBE94:
 217              		.loc 1 116 6 view .LVU65
 218 0015 39D0     		cmpl	%edx, %eax
 219 0017 741A     		je	.L6
 220              	.LBB96:
GAS LISTING /tmp/ccCxnYCc.s 			page 5


 221              		.loc 1 117 5 is_stmt 1 view .LVU66
 222              	.LVL11:
 223              	.LBB97:
 224              	.LBI97:
 225              		.loc 2 606 25 view .LVU67
 226              	.LBB98:
 227              		.loc 2 607 3 view .LVU68
 228              		.loc 2 609 3 view .LVU69
 229              		.loc 2 609 36 is_stmt 0 view .LVU70
 230 0019 8B0A     		movl	(%edx), %ecx
 231              	.LBE98:
 232              	.LBE97:
 233              		.loc 1 119 12 view .LVU71
 234 001b 83EC0C   		subl	$12, %esp
 235              		.cfi_def_cfa_offset 28
 236              	.LBB100:
 237              	.LBB99:
 238              		.loc 2 609 25 view .LVU72
 239 001e 8908     		movl	%ecx, (%eax)
 240              		.loc 2 610 3 is_stmt 1 view .LVU73
 241              		.loc 2 610 25 is_stmt 0 view .LVU74
 242 0020 894104   		movl	%eax, 4(%ecx)
 243              		.loc 2 612 3 is_stmt 1 view .LVU75
 244              	.LVL12:
 245              		.loc 2 612 3 is_stmt 0 view .LVU76
 246              	.LBE99:
 247              	.LBE100:
 248              		.loc 1 118 5 is_stmt 1 view .LVU77
 249              		.loc 1 118 18 is_stmt 0 view .LVU78
 250 0023 C7422400 		movl	$0, 36(%edx)
 250      000000
 251              		.loc 1 119 5 is_stmt 1 view .LVU79
 252              		.loc 1 119 12 is_stmt 0 view .LVU80
 253 002a 52       		pushl	%edx
 254              		.cfi_def_cfa_offset 32
 255 002b E8FCFFFF 		call	chSchReadyI@PLT
 255      FF
 256              	.LVL13:
 257              		.loc 1 119 12 view .LVU81
 258 0030 83C410   		addl	$16, %esp
 259              		.cfi_def_cfa_offset 16
 260              	.L6:
 261              		.loc 1 119 12 view .LVU82
 262              	.LBE96:
 263              		.loc 1 121 1 view .LVU83
 264 0033 83C408   		addl	$8, %esp
 265              		.cfi_def_cfa_offset 8
 266 0036 5B       		popl	%ebx
 267              		.cfi_restore 3
 268              		.cfi_def_cfa_offset 4
 269 0037 C3       		ret
 270              		.cfi_endproc
 271              	.LFE140:
 272              		.size	chCondSignalI, .-chCondSignalI
 273              		.section	.text.chCondBroadcast,"ax",@progbits
 274              		.p2align 4,,15
 275              		.globl	chCondBroadcast
GAS LISTING /tmp/ccCxnYCc.s 			page 6


 276              		.type	chCondBroadcast, @function
 277              	chCondBroadcast:
 278              	.LVL14:
 279              	.LFB141:
 280              		.loc 1 130 48 is_stmt 1 view -0
 281              		.cfi_startproc
 282              		.loc 1 132 3 view .LVU85
 283              	.LBB101:
 284              	.LBI101:
 285              		.loc 3 353 20 view .LVU86
 286              	.LBE101:
 287              		.loc 3 355 3 view .LVU87
 288              	.LBB106:
 289              	.LBB102:
 290              	.LBI102:
 291              		.loc 4 362 20 view .LVU88
 292              	.LBB103:
 293              		.loc 4 364 3 view .LVU89
 294              	.LBE103:
 295              	.LBE102:
 296              	.LBE106:
 297              		.loc 1 130 48 is_stmt 0 view .LVU90
 298 0000 57       		pushl	%edi
 299              		.cfi_def_cfa_offset 8
 300              		.cfi_offset 7, -8
 301 0001 56       		pushl	%esi
 302              		.cfi_def_cfa_offset 12
 303              		.cfi_offset 6, -12
 304 0002 53       		pushl	%ebx
 305              		.cfi_def_cfa_offset 16
 306              		.cfi_offset 3, -16
 307              		.loc 1 130 48 view .LVU91
 308 0003 8B742410 		movl	16(%esp), %esi
 309 0007 E8FCFFFF 		call	__x86.get_pc_thunk.bx
 309      FF
 310 000c 81C30200 		addl	$_GLOBAL_OFFSET_TABLE_, %ebx
 310      0000
 311              	.LBB107:
 312              	.LBB108:
 313              	.LBB109:
 314              	.LBB110:
 315              		.loc 2 566 20 view .LVU92
 316 0012 8B06     		movl	(%esi), %eax
 317              	.LBE110:
 318              	.LBE109:
 319              	.LBE108:
 320              	.LBE107:
 321              	.LBB120:
 322              	.LBB105:
 323              	.LBB104:
 324              		.loc 4 364 16 view .LVU93
 325 0014 8BBB0000 		movl	port_irq_sts@GOT(%ebx), %edi
 325      0000
 326 001a C7070100 		movl	$1, (%edi)
 326      0000
 327              	.LBE104:
 328              	.LBE105:
GAS LISTING /tmp/ccCxnYCc.s 			page 7


 329              	.LBE120:
 330              		.loc 3 356 34 is_stmt 1 view .LVU94
 331              		.loc 3 357 20 view .LVU95
 332              	.LVL15:
 333              	.LBB121:
 334              	.LBB119:
 335              	.LBB113:
 336              	.LBI109:
 337              		.loc 2 564 20 view .LVU96
 338              	.LBB111:
 339              		.loc 2 566 3 view .LVU97
 340              		.loc 2 566 3 is_stmt 0 view .LVU98
 341              	.LBE111:
 342              	.LBE113:
 343              		.loc 1 157 9 view .LVU99
 344 0020 39C6     		cmpl	%eax, %esi
 345 0022 7424     		je	.L10
 346              		.p2align 4,,10
 347 0024 8D742600 		.p2align 3
 348              	.L11:
 349              		.loc 1 158 5 is_stmt 1 view .LVU100
 350              	.LVL16:
 351              	.LBB114:
 352              	.LBI114:
 353              		.loc 2 606 25 view .LVU101
 354              	.LBB115:
 355              		.loc 2 607 3 view .LVU102
 356              		.loc 2 609 3 view .LVU103
 357              		.loc 2 609 36 is_stmt 0 view .LVU104
 358 0028 8B10     		movl	(%eax), %edx
 359              	.LBE115:
 360              	.LBE114:
 361              		.loc 1 158 5 view .LVU105
 362 002a 83EC0C   		subl	$12, %esp
 363              		.cfi_def_cfa_offset 28
 364              	.LBB117:
 365              	.LBB116:
 366              		.loc 2 609 25 view .LVU106
 367 002d 8916     		movl	%edx, (%esi)
 368              		.loc 2 610 3 is_stmt 1 view .LVU107
 369              		.loc 2 610 25 is_stmt 0 view .LVU108
 370 002f 897204   		movl	%esi, 4(%edx)
 371              		.loc 2 612 3 is_stmt 1 view .LVU109
 372              	.LVL17:
 373              		.loc 2 612 3 is_stmt 0 view .LVU110
 374              	.LBE116:
 375              	.LBE117:
 376              		.loc 1 158 5 view .LVU111
 377 0032 50       		pushl	%eax
 378              		.cfi_def_cfa_offset 32
 379 0033 E8FCFFFF 		call	chSchReadyI@PLT
 379      FF
 380              	.LVL18:
 381              		.loc 1 157 9 view .LVU112
 382 0038 83C410   		addl	$16, %esp
 383              		.cfi_def_cfa_offset 16
 384              		.loc 1 158 58 view .LVU113
GAS LISTING /tmp/ccCxnYCc.s 			page 8


 385 003b C74024FE 		movl	$-2, 36(%eax)
 385      FFFFFF
 386              	.LVL19:
 387              	.LBB118:
 388              		.loc 2 564 20 is_stmt 1 view .LVU114
 389              	.LBB112:
 390              		.loc 2 566 3 view .LVU115
 391              		.loc 2 566 20 is_stmt 0 view .LVU116
 392 0042 8B06     		movl	(%esi), %eax
 393              	.LVL20:
 394              		.loc 2 566 20 view .LVU117
 395              	.LBE112:
 396              	.LBE118:
 397              		.loc 1 157 9 view .LVU118
 398 0044 39F0     		cmpl	%esi, %eax
 399 0046 75E0     		jne	.L11
 400              	.L10:
 401              	.LBE119:
 402              	.LBE121:
 403              		.loc 1 134 3 is_stmt 1 view .LVU119
 404 0048 E8FCFFFF 		call	chSchRescheduleS@PLT
 404      FF
 405              	.LVL21:
 406              		.loc 1 135 3 view .LVU120
 407              	.LBB122:
 408              	.LBI122:
 409              		.loc 3 365 20 view .LVU121
 410              	.LBB123:
 411              		.loc 3 367 22 view .LVU122
 412              		.loc 3 368 33 view .LVU123
 413              		.loc 3 374 3 view .LVU124
 414              		.loc 3 374 3 view .LVU125
 415              		.loc 3 378 3 view .LVU126
 416              	.LBB124:
 417              	.LBI124:
 418              		.loc 4 371 20 view .LVU127
 419              	.LBB125:
 420              		.loc 4 373 3 view .LVU128
 421              	.LBE125:
 422              	.LBE124:
 423              	.LBE123:
 424              	.LBE122:
 425              		.loc 1 136 1 is_stmt 0 view .LVU129
 426 004d 5B       		popl	%ebx
 427              		.cfi_restore 3
 428              		.cfi_def_cfa_offset 12
 429 004e 5E       		popl	%esi
 430              		.cfi_restore 6
 431              		.cfi_def_cfa_offset 8
 432              	.LBB129:
 433              	.LBB128:
 434              	.LBB127:
 435              	.LBB126:
 436              		.loc 4 373 16 view .LVU130
 437 004f C7070000 		movl	$0, (%edi)
 437      0000
 438              	.LBE126:
GAS LISTING /tmp/ccCxnYCc.s 			page 9


 439              	.LBE127:
 440              	.LBE128:
 441              	.LBE129:
 442              		.loc 1 136 1 view .LVU131
 443 0055 5F       		popl	%edi
 444              		.cfi_restore 7
 445              		.cfi_def_cfa_offset 4
 446 0056 C3       		ret
 447              		.cfi_endproc
 448              	.LFE141:
 449              		.size	chCondBroadcast, .-chCondBroadcast
 450              		.section	.text.chCondBroadcastI,"ax",@progbits
 451              		.p2align 4,,15
 452              		.globl	chCondBroadcastI
 453              		.type	chCondBroadcastI, @function
 454              	chCondBroadcastI:
 455              	.LVL22:
 456              	.LFB142:
 457              		.loc 1 149 49 is_stmt 1 view -0
 458              		.cfi_startproc
 459              		.loc 1 151 21 view .LVU133
 460              		.loc 1 152 3 view .LVU134
 461              		.loc 1 152 3 view .LVU135
 462              		.loc 1 157 3 view .LVU136
 463              		.loc 1 149 49 is_stmt 0 view .LVU137
 464 0000 56       		pushl	%esi
 465              		.cfi_def_cfa_offset 8
 466              		.cfi_offset 6, -8
 467 0001 53       		pushl	%ebx
 468              		.cfi_def_cfa_offset 12
 469              		.cfi_offset 3, -12
 470 0002 E8FCFFFF 		call	__x86.get_pc_thunk.bx
 470      FF
 471 0007 81C30200 		addl	$_GLOBAL_OFFSET_TABLE_, %ebx
 471      0000
 472 000d 83EC04   		subl	$4, %esp
 473              		.cfi_def_cfa_offset 16
 474              		.loc 1 149 49 view .LVU138
 475 0010 8B742410 		movl	16(%esp), %esi
 476              	.LVL23:
 477              	.LBB130:
 478              	.LBI130:
 479              		.loc 2 564 20 is_stmt 1 view .LVU139
 480              	.LBB131:
 481              		.loc 2 566 3 view .LVU140
 482              		.loc 2 566 20 is_stmt 0 view .LVU141
 483 0014 8B06     		movl	(%esi), %eax
 484              	.LVL24:
 485              		.loc 2 566 20 view .LVU142
 486              	.LBE131:
 487              	.LBE130:
 488              		.loc 1 157 9 view .LVU143
 489 0016 39F0     		cmpl	%esi, %eax
 490 0018 7426     		je	.L14
 491 001a 8DB60000 		.p2align 4,,10
 491      0000
 492              		.p2align 3
GAS LISTING /tmp/ccCxnYCc.s 			page 10


 493              	.L16:
 494              		.loc 1 158 5 is_stmt 1 view .LVU144
 495              	.LVL25:
 496              	.LBB133:
 497              	.LBI133:
 498              		.loc 2 606 25 view .LVU145
 499              	.LBB134:
 500              		.loc 2 607 3 view .LVU146
 501              		.loc 2 609 3 view .LVU147
 502              		.loc 2 609 36 is_stmt 0 view .LVU148
 503 0020 8B10     		movl	(%eax), %edx
 504              	.LBE134:
 505              	.LBE133:
 506              		.loc 1 158 5 view .LVU149
 507 0022 83EC0C   		subl	$12, %esp
 508              		.cfi_def_cfa_offset 28
 509              	.LBB136:
 510              	.LBB135:
 511              		.loc 2 609 25 view .LVU150
 512 0025 8916     		movl	%edx, (%esi)
 513              		.loc 2 610 3 is_stmt 1 view .LVU151
 514              		.loc 2 610 25 is_stmt 0 view .LVU152
 515 0027 897204   		movl	%esi, 4(%edx)
 516              		.loc 2 612 3 is_stmt 1 view .LVU153
 517              	.LVL26:
 518              		.loc 2 612 3 is_stmt 0 view .LVU154
 519              	.LBE135:
 520              	.LBE136:
 521              		.loc 1 158 5 view .LVU155
 522 002a 50       		pushl	%eax
 523              		.cfi_def_cfa_offset 32
 524 002b E8FCFFFF 		call	chSchReadyI@PLT
 524      FF
 525              	.LVL27:
 526              		.loc 1 157 9 view .LVU156
 527 0030 83C410   		addl	$16, %esp
 528              		.cfi_def_cfa_offset 16
 529              		.loc 1 158 58 view .LVU157
 530 0033 C74024FE 		movl	$-2, 36(%eax)
 530      FFFFFF
 531              	.LVL28:
 532              	.LBB137:
 533              		.loc 2 564 20 is_stmt 1 view .LVU158
 534              	.LBB132:
 535              		.loc 2 566 3 view .LVU159
 536              		.loc 2 566 20 is_stmt 0 view .LVU160
 537 003a 8B06     		movl	(%esi), %eax
 538              	.LVL29:
 539              		.loc 2 566 20 view .LVU161
 540              	.LBE132:
 541              	.LBE137:
 542              		.loc 1 157 9 view .LVU162
 543 003c 39F0     		cmpl	%esi, %eax
 544 003e 75E0     		jne	.L16
 545              	.L14:
 546              		.loc 1 160 1 view .LVU163
 547 0040 83C404   		addl	$4, %esp
GAS LISTING /tmp/ccCxnYCc.s 			page 11


 548              		.cfi_def_cfa_offset 12
 549 0043 5B       		popl	%ebx
 550              		.cfi_restore 3
 551              		.cfi_def_cfa_offset 8
 552 0044 5E       		popl	%esi
 553              		.cfi_restore 6
 554              		.cfi_def_cfa_offset 4
 555 0045 C3       		ret
 556              		.cfi_endproc
 557              	.LFE142:
 558              		.size	chCondBroadcastI, .-chCondBroadcastI
 559              		.section	.text.chCondWaitS,"ax",@progbits
 560              		.p2align 4,,15
 561              		.globl	chCondWaitS
 562              		.type	chCondWaitS, @function
 563              	chCondWaitS:
 564              	.LVL30:
 565              	.LFB144:
 566              		.loc 1 205 45 is_stmt 1 view -0
 567              		.cfi_startproc
 568              		.loc 1 206 3 view .LVU165
 569              		.loc 1 205 45 is_stmt 0 view .LVU166
 570 0000 55       		pushl	%ebp
 571              		.cfi_def_cfa_offset 8
 572              		.cfi_offset 5, -8
 573 0001 57       		pushl	%edi
 574              		.cfi_def_cfa_offset 12
 575              		.cfi_offset 7, -12
 576 0002 56       		pushl	%esi
 577              		.cfi_def_cfa_offset 16
 578              		.cfi_offset 6, -16
 579 0003 53       		pushl	%ebx
 580              		.cfi_def_cfa_offset 20
 581              		.cfi_offset 3, -20
 582 0004 E8FCFFFF 		call	__x86.get_pc_thunk.bx
 582      FF
 583 0009 81C30200 		addl	$_GLOBAL_OFFSET_TABLE_, %ebx
 583      0000
 584 000f 83EC18   		subl	$24, %esp
 585              		.cfi_def_cfa_offset 44
 586              		.loc 1 205 45 view .LVU167
 587 0012 8B6C242C 		movl	44(%esp), %ebp
 588              		.loc 1 206 13 view .LVU168
 589 0016 8B830000 		movl	ch@GOT(%ebx), %eax
 589      0000
 590 001c 8B7018   		movl	24(%eax), %esi
 591              	.LVL31:
 592              		.loc 1 207 3 is_stmt 1 view .LVU169
 593              		.loc 1 208 3 view .LVU170
 594              		.loc 1 210 21 view .LVU171
 595              		.loc 1 211 3 view .LVU172
 596              		.loc 1 211 3 view .LVU173
 597              		.loc 1 212 3 view .LVU174
 598              		.loc 1 212 3 view .LVU175
 599              		.loc 1 215 3 view .LVU176
 600              	.LBB138:
 601              	.LBI138:
GAS LISTING /tmp/ccCxnYCc.s 			page 12


 602              		.file 5 "../../../os/rt/include/chmtx.h"
 603              		.loc 5 144 24 view .LVU177
 604              	.LBB139:
 605              		.loc 5 146 3 view .LVU178
 606              	.LBE139:
 607              	.LBE138:
 608              		.file 6 "../../../os/rt/include/chthreads.h"
 609              		.loc 6 274 3 view .LVU179
 610              	.LBB141:
 611              	.LBB140:
 612              		.loc 5 146 25 is_stmt 0 view .LVU180
 613 001f 8B7E38   		movl	56(%esi), %edi
 614              	.LVL32:
 615              		.loc 5 146 25 view .LVU181
 616              	.LBE140:
 617              	.LBE141:
 618              		.loc 1 216 3 is_stmt 1 view .LVU182
 619 0022 57       		pushl	%edi
 620              		.cfi_def_cfa_offset 48
 621 0023 E8FCFFFF 		call	chMtxUnlockS@PLT
 621      FF
 622              	.LVL33:
 623              		.loc 1 220 3 view .LVU183
 624              		.loc 1 220 17 is_stmt 0 view .LVU184
 625 0028 896E24   		movl	%ebp, 36(%esi)
 626              		.loc 1 221 3 is_stmt 1 view .LVU185
 627              	.LVL34:
 628              	.LBB142:
 629              	.LBI142:
 630              		.loc 2 586 20 view .LVU186
 631              	.LBE142:
 632              		.loc 1 221 3 is_stmt 0 view .LVU187
 633 002b 83C410   		addl	$16, %esp
 634              		.cfi_def_cfa_offset 32
 635              	.LBB145:
 636              	.LBB143:
 637              		.loc 2 588 13 view .LVU188
 638 002e 89E8     		movl	%ebp, %eax
 639 0030 EB0E     		jmp	.L21
 640              	.LVL35:
 641              		.p2align 4,,10
 642 0032 8DB60000 		.p2align 3
 642      0000
 643              	.L24:
 644              		.loc 2 591 36 view .LVU189
 645 0038 8B4E08   		movl	8(%esi), %ecx
 646 003b 394808   		cmpl	%ecx, 8(%eax)
 647 003e 7206     		jb	.L20
 648              	.LVL36:
 649              	.L21:
 650              		.loc 2 589 3 is_stmt 1 view .LVU190
 651              		.loc 2 590 5 view .LVU191
 652              		.loc 2 590 8 is_stmt 0 view .LVU192
 653 0040 8B00     		movl	(%eax), %eax
 654              	.LVL37:
 655              		.loc 2 591 3 view .LVU193
 656 0042 39C5     		cmpl	%eax, %ebp
GAS LISTING /tmp/ccCxnYCc.s 			page 13


 657 0044 75F2     		jne	.L24
 658              	.L20:
 659              		.loc 2 592 3 is_stmt 1 view .LVU194
 660              		.loc 2 593 41 is_stmt 0 view .LVU195
 661 0046 8B5004   		movl	4(%eax), %edx
 662              	.LBE143:
 663              	.LBE145:
 664              		.loc 1 222 3 view .LVU196
 665 0049 83EC0C   		subl	$12, %esp
 666              		.cfi_def_cfa_offset 44
 667              	.LBB146:
 668              	.LBB144:
 669              		.loc 2 592 30 view .LVU197
 670 004c 8906     		movl	%eax, (%esi)
 671              		.loc 2 593 3 is_stmt 1 view .LVU198
 672              		.loc 2 593 30 is_stmt 0 view .LVU199
 673 004e 895604   		movl	%edx, 4(%esi)
 674              		.loc 2 594 3 is_stmt 1 view .LVU200
 675              		.loc 2 594 30 is_stmt 0 view .LVU201
 676 0051 8932     		movl	%esi, (%edx)
 677              		.loc 2 595 3 is_stmt 1 view .LVU202
 678              		.loc 2 595 30 is_stmt 0 view .LVU203
 679 0053 897004   		movl	%esi, 4(%eax)
 680              	.LVL38:
 681              		.loc 2 595 30 view .LVU204
 682              	.LBE144:
 683              	.LBE146:
 684              		.loc 1 222 3 is_stmt 1 view .LVU205
 685 0056 6A07     		pushl	$7
 686              		.cfi_def_cfa_offset 48
 687 0058 E8FCFFFF 		call	chSchGoSleepS@PLT
 687      FF
 688              	.LVL39:
 689              		.loc 1 223 3 view .LVU206
 690              		.loc 1 223 7 is_stmt 0 view .LVU207
 691 005d 8B7624   		movl	36(%esi), %esi
 692              	.LVL40:
 693              		.loc 1 224 3 is_stmt 1 view .LVU208
 694 0060 893C24   		movl	%edi, (%esp)
 695 0063 E8FCFFFF 		call	chMtxLockS@PLT
 695      FF
 696              	.LVL41:
 697              		.loc 1 226 3 view .LVU209
 698              		.loc 1 227 1 is_stmt 0 view .LVU210
 699 0068 83C41C   		addl	$28, %esp
 700              		.cfi_def_cfa_offset 20
 701 006b 5B       		popl	%ebx
 702              		.cfi_restore 3
 703              		.cfi_def_cfa_offset 16
 704 006c 89F0     		movl	%esi, %eax
 705 006e 5E       		popl	%esi
 706              		.cfi_restore 6
 707              		.cfi_def_cfa_offset 12
 708              	.LVL42:
 709              		.loc 1 227 1 view .LVU211
 710 006f 5F       		popl	%edi
 711              		.cfi_restore 7
GAS LISTING /tmp/ccCxnYCc.s 			page 14


 712              		.cfi_def_cfa_offset 8
 713              	.LVL43:
 714              		.loc 1 227 1 view .LVU212
 715 0070 5D       		popl	%ebp
 716              		.cfi_restore 5
 717              		.cfi_def_cfa_offset 4
 718 0071 C3       		ret
 719              		.cfi_endproc
 720              	.LFE144:
 721              		.size	chCondWaitS, .-chCondWaitS
 722              		.section	.text.chCondWait,"ax",@progbits
 723              		.p2align 4,,15
 724              		.globl	chCondWait
 725              		.type	chCondWait, @function
 726              	chCondWait:
 727              	.LVL44:
 728              	.LFB143:
 729              		.loc 1 179 44 is_stmt 1 view -0
 730              		.cfi_startproc
 731              		.loc 1 180 3 view .LVU214
 732              		.loc 1 182 3 view .LVU215
 733              	.LBB147:
 734              	.LBI147:
 735              		.loc 3 353 20 view .LVU216
 736              	.LBE147:
 737              		.loc 3 355 3 view .LVU217
 738              	.LBB152:
 739              	.LBB148:
 740              	.LBI148:
 741              		.loc 4 362 20 view .LVU218
 742              	.LBB149:
 743              		.loc 4 364 3 view .LVU219
 744 0000 E8FCFFFF 		call	__x86.get_pc_thunk.ax
 744      FF
 745 0005 05010000 		addl	$_GLOBAL_OFFSET_TABLE_, %eax
 745      00
 746              	.LBE149:
 747              	.LBE148:
 748              	.LBE152:
 749              		.loc 1 179 44 is_stmt 0 view .LVU220
 750 000a 53       		pushl	%ebx
 751              		.cfi_def_cfa_offset 8
 752              		.cfi_offset 3, -8
 753 000b 83EC14   		subl	$20, %esp
 754              		.cfi_def_cfa_offset 28
 755              		.loc 1 183 9 view .LVU221
 756 000e FF74241C 		pushl	28(%esp)
 757              		.cfi_def_cfa_offset 32
 758              	.LBB153:
 759              	.LBB151:
 760              	.LBB150:
 761              		.loc 4 364 16 view .LVU222
 762 0012 8B980000 		movl	port_irq_sts@GOT(%eax), %ebx
 762      0000
 763 0018 C7030100 		movl	$1, (%ebx)
 763      0000
 764              	.LBE150:
GAS LISTING /tmp/ccCxnYCc.s 			page 15


 765              	.LBE151:
 766              	.LBE153:
 767              		.loc 3 356 34 is_stmt 1 view .LVU223
 768              		.loc 3 357 20 view .LVU224
 769              		.loc 1 183 3 view .LVU225
 770              		.loc 1 183 9 is_stmt 0 view .LVU226
 771 001e E8FCFFFF 		call	chCondWaitS
 771      FF
 772              	.LVL45:
 773              		.loc 1 184 3 is_stmt 1 view .LVU227
 774              	.LBB154:
 775              	.LBI154:
 776              		.loc 3 365 20 view .LVU228
 777              	.LBB155:
 778              		.loc 3 367 22 view .LVU229
 779              		.loc 3 368 33 view .LVU230
 780              		.loc 3 374 3 view .LVU231
 781              		.loc 3 374 3 view .LVU232
 782              		.loc 3 378 3 view .LVU233
 783              	.LBB156:
 784              	.LBI156:
 785              		.loc 4 371 20 view .LVU234
 786              	.LBB157:
 787              		.loc 4 373 3 view .LVU235
 788              		.loc 4 373 16 is_stmt 0 view .LVU236
 789 0023 C7030000 		movl	$0, (%ebx)
 789      0000
 790              	.LBE157:
 791              	.LBE156:
 792              	.LBE155:
 793              	.LBE154:
 794              		.loc 1 185 3 is_stmt 1 view .LVU237
 795              		.loc 1 186 1 is_stmt 0 view .LVU238
 796 0029 83C418   		addl	$24, %esp
 797              		.cfi_def_cfa_offset 8
 798 002c 5B       		popl	%ebx
 799              		.cfi_restore 3
 800              		.cfi_def_cfa_offset 4
 801 002d C3       		ret
 802              		.cfi_endproc
 803              	.LFE143:
 804              		.size	chCondWait, .-chCondWait
 805              		.section	.text.chCondWaitTimeoutS,"ax",@progbits
 806              		.p2align 4,,15
 807              		.globl	chCondWaitTimeoutS
 808              		.type	chCondWaitTimeoutS, @function
 809              	chCondWaitTimeoutS:
 810              	.LVL46:
 811              	.LFB146:
 812              		.loc 1 296 75 is_stmt 1 view -0
 813              		.cfi_startproc
 814              		.loc 1 297 3 view .LVU240
 815              		.loc 1 298 3 view .LVU241
 816              		.loc 1 300 21 view .LVU242
 817              		.loc 1 301 3 view .LVU243
 818              		.loc 1 301 3 view .LVU244
 819              		.loc 1 302 3 view .LVU245
GAS LISTING /tmp/ccCxnYCc.s 			page 16


 820              		.loc 1 302 3 view .LVU246
 821              		.loc 1 305 3 view .LVU247
 822              	.LBB158:
 823              	.LBI158:
 824              		.loc 5 144 24 view .LVU248
 825              	.LBB159:
 826              		.loc 5 146 3 view .LVU249
 827              	.LBB160:
 828              	.LBI160:
 829              		.loc 6 272 25 view .LVU250
 830              	.LBB161:
 831              		.loc 6 274 3 view .LVU251
 832              	.LBE161:
 833              	.LBE160:
 834              	.LBE159:
 835              	.LBE158:
 836              		.loc 1 296 75 is_stmt 0 view .LVU252
 837 0000 55       		pushl	%ebp
 838              		.cfi_def_cfa_offset 8
 839              		.cfi_offset 5, -8
 840 0001 57       		pushl	%edi
 841              		.cfi_def_cfa_offset 12
 842              		.cfi_offset 7, -12
 843 0002 56       		pushl	%esi
 844              		.cfi_def_cfa_offset 16
 845              		.cfi_offset 6, -16
 846 0003 53       		pushl	%ebx
 847              		.cfi_def_cfa_offset 20
 848              		.cfi_offset 3, -20
 849 0004 E8FCFFFF 		call	__x86.get_pc_thunk.bx
 849      FF
 850 0009 81C30200 		addl	$_GLOBAL_OFFSET_TABLE_, %ebx
 850      0000
 851 000f 83EC28   		subl	$40, %esp
 852              		.cfi_def_cfa_offset 60
 853              		.loc 1 296 75 view .LVU253
 854 0012 8B7C243C 		movl	60(%esp), %edi
 855              	.LBB165:
 856              	.LBB164:
 857              	.LBB163:
 858              	.LBB162:
 859              		.loc 6 274 18 view .LVU254
 860 0016 8BAB0000 		movl	ch@GOT(%ebx), %ebp
 860      0000
 861              	.LBE162:
 862              	.LBE163:
 863              		.loc 5 146 25 view .LVU255
 864 001c 8B4518   		movl	24(%ebp), %eax
 865 001f 8B7038   		movl	56(%eax), %esi
 866              	.LVL47:
 867              		.loc 5 146 25 view .LVU256
 868              	.LBE164:
 869              	.LBE165:
 870              		.loc 1 306 3 is_stmt 1 view .LVU257
 871 0022 56       		pushl	%esi
 872              		.cfi_def_cfa_offset 64
 873 0023 E8FCFFFF 		call	chMtxUnlockS@PLT
GAS LISTING /tmp/ccCxnYCc.s 			page 17


 873      FF
 874              	.LVL48:
 875              		.loc 1 310 3 view .LVU258
 876 0028 8B5518   		movl	24(%ebp), %edx
 877              		.loc 1 311 3 is_stmt 0 view .LVU259
 878 002b 83C410   		addl	$16, %esp
 879              		.cfi_def_cfa_offset 48
 880              	.LBB166:
 881              	.LBB167:
 882              		.loc 2 588 13 view .LVU260
 883 002e 89F8     		movl	%edi, %eax
 884              	.LBE167:
 885              	.LBE166:
 886              		.loc 1 310 19 view .LVU261
 887 0030 897A24   		movl	%edi, 36(%edx)
 888              		.loc 1 311 3 is_stmt 1 view .LVU262
 889              	.LVL49:
 890              	.LBB170:
 891              	.LBI166:
 892              		.loc 2 586 20 view .LVU263
 893 0033 EB0B     		jmp	.L29
 894              	.LVL50:
 895              		.p2align 4,,10
 896 0035 8D7600   		.p2align 3
 897              	.L36:
 898              	.LBB168:
 899              		.loc 2 591 36 is_stmt 0 view .LVU264
 900 0038 8B4A08   		movl	8(%edx), %ecx
 901 003b 394808   		cmpl	%ecx, 8(%eax)
 902 003e 7206     		jb	.L28
 903              	.LVL51:
 904              	.L29:
 905              		.loc 2 589 3 is_stmt 1 view .LVU265
 906              		.loc 2 590 5 view .LVU266
 907              		.loc 2 590 8 is_stmt 0 view .LVU267
 908 0040 8B00     		movl	(%eax), %eax
 909              	.LVL52:
 910              		.loc 2 591 3 view .LVU268
 911 0042 39C7     		cmpl	%eax, %edi
 912 0044 75F2     		jne	.L36
 913              	.L28:
 914              		.loc 2 592 3 is_stmt 1 view .LVU269
 915              		.loc 2 593 41 is_stmt 0 view .LVU270
 916 0046 8B4804   		movl	4(%eax), %ecx
 917              	.LBE168:
 918              	.LBE170:
 919              		.loc 1 312 9 view .LVU271
 920 0049 83EC08   		subl	$8, %esp
 921              		.cfi_def_cfa_offset 56
 922              	.LBB171:
 923              	.LBB169:
 924              		.loc 2 592 30 view .LVU272
 925 004c 8902     		movl	%eax, (%edx)
 926              		.loc 2 593 3 is_stmt 1 view .LVU273
 927              		.loc 2 593 30 is_stmt 0 view .LVU274
 928 004e 894A04   		movl	%ecx, 4(%edx)
 929              		.loc 2 594 3 is_stmt 1 view .LVU275
GAS LISTING /tmp/ccCxnYCc.s 			page 18


 930              		.loc 2 594 30 is_stmt 0 view .LVU276
 931 0051 8911     		movl	%edx, (%ecx)
 932              		.loc 2 595 3 is_stmt 1 view .LVU277
 933              		.loc 2 595 30 is_stmt 0 view .LVU278
 934 0053 895004   		movl	%edx, 4(%eax)
 935              	.LVL53:
 936              		.loc 2 595 30 view .LVU279
 937              	.LBE169:
 938              	.LBE171:
 939              		.loc 1 312 3 is_stmt 1 view .LVU280
 940              		.loc 1 312 9 is_stmt 0 view .LVU281
 941 0056 FF74243C 		pushl	60(%esp)
 942              		.cfi_def_cfa_offset 60
 943 005a 6A07     		pushl	$7
 944              		.cfi_def_cfa_offset 64
 945 005c E8FCFFFF 		call	chSchGoSleepTimeoutS@PLT
 945      FF
 946              	.LVL54:
 947              		.loc 1 313 3 is_stmt 1 view .LVU282
 948              		.loc 1 313 6 is_stmt 0 view .LVU283
 949 0061 83C410   		addl	$16, %esp
 950              		.cfi_def_cfa_offset 48
 951 0064 83F8FF   		cmpl	$-1, %eax
 952 0067 7414     		je	.L27
 953 0069 8944240C 		movl	%eax, 12(%esp)
 954              		.loc 1 314 5 is_stmt 1 view .LVU284
 955 006d 83EC0C   		subl	$12, %esp
 956              		.cfi_def_cfa_offset 60
 957 0070 56       		pushl	%esi
 958              		.cfi_def_cfa_offset 64
 959 0071 E8FCFFFF 		call	chMtxLockS@PLT
 959      FF
 960              	.LVL55:
 961              		.loc 1 314 5 is_stmt 0 view .LVU285
 962 0076 83C410   		addl	$16, %esp
 963              		.cfi_def_cfa_offset 48
 964 0079 8B44240C 		movl	12(%esp), %eax
 965              		.loc 1 317 3 is_stmt 1 view .LVU286
 966              	.LVL56:
 967              	.L27:
 968              		.loc 1 318 1 is_stmt 0 view .LVU287
 969 007d 83C41C   		addl	$28, %esp
 970              		.cfi_def_cfa_offset 20
 971 0080 5B       		popl	%ebx
 972              		.cfi_restore 3
 973              		.cfi_def_cfa_offset 16
 974 0081 5E       		popl	%esi
 975              		.cfi_restore 6
 976              		.cfi_def_cfa_offset 12
 977              	.LVL57:
 978              		.loc 1 318 1 view .LVU288
 979 0082 5F       		popl	%edi
 980              		.cfi_restore 7
 981              		.cfi_def_cfa_offset 8
 982 0083 5D       		popl	%ebp
 983              		.cfi_restore 5
 984              		.cfi_def_cfa_offset 4
GAS LISTING /tmp/ccCxnYCc.s 			page 19


 985 0084 C3       		ret
 986              		.cfi_endproc
 987              	.LFE146:
 988              		.size	chCondWaitTimeoutS, .-chCondWaitTimeoutS
 989              		.section	.text.chCondWaitTimeout,"ax",@progbits
 990              		.p2align 4,,15
 991              		.globl	chCondWaitTimeout
 992              		.type	chCondWaitTimeout, @function
 993              	chCondWaitTimeout:
 994              	.LVL58:
 995              	.LFB145:
 996              		.loc 1 258 74 is_stmt 1 view -0
 997              		.cfi_startproc
 998              		.loc 1 259 3 view .LVU290
 999              		.loc 1 261 3 view .LVU291
 1000              	.LBB172:
 1001              	.LBI172:
 1002              		.loc 3 353 20 view .LVU292
 1003              	.LBE172:
 1004              		.loc 3 355 3 view .LVU293
 1005              	.LBB177:
 1006              	.LBB173:
 1007              	.LBI173:
 1008              		.loc 4 362 20 view .LVU294
 1009              	.LBB174:
 1010              		.loc 4 364 3 view .LVU295
 1011 0000 E8FCFFFF 		call	__x86.get_pc_thunk.ax
 1011      FF
 1012 0005 05010000 		addl	$_GLOBAL_OFFSET_TABLE_, %eax
 1012      00
 1013              	.LBE174:
 1014              	.LBE173:
 1015              	.LBE177:
 1016              		.loc 1 258 74 is_stmt 0 view .LVU296
 1017 000a 53       		pushl	%ebx
 1018              		.cfi_def_cfa_offset 8
 1019              		.cfi_offset 3, -8
 1020 000b 83EC10   		subl	$16, %esp
 1021              		.cfi_def_cfa_offset 24
 1022              		.loc 1 262 9 view .LVU297
 1023 000e FF74241C 		pushl	28(%esp)
 1024              		.cfi_def_cfa_offset 28
 1025 0012 FF74241C 		pushl	28(%esp)
 1026              		.cfi_def_cfa_offset 32
 1027              	.LBB178:
 1028              	.LBB176:
 1029              	.LBB175:
 1030              		.loc 4 364 16 view .LVU298
 1031 0016 8B980000 		movl	port_irq_sts@GOT(%eax), %ebx
 1031      0000
 1032 001c C7030100 		movl	$1, (%ebx)
 1032      0000
 1033              	.LBE175:
 1034              	.LBE176:
 1035              	.LBE178:
 1036              		.loc 3 356 34 is_stmt 1 view .LVU299
 1037              		.loc 3 357 20 view .LVU300
GAS LISTING /tmp/ccCxnYCc.s 			page 20


 1038              		.loc 1 262 3 view .LVU301
 1039              		.loc 1 262 9 is_stmt 0 view .LVU302
 1040 0022 E8FCFFFF 		call	chCondWaitTimeoutS
 1040      FF
 1041              	.LVL59:
 1042              		.loc 1 263 3 is_stmt 1 view .LVU303
 1043              	.LBB179:
 1044              	.LBI179:
 1045              		.loc 3 365 20 view .LVU304
 1046              	.LBB180:
 1047              		.loc 3 367 22 view .LVU305
 1048              		.loc 3 368 33 view .LVU306
 1049              		.loc 3 374 3 view .LVU307
 1050              		.loc 3 374 3 view .LVU308
 1051              		.loc 3 378 3 view .LVU309
 1052              	.LBB181:
 1053              	.LBI181:
 1054              		.loc 4 371 20 view .LVU310
 1055              	.LBB182:
 1056              		.loc 4 373 3 view .LVU311
 1057              		.loc 4 373 16 is_stmt 0 view .LVU312
 1058 0027 C7030000 		movl	$0, (%ebx)
 1058      0000
 1059              	.LBE182:
 1060              	.LBE181:
 1061              	.LBE180:
 1062              	.LBE179:
 1063              		.loc 1 265 3 is_stmt 1 view .LVU313
 1064              		.loc 1 266 1 is_stmt 0 view .LVU314
 1065 002d 83C418   		addl	$24, %esp
 1066              		.cfi_def_cfa_offset 8
 1067 0030 5B       		popl	%ebx
 1068              		.cfi_restore 3
 1069              		.cfi_def_cfa_offset 4
 1070 0031 C3       		ret
 1071              		.cfi_endproc
 1072              	.LFE145:
 1073              		.size	chCondWaitTimeout, .-chCondWaitTimeout
 1074              		.section	.text.__x86.get_pc_thunk.ax,"axG",@progbits,__x86.get_pc_thunk.ax,comdat
 1075              		.globl	__x86.get_pc_thunk.ax
 1076              		.hidden	__x86.get_pc_thunk.ax
 1077              		.type	__x86.get_pc_thunk.ax, @function
 1078              	__x86.get_pc_thunk.ax:
 1079              	.LFB147:
 1080              		.cfi_startproc
 1081 0000 8B0424   		movl	(%esp), %eax
 1082 0003 C3       		ret
 1083              		.cfi_endproc
 1084              	.LFE147:
 1085              		.section	.text.__x86.get_pc_thunk.bx,"axG",@progbits,__x86.get_pc_thunk.bx,comdat
 1086              		.globl	__x86.get_pc_thunk.bx
 1087              		.hidden	__x86.get_pc_thunk.bx
 1088              		.type	__x86.get_pc_thunk.bx, @function
 1089              	__x86.get_pc_thunk.bx:
 1090              	.LFB148:
 1091              		.cfi_startproc
 1092 0000 8B1C24   		movl	(%esp), %ebx
GAS LISTING /tmp/ccCxnYCc.s 			page 21


 1093 0003 C3       		ret
 1094              		.cfi_endproc
 1095              	.LFE148:
 1096              		.text
 1097              	.Letext0:
 1098              		.file 7 "/usr/lib/gcc/x86_64-linux-gnu/8/include/stddef.h"
 1099              		.file 8 "/usr/include/i386-linux-gnu/bits/types.h"
 1100              		.file 9 "/usr/include/i386-linux-gnu/bits/stdint-intn.h"
 1101              		.file 10 "/usr/include/i386-linux-gnu/bits/stdint-uintn.h"
 1102              		.file 11 "../../../os/common/ports/SIMIA32/compilers/GCC/chtypes.h"
 1103              		.file 12 "../../../os/rt/include/chsystypes.h"
 1104              		.file 13 "../../../os/rt/include/chtime.h"
 1105              		.file 14 "../../../os/rt/include/chtm.h"
 1106              		.file 15 "../../../os/rt/include/chsem.h"
 1107              		.file 16 "../../../os/rt/include/chregistry.h"
 1108              		.file 17 "../../../os/rt/include/chcond.h"
 1109              		.file 18 "../../../os/common/oslib/include/chmemcore.h"
 1110              		.file 19 "../../../os/common/oslib/include/chmempools.h"
 1111              		.file 20 "../../../os/common/oslib/include/chfactory.h"
 5311              		.section	.note.GNU-stack,"",@progbits
GAS LISTING /tmp/ccCxnYCc.s 			page 102

