GAS LISTING /tmp/ccTscaQp.s 			page 1


   1              		.file	"chdynamic.c"
   2              		.text
   3              	.Ltext0:
   4              		.section	.text.chThdCreateFromHeap,"ax",@progbits
   5              		.p2align 4,,15
   6              		.globl	chThdCreateFromHeap
   7              		.type	chThdCreateFromHeap, @function
   8              	chThdCreateFromHeap:
   9              	.LVL0:
  10              	.LFB138:
  11              		.file 1 "../../../os/rt/src/chdynamic.c"
  12              		.loc 1 84 54 view -0
  13              		.cfi_startproc
  14              		.loc 1 84 54 is_stmt 0 view .LVU1
  15 0000 55       		pushl	%ebp
  16              		.cfi_def_cfa_offset 8
  17              		.cfi_offset 5, -8
  18 0001 57       		pushl	%edi
  19              		.cfi_def_cfa_offset 12
  20              		.cfi_offset 7, -12
  21 0002 56       		pushl	%esi
  22              		.cfi_def_cfa_offset 16
  23              		.cfi_offset 6, -16
  24 0003 53       		pushl	%ebx
  25              		.cfi_def_cfa_offset 20
  26              		.cfi_offset 3, -20
  27 0004 E8FCFFFF 		call	__x86.get_pc_thunk.bx
  27      FF
  28 0009 81C30200 		addl	$_GLOBAL_OFFSET_TABLE_, %ebx
  28      0000
  29 000f 83EC40   		subl	$64, %esp
  30              		.cfi_def_cfa_offset 84
  31              		.loc 1 84 54 view .LVU2
  32 0012 65A11400 		movl	%gs:20, %eax
  32      0000
  33 0018 89442430 		movl	%eax, 48(%esp)
  34 001c 31C0     		xorl	%eax, %eax
  35              		.loc 1 85 3 is_stmt 1 view .LVU3
  36              		.loc 1 86 3 view .LVU4
  37              		.loc 1 88 3 view .LVU5
  38              		.loc 1 84 54 is_stmt 0 view .LVU6
  39 001e 8B6C245C 		movl	92(%esp), %ebp
  40 0022 8B7C2464 		movl	100(%esp), %edi
  41 0026 8B742468 		movl	104(%esp), %esi
  42              		.loc 1 88 9 view .LVU7
  43 002a 6A10     		pushl	$16
  44              		.cfi_def_cfa_offset 88
  45 002c FF74245C 		pushl	92(%esp)
  46              		.cfi_def_cfa_offset 92
  47 0030 FF74245C 		pushl	92(%esp)
  48              		.cfi_def_cfa_offset 96
  49 0034 E8FCFFFF 		call	chHeapAllocAligned@PLT
  49      FF
  50              	.LVL1:
  51              		.loc 1 89 3 is_stmt 1 view .LVU8
  52              		.loc 1 89 6 is_stmt 0 view .LVU9
  53 0039 83C410   		addl	$16, %esp
GAS LISTING /tmp/ccTscaQp.s 			page 2


  54              		.cfi_def_cfa_offset 80
  55 003c 85C0     		testl	%eax, %eax
  56 003e 7458     		je	.L1
  57              		.loc 1 93 3 is_stmt 1 view .LVU10
  58              		.loc 1 93 23 is_stmt 0 view .LVU11
  59 0040 89442418 		movl	%eax, 24(%esp)
  60              		.loc 1 96 5 view .LVU12
  61 0044 03442454 		addl	84(%esp), %eax
  62              	.LVL2:
  63              		.loc 1 109 8 view .LVU13
  64 0048 83EC0C   		subl	$12, %esp
  65              		.cfi_def_cfa_offset 92
  66              		.loc 1 96 5 view .LVU14
  67 004b 89442428 		movl	%eax, 40(%esp)
  68              		.loc 1 93 23 view .LVU15
  69 004f 8B442468 		movl	104(%esp), %eax
  70 0053 89742434 		movl	%esi, 52(%esp)
  71              		.loc 1 108 3 is_stmt 1 view .LVU16
  72              	.LBB22:
  73              	.LBI22:
  74              		.file 2 "../../../os/rt/include/chsys.h"
  75              		.loc 2 353 20 view .LVU17
  76              	.LBE22:
  77              		.loc 2 355 3 view .LVU18
  78              	.LBB27:
  79              	.LBB23:
  80              	.LBI23:
  81              		.file 3 "../../../os/common/ports/SIMIA32/chcore.h"
  82              		.loc 3 362 20 view .LVU19
  83              	.LBB24:
  84              		.loc 3 364 3 view .LVU20
  85              		.loc 3 364 16 is_stmt 0 view .LVU21
  86 0057 8BB30000 		movl	port_irq_sts@GOT(%ebx), %esi
  86      0000
  87              	.LBE24:
  88              	.LBE23:
  89              	.LBE27:
  90              		.loc 1 93 23 view .LVU22
  91 005d 896C2420 		movl	%ebp, 32(%esp)
  92 0061 8944242C 		movl	%eax, 44(%esp)
  93 0065 897C2430 		movl	%edi, 48(%esp)
  94              		.loc 1 109 8 view .LVU23
  95 0069 8D442420 		leal	32(%esp), %eax
  96              	.LBB28:
  97              	.LBB26:
  98              	.LBB25:
  99              		.loc 3 364 16 view .LVU24
 100 006d C7060100 		movl	$1, (%esi)
 100      0000
 101              	.LBE25:
 102              	.LBE26:
 103              	.LBE28:
 104              		.loc 2 356 34 is_stmt 1 view .LVU25
 105              		.loc 2 357 20 view .LVU26
 106              		.loc 1 109 3 view .LVU27
 107              		.loc 1 109 8 is_stmt 0 view .LVU28
 108 0073 50       		pushl	%eax
GAS LISTING /tmp/ccTscaQp.s 			page 3


 109              		.cfi_def_cfa_offset 96
 110 0074 E8FCFFFF 		call	chThdCreateSuspendedI@PLT
 110      FF
 111              	.LVL3:
 112              		.loc 1 110 3 is_stmt 1 view .LVU29
 113              		.loc 1 110 13 is_stmt 0 view .LVU30
 114 0079 C6402101 		movb	$1, 33(%eax)
 115              		.loc 1 111 3 is_stmt 1 view .LVU31
 116 007d 5A       		popl	%edx
 117              		.cfi_def_cfa_offset 92
 118 007e 59       		popl	%ecx
 119              		.cfi_def_cfa_offset 88
 120 007f 6A00     		pushl	$0
 121              		.cfi_def_cfa_offset 92
 122 0081 50       		pushl	%eax
 123              		.cfi_def_cfa_offset 96
 124 0082 8944241C 		movl	%eax, 28(%esp)
 125 0086 E8FCFFFF 		call	chSchWakeupS@PLT
 125      FF
 126              	.LVL4:
 127              		.loc 1 112 3 view .LVU32
 128              	.LBB29:
 129              	.LBI29:
 130              		.loc 2 365 20 view .LVU33
 131              	.LBB30:
 132              		.loc 2 367 22 view .LVU34
 133              		.loc 2 368 33 view .LVU35
 134              		.loc 2 374 3 view .LVU36
 135              		.loc 2 374 3 view .LVU37
 136              		.loc 2 378 3 view .LVU38
 137              	.LBB31:
 138              	.LBI31:
 139              		.loc 3 371 20 view .LVU39
 140              	.LBB32:
 141              		.loc 3 373 3 view .LVU40
 142              	.LBE32:
 143              	.LBE31:
 144              	.LBE30:
 145              	.LBE29:
 146              		.loc 1 114 10 is_stmt 0 view .LVU41
 147 008b 83C410   		addl	$16, %esp
 148              		.cfi_def_cfa_offset 80
 149              	.LBB36:
 150              	.LBB35:
 151              	.LBB34:
 152              	.LBB33:
 153              		.loc 3 373 16 view .LVU42
 154 008e C7060000 		movl	$0, (%esi)
 154      0000
 155              	.LBE33:
 156              	.LBE34:
 157              	.LBE35:
 158              	.LBE36:
 159              		.loc 1 114 3 is_stmt 1 view .LVU43
 160              		.loc 1 114 10 is_stmt 0 view .LVU44
 161 0094 8B44240C 		movl	12(%esp), %eax
 162              	.LVL5:
GAS LISTING /tmp/ccTscaQp.s 			page 4


 163              	.L1:
 164              		.loc 1 115 1 view .LVU45
 165 0098 8B54242C 		movl	44(%esp), %edx
 166 009c 65331514 		xorl	%gs:20, %edx
 166      000000
 167 00a3 7508     		jne	.L9
 168 00a5 83C43C   		addl	$60, %esp
 169              		.cfi_remember_state
 170              		.cfi_def_cfa_offset 20
 171 00a8 5B       		popl	%ebx
 172              		.cfi_restore 3
 173              		.cfi_def_cfa_offset 16
 174 00a9 5E       		popl	%esi
 175              		.cfi_restore 6
 176              		.cfi_def_cfa_offset 12
 177 00aa 5F       		popl	%edi
 178              		.cfi_restore 7
 179              		.cfi_def_cfa_offset 8
 180 00ab 5D       		popl	%ebp
 181              		.cfi_restore 5
 182              		.cfi_def_cfa_offset 4
 183 00ac C3       		ret
 184              	.L9:
 185              		.cfi_restore_state
 186 00ad E8FCFFFF 		call	__stack_chk_fail_local
 186      FF
 187              	.LVL6:
 188              		.cfi_endproc
 189              	.LFE138:
 190              		.size	chThdCreateFromHeap, .-chThdCreateFromHeap
 191              		.section	.text.chThdCreateFromMemoryPool,"ax",@progbits
 192              		.p2align 4,,15
 193              		.globl	chThdCreateFromMemoryPool
 194              		.type	chThdCreateFromMemoryPool, @function
 195              	chThdCreateFromMemoryPool:
 196              	.LVL7:
 197              	.LFB139:
 198              		.loc 1 146 74 is_stmt 1 view -0
 199              		.cfi_startproc
 200              		.loc 1 146 74 is_stmt 0 view .LVU47
 201 0000 55       		pushl	%ebp
 202              		.cfi_def_cfa_offset 8
 203              		.cfi_offset 5, -8
 204 0001 57       		pushl	%edi
 205              		.cfi_def_cfa_offset 12
 206              		.cfi_offset 7, -12
 207 0002 56       		pushl	%esi
 208              		.cfi_def_cfa_offset 16
 209              		.cfi_offset 6, -16
 210 0003 53       		pushl	%ebx
 211              		.cfi_def_cfa_offset 20
 212              		.cfi_offset 3, -20
 213 0004 E8FCFFFF 		call	__x86.get_pc_thunk.bx
 213      FF
 214 0009 81C30200 		addl	$_GLOBAL_OFFSET_TABLE_, %ebx
 214      0000
 215 000f 83EC48   		subl	$72, %esp
GAS LISTING /tmp/ccTscaQp.s 			page 5


 216              		.cfi_def_cfa_offset 92
 217              		.loc 1 146 74 view .LVU48
 218 0012 8B442468 		movl	104(%esp), %eax
 219 0016 8B7C245C 		movl	92(%esp), %edi
 220 001a 8B6C2460 		movl	96(%esp), %ebp
 221 001e 8B74246C 		movl	108(%esp), %esi
 222 0022 89442418 		movl	%eax, 24(%esp)
 223 0026 658B1514 		movl	%gs:20, %edx
 223      000000
 224 002d 89542438 		movl	%edx, 56(%esp)
 225 0031 31D2     		xorl	%edx, %edx
 226              		.loc 1 147 3 is_stmt 1 view .LVU49
 227              		.loc 1 148 3 view .LVU50
 228              		.loc 1 150 3 view .LVU51
 229              		.loc 1 150 3 view .LVU52
 230              		.loc 1 152 3 view .LVU53
 231              		.loc 1 152 9 is_stmt 0 view .LVU54
 232 0033 57       		pushl	%edi
 233              		.cfi_def_cfa_offset 96
 234 0034 E8FCFFFF 		call	chPoolAlloc@PLT
 234      FF
 235              	.LVL8:
 236              		.loc 1 153 3 is_stmt 1 view .LVU55
 237              		.loc 1 153 6 is_stmt 0 view .LVU56
 238 0039 83C410   		addl	$16, %esp
 239              		.cfi_def_cfa_offset 80
 240 003c 85C0     		testl	%eax, %eax
 241 003e 745E     		je	.L10
 242              		.loc 1 157 3 is_stmt 1 view .LVU57
 243              		.loc 1 157 23 is_stmt 0 view .LVU58
 244 0040 89442418 		movl	%eax, 24(%esp)
 245              		.loc 1 160 5 view .LVU59
 246 0044 034704   		addl	4(%edi), %eax
 247              	.LVL9:
 248              		.loc 1 173 8 view .LVU60
 249 0047 83EC0C   		subl	$12, %esp
 250              		.cfi_def_cfa_offset 92
 251              		.loc 1 157 23 view .LVU61
 252 004a 89442428 		movl	%eax, 40(%esp)
 253 004e 8B442464 		movl	100(%esp), %eax
 254 0052 89742434 		movl	%esi, 52(%esp)
 255              		.loc 1 172 3 is_stmt 1 view .LVU62
 256              	.LBB37:
 257              	.LBI37:
 258              		.loc 2 353 20 view .LVU63
 259              	.LBE37:
 260              		.loc 2 355 3 view .LVU64
 261              	.LBB42:
 262              	.LBB38:
 263              	.LBI38:
 264              		.loc 3 362 20 view .LVU65
 265              	.LBB39:
 266              		.loc 3 364 3 view .LVU66
 267              		.loc 3 364 16 is_stmt 0 view .LVU67
 268 0056 8BB30000 		movl	port_irq_sts@GOT(%ebx), %esi
 268      0000
 269              	.LBE39:
GAS LISTING /tmp/ccTscaQp.s 			page 6


 270              	.LBE38:
 271              	.LBE42:
 272              		.loc 1 157 23 view .LVU68
 273 005c 8944242C 		movl	%eax, 44(%esp)
 274 0060 8B442418 		movl	24(%esp), %eax
 275 0064 896C2420 		movl	%ebp, 32(%esp)
 276 0068 89442430 		movl	%eax, 48(%esp)
 277              		.loc 1 173 8 view .LVU69
 278 006c 8D442420 		leal	32(%esp), %eax
 279              	.LBB43:
 280              	.LBB41:
 281              	.LBB40:
 282              		.loc 3 364 16 view .LVU70
 283 0070 C7060100 		movl	$1, (%esi)
 283      0000
 284              	.LBE40:
 285              	.LBE41:
 286              	.LBE43:
 287              		.loc 2 356 34 is_stmt 1 view .LVU71
 288              		.loc 2 357 20 view .LVU72
 289              		.loc 1 173 3 view .LVU73
 290              		.loc 1 173 8 is_stmt 0 view .LVU74
 291 0076 50       		pushl	%eax
 292              		.cfi_def_cfa_offset 96
 293 0077 E8FCFFFF 		call	chThdCreateSuspendedI@PLT
 293      FF
 294              	.LVL10:
 295              		.loc 1 174 3 is_stmt 1 view .LVU75
 296              		.loc 1 174 13 is_stmt 0 view .LVU76
 297 007c C6402102 		movb	$2, 33(%eax)
 298              		.loc 1 175 3 is_stmt 1 view .LVU77
 299              		.loc 1 175 13 is_stmt 0 view .LVU78
 300 0080 897840   		movl	%edi, 64(%eax)
 301              		.loc 1 176 3 is_stmt 1 view .LVU79
 302 0083 5A       		popl	%edx
 303              		.cfi_def_cfa_offset 92
 304 0084 59       		popl	%ecx
 305              		.cfi_def_cfa_offset 88
 306 0085 6A00     		pushl	$0
 307              		.cfi_def_cfa_offset 92
 308 0087 50       		pushl	%eax
 309              		.cfi_def_cfa_offset 96
 310 0088 8944241C 		movl	%eax, 28(%esp)
 311 008c E8FCFFFF 		call	chSchWakeupS@PLT
 311      FF
 312              	.LVL11:
 313              		.loc 1 177 3 view .LVU80
 314              	.LBB44:
 315              	.LBI44:
 316              		.loc 2 365 20 view .LVU81
 317              	.LBB45:
 318              		.loc 2 367 22 view .LVU82
 319              		.loc 2 368 33 view .LVU83
 320              		.loc 2 374 3 view .LVU84
 321              		.loc 2 374 3 view .LVU85
 322              		.loc 2 378 3 view .LVU86
 323              	.LBB46:
GAS LISTING /tmp/ccTscaQp.s 			page 7


 324              	.LBI46:
 325              		.loc 3 371 20 view .LVU87
 326              	.LBB47:
 327              		.loc 3 373 3 view .LVU88
 328              	.LBE47:
 329              	.LBE46:
 330              	.LBE45:
 331              	.LBE44:
 332              		.loc 1 179 10 is_stmt 0 view .LVU89
 333 0091 83C410   		addl	$16, %esp
 334              		.cfi_def_cfa_offset 80
 335              	.LBB51:
 336              	.LBB50:
 337              	.LBB49:
 338              	.LBB48:
 339              		.loc 3 373 16 view .LVU90
 340 0094 C7060000 		movl	$0, (%esi)
 340      0000
 341              	.LBE48:
 342              	.LBE49:
 343              	.LBE50:
 344              	.LBE51:
 345              		.loc 1 179 3 is_stmt 1 view .LVU91
 346              		.loc 1 179 10 is_stmt 0 view .LVU92
 347 009a 8B44240C 		movl	12(%esp), %eax
 348              	.LVL12:
 349              	.L10:
 350              		.loc 1 180 1 view .LVU93
 351 009e 8B4C242C 		movl	44(%esp), %ecx
 352 00a2 65330D14 		xorl	%gs:20, %ecx
 352      000000
 353 00a9 7508     		jne	.L17
 354 00ab 83C43C   		addl	$60, %esp
 355              		.cfi_remember_state
 356              		.cfi_def_cfa_offset 20
 357 00ae 5B       		popl	%ebx
 358              		.cfi_restore 3
 359              		.cfi_def_cfa_offset 16
 360 00af 5E       		popl	%esi
 361              		.cfi_restore 6
 362              		.cfi_def_cfa_offset 12
 363 00b0 5F       		popl	%edi
 364              		.cfi_restore 7
 365              		.cfi_def_cfa_offset 8
 366 00b1 5D       		popl	%ebp
 367              		.cfi_restore 5
 368              		.cfi_def_cfa_offset 4
 369 00b2 C3       		ret
 370              	.L17:
 371              		.cfi_restore_state
 372 00b3 E8FCFFFF 		call	__stack_chk_fail_local
 372      FF
 373              	.LVL13:
 374              		.cfi_endproc
 375              	.LFE139:
 376              		.size	chThdCreateFromMemoryPool, .-chThdCreateFromMemoryPool
 377              		.section	.text.__x86.get_pc_thunk.bx,"axG",@progbits,__x86.get_pc_thunk.bx,comdat
GAS LISTING /tmp/ccTscaQp.s 			page 8


 378              		.globl	__x86.get_pc_thunk.bx
 379              		.hidden	__x86.get_pc_thunk.bx
 380              		.type	__x86.get_pc_thunk.bx, @function
 381              	__x86.get_pc_thunk.bx:
 382              	.LFB140:
 383              		.cfi_startproc
 384 0000 8B1C24   		movl	(%esp), %ebx
 385 0003 C3       		ret
 386              		.cfi_endproc
 387              	.LFE140:
 388              		.text
 389              	.Letext0:
 390              		.file 4 "/usr/lib/gcc/x86_64-linux-gnu/8/include/stddef.h"
 391              		.file 5 "/usr/include/i386-linux-gnu/bits/types.h"
 392              		.file 6 "/usr/include/i386-linux-gnu/bits/stdint-intn.h"
 393              		.file 7 "/usr/include/i386-linux-gnu/bits/stdint-uintn.h"
 394              		.file 8 "../../../os/common/ports/SIMIA32/compilers/GCC/chtypes.h"
 395              		.file 9 "../../../os/rt/include/chsystypes.h"
 396              		.file 10 "../../../os/rt/include/chschd.h"
 397              		.file 11 "../../../os/rt/include/chtime.h"
 398              		.file 12 "../../../os/rt/include/chtm.h"
 399              		.file 13 "../../../os/rt/include/chsem.h"
 400              		.file 14 "../../../os/rt/include/chmtx.h"
 401              		.file 15 "../../../os/rt/include/chthreads.h"
 402              		.file 16 "../../../os/rt/include/chregistry.h"
 403              		.file 17 "../../../os/common/oslib/include/chmemcore.h"
 404              		.file 18 "../../../os/common/oslib/include/chheap.h"
 405              		.file 19 "../../../os/common/oslib/include/chmempools.h"
 406              		.file 20 "../../../os/common/oslib/include/chfactory.h"
 3409              		.section	.note.GNU-stack,"",@progbits
GAS LISTING /tmp/ccTscaQp.s 			page 68

