GAS LISTING /tmp/cc1DMqvg.s 			page 1


   1              		.file	"chevents.c"
   2              		.text
   3              	.Ltext0:
   4              		.section	.text.chEvtRegisterMaskWithFlags,"ax",@progbits
   5              		.p2align 4,,15
   6              		.globl	chEvtRegisterMaskWithFlags
   7              		.type	chEvtRegisterMaskWithFlags, @function
   8              	chEvtRegisterMaskWithFlags:
   9              	.LVL0:
  10              	.LFB138:
  11              		.file 1 "../../../os/rt/src/chevents.c"
  12              		.loc 1 106 54 view -0
  13              		.cfi_startproc
  14              		.loc 1 108 3 view .LVU1
  15              		.loc 1 108 3 view .LVU2
  16              		.loc 1 110 3 view .LVU3
  17              		.file 2 "../../../os/rt/include/chsys.h"
  18              		.loc 2 355 3 view .LVU4
  19              		.file 3 "../../../os/common/ports/SIMIA32/chcore.h"
  20              		.loc 3 364 3 view .LVU5
  21              		.loc 2 356 34 view .LVU6
  22              		.loc 2 357 20 view .LVU7
  23              		.loc 1 111 3 view .LVU8
  24 0000 E8FCFFFF 		call	__x86.get_pc_thunk.dx
  24      FF
  25 0005 81C20200 		addl	$_GLOBAL_OFFSET_TABLE_, %edx
  25      0000
  26              		.loc 1 106 54 is_stmt 0 view .LVU9
  27 000b 53       		pushl	%ebx
  28              		.cfi_def_cfa_offset 8
  29              		.cfi_offset 3, -8
  30              		.loc 1 106 54 view .LVU10
  31 000c 8B4C2408 		movl	8(%esp), %ecx
  32 0010 8B44240C 		movl	12(%esp), %eax
  33              		.loc 1 111 17 view .LVU11
  34 0014 8B19     		movl	(%ecx), %ebx
  35 0016 8918     		movl	%ebx, (%eax)
  36              		.loc 1 112 3 is_stmt 1 view .LVU12
  37              		.loc 1 112 17 is_stmt 0 view .LVU13
  38 0018 8901     		movl	%eax, (%ecx)
  39              		.loc 1 113 3 is_stmt 1 view .LVU14
  40              		.loc 1 113 19 is_stmt 0 view .LVU15
  41 001a 8B8A0000 		movl	ch@GOT(%edx), %ecx
  41      0000
  42              		.loc 1 113 17 view .LVU16
  43 0020 8B4918   		movl	24(%ecx), %ecx
  44              		.loc 1 115 17 view .LVU17
  45 0023 C7400C00 		movl	$0, 12(%eax)
  45      000000
  46              		.loc 1 113 17 view .LVU18
  47 002a 894804   		movl	%ecx, 4(%eax)
  48              		.loc 1 114 3 is_stmt 1 view .LVU19
  49              		.loc 1 114 17 is_stmt 0 view .LVU20
  50 002d 8B4C2410 		movl	16(%esp), %ecx
  51 0031 894808   		movl	%ecx, 8(%eax)
  52              		.loc 1 115 3 is_stmt 1 view .LVU21
  53              		.loc 1 116 3 view .LVU22
GAS LISTING /tmp/cc1DMqvg.s 			page 2


  54              		.loc 1 116 17 is_stmt 0 view .LVU23
  55 0034 8B4C2414 		movl	20(%esp), %ecx
  56 0038 894810   		movl	%ecx, 16(%eax)
  57              		.loc 1 117 3 is_stmt 1 view .LVU24
  58              	.LBB138:
  59              	.LBI138:
  60              		.loc 2 365 20 view .LVU25
  61              	.LBB139:
  62              		.loc 2 367 22 view .LVU26
  63              		.loc 2 368 33 view .LVU27
  64              		.loc 2 374 3 view .LVU28
  65              		.loc 2 374 3 view .LVU29
  66              		.loc 2 378 3 view .LVU30
  67              	.LBB140:
  68              	.LBI140:
  69              		.loc 3 371 20 view .LVU31
  70              	.LBB141:
  71              		.loc 3 373 3 view .LVU32
  72              		.loc 3 373 16 is_stmt 0 view .LVU33
  73 003b 8B820000 		movl	port_irq_sts@GOT(%edx), %eax
  73      0000
  74 0041 C7000000 		movl	$0, (%eax)
  74      0000
  75              	.LBE141:
  76              	.LBE140:
  77              	.LBE139:
  78              	.LBE138:
  79              		.loc 1 118 1 view .LVU34
  80 0047 5B       		popl	%ebx
  81              		.cfi_restore 3
  82              		.cfi_def_cfa_offset 4
  83 0048 C3       		ret
  84              		.cfi_endproc
  85              	.LFE138:
  86              		.size	chEvtRegisterMaskWithFlags, .-chEvtRegisterMaskWithFlags
  87              		.section	.text.chEvtUnregister,"ax",@progbits
  88              		.p2align 4,,15
  89              		.globl	chEvtUnregister
  90              		.type	chEvtUnregister, @function
  91              	chEvtUnregister:
  92              	.LVL1:
  93              	.LFB139:
  94              		.loc 1 133 66 is_stmt 1 view -0
  95              		.cfi_startproc
  96              		.loc 1 134 3 view .LVU36
  97              		.loc 1 136 3 view .LVU37
  98              		.loc 1 136 3 view .LVU38
  99              		.loc 1 139 3 view .LVU39
 100 0000 E8FCFFFF 		call	__x86.get_pc_thunk.ax
 100      FF
 101 0005 05010000 		addl	$_GLOBAL_OFFSET_TABLE_, %eax
 101      00
 102              		.loc 1 133 66 is_stmt 0 view .LVU40
 103 000a 56       		pushl	%esi
 104              		.cfi_def_cfa_offset 8
 105              		.cfi_offset 6, -8
 106 000b 53       		pushl	%ebx
GAS LISTING /tmp/cc1DMqvg.s 			page 3


 107              		.cfi_def_cfa_offset 12
 108              		.cfi_offset 3, -12
 109              		.loc 1 133 66 view .LVU41
 110 000c 8B4C240C 		movl	12(%esp), %ecx
 111              	.LVL2:
 112              		.loc 1 141 3 is_stmt 1 view .LVU42
 113              	.LBB142:
 114              	.LBI142:
 115              		.loc 2 353 20 view .LVU43
 116              	.LBE142:
 117              		.loc 2 355 3 view .LVU44
 118              	.LBB147:
 119              	.LBB143:
 120              	.LBI143:
 121              		.loc 3 362 20 view .LVU45
 122              	.LBB144:
 123              		.loc 3 364 3 view .LVU46
 124              	.LBE144:
 125              	.LBE143:
 126              	.LBE147:
 127              		.loc 1 133 66 is_stmt 0 view .LVU47
 128 0010 8B5C2410 		movl	16(%esp), %ebx
 129              		.loc 1 139 5 view .LVU48
 130 0014 89CA     		movl	%ecx, %edx
 131              	.LBB148:
 132              	.LBB146:
 133              	.LBB145:
 134              		.loc 3 364 16 view .LVU49
 135 0016 8BB00000 		movl	port_irq_sts@GOT(%eax), %esi
 135      0000
 136 001c C7060100 		movl	$1, (%esi)
 136      0000
 137              	.LBE145:
 138              	.LBE146:
 139              	.LBE148:
 140              		.loc 2 356 34 is_stmt 1 view .LVU50
 141              		.loc 2 357 20 view .LVU51
 142 0022 EB0A     		jmp	.L5
 143              	.LVL3:
 144              		.p2align 4,,10
 145 0024 8D742600 		.p2align 3
 146              	.L7:
 147              		.loc 1 145 5 view .LVU52
 148              		.loc 1 145 8 is_stmt 0 view .LVU53
 149 0028 39D8     		cmpl	%ebx, %eax
 150 002a 7414     		je	.L10
 151 002c 89C2     		movl	%eax, %edx
 152              	.LVL4:
 153              	.L5:
 154              		.loc 1 143 11 view .LVU54
 155 002e 8B02     		movl	(%edx), %eax
 156              		.loc 1 143 9 view .LVU55
 157 0030 39C1     		cmpl	%eax, %ecx
 158 0032 75F4     		jne	.L7
 159              		.loc 1 151 3 is_stmt 1 view .LVU56
 160              	.LBB149:
 161              	.LBI149:
GAS LISTING /tmp/cc1DMqvg.s 			page 4


 162              		.loc 2 365 20 view .LVU57
 163              	.LBB150:
 164              		.loc 2 367 22 view .LVU58
 165              		.loc 2 368 33 view .LVU59
 166              		.loc 2 374 3 view .LVU60
 167              		.loc 2 374 3 view .LVU61
 168              		.loc 2 378 3 view .LVU62
 169              	.LBB151:
 170              	.LBI151:
 171              		.loc 3 371 20 view .LVU63
 172              	.LBB152:
 173              		.loc 3 373 3 view .LVU64
 174              		.loc 3 373 16 is_stmt 0 view .LVU65
 175 0034 C7060000 		movl	$0, (%esi)
 175      0000
 176              	.LBE152:
 177              	.LBE151:
 178              	.LBE150:
 179              	.LBE149:
 180              		.loc 1 152 1 view .LVU66
 181 003a 5B       		popl	%ebx
 182              		.cfi_remember_state
 183              		.cfi_restore 3
 184              		.cfi_def_cfa_offset 8
 185              	.LVL5:
 186              		.loc 1 152 1 view .LVU67
 187 003b 5E       		popl	%esi
 188              		.cfi_restore 6
 189              		.cfi_def_cfa_offset 4
 190 003c C3       		ret
 191              	.LVL6:
 192 003d 8D7600   		.p2align 4,,10
 193              		.p2align 3
 194              	.L10:
 195              		.cfi_restore_state
 196              		.loc 1 146 7 is_stmt 1 view .LVU68
 197              		.loc 1 146 20 is_stmt 0 view .LVU69
 198 0040 8B03     		movl	(%ebx), %eax
 199              		.loc 1 146 15 view .LVU70
 200 0042 8902     		movl	%eax, (%edx)
 201              		.loc 1 147 7 is_stmt 1 view .LVU71
 202              		.loc 1 151 3 view .LVU72
 203              	.LBB159:
 204              		.loc 2 365 20 view .LVU73
 205              	.LBB157:
 206              		.loc 2 367 22 view .LVU74
 207              		.loc 2 368 33 view .LVU75
 208              		.loc 2 374 3 view .LVU76
 209              		.loc 2 374 3 view .LVU77
 210              		.loc 2 378 3 view .LVU78
 211              	.LBB155:
 212              		.loc 3 371 20 view .LVU79
 213              	.LBB153:
 214              		.loc 3 373 3 view .LVU80
 215              	.LBE153:
 216              	.LBE155:
 217              	.LBE157:
GAS LISTING /tmp/cc1DMqvg.s 			page 5


 218              	.LBE159:
 219              		.loc 1 152 1 is_stmt 0 view .LVU81
 220 0044 5B       		popl	%ebx
 221              		.cfi_restore 3
 222              		.cfi_def_cfa_offset 8
 223              	.LVL7:
 224              	.LBB160:
 225              	.LBB158:
 226              	.LBB156:
 227              	.LBB154:
 228              		.loc 3 373 16 view .LVU82
 229 0045 C7060000 		movl	$0, (%esi)
 229      0000
 230              	.LBE154:
 231              	.LBE156:
 232              	.LBE158:
 233              	.LBE160:
 234              		.loc 1 152 1 view .LVU83
 235 004b 5E       		popl	%esi
 236              		.cfi_restore 6
 237              		.cfi_def_cfa_offset 4
 238 004c C3       		ret
 239              		.cfi_endproc
 240              	.LFE139:
 241              		.size	chEvtUnregister, .-chEvtUnregister
 242              		.section	.text.chEvtGetAndClearEventsI,"ax",@progbits
 243              		.p2align 4,,15
 244              		.globl	chEvtGetAndClearEventsI
 245              		.type	chEvtGetAndClearEventsI, @function
 246              	chEvtGetAndClearEventsI:
 247              	.LVL8:
 248              	.LFB140:
 249              		.loc 1 162 57 is_stmt 1 view -0
 250              		.cfi_startproc
 251              		.loc 1 163 3 view .LVU85
 252              		.loc 1 165 3 view .LVU86
 253 0000 E8FCFFFF 		call	__x86.get_pc_thunk.ax
 253      FF
 254 0005 05010000 		addl	$_GLOBAL_OFFSET_TABLE_, %eax
 254      00
 255              		.loc 1 162 57 is_stmt 0 view .LVU87
 256 000a 53       		pushl	%ebx
 257              		.cfi_def_cfa_offset 8
 258              		.cfi_offset 3, -8
 259              		.loc 1 162 57 view .LVU88
 260 000b 8B4C2408 		movl	8(%esp), %ecx
 261              		.loc 1 166 22 view .LVU89
 262 000f 89CA     		movl	%ecx, %edx
 263 0011 F7D2     		notl	%edx
 264              		.loc 1 165 7 view .LVU90
 265 0013 8B800000 		movl	ch@GOT(%eax), %eax
 265      0000
 266 0019 8B5818   		movl	24(%eax), %ebx
 267              		.loc 1 165 12 view .LVU91
 268 001c 8B4334   		movl	52(%ebx), %eax
 269              	.LVL9:
 270              		.loc 1 166 3 is_stmt 1 view .LVU92
GAS LISTING /tmp/cc1DMqvg.s 			page 6


 271              		.loc 1 166 19 is_stmt 0 view .LVU93
 272 001f 21C2     		andl	%eax, %edx
 273              		.loc 1 165 5 view .LVU94
 274 0021 21C8     		andl	%ecx, %eax
 275              	.LVL10:
 276              		.loc 1 166 19 view .LVU95
 277 0023 895334   		movl	%edx, 52(%ebx)
 278              		.loc 1 168 3 is_stmt 1 view .LVU96
 279              		.loc 1 169 1 is_stmt 0 view .LVU97
 280 0026 5B       		popl	%ebx
 281              		.cfi_restore 3
 282              		.cfi_def_cfa_offset 4
 283 0027 C3       		ret
 284              		.cfi_endproc
 285              	.LFE140:
 286              		.size	chEvtGetAndClearEventsI, .-chEvtGetAndClearEventsI
 287              		.section	.text.chEvtGetAndClearEvents,"ax",@progbits
 288              		.p2align 4,,15
 289              		.globl	chEvtGetAndClearEvents
 290              		.type	chEvtGetAndClearEvents, @function
 291              	chEvtGetAndClearEvents:
 292              	.LVL11:
 293              	.LFB141:
 294              		.loc 1 179 56 is_stmt 1 view -0
 295              		.cfi_startproc
 296              		.loc 1 180 3 view .LVU99
 297              		.loc 1 182 3 view .LVU100
 298              		.loc 2 355 3 view .LVU101
 299              		.loc 3 364 3 view .LVU102
 300              		.loc 2 356 34 view .LVU103
 301              		.loc 2 357 20 view .LVU104
 302              		.loc 1 183 3 view .LVU105
 303              		.loc 1 179 56 is_stmt 0 view .LVU106
 304 0000 56       		pushl	%esi
 305              		.cfi_def_cfa_offset 8
 306              		.cfi_offset 6, -8
 307 0001 53       		pushl	%ebx
 308              		.cfi_def_cfa_offset 12
 309              		.cfi_offset 3, -12
 310              		.loc 1 179 56 view .LVU107
 311 0002 8B44240C 		movl	12(%esp), %eax
 312              	.LVL12:
 313              	.LBB161:
 314              	.LBI161:
 315              		.loc 1 162 13 is_stmt 1 view .LVU108
 316              	.LBB162:
 317              		.loc 1 163 3 view .LVU109
 318              		.loc 1 165 3 view .LVU110
 319 0006 E8FCFFFF 		call	__x86.get_pc_thunk.bx
 319      FF
 320 000b 81C30200 		addl	$_GLOBAL_OFFSET_TABLE_, %ebx
 320      0000
 321              		.loc 1 165 7 is_stmt 0 view .LVU111
 322 0011 8B930000 		movl	ch@GOT(%ebx), %edx
 322      0000
 323 0017 8B7218   		movl	24(%edx), %esi
 324              		.loc 1 166 22 view .LVU112
GAS LISTING /tmp/cc1DMqvg.s 			page 7


 325 001a 89C2     		movl	%eax, %edx
 326 001c F7D2     		notl	%edx
 327              		.loc 1 165 12 view .LVU113
 328 001e 8B4E34   		movl	52(%esi), %ecx
 329              	.LVL13:
 330              		.loc 1 166 3 is_stmt 1 view .LVU114
 331              		.loc 1 166 19 is_stmt 0 view .LVU115
 332 0021 21CA     		andl	%ecx, %edx
 333              		.loc 1 165 5 view .LVU116
 334 0023 21C8     		andl	%ecx, %eax
 335              	.LVL14:
 336              		.loc 1 166 19 view .LVU117
 337 0025 895634   		movl	%edx, 52(%esi)
 338              		.loc 1 168 3 is_stmt 1 view .LVU118
 339              	.LVL15:
 340              		.loc 1 168 3 is_stmt 0 view .LVU119
 341              	.LBE162:
 342              	.LBE161:
 343              		.loc 1 184 3 is_stmt 1 view .LVU120
 344              	.LBB163:
 345              	.LBI163:
 346              		.loc 2 365 20 view .LVU121
 347              	.LBB164:
 348              		.loc 2 367 22 view .LVU122
 349              		.loc 2 368 33 view .LVU123
 350              		.loc 2 374 3 view .LVU124
 351              		.loc 2 374 3 view .LVU125
 352              		.loc 2 378 3 view .LVU126
 353              	.LBB165:
 354              	.LBI165:
 355              		.loc 3 371 20 view .LVU127
 356              	.LBB166:
 357              		.loc 3 373 3 view .LVU128
 358              		.loc 3 373 16 is_stmt 0 view .LVU129
 359 0028 8B930000 		movl	port_irq_sts@GOT(%ebx), %edx
 359      0000
 360 002e C7020000 		movl	$0, (%edx)
 360      0000
 361              	.LBE166:
 362              	.LBE165:
 363              	.LBE164:
 364              	.LBE163:
 365              		.loc 1 186 3 is_stmt 1 view .LVU130
 366              		.loc 1 187 1 is_stmt 0 view .LVU131
 367 0034 5B       		popl	%ebx
 368              		.cfi_restore 3
 369              		.cfi_def_cfa_offset 8
 370 0035 5E       		popl	%esi
 371              		.cfi_restore 6
 372              		.cfi_def_cfa_offset 4
 373 0036 C3       		ret
 374              		.cfi_endproc
 375              	.LFE141:
 376              		.size	chEvtGetAndClearEvents, .-chEvtGetAndClearEvents
 377              		.section	.text.chEvtAddEvents,"ax",@progbits
 378              		.p2align 4,,15
 379              		.globl	chEvtAddEvents
GAS LISTING /tmp/cc1DMqvg.s 			page 8


 380              		.type	chEvtAddEvents, @function
 381              	chEvtAddEvents:
 382              	.LVL16:
 383              	.LFB142:
 384              		.loc 1 198 48 is_stmt 1 view -0
 385              		.cfi_startproc
 386              		.loc 1 199 3 view .LVU133
 387              		.loc 1 201 3 view .LVU134
 388              		.loc 2 355 3 view .LVU135
 389              		.loc 3 364 3 view .LVU136
 390              		.loc 2 356 34 view .LVU137
 391              		.loc 2 357 20 view .LVU138
 392              		.loc 1 202 3 view .LVU139
 393              	.LBB167:
 394              	.LBI167:
 395              		.file 4 "../../../os/rt/include/chevents.h"
 396              		.loc 4 269 27 view .LVU140
 397              	.LBB168:
 398              		.loc 4 271 3 view .LVU141
 399 0000 E8FCFFFF 		call	__x86.get_pc_thunk.dx
 399      FF
 400 0005 81C20200 		addl	$_GLOBAL_OFFSET_TABLE_, %edx
 400      0000
 401              		.loc 4 271 10 is_stmt 0 view .LVU142
 402 000b 8B820000 		movl	ch@GOT(%edx), %eax
 402      0000
 403              	.LBE168:
 404              	.LBE167:
 405              	.LBB171:
 406              	.LBB172:
 407              	.LBB173:
 408              	.LBB174:
 409              		.loc 3 373 16 view .LVU143
 410 0011 8B920000 		movl	port_irq_sts@GOT(%edx), %edx
 410      0000
 411              	.LBE174:
 412              	.LBE173:
 413              	.LBE172:
 414              	.LBE171:
 415              	.LBB181:
 416              	.LBB169:
 417              		.loc 4 271 10 view .LVU144
 418 0017 8B4818   		movl	24(%eax), %ecx
 419              		.loc 4 271 26 view .LVU145
 420 001a 8B442404 		movl	4(%esp), %eax
 421              	.LBE169:
 422              	.LBE181:
 423              	.LBB182:
 424              	.LBB179:
 425              	.LBB177:
 426              	.LBB175:
 427              		.loc 3 373 16 view .LVU146
 428 001e C7020000 		movl	$0, (%edx)
 428      0000
 429              	.LBE175:
 430              	.LBE177:
 431              	.LBE179:
GAS LISTING /tmp/cc1DMqvg.s 			page 9


 432              	.LBE182:
 433              	.LBB183:
 434              	.LBB170:
 435              		.loc 4 271 26 view .LVU147
 436 0024 0B4134   		orl	52(%ecx), %eax
 437 0027 894134   		movl	%eax, 52(%ecx)
 438              	.LVL17:
 439              		.loc 4 271 26 view .LVU148
 440              	.LBE170:
 441              	.LBE183:
 442              		.loc 1 203 3 is_stmt 1 view .LVU149
 443              	.LBB184:
 444              	.LBI171:
 445              		.loc 2 365 20 view .LVU150
 446              	.LBB180:
 447              		.loc 2 367 22 view .LVU151
 448              		.loc 2 368 33 view .LVU152
 449              		.loc 2 374 3 view .LVU153
 450              		.loc 2 374 3 view .LVU154
 451              		.loc 2 378 3 view .LVU155
 452              	.LBB178:
 453              	.LBI173:
 454              		.loc 3 371 20 view .LVU156
 455              	.LBB176:
 456              		.loc 3 373 3 view .LVU157
 457              	.LBE176:
 458              	.LBE178:
 459              	.LBE180:
 460              	.LBE184:
 461              		.loc 1 205 3 view .LVU158
 462              		.loc 1 206 1 is_stmt 0 view .LVU159
 463 002a C3       		ret
 464              		.cfi_endproc
 465              	.LFE142:
 466              		.size	chEvtAddEvents, .-chEvtAddEvents
 467              		.section	.text.chEvtGetAndClearFlags,"ax",@progbits
 468              		.p2align 4,,15
 469              		.globl	chEvtGetAndClearFlags
 470              		.type	chEvtGetAndClearFlags, @function
 471              	chEvtGetAndClearFlags:
 472              	.LVL18:
 473              	.LFB144:
 474              		.loc 1 257 59 is_stmt 1 view -0
 475              		.cfi_startproc
 476              		.loc 1 258 3 view .LVU161
 477              		.loc 1 260 3 view .LVU162
 478              		.loc 2 355 3 view .LVU163
 479              		.loc 3 364 3 view .LVU164
 480              		.loc 2 356 34 view .LVU165
 481              		.loc 2 357 20 view .LVU166
 482              		.loc 1 261 3 view .LVU167
 483 0000 E8FCFFFF 		call	__x86.get_pc_thunk.cx
 483      FF
 484 0005 81C10200 		addl	$_GLOBAL_OFFSET_TABLE_, %ecx
 484      0000
 485              		.loc 1 257 59 is_stmt 0 view .LVU168
 486 000b 8B542404 		movl	4(%esp), %edx
GAS LISTING /tmp/cc1DMqvg.s 			page 10


 487              		.loc 1 261 9 view .LVU169
 488 000f 8B420C   		movl	12(%edx), %eax
 489              	.LVL19:
 490              		.loc 1 262 3 is_stmt 1 view .LVU170
 491              		.loc 1 262 14 is_stmt 0 view .LVU171
 492 0012 C7420C00 		movl	$0, 12(%edx)
 492      000000
 493              		.loc 1 263 3 is_stmt 1 view .LVU172
 494              	.LBB185:
 495              	.LBI185:
 496              		.loc 2 365 20 view .LVU173
 497              	.LBB186:
 498              		.loc 2 367 22 view .LVU174
 499              		.loc 2 368 33 view .LVU175
 500              		.loc 2 374 3 view .LVU176
 501              		.loc 2 374 3 view .LVU177
 502              		.loc 2 378 3 view .LVU178
 503              	.LBB187:
 504              	.LBI187:
 505              		.loc 3 371 20 view .LVU179
 506              	.LBB188:
 507              		.loc 3 373 3 view .LVU180
 508              		.loc 3 373 16 is_stmt 0 view .LVU181
 509 0019 8B910000 		movl	port_irq_sts@GOT(%ecx), %edx
 509      0000
 510 001f C7020000 		movl	$0, (%edx)
 510      0000
 511              	.LBE188:
 512              	.LBE187:
 513              	.LBE186:
 514              	.LBE185:
 515              		.loc 1 265 3 is_stmt 1 view .LVU182
 516              		.loc 1 266 1 is_stmt 0 view .LVU183
 517 0025 C3       		ret
 518              		.cfi_endproc
 519              	.LFE144:
 520              		.size	chEvtGetAndClearFlags, .-chEvtGetAndClearFlags
 521              		.section	.text.chEvtSignalI,"ax",@progbits
 522              		.p2align 4,,15
 523              		.globl	chEvtSignalI
 524              		.type	chEvtSignalI, @function
 525              	chEvtSignalI:
 526              	.LVL20:
 527              	.LFB146:
 528              		.loc 1 298 53 is_stmt 1 view -0
 529              		.cfi_startproc
 530              		.loc 1 300 21 view .LVU185
 531              		.loc 1 301 3 view .LVU186
 532              		.loc 1 301 3 view .LVU187
 533              		.loc 1 303 3 view .LVU188
 534              		.loc 1 298 53 is_stmt 0 view .LVU189
 535 0000 53       		pushl	%ebx
 536              		.cfi_def_cfa_offset 8
 537              		.cfi_offset 3, -8
 538 0001 E8FCFFFF 		call	__x86.get_pc_thunk.bx
 538      FF
 539 0006 81C30200 		addl	$_GLOBAL_OFFSET_TABLE_, %ebx
GAS LISTING /tmp/cc1DMqvg.s 			page 11


 539      0000
 540 000c 83EC08   		subl	$8, %esp
 541              		.cfi_def_cfa_offset 16
 542              		.loc 1 298 53 view .LVU190
 543 000f 8B542410 		movl	16(%esp), %edx
 544              		.loc 1 303 16 view .LVU191
 545 0013 8B442414 		movl	20(%esp), %eax
 546              		.loc 1 305 11 view .LVU192
 547 0017 0FB64A20 		movzbl	32(%edx), %ecx
 548              		.loc 1 303 16 view .LVU193
 549 001b 0B4234   		orl	52(%edx), %eax
 550 001e 894234   		movl	%eax, 52(%edx)
 551              		.loc 1 305 3 is_stmt 1 view .LVU194
 552              		.loc 1 305 6 is_stmt 0 view .LVU195
 553 0021 80F90A   		cmpb	$10, %cl
 554 0024 7432     		je	.L22
 555              		.loc 1 306 59 view .LVU196
 556 0026 80F90B   		cmpb	$11, %cl
 557 0029 7405     		je	.L23
 558              	.L17:
 559              		.loc 1 312 1 view .LVU197
 560 002b 83C408   		addl	$8, %esp
 561              		.cfi_remember_state
 562              		.cfi_def_cfa_offset 8
 563 002e 5B       		popl	%ebx
 564              		.cfi_restore 3
 565              		.cfi_def_cfa_offset 4
 566 002f C3       		ret
 567              		.p2align 4,,10
 568              		.p2align 3
 569              	.L23:
 570              		.cfi_restore_state
 571              		.loc 1 308 30 view .LVU198
 572 0030 8B4A24   		movl	36(%edx), %ecx
 573              		.loc 1 308 23 view .LVU199
 574 0033 21C8     		andl	%ecx, %eax
 575              		.loc 1 307 41 view .LVU200
 576 0035 39C1     		cmpl	%eax, %ecx
 577 0037 75F2     		jne	.L17
 578              	.L19:
 579              		.loc 1 309 5 is_stmt 1 view .LVU201
 580              		.loc 1 310 12 is_stmt 0 view .LVU202
 581 0039 83EC0C   		subl	$12, %esp
 582              		.cfi_def_cfa_offset 28
 583              		.loc 1 309 18 view .LVU203
 584 003c C7422400 		movl	$0, 36(%edx)
 584      000000
 585              		.loc 1 310 5 is_stmt 1 view .LVU204
 586              		.loc 1 310 12 is_stmt 0 view .LVU205
 587 0043 52       		pushl	%edx
 588              		.cfi_def_cfa_offset 32
 589 0044 E8FCFFFF 		call	chSchReadyI@PLT
 589      FF
 590              	.LVL21:
 591 0049 83C410   		addl	$16, %esp
 592              		.cfi_def_cfa_offset 16
 593              		.loc 1 312 1 view .LVU206
GAS LISTING /tmp/cc1DMqvg.s 			page 12


 594 004c 83C408   		addl	$8, %esp
 595              		.cfi_remember_state
 596              		.cfi_def_cfa_offset 8
 597 004f 5B       		popl	%ebx
 598              		.cfi_restore 3
 599              		.cfi_def_cfa_offset 4
 600 0050 C3       		ret
 601              		.p2align 4,,10
 602 0051 8DB42600 		.p2align 3
 602      000000
 603              	.L22:
 604              		.cfi_restore_state
 605              		.loc 1 305 40 discriminator 1 view .LVU207
 606 0058 854224   		testl	%eax, 36(%edx)
 607 005b 75DC     		jne	.L19
 608 005d EBCC     		jmp	.L17
 609              		.cfi_endproc
 610              	.LFE146:
 611              		.size	chEvtSignalI, .-chEvtSignalI
 612              		.section	.text.chEvtBroadcastFlagsI,"ax",@progbits
 613              		.p2align 4,,15
 614              		.globl	chEvtBroadcastFlagsI
 615              		.type	chEvtBroadcastFlagsI, @function
 616              	chEvtBroadcastFlagsI:
 617              	.LVL22:
 618              	.LFB143:
 619              		.loc 1 225 68 is_stmt 1 view -0
 620              		.cfi_startproc
 621              		.loc 1 226 3 view .LVU209
 622              		.loc 1 228 21 view .LVU210
 623              		.loc 1 229 3 view .LVU211
 624              		.loc 1 229 3 view .LVU212
 625              		.loc 1 231 3 view .LVU213
 626              		.loc 1 225 68 is_stmt 0 view .LVU214
 627 0000 57       		pushl	%edi
 628              		.cfi_def_cfa_offset 8
 629              		.cfi_offset 7, -8
 630 0001 56       		pushl	%esi
 631              		.cfi_def_cfa_offset 12
 632              		.cfi_offset 6, -12
 633 0002 53       		pushl	%ebx
 634              		.cfi_def_cfa_offset 16
 635              		.cfi_offset 3, -16
 636              		.loc 1 225 68 view .LVU215
 637 0003 8B7C2410 		movl	16(%esp), %edi
 638 0007 8B742414 		movl	20(%esp), %esi
 639              		.loc 1 231 7 view .LVU216
 640 000b 8B1F     		movl	(%edi), %ebx
 641              	.LVL23:
 642              		.loc 1 233 3 is_stmt 1 view .LVU217
 643              		.loc 1 233 9 is_stmt 0 view .LVU218
 644 000d 39DF     		cmpl	%ebx, %edi
 645 000f 742F     		je	.L24
 646              		.p2align 4,,10
 647 0011 8DB42600 		.p2align 3
 647      000000
 648              	.L28:
GAS LISTING /tmp/cc1DMqvg.s 			page 13


 649              		.loc 1 235 5 is_stmt 1 view .LVU219
 650              		.loc 1 235 16 is_stmt 0 view .LVU220
 651 0018 8B430C   		movl	12(%ebx), %eax
 652 001b 09F0     		orl	%esi, %eax
 653 001d 89430C   		movl	%eax, 12(%ebx)
 654              		.loc 1 238 5 is_stmt 1 view .LVU221
 655              		.loc 1 238 8 is_stmt 0 view .LVU222
 656 0020 85F6     		testl	%esi, %esi
 657 0022 7405     		je	.L26
 658              		.loc 1 238 36 discriminator 1 view .LVU223
 659 0024 854310   		testl	%eax, 16(%ebx)
 660 0027 7411     		je	.L27
 661              	.L26:
 662              		.loc 1 240 7 is_stmt 1 view .LVU224
 663 0029 83EC08   		subl	$8, %esp
 664              		.cfi_def_cfa_offset 24
 665 002c FF7308   		pushl	8(%ebx)
 666              		.cfi_def_cfa_offset 28
 667 002f FF7304   		pushl	4(%ebx)
 668              		.cfi_def_cfa_offset 32
 669 0032 E8FCFFFF 		call	chEvtSignalI
 669      FF
 670              	.LVL24:
 671 0037 83C410   		addl	$16, %esp
 672              		.cfi_def_cfa_offset 16
 673              	.L27:
 674              		.loc 1 242 5 view .LVU225
 675              		.loc 1 242 9 is_stmt 0 view .LVU226
 676 003a 8B1B     		movl	(%ebx), %ebx
 677              	.LVL25:
 678              		.loc 1 233 9 view .LVU227
 679 003c 39DF     		cmpl	%ebx, %edi
 680 003e 75D8     		jne	.L28
 681              	.L24:
 682              		.loc 1 244 1 view .LVU228
 683 0040 5B       		popl	%ebx
 684              		.cfi_restore 3
 685              		.cfi_def_cfa_offset 12
 686              	.LVL26:
 687              		.loc 1 244 1 view .LVU229
 688 0041 5E       		popl	%esi
 689              		.cfi_restore 6
 690              		.cfi_def_cfa_offset 8
 691 0042 5F       		popl	%edi
 692              		.cfi_restore 7
 693              		.cfi_def_cfa_offset 4
 694 0043 C3       		ret
 695              		.cfi_endproc
 696              	.LFE143:
 697              		.size	chEvtBroadcastFlagsI, .-chEvtBroadcastFlagsI
 698              		.section	.text.chEvtSignal,"ax",@progbits
 699              		.p2align 4,,15
 700              		.globl	chEvtSignal
 701              		.type	chEvtSignal, @function
 702              	chEvtSignal:
 703              	.LVL27:
 704              	.LFB145:
GAS LISTING /tmp/cc1DMqvg.s 			page 14


 705              		.loc 1 276 52 is_stmt 1 view -0
 706              		.cfi_startproc
 707              		.loc 1 278 3 view .LVU231
 708              		.loc 1 278 3 view .LVU232
 709              		.loc 1 280 3 view .LVU233
 710              	.LBB189:
 711              	.LBI189:
 712              		.loc 2 353 20 view .LVU234
 713              	.LBE189:
 714              		.loc 2 355 3 view .LVU235
 715              	.LBB194:
 716              	.LBB190:
 717              	.LBI190:
 718              		.loc 3 362 20 view .LVU236
 719              	.LBB191:
 720              		.loc 3 364 3 view .LVU237
 721              	.LBE191:
 722              	.LBE190:
 723              	.LBE194:
 724              		.loc 1 276 52 is_stmt 0 view .LVU238
 725 0000 56       		pushl	%esi
 726              		.cfi_def_cfa_offset 8
 727              		.cfi_offset 6, -8
 728 0001 53       		pushl	%ebx
 729              		.cfi_def_cfa_offset 12
 730              		.cfi_offset 3, -12
 731 0002 E8FCFFFF 		call	__x86.get_pc_thunk.bx
 731      FF
 732 0007 81C30200 		addl	$_GLOBAL_OFFSET_TABLE_, %ebx
 732      0000
 733 000d 83EC0C   		subl	$12, %esp
 734              		.cfi_def_cfa_offset 24
 735              		.loc 1 281 3 view .LVU239
 736 0010 FF74241C 		pushl	28(%esp)
 737              		.cfi_def_cfa_offset 28
 738 0014 FF74241C 		pushl	28(%esp)
 739              		.cfi_def_cfa_offset 32
 740              	.LBB195:
 741              	.LBB193:
 742              	.LBB192:
 743              		.loc 3 364 16 view .LVU240
 744 0018 8BB30000 		movl	port_irq_sts@GOT(%ebx), %esi
 744      0000
 745 001e C7060100 		movl	$1, (%esi)
 745      0000
 746              	.LBE192:
 747              	.LBE193:
 748              	.LBE195:
 749              		.loc 2 356 34 is_stmt 1 view .LVU241
 750              		.loc 2 357 20 view .LVU242
 751              		.loc 1 281 3 view .LVU243
 752 0024 E8FCFFFF 		call	chEvtSignalI
 752      FF
 753              	.LVL28:
 754              		.loc 1 282 3 view .LVU244
 755 0029 E8FCFFFF 		call	chSchRescheduleS@PLT
 755      FF
GAS LISTING /tmp/cc1DMqvg.s 			page 15


 756              	.LVL29:
 757              		.loc 1 283 3 view .LVU245
 758              	.LBB196:
 759              	.LBI196:
 760              		.loc 2 365 20 view .LVU246
 761              	.LBB197:
 762              		.loc 2 367 22 view .LVU247
 763              		.loc 2 368 33 view .LVU248
 764              		.loc 2 374 3 view .LVU249
 765              		.loc 2 374 3 view .LVU250
 766              		.loc 2 378 3 view .LVU251
 767              	.LBB198:
 768              	.LBI198:
 769              		.loc 3 371 20 view .LVU252
 770              	.LBB199:
 771              		.loc 3 373 3 view .LVU253
 772              		.loc 3 373 16 is_stmt 0 view .LVU254
 773 002e C7060000 		movl	$0, (%esi)
 773      0000
 774              	.LBE199:
 775              	.LBE198:
 776              	.LBE197:
 777              	.LBE196:
 778              		.loc 1 284 1 view .LVU255
 779 0034 83C414   		addl	$20, %esp
 780              		.cfi_def_cfa_offset 12
 781 0037 5B       		popl	%ebx
 782              		.cfi_restore 3
 783              		.cfi_def_cfa_offset 8
 784 0038 5E       		popl	%esi
 785              		.cfi_restore 6
 786              		.cfi_def_cfa_offset 4
 787 0039 C3       		ret
 788              		.cfi_endproc
 789              	.LFE145:
 790              		.size	chEvtSignal, .-chEvtSignal
 791              		.section	.text.chEvtBroadcastFlags,"ax",@progbits
 792              		.p2align 4,,15
 793              		.globl	chEvtBroadcastFlags
 794              		.type	chEvtBroadcastFlags, @function
 795              	chEvtBroadcastFlags:
 796              	.LVL30:
 797              	.LFB147:
 798              		.loc 1 327 67 is_stmt 1 view -0
 799              		.cfi_startproc
 800              		.loc 1 329 3 view .LVU257
 801              	.LBB200:
 802              	.LBI200:
 803              		.loc 2 353 20 view .LVU258
 804              	.LBE200:
 805              		.loc 2 355 3 view .LVU259
 806              	.LBB205:
 807              	.LBB201:
 808              	.LBI201:
 809              		.loc 3 362 20 view .LVU260
 810              	.LBB202:
 811              		.loc 3 364 3 view .LVU261
GAS LISTING /tmp/cc1DMqvg.s 			page 16


 812              	.LBE202:
 813              	.LBE201:
 814              	.LBE205:
 815              		.loc 1 327 67 is_stmt 0 view .LVU262
 816 0000 56       		pushl	%esi
 817              		.cfi_def_cfa_offset 8
 818              		.cfi_offset 6, -8
 819 0001 53       		pushl	%ebx
 820              		.cfi_def_cfa_offset 12
 821              		.cfi_offset 3, -12
 822 0002 E8FCFFFF 		call	__x86.get_pc_thunk.bx
 822      FF
 823 0007 81C30200 		addl	$_GLOBAL_OFFSET_TABLE_, %ebx
 823      0000
 824 000d 83EC0C   		subl	$12, %esp
 825              		.cfi_def_cfa_offset 24
 826              		.loc 1 330 3 view .LVU263
 827 0010 FF74241C 		pushl	28(%esp)
 828              		.cfi_def_cfa_offset 28
 829 0014 FF74241C 		pushl	28(%esp)
 830              		.cfi_def_cfa_offset 32
 831              	.LBB206:
 832              	.LBB204:
 833              	.LBB203:
 834              		.loc 3 364 16 view .LVU264
 835 0018 8BB30000 		movl	port_irq_sts@GOT(%ebx), %esi
 835      0000
 836 001e C7060100 		movl	$1, (%esi)
 836      0000
 837              	.LBE203:
 838              	.LBE204:
 839              	.LBE206:
 840              		.loc 2 356 34 is_stmt 1 view .LVU265
 841              		.loc 2 357 20 view .LVU266
 842              		.loc 1 330 3 view .LVU267
 843 0024 E8FCFFFF 		call	chEvtBroadcastFlagsI
 843      FF
 844              	.LVL31:
 845              		.loc 1 331 3 view .LVU268
 846 0029 E8FCFFFF 		call	chSchRescheduleS@PLT
 846      FF
 847              	.LVL32:
 848              		.loc 1 332 3 view .LVU269
 849              	.LBB207:
 850              	.LBI207:
 851              		.loc 2 365 20 view .LVU270
 852              	.LBB208:
 853              		.loc 2 367 22 view .LVU271
 854              		.loc 2 368 33 view .LVU272
 855              		.loc 2 374 3 view .LVU273
 856              		.loc 2 374 3 view .LVU274
 857              		.loc 2 378 3 view .LVU275
 858              	.LBB209:
 859              	.LBI209:
 860              		.loc 3 371 20 view .LVU276
 861              	.LBB210:
 862              		.loc 3 373 3 view .LVU277
GAS LISTING /tmp/cc1DMqvg.s 			page 17


 863              		.loc 3 373 16 is_stmt 0 view .LVU278
 864 002e C7060000 		movl	$0, (%esi)
 864      0000
 865              	.LBE210:
 866              	.LBE209:
 867              	.LBE208:
 868              	.LBE207:
 869              		.loc 1 333 1 view .LVU279
 870 0034 83C414   		addl	$20, %esp
 871              		.cfi_def_cfa_offset 12
 872 0037 5B       		popl	%ebx
 873              		.cfi_restore 3
 874              		.cfi_def_cfa_offset 8
 875 0038 5E       		popl	%esi
 876              		.cfi_restore 6
 877              		.cfi_def_cfa_offset 4
 878 0039 C3       		ret
 879              		.cfi_endproc
 880              	.LFE147:
 881              		.size	chEvtBroadcastFlags, .-chEvtBroadcastFlags
 882              		.section	.text.chEvtGetAndClearFlagsI,"ax",@progbits
 883              		.p2align 4,,15
 884              		.globl	chEvtGetAndClearFlagsI
 885              		.type	chEvtGetAndClearFlagsI, @function
 886              	chEvtGetAndClearFlagsI:
 887              	.LVL33:
 888              	.LFB148:
 889              		.loc 1 346 60 is_stmt 1 view -0
 890              		.cfi_startproc
 891              		.loc 1 347 3 view .LVU281
 892              		.loc 1 349 3 view .LVU282
 893              		.loc 1 346 60 is_stmt 0 view .LVU283
 894 0000 8B542404 		movl	4(%esp), %edx
 895              		.loc 1 349 9 view .LVU284
 896 0004 8B420C   		movl	12(%edx), %eax
 897              	.LVL34:
 898              		.loc 1 350 3 is_stmt 1 view .LVU285
 899              		.loc 1 350 14 is_stmt 0 view .LVU286
 900 0007 C7420C00 		movl	$0, 12(%edx)
 900      000000
 901              		.loc 1 352 3 is_stmt 1 view .LVU287
 902              		.loc 1 353 1 is_stmt 0 view .LVU288
 903 000e C3       		ret
 904              		.cfi_endproc
 905              	.LFE148:
 906              		.size	chEvtGetAndClearFlagsI, .-chEvtGetAndClearFlagsI
 907              		.section	.text.chEvtDispatch,"ax",@progbits
 908              		.p2align 4,,15
 909              		.globl	chEvtDispatch
 910              		.type	chEvtDispatch, @function
 911              	chEvtDispatch:
 912              	.LVL35:
 913              	.LFB149:
 914              		.loc 1 364 69 is_stmt 1 view -0
 915              		.cfi_startproc
 916              		.loc 1 365 3 view .LVU290
 917              		.loc 1 367 3 view .LVU291
GAS LISTING /tmp/cc1DMqvg.s 			page 18


 918              		.loc 1 367 3 view .LVU292
 919              		.loc 1 369 3 view .LVU293
 920              		.loc 1 370 3 view .LVU294
 921              		.loc 1 364 69 is_stmt 0 view .LVU295
 922 0000 55       		pushl	%ebp
 923              		.cfi_def_cfa_offset 8
 924              		.cfi_offset 5, -8
 925 0001 57       		pushl	%edi
 926              		.cfi_def_cfa_offset 12
 927              		.cfi_offset 7, -12
 928 0002 56       		pushl	%esi
 929              		.cfi_def_cfa_offset 16
 930              		.cfi_offset 6, -16
 931 0003 53       		pushl	%ebx
 932              		.cfi_def_cfa_offset 20
 933              		.cfi_offset 3, -20
 934 0004 83EC0C   		subl	$12, %esp
 935              		.cfi_def_cfa_offset 32
 936              		.loc 1 364 69 view .LVU296
 937 0007 8B6C2424 		movl	36(%esp), %ebp
 938              	.LVL36:
 939              		.loc 1 364 69 view .LVU297
 940 000b 8B7C2420 		movl	32(%esp), %edi
 941              		.loc 1 370 9 view .LVU298
 942 000f 85ED     		testl	%ebp, %ebp
 943 0011 742C     		je	.L42
 944              		.loc 1 369 7 view .LVU299
 945 0013 31DB     		xorl	%ebx, %ebx
 946              		.loc 1 371 19 view .LVU300
 947 0015 BE010000 		movl	$1, %esi
 947      00
 948              	.LVL37:
 949 001a 8DB60000 		.p2align 4,,10
 949      0000
 950              		.p2align 3
 951              	.L45:
 952              		.loc 1 371 5 is_stmt 1 view .LVU301
 953              		.loc 1 371 19 is_stmt 0 view .LVU302
 954 0020 89F0     		movl	%esi, %eax
 955 0022 89D9     		movl	%ebx, %ecx
 956 0024 D3E0     		sall	%cl, %eax
 957              		.loc 1 371 8 view .LVU303
 958 0026 85E8     		testl	%ebp, %eax
 959 0028 7426     		je	.L44
 960              		.loc 1 372 7 is_stmt 1 view .LVU304
 961              		.loc 1 372 7 view .LVU305
 962              		.loc 1 373 7 view .LVU306
 963              		.loc 1 374 7 is_stmt 0 view .LVU307
 964 002a 83EC0C   		subl	$12, %esp
 965              		.cfi_def_cfa_offset 44
 966              		.loc 1 373 17 view .LVU308
 967 002d F7D0     		notl	%eax
 968              		.loc 1 374 7 view .LVU309
 969 002f 53       		pushl	%ebx
 970              		.cfi_def_cfa_offset 48
 971              		.loc 1 373 14 view .LVU310
 972 0030 21C5     		andl	%eax, %ebp
GAS LISTING /tmp/cc1DMqvg.s 			page 19


 973              	.LVL38:
 974              		.loc 1 374 7 is_stmt 1 view .LVU311
 975 0032 FF149F   		call	*(%edi,%ebx,4)
 976              	.LVL39:
 977              		.loc 1 376 5 view .LVU312
 978              		.loc 1 376 8 is_stmt 0 view .LVU313
 979 0035 83C301   		addl	$1, %ebx
 980              	.LVL40:
 981              		.loc 1 370 9 view .LVU314
 982 0038 83C410   		addl	$16, %esp
 983              		.cfi_def_cfa_offset 32
 984 003b 85ED     		testl	%ebp, %ebp
 985 003d 75E1     		jne	.L45
 986              	.LVL41:
 987              	.L42:
 988              		.loc 1 378 1 view .LVU315
 989 003f 83C40C   		addl	$12, %esp
 990              		.cfi_remember_state
 991              		.cfi_def_cfa_offset 20
 992 0042 5B       		popl	%ebx
 993              		.cfi_restore 3
 994              		.cfi_def_cfa_offset 16
 995 0043 5E       		popl	%esi
 996              		.cfi_restore 6
 997              		.cfi_def_cfa_offset 12
 998 0044 5F       		popl	%edi
 999              		.cfi_restore 7
 1000              		.cfi_def_cfa_offset 8
 1001 0045 5D       		popl	%ebp
 1002              		.cfi_restore 5
 1003              		.cfi_def_cfa_offset 4
 1004              	.LVL42:
 1005              		.loc 1 378 1 view .LVU316
 1006 0046 C3       		ret
 1007              	.LVL43:
 1008 0047 8DB42600 		.p2align 4,,10
 1008      00000066 
 1008      90
 1009              		.p2align 3
 1010              	.L44:
 1011              		.cfi_restore_state
 1012              		.loc 1 376 5 is_stmt 1 view .LVU317
 1013              		.loc 1 376 8 is_stmt 0 view .LVU318
 1014 0050 83C301   		addl	$1, %ebx
 1015              	.LVL44:
 1016              		.loc 1 376 8 view .LVU319
 1017 0053 EBCB     		jmp	.L45
 1018              		.cfi_endproc
 1019              	.LFE149:
 1020              		.size	chEvtDispatch, .-chEvtDispatch
 1021              		.section	.text.chEvtWaitOne,"ax",@progbits
 1022              		.p2align 4,,15
 1023              		.globl	chEvtWaitOne
 1024              		.type	chEvtWaitOne, @function
 1025              	chEvtWaitOne:
 1026              	.LVL45:
 1027              	.LFB150:
GAS LISTING /tmp/cc1DMqvg.s 			page 20


 1028              		.loc 1 399 46 is_stmt 1 view -0
 1029              		.cfi_startproc
 1030              		.loc 1 400 3 view .LVU321
 1031              		.loc 1 399 46 is_stmt 0 view .LVU322
 1032 0000 55       		pushl	%ebp
 1033              		.cfi_def_cfa_offset 8
 1034              		.cfi_offset 5, -8
 1035 0001 57       		pushl	%edi
 1036              		.cfi_def_cfa_offset 12
 1037              		.cfi_offset 7, -12
 1038 0002 56       		pushl	%esi
 1039              		.cfi_def_cfa_offset 16
 1040              		.cfi_offset 6, -16
 1041 0003 53       		pushl	%ebx
 1042              		.cfi_def_cfa_offset 20
 1043              		.cfi_offset 3, -20
 1044 0004 E8FCFFFF 		call	__x86.get_pc_thunk.bx
 1044      FF
 1045 0009 81C30200 		addl	$_GLOBAL_OFFSET_TABLE_, %ebx
 1045      0000
 1046 000f 83EC0C   		subl	$12, %esp
 1047              		.cfi_def_cfa_offset 32
 1048              		.loc 1 399 46 view .LVU323
 1049 0012 8B7C2420 		movl	32(%esp), %edi
 1050              		.loc 1 400 13 view .LVU324
 1051 0016 8B830000 		movl	ch@GOT(%ebx), %eax
 1051      0000
 1052              	.LBB211:
 1053              	.LBB212:
 1054              	.LBB213:
 1055              		.loc 3 364 16 view .LVU325
 1056 001c 8BAB0000 		movl	port_irq_sts@GOT(%ebx), %ebp
 1056      0000
 1057              	.LBE213:
 1058              	.LBE212:
 1059              	.LBE211:
 1060              		.loc 1 400 13 view .LVU326
 1061 0022 8B7018   		movl	24(%eax), %esi
 1062              	.LVL46:
 1063              		.loc 1 401 3 is_stmt 1 view .LVU327
 1064              		.loc 1 403 3 view .LVU328
 1065              	.LBB216:
 1066              	.LBI211:
 1067              		.loc 2 353 20 view .LVU329
 1068              	.LBE216:
 1069              		.loc 2 355 3 view .LVU330
 1070              	.LBB217:
 1071              	.LBB215:
 1072              	.LBI212:
 1073              		.loc 3 362 20 view .LVU331
 1074              	.LBB214:
 1075              		.loc 3 364 3 view .LVU332
 1076              		.loc 3 364 16 is_stmt 0 view .LVU333
 1077 0025 C7450001 		movl	$1, 0(%ebp)
 1077      000000
 1078              	.LBE214:
 1079              	.LBE215:
GAS LISTING /tmp/cc1DMqvg.s 			page 21


 1080              	.LBE217:
 1081              		.loc 2 356 34 is_stmt 1 view .LVU334
 1082              		.loc 2 357 20 view .LVU335
 1083              		.loc 1 404 3 view .LVU336
 1084              		.loc 1 404 10 is_stmt 0 view .LVU337
 1085 002c 8B5634   		movl	52(%esi), %edx
 1086              	.LVL47:
 1087              		.loc 1 405 3 is_stmt 1 view .LVU338
 1088              		.loc 1 405 6 is_stmt 0 view .LVU339
 1089 002f 89D1     		movl	%edx, %ecx
 1090 0031 21F9     		andl	%edi, %ecx
 1091              	.LVL48:
 1092              		.loc 1 405 6 view .LVU340
 1093 0033 7423     		je	.L57
 1094              	.LVL49:
 1095              	.L55:
 1096              		.loc 1 410 3 is_stmt 1 view .LVU341
 1097              		.loc 1 410 5 is_stmt 0 view .LVU342
 1098 0035 89C8     		movl	%ecx, %eax
 1099              	.LBB218:
 1100              	.LBB219:
 1101              	.LBB220:
 1102              	.LBB221:
 1103              		.loc 3 373 16 view .LVU343
 1104 0037 C7450000 		movl	$0, 0(%ebp)
 1104      000000
 1105              	.LBE221:
 1106              	.LBE220:
 1107              	.LBE219:
 1108              	.LBE218:
 1109              		.loc 1 410 5 view .LVU344
 1110 003e F7D8     		negl	%eax
 1111 0040 21C8     		andl	%ecx, %eax
 1112              	.LVL50:
 1113              		.loc 1 411 3 is_stmt 1 view .LVU345
 1114              		.loc 1 411 20 is_stmt 0 view .LVU346
 1115 0042 89C1     		movl	%eax, %ecx
 1116 0044 F7D1     		notl	%ecx
 1117              		.loc 1 411 17 view .LVU347
 1118 0046 21CA     		andl	%ecx, %edx
 1119 0048 895634   		movl	%edx, 52(%esi)
 1120              		.loc 1 412 3 is_stmt 1 view .LVU348
 1121              	.LBB225:
 1122              	.LBI218:
 1123              		.loc 2 365 20 view .LVU349
 1124              	.LBB224:
 1125              		.loc 2 367 22 view .LVU350
 1126              		.loc 2 368 33 view .LVU351
 1127              		.loc 2 374 3 view .LVU352
 1128              		.loc 2 374 3 view .LVU353
 1129              		.loc 2 378 3 view .LVU354
 1130              	.LBB223:
 1131              	.LBI220:
 1132              		.loc 3 371 20 view .LVU355
 1133              	.LBB222:
 1134              		.loc 3 373 3 view .LVU356
 1135              	.LBE222:
GAS LISTING /tmp/cc1DMqvg.s 			page 22


 1136              	.LBE223:
 1137              	.LBE224:
 1138              	.LBE225:
 1139              		.loc 1 414 3 view .LVU357
 1140              		.loc 1 415 1 is_stmt 0 view .LVU358
 1141 004b 83C40C   		addl	$12, %esp
 1142              		.cfi_remember_state
 1143              		.cfi_def_cfa_offset 20
 1144 004e 5B       		popl	%ebx
 1145              		.cfi_restore 3
 1146              		.cfi_def_cfa_offset 16
 1147 004f 5E       		popl	%esi
 1148              		.cfi_restore 6
 1149              		.cfi_def_cfa_offset 12
 1150              	.LVL51:
 1151              		.loc 1 415 1 view .LVU359
 1152 0050 5F       		popl	%edi
 1153              		.cfi_restore 7
 1154              		.cfi_def_cfa_offset 8
 1155 0051 5D       		popl	%ebp
 1156              		.cfi_restore 5
 1157              		.cfi_def_cfa_offset 4
 1158 0052 C3       		ret
 1159              	.LVL52:
 1160              		.p2align 4,,10
 1161 0053 8D742600 		.p2align 3
 1161      90
 1162              	.L57:
 1163              		.cfi_restore_state
 1164              		.loc 1 406 5 is_stmt 1 view .LVU360
 1165              		.loc 1 407 5 is_stmt 0 view .LVU361
 1166 0058 83EC0C   		subl	$12, %esp
 1167              		.cfi_def_cfa_offset 44
 1168              		.loc 1 406 19 view .LVU362
 1169 005b 897E24   		movl	%edi, 36(%esi)
 1170              		.loc 1 407 5 is_stmt 1 view .LVU363
 1171 005e 6A0A     		pushl	$10
 1172              		.cfi_def_cfa_offset 48
 1173 0060 E8FCFFFF 		call	chSchGoSleepS@PLT
 1173      FF
 1174              	.LVL53:
 1175              		.loc 1 408 5 view .LVU364
 1176              		.loc 1 408 12 is_stmt 0 view .LVU365
 1177 0065 8B5634   		movl	52(%esi), %edx
 1178              		.loc 1 408 7 view .LVU366
 1179 0068 83C410   		addl	$16, %esp
 1180              		.cfi_def_cfa_offset 32
 1181 006b 21D7     		andl	%edx, %edi
 1182 006d 89F9     		movl	%edi, %ecx
 1183              	.LVL54:
 1184              		.loc 1 408 7 view .LVU367
 1185 006f EBC4     		jmp	.L55
 1186              		.cfi_endproc
 1187              	.LFE150:
 1188              		.size	chEvtWaitOne, .-chEvtWaitOne
 1189              		.section	.text.chEvtWaitAny,"ax",@progbits
 1190              		.p2align 4,,15
GAS LISTING /tmp/cc1DMqvg.s 			page 23


 1191              		.globl	chEvtWaitAny
 1192              		.type	chEvtWaitAny, @function
 1193              	chEvtWaitAny:
 1194              	.LVL55:
 1195              	.LFB151:
 1196              		.loc 1 429 46 is_stmt 1 view -0
 1197              		.cfi_startproc
 1198              		.loc 1 430 3 view .LVU369
 1199              		.loc 1 429 46 is_stmt 0 view .LVU370
 1200 0000 55       		pushl	%ebp
 1201              		.cfi_def_cfa_offset 8
 1202              		.cfi_offset 5, -8
 1203 0001 57       		pushl	%edi
 1204              		.cfi_def_cfa_offset 12
 1205              		.cfi_offset 7, -12
 1206 0002 56       		pushl	%esi
 1207              		.cfi_def_cfa_offset 16
 1208              		.cfi_offset 6, -16
 1209 0003 53       		pushl	%ebx
 1210              		.cfi_def_cfa_offset 20
 1211              		.cfi_offset 3, -20
 1212 0004 E8FCFFFF 		call	__x86.get_pc_thunk.bx
 1212      FF
 1213 0009 81C30200 		addl	$_GLOBAL_OFFSET_TABLE_, %ebx
 1213      0000
 1214 000f 83EC0C   		subl	$12, %esp
 1215              		.cfi_def_cfa_offset 32
 1216              		.loc 1 429 46 view .LVU371
 1217 0012 8B7C2420 		movl	32(%esp), %edi
 1218              		.loc 1 430 13 view .LVU372
 1219 0016 8B830000 		movl	ch@GOT(%ebx), %eax
 1219      0000
 1220              	.LBB226:
 1221              	.LBB227:
 1222              	.LBB228:
 1223              		.loc 3 364 16 view .LVU373
 1224 001c 8BAB0000 		movl	port_irq_sts@GOT(%ebx), %ebp
 1224      0000
 1225              	.LBE228:
 1226              	.LBE227:
 1227              	.LBE226:
 1228              		.loc 1 430 13 view .LVU374
 1229 0022 8B7018   		movl	24(%eax), %esi
 1230              	.LVL56:
 1231              		.loc 1 431 3 is_stmt 1 view .LVU375
 1232              		.loc 1 433 3 view .LVU376
 1233              	.LBB231:
 1234              	.LBI226:
 1235              		.loc 2 353 20 view .LVU377
 1236              	.LBE231:
 1237              		.loc 2 355 3 view .LVU378
 1238              	.LBB232:
 1239              	.LBB230:
 1240              	.LBI227:
 1241              		.loc 3 362 20 view .LVU379
 1242              	.LBB229:
 1243              		.loc 3 364 3 view .LVU380
GAS LISTING /tmp/cc1DMqvg.s 			page 24


 1244              		.loc 3 364 16 is_stmt 0 view .LVU381
 1245 0025 C7450001 		movl	$1, 0(%ebp)
 1245      000000
 1246              	.LBE229:
 1247              	.LBE230:
 1248              	.LBE232:
 1249              		.loc 2 356 34 is_stmt 1 view .LVU382
 1250              		.loc 2 357 20 view .LVU383
 1251              		.loc 1 434 3 view .LVU384
 1252              		.loc 1 434 10 is_stmt 0 view .LVU385
 1253 002c 8B5634   		movl	52(%esi), %edx
 1254              	.LVL57:
 1255              		.loc 1 435 3 is_stmt 1 view .LVU386
 1256              		.loc 1 435 6 is_stmt 0 view .LVU387
 1257 002f 89D0     		movl	%edx, %eax
 1258 0031 21F8     		andl	%edi, %eax
 1259              	.LVL58:
 1260              		.loc 1 435 6 view .LVU388
 1261 0033 741B     		je	.L61
 1262              	.LVL59:
 1263              	.L59:
 1264              		.loc 1 440 3 is_stmt 1 view .LVU389
 1265              		.loc 1 440 20 is_stmt 0 view .LVU390
 1266 0035 89C1     		movl	%eax, %ecx
 1267              	.LBB233:
 1268              	.LBB234:
 1269              	.LBB235:
 1270              	.LBB236:
 1271              		.loc 3 373 16 view .LVU391
 1272 0037 C7450000 		movl	$0, 0(%ebp)
 1272      000000
 1273              	.LBE236:
 1274              	.LBE235:
 1275              	.LBE234:
 1276              	.LBE233:
 1277              		.loc 1 440 20 view .LVU392
 1278 003e F7D1     		notl	%ecx
 1279              		.loc 1 440 17 view .LVU393
 1280 0040 21CA     		andl	%ecx, %edx
 1281 0042 895634   		movl	%edx, 52(%esi)
 1282              		.loc 1 441 3 is_stmt 1 view .LVU394
 1283              	.LBB240:
 1284              	.LBI233:
 1285              		.loc 2 365 20 view .LVU395
 1286              	.LBB239:
 1287              		.loc 2 367 22 view .LVU396
 1288              		.loc 2 368 33 view .LVU397
 1289              		.loc 2 374 3 view .LVU398
 1290              		.loc 2 374 3 view .LVU399
 1291              		.loc 2 378 3 view .LVU400
 1292              	.LBB238:
 1293              	.LBI235:
 1294              		.loc 3 371 20 view .LVU401
 1295              	.LBB237:
 1296              		.loc 3 373 3 view .LVU402
 1297              	.LBE237:
 1298              	.LBE238:
GAS LISTING /tmp/cc1DMqvg.s 			page 25


 1299              	.LBE239:
 1300              	.LBE240:
 1301              		.loc 1 443 3 view .LVU403
 1302              		.loc 1 444 1 is_stmt 0 view .LVU404
 1303 0045 83C40C   		addl	$12, %esp
 1304              		.cfi_remember_state
 1305              		.cfi_def_cfa_offset 20
 1306 0048 5B       		popl	%ebx
 1307              		.cfi_restore 3
 1308              		.cfi_def_cfa_offset 16
 1309 0049 5E       		popl	%esi
 1310              		.cfi_restore 6
 1311              		.cfi_def_cfa_offset 12
 1312              	.LVL60:
 1313              		.loc 1 444 1 view .LVU405
 1314 004a 5F       		popl	%edi
 1315              		.cfi_restore 7
 1316              		.cfi_def_cfa_offset 8
 1317 004b 5D       		popl	%ebp
 1318              		.cfi_restore 5
 1319              		.cfi_def_cfa_offset 4
 1320 004c C3       		ret
 1321              	.LVL61:
 1322 004d 8D7600   		.p2align 4,,10
 1323              		.p2align 3
 1324              	.L61:
 1325              		.cfi_restore_state
 1326              		.loc 1 436 5 is_stmt 1 view .LVU406
 1327              		.loc 1 437 5 is_stmt 0 view .LVU407
 1328 0050 83EC0C   		subl	$12, %esp
 1329              		.cfi_def_cfa_offset 44
 1330              		.loc 1 436 19 view .LVU408
 1331 0053 897E24   		movl	%edi, 36(%esi)
 1332              		.loc 1 437 5 is_stmt 1 view .LVU409
 1333 0056 6A0A     		pushl	$10
 1334              		.cfi_def_cfa_offset 48
 1335 0058 E8FCFFFF 		call	chSchGoSleepS@PLT
 1335      FF
 1336              	.LVL62:
 1337              		.loc 1 438 5 view .LVU410
 1338              		.loc 1 438 12 is_stmt 0 view .LVU411
 1339 005d 8B5634   		movl	52(%esi), %edx
 1340              		.loc 1 438 7 view .LVU412
 1341 0060 89F8     		movl	%edi, %eax
 1342 0062 83C410   		addl	$16, %esp
 1343              		.cfi_def_cfa_offset 32
 1344 0065 21D0     		andl	%edx, %eax
 1345              	.LVL63:
 1346              		.loc 1 438 7 view .LVU413
 1347 0067 EBCC     		jmp	.L59
 1348              		.cfi_endproc
 1349              	.LFE151:
 1350              		.size	chEvtWaitAny, .-chEvtWaitAny
 1351              		.section	.text.chEvtWaitAll,"ax",@progbits
 1352              		.p2align 4,,15
 1353              		.globl	chEvtWaitAll
 1354              		.type	chEvtWaitAll, @function
GAS LISTING /tmp/cc1DMqvg.s 			page 26


 1355              	chEvtWaitAll:
 1356              	.LVL64:
 1357              	.LFB152:
 1358              		.loc 1 457 46 is_stmt 1 view -0
 1359              		.cfi_startproc
 1360              		.loc 1 458 3 view .LVU415
 1361              		.loc 1 457 46 is_stmt 0 view .LVU416
 1362 0000 55       		pushl	%ebp
 1363              		.cfi_def_cfa_offset 8
 1364              		.cfi_offset 5, -8
 1365 0001 57       		pushl	%edi
 1366              		.cfi_def_cfa_offset 12
 1367              		.cfi_offset 7, -12
 1368 0002 56       		pushl	%esi
 1369              		.cfi_def_cfa_offset 16
 1370              		.cfi_offset 6, -16
 1371 0003 53       		pushl	%ebx
 1372              		.cfi_def_cfa_offset 20
 1373              		.cfi_offset 3, -20
 1374 0004 E8FCFFFF 		call	__x86.get_pc_thunk.bx
 1374      FF
 1375 0009 81C30200 		addl	$_GLOBAL_OFFSET_TABLE_, %ebx
 1375      0000
 1376 000f 83EC0C   		subl	$12, %esp
 1377              		.cfi_def_cfa_offset 32
 1378              		.loc 1 457 46 view .LVU417
 1379 0012 8B742420 		movl	32(%esp), %esi
 1380              		.loc 1 458 13 view .LVU418
 1381 0016 8B830000 		movl	ch@GOT(%ebx), %eax
 1381      0000
 1382              	.LBB241:
 1383              	.LBB242:
 1384              	.LBB243:
 1385              		.loc 3 364 16 view .LVU419
 1386 001c 8BAB0000 		movl	port_irq_sts@GOT(%ebx), %ebp
 1386      0000
 1387              	.LBE243:
 1388              	.LBE242:
 1389              	.LBE241:
 1390              		.loc 1 458 13 view .LVU420
 1391 0022 8B7818   		movl	24(%eax), %edi
 1392              	.LVL65:
 1393              		.loc 1 460 3 is_stmt 1 view .LVU421
 1394              	.LBB246:
 1395              	.LBI241:
 1396              		.loc 2 353 20 view .LVU422
 1397              	.LBE246:
 1398              		.loc 2 355 3 view .LVU423
 1399              	.LBB247:
 1400              	.LBB245:
 1401              	.LBI242:
 1402              		.loc 3 362 20 view .LVU424
 1403              	.LBB244:
 1404              		.loc 3 364 3 view .LVU425
 1405              		.loc 3 364 16 is_stmt 0 view .LVU426
 1406 0025 C7450001 		movl	$1, 0(%ebp)
 1406      000000
GAS LISTING /tmp/cc1DMqvg.s 			page 27


 1407              	.LBE244:
 1408              	.LBE245:
 1409              	.LBE247:
 1410              		.loc 2 356 34 is_stmt 1 view .LVU427
 1411              		.loc 2 357 20 view .LVU428
 1412              		.loc 1 461 3 view .LVU429
 1413              		.loc 1 461 11 is_stmt 0 view .LVU430
 1414 002c 8B5734   		movl	52(%edi), %edx
 1415              		.loc 1 461 22 view .LVU431
 1416 002f 89D0     		movl	%edx, %eax
 1417 0031 21F0     		andl	%esi, %eax
 1418              		.loc 1 461 6 view .LVU432
 1419 0033 39F0     		cmpl	%esi, %eax
 1420 0035 7413     		je	.L63
 1421              		.loc 1 462 5 is_stmt 1 view .LVU433
 1422              		.loc 1 463 5 is_stmt 0 view .LVU434
 1423 0037 83EC0C   		subl	$12, %esp
 1424              		.cfi_def_cfa_offset 44
 1425              		.loc 1 462 19 view .LVU435
 1426 003a 897724   		movl	%esi, 36(%edi)
 1427              		.loc 1 463 5 is_stmt 1 view .LVU436
 1428 003d 6A0B     		pushl	$11
 1429              		.cfi_def_cfa_offset 48
 1430 003f E8FCFFFF 		call	chSchGoSleepS@PLT
 1430      FF
 1431              	.LVL66:
 1432 0044 8B5734   		movl	52(%edi), %edx
 1433 0047 83C410   		addl	$16, %esp
 1434              		.cfi_def_cfa_offset 32
 1435              	.L63:
 1436              		.loc 1 465 3 view .LVU437
 1437              		.loc 1 465 20 is_stmt 0 view .LVU438
 1438 004a 89F0     		movl	%esi, %eax
 1439              	.LBB248:
 1440              	.LBB249:
 1441              	.LBB250:
 1442              	.LBB251:
 1443              		.loc 3 373 16 view .LVU439
 1444 004c C7450000 		movl	$0, 0(%ebp)
 1444      000000
 1445              	.LBE251:
 1446              	.LBE250:
 1447              	.LBE249:
 1448              	.LBE248:
 1449              		.loc 1 465 20 view .LVU440
 1450 0053 F7D0     		notl	%eax
 1451              		.loc 1 465 17 view .LVU441
 1452 0055 21D0     		andl	%edx, %eax
 1453 0057 894734   		movl	%eax, 52(%edi)
 1454              		.loc 1 466 3 is_stmt 1 view .LVU442
 1455              	.LBB255:
 1456              	.LBI248:
 1457              		.loc 2 365 20 view .LVU443
 1458              	.LBB254:
 1459              		.loc 2 367 22 view .LVU444
 1460              		.loc 2 368 33 view .LVU445
 1461              		.loc 2 374 3 view .LVU446
GAS LISTING /tmp/cc1DMqvg.s 			page 28


 1462              		.loc 2 374 3 view .LVU447
 1463              		.loc 2 378 3 view .LVU448
 1464              	.LBB253:
 1465              	.LBI250:
 1466              		.loc 3 371 20 view .LVU449
 1467              	.LBB252:
 1468              		.loc 3 373 3 view .LVU450
 1469              	.LBE252:
 1470              	.LBE253:
 1471              	.LBE254:
 1472              	.LBE255:
 1473              		.loc 1 468 3 view .LVU451
 1474              		.loc 1 469 1 is_stmt 0 view .LVU452
 1475 005a 83C40C   		addl	$12, %esp
 1476              		.cfi_def_cfa_offset 20
 1477 005d 89F0     		movl	%esi, %eax
 1478 005f 5B       		popl	%ebx
 1479              		.cfi_restore 3
 1480              		.cfi_def_cfa_offset 16
 1481 0060 5E       		popl	%esi
 1482              		.cfi_restore 6
 1483              		.cfi_def_cfa_offset 12
 1484 0061 5F       		popl	%edi
 1485              		.cfi_restore 7
 1486              		.cfi_def_cfa_offset 8
 1487              	.LVL67:
 1488              		.loc 1 469 1 view .LVU453
 1489 0062 5D       		popl	%ebp
 1490              		.cfi_restore 5
 1491              		.cfi_def_cfa_offset 4
 1492 0063 C3       		ret
 1493              		.cfi_endproc
 1494              	.LFE152:
 1495              		.size	chEvtWaitAll, .-chEvtWaitAll
 1496              		.section	.text.chEvtWaitOneTimeout,"ax",@progbits
 1497              		.p2align 4,,15
 1498              		.globl	chEvtWaitOneTimeout
 1499              		.type	chEvtWaitOneTimeout, @function
 1500              	chEvtWaitOneTimeout:
 1501              	.LVL68:
 1502              	.LFB153:
 1503              		.loc 1 495 76 is_stmt 1 view -0
 1504              		.cfi_startproc
 1505              		.loc 1 496 3 view .LVU455
 1506              		.loc 1 495 76 is_stmt 0 view .LVU456
 1507 0000 55       		pushl	%ebp
 1508              		.cfi_def_cfa_offset 8
 1509              		.cfi_offset 5, -8
 1510 0001 57       		pushl	%edi
 1511              		.cfi_def_cfa_offset 12
 1512              		.cfi_offset 7, -12
 1513 0002 56       		pushl	%esi
 1514              		.cfi_def_cfa_offset 16
 1515              		.cfi_offset 6, -16
 1516 0003 53       		pushl	%ebx
 1517              		.cfi_def_cfa_offset 20
 1518              		.cfi_offset 3, -20
GAS LISTING /tmp/cc1DMqvg.s 			page 29


 1519 0004 E8FCFFFF 		call	__x86.get_pc_thunk.bx
 1519      FF
 1520 0009 81C30200 		addl	$_GLOBAL_OFFSET_TABLE_, %ebx
 1520      0000
 1521 000f 83EC0C   		subl	$12, %esp
 1522              		.cfi_def_cfa_offset 32
 1523              		.loc 1 496 13 view .LVU457
 1524 0012 8B830000 		movl	ch@GOT(%ebx), %eax
 1524      0000
 1525              	.LBB256:
 1526              	.LBB257:
 1527              	.LBB258:
 1528              		.loc 3 364 16 view .LVU458
 1529 0018 8BBB0000 		movl	port_irq_sts@GOT(%ebx), %edi
 1529      0000
 1530              	.LBE258:
 1531              	.LBE257:
 1532              	.LBE256:
 1533              		.loc 1 496 13 view .LVU459
 1534 001e 8B6818   		movl	24(%eax), %ebp
 1535              	.LVL69:
 1536              		.loc 1 497 3 is_stmt 1 view .LVU460
 1537              		.loc 1 499 3 view .LVU461
 1538              	.LBB261:
 1539              	.LBI256:
 1540              		.loc 2 353 20 view .LVU462
 1541              	.LBE261:
 1542              		.loc 2 355 3 view .LVU463
 1543              	.LBB262:
 1544              	.LBB260:
 1545              	.LBI257:
 1546              		.loc 3 362 20 view .LVU464
 1547              	.LBB259:
 1548              		.loc 3 364 3 view .LVU465
 1549              		.loc 3 364 16 is_stmt 0 view .LVU466
 1550 0021 C7070100 		movl	$1, (%edi)
 1550      0000
 1551              	.LBE259:
 1552              	.LBE260:
 1553              	.LBE262:
 1554              		.loc 2 356 34 is_stmt 1 view .LVU467
 1555              		.loc 2 357 20 view .LVU468
 1556              		.loc 1 500 3 view .LVU469
 1557              		.loc 1 500 10 is_stmt 0 view .LVU470
 1558 0027 8B4534   		movl	52(%ebp), %eax
 1559              	.LVL70:
 1560              		.loc 1 501 3 is_stmt 1 view .LVU471
 1561              		.loc 1 501 6 is_stmt 0 view .LVU472
 1562 002a 89C6     		movl	%eax, %esi
 1563 002c 23742420 		andl	32(%esp), %esi
 1564              	.LVL71:
 1565              		.loc 1 501 6 view .LVU473
 1566 0030 7543     		jne	.L66
 1567              		.loc 1 502 5 is_stmt 1 view .LVU474
 1568              		.loc 1 502 8 is_stmt 0 view .LVU475
 1569 0032 8B442424 		movl	36(%esp), %eax
 1570 0036 85C0     		testl	%eax, %eax
GAS LISTING /tmp/cc1DMqvg.s 			page 30


 1571 0038 7516     		jne	.L67
 1572              	.L71:
 1573              		.loc 1 515 3 is_stmt 1 view .LVU476
 1574              	.LBB263:
 1575              	.LBI263:
 1576              		.loc 2 365 20 view .LVU477
 1577              	.LBB264:
 1578              		.loc 2 367 22 view .LVU478
 1579              		.loc 2 368 33 view .LVU479
 1580              		.loc 2 374 3 view .LVU480
 1581              		.loc 2 374 3 view .LVU481
 1582              		.loc 2 378 3 view .LVU482
 1583              	.LBB265:
 1584              	.LBI265:
 1585              		.loc 3 371 20 view .LVU483
 1586              	.LBB266:
 1587              		.loc 3 373 3 view .LVU484
 1588              		.loc 3 373 16 is_stmt 0 view .LVU485
 1589 003a C7070000 		movl	$0, (%edi)
 1589      0000
 1590              	.LBE266:
 1591              	.LBE265:
 1592              	.LBE264:
 1593              	.LBE263:
 1594              		.loc 1 517 3 is_stmt 1 view .LVU486
 1595              		.loc 1 518 1 is_stmt 0 view .LVU487
 1596 0040 83C40C   		addl	$12, %esp
 1597              		.cfi_remember_state
 1598              		.cfi_def_cfa_offset 20
 1599 0043 89F0     		movl	%esi, %eax
 1600 0045 5B       		popl	%ebx
 1601              		.cfi_restore 3
 1602              		.cfi_def_cfa_offset 16
 1603 0046 5E       		popl	%esi
 1604              		.cfi_restore 6
 1605              		.cfi_def_cfa_offset 12
 1606              	.LVL72:
 1607              		.loc 1 518 1 view .LVU488
 1608 0047 5F       		popl	%edi
 1609              		.cfi_restore 7
 1610              		.cfi_def_cfa_offset 8
 1611 0048 5D       		popl	%ebp
 1612              		.cfi_restore 5
 1613              		.cfi_def_cfa_offset 4
 1614              	.LVL73:
 1615              		.loc 1 518 1 view .LVU489
 1616 0049 C3       		ret
 1617              	.LVL74:
 1618 004a 8DB60000 		.p2align 4,,10
 1618      0000
 1619              		.p2align 3
 1620              	.L67:
 1621              		.cfi_restore_state
 1622              		.loc 1 506 5 is_stmt 1 view .LVU490
 1623              		.loc 1 506 19 is_stmt 0 view .LVU491
 1624 0050 8B442420 		movl	32(%esp), %eax
 1625              		.loc 1 507 9 view .LVU492
GAS LISTING /tmp/cc1DMqvg.s 			page 31


 1626 0054 83EC08   		subl	$8, %esp
 1627              		.cfi_def_cfa_offset 40
 1628              		.loc 1 506 19 view .LVU493
 1629 0057 894524   		movl	%eax, 36(%ebp)
 1630              		.loc 1 507 5 is_stmt 1 view .LVU494
 1631              		.loc 1 507 9 is_stmt 0 view .LVU495
 1632 005a FF74242C 		pushl	44(%esp)
 1633              		.cfi_def_cfa_offset 44
 1634 005e 6A0A     		pushl	$10
 1635              		.cfi_def_cfa_offset 48
 1636 0060 E8FCFFFF 		call	chSchGoSleepTimeoutS@PLT
 1636      FF
 1637              	.LVL75:
 1638              		.loc 1 507 8 view .LVU496
 1639 0065 83C410   		addl	$16, %esp
 1640              		.cfi_def_cfa_offset 32
 1641 0068 85C0     		testl	%eax, %eax
 1642 006a 78CE     		js	.L71
 1643              		.loc 1 511 5 is_stmt 1 view .LVU497
 1644              		.loc 1 511 12 is_stmt 0 view .LVU498
 1645 006c 8B4534   		movl	52(%ebp), %eax
 1646              		.loc 1 511 7 view .LVU499
 1647 006f 8B742420 		movl	32(%esp), %esi
 1648              	.LVL76:
 1649              		.loc 1 511 7 view .LVU500
 1650 0073 21C6     		andl	%eax, %esi
 1651              	.LVL77:
 1652              	.L66:
 1653              		.loc 1 513 3 is_stmt 1 view .LVU501
 1654              		.loc 1 513 5 is_stmt 0 view .LVU502
 1655 0075 89F1     		movl	%esi, %ecx
 1656              	.LBB273:
 1657              	.LBB271:
 1658              	.LBB269:
 1659              	.LBB267:
 1660              		.loc 3 373 16 view .LVU503
 1661 0077 C7070000 		movl	$0, (%edi)
 1661      0000
 1662              	.LBE267:
 1663              	.LBE269:
 1664              	.LBE271:
 1665              	.LBE273:
 1666              		.loc 1 513 5 view .LVU504
 1667 007d F7D9     		negl	%ecx
 1668 007f 21CE     		andl	%ecx, %esi
 1669              	.LVL78:
 1670              		.loc 1 514 3 is_stmt 1 view .LVU505
 1671              		.loc 1 514 20 is_stmt 0 view .LVU506
 1672 0081 89F1     		movl	%esi, %ecx
 1673 0083 F7D1     		notl	%ecx
 1674              		.loc 1 514 17 view .LVU507
 1675 0085 21C8     		andl	%ecx, %eax
 1676 0087 894534   		movl	%eax, 52(%ebp)
 1677              		.loc 1 515 3 is_stmt 1 view .LVU508
 1678              	.LBB274:
 1679              		.loc 2 365 20 view .LVU509
 1680              	.LBB272:
GAS LISTING /tmp/cc1DMqvg.s 			page 32


 1681              		.loc 2 367 22 view .LVU510
 1682              		.loc 2 368 33 view .LVU511
 1683              		.loc 2 374 3 view .LVU512
 1684              		.loc 2 374 3 view .LVU513
 1685              		.loc 2 378 3 view .LVU514
 1686              	.LBB270:
 1687              		.loc 3 371 20 view .LVU515
 1688              	.LBB268:
 1689              		.loc 3 373 3 view .LVU516
 1690              	.LBE268:
 1691              	.LBE270:
 1692              	.LBE272:
 1693              	.LBE274:
 1694              		.loc 1 517 3 view .LVU517
 1695              		.loc 1 518 1 is_stmt 0 view .LVU518
 1696 008a 83C40C   		addl	$12, %esp
 1697              		.cfi_def_cfa_offset 20
 1698 008d 89F0     		movl	%esi, %eax
 1699 008f 5B       		popl	%ebx
 1700              		.cfi_restore 3
 1701              		.cfi_def_cfa_offset 16
 1702 0090 5E       		popl	%esi
 1703              		.cfi_restore 6
 1704              		.cfi_def_cfa_offset 12
 1705              	.LVL79:
 1706              		.loc 1 518 1 view .LVU519
 1707 0091 5F       		popl	%edi
 1708              		.cfi_restore 7
 1709              		.cfi_def_cfa_offset 8
 1710 0092 5D       		popl	%ebp
 1711              		.cfi_restore 5
 1712              		.cfi_def_cfa_offset 4
 1713              	.LVL80:
 1714              		.loc 1 518 1 view .LVU520
 1715 0093 C3       		ret
 1716              		.cfi_endproc
 1717              	.LFE153:
 1718              		.size	chEvtWaitOneTimeout, .-chEvtWaitOneTimeout
 1719              		.section	.text.chEvtWaitAnyTimeout,"ax",@progbits
 1720              		.p2align 4,,15
 1721              		.globl	chEvtWaitAnyTimeout
 1722              		.type	chEvtWaitAnyTimeout, @function
 1723              	chEvtWaitAnyTimeout:
 1724              	.LVL81:
 1725              	.LFB154:
 1726              		.loc 1 538 76 is_stmt 1 view -0
 1727              		.cfi_startproc
 1728              		.loc 1 539 3 view .LVU522
 1729              		.loc 1 538 76 is_stmt 0 view .LVU523
 1730 0000 55       		pushl	%ebp
 1731              		.cfi_def_cfa_offset 8
 1732              		.cfi_offset 5, -8
 1733 0001 57       		pushl	%edi
 1734              		.cfi_def_cfa_offset 12
 1735              		.cfi_offset 7, -12
 1736 0002 56       		pushl	%esi
 1737              		.cfi_def_cfa_offset 16
GAS LISTING /tmp/cc1DMqvg.s 			page 33


 1738              		.cfi_offset 6, -16
 1739 0003 53       		pushl	%ebx
 1740              		.cfi_def_cfa_offset 20
 1741              		.cfi_offset 3, -20
 1742 0004 E8FCFFFF 		call	__x86.get_pc_thunk.bx
 1742      FF
 1743 0009 81C30200 		addl	$_GLOBAL_OFFSET_TABLE_, %ebx
 1743      0000
 1744 000f 83EC0C   		subl	$12, %esp
 1745              		.cfi_def_cfa_offset 32
 1746              		.loc 1 539 13 view .LVU524
 1747 0012 8B830000 		movl	ch@GOT(%ebx), %eax
 1747      0000
 1748              	.LBB275:
 1749              	.LBB276:
 1750              	.LBB277:
 1751              		.loc 3 364 16 view .LVU525
 1752 0018 8BAB0000 		movl	port_irq_sts@GOT(%ebx), %ebp
 1752      0000
 1753              	.LBE277:
 1754              	.LBE276:
 1755              	.LBE275:
 1756              		.loc 1 539 13 view .LVU526
 1757 001e 8B7818   		movl	24(%eax), %edi
 1758              	.LVL82:
 1759              		.loc 1 540 3 is_stmt 1 view .LVU527
 1760              		.loc 1 542 3 view .LVU528
 1761              	.LBB280:
 1762              	.LBI275:
 1763              		.loc 2 353 20 view .LVU529
 1764              	.LBE280:
 1765              		.loc 2 355 3 view .LVU530
 1766              	.LBB281:
 1767              	.LBB279:
 1768              	.LBI276:
 1769              		.loc 3 362 20 view .LVU531
 1770              	.LBB278:
 1771              		.loc 3 364 3 view .LVU532
 1772              		.loc 3 364 16 is_stmt 0 view .LVU533
 1773 0021 C7450001 		movl	$1, 0(%ebp)
 1773      000000
 1774              	.LBE278:
 1775              	.LBE279:
 1776              	.LBE281:
 1777              		.loc 2 356 34 is_stmt 1 view .LVU534
 1778              		.loc 2 357 20 view .LVU535
 1779              		.loc 1 543 3 view .LVU536
 1780              		.loc 1 543 10 is_stmt 0 view .LVU537
 1781 0028 8B4734   		movl	52(%edi), %eax
 1782              	.LVL83:
 1783              		.loc 1 544 3 is_stmt 1 view .LVU538
 1784              		.loc 1 544 6 is_stmt 0 view .LVU539
 1785 002b 89C6     		movl	%eax, %esi
 1786 002d 23742420 		andl	32(%esp), %esi
 1787              	.LVL84:
 1788              		.loc 1 544 6 view .LVU540
 1789 0031 7542     		jne	.L73
GAS LISTING /tmp/cc1DMqvg.s 			page 34


 1790              		.loc 1 545 5 is_stmt 1 view .LVU541
 1791              		.loc 1 545 8 is_stmt 0 view .LVU542
 1792 0033 8B442424 		movl	36(%esp), %eax
 1793 0037 85C0     		testl	%eax, %eax
 1794 0039 7515     		jne	.L74
 1795              	.LVL85:
 1796              	.L78:
 1797              		.loc 1 557 3 is_stmt 1 view .LVU543
 1798              	.LBB282:
 1799              	.LBI282:
 1800              		.loc 2 365 20 view .LVU544
 1801              	.LBB283:
 1802              		.loc 2 367 22 view .LVU545
 1803              		.loc 2 368 33 view .LVU546
 1804              		.loc 2 374 3 view .LVU547
 1805              		.loc 2 374 3 view .LVU548
 1806              		.loc 2 378 3 view .LVU549
 1807              	.LBB284:
 1808              	.LBI284:
 1809              		.loc 3 371 20 view .LVU550
 1810              	.LBB285:
 1811              		.loc 3 373 3 view .LVU551
 1812              		.loc 3 373 16 is_stmt 0 view .LVU552
 1813 003b C7450000 		movl	$0, 0(%ebp)
 1813      000000
 1814              	.LBE285:
 1815              	.LBE284:
 1816              	.LBE283:
 1817              	.LBE282:
 1818              		.loc 1 559 3 is_stmt 1 view .LVU553
 1819              		.loc 1 560 1 is_stmt 0 view .LVU554
 1820 0042 83C40C   		addl	$12, %esp
 1821              		.cfi_remember_state
 1822              		.cfi_def_cfa_offset 20
 1823 0045 89F0     		movl	%esi, %eax
 1824 0047 5B       		popl	%ebx
 1825              		.cfi_restore 3
 1826              		.cfi_def_cfa_offset 16
 1827 0048 5E       		popl	%esi
 1828              		.cfi_restore 6
 1829              		.cfi_def_cfa_offset 12
 1830 0049 5F       		popl	%edi
 1831              		.cfi_restore 7
 1832              		.cfi_def_cfa_offset 8
 1833              	.LVL86:
 1834              		.loc 1 560 1 view .LVU555
 1835 004a 5D       		popl	%ebp
 1836              		.cfi_restore 5
 1837              		.cfi_def_cfa_offset 4
 1838 004b C3       		ret
 1839              	.LVL87:
 1840 004c 8D742600 		.p2align 4,,10
 1841              		.p2align 3
 1842              	.L74:
 1843              		.cfi_restore_state
 1844              		.loc 1 549 5 is_stmt 1 view .LVU556
 1845              		.loc 1 549 19 is_stmt 0 view .LVU557
GAS LISTING /tmp/cc1DMqvg.s 			page 35


 1846 0050 8B442420 		movl	32(%esp), %eax
 1847              		.loc 1 550 9 view .LVU558
 1848 0054 83EC08   		subl	$8, %esp
 1849              		.cfi_def_cfa_offset 40
 1850              		.loc 1 549 19 view .LVU559
 1851 0057 894724   		movl	%eax, 36(%edi)
 1852              		.loc 1 550 5 is_stmt 1 view .LVU560
 1853              		.loc 1 550 9 is_stmt 0 view .LVU561
 1854 005a FF74242C 		pushl	44(%esp)
 1855              		.cfi_def_cfa_offset 44
 1856 005e 6A0A     		pushl	$10
 1857              		.cfi_def_cfa_offset 48
 1858 0060 E8FCFFFF 		call	chSchGoSleepTimeoutS@PLT
 1858      FF
 1859              	.LVL88:
 1860              		.loc 1 550 8 view .LVU562
 1861 0065 83C410   		addl	$16, %esp
 1862              		.cfi_def_cfa_offset 32
 1863 0068 85C0     		testl	%eax, %eax
 1864 006a 78CF     		js	.L78
 1865              		.loc 1 554 5 is_stmt 1 view .LVU563
 1866              		.loc 1 554 12 is_stmt 0 view .LVU564
 1867 006c 8B4734   		movl	52(%edi), %eax
 1868              		.loc 1 554 7 view .LVU565
 1869 006f 8B742420 		movl	32(%esp), %esi
 1870              	.LVL89:
 1871              		.loc 1 554 7 view .LVU566
 1872 0073 21C6     		andl	%eax, %esi
 1873              	.LVL90:
 1874              	.L73:
 1875              		.loc 1 556 3 is_stmt 1 view .LVU567
 1876              		.loc 1 556 20 is_stmt 0 view .LVU568
 1877 0075 89F1     		movl	%esi, %ecx
 1878 0077 F7D1     		notl	%ecx
 1879              		.loc 1 556 17 view .LVU569
 1880 0079 21C8     		andl	%ecx, %eax
 1881 007b 894734   		movl	%eax, 52(%edi)
 1882 007e EBBB     		jmp	.L78
 1883              		.cfi_endproc
 1884              	.LFE154:
 1885              		.size	chEvtWaitAnyTimeout, .-chEvtWaitAnyTimeout
 1886              		.section	.text.chEvtWaitAllTimeout,"ax",@progbits
 1887              		.p2align 4,,15
 1888              		.globl	chEvtWaitAllTimeout
 1889              		.type	chEvtWaitAllTimeout, @function
 1890              	chEvtWaitAllTimeout:
 1891              	.LVL91:
 1892              	.LFB155:
 1893              		.loc 1 579 76 is_stmt 1 view -0
 1894              		.cfi_startproc
 1895              		.loc 1 580 3 view .LVU571
 1896              		.loc 1 579 76 is_stmt 0 view .LVU572
 1897 0000 55       		pushl	%ebp
 1898              		.cfi_def_cfa_offset 8
 1899              		.cfi_offset 5, -8
 1900 0001 57       		pushl	%edi
 1901              		.cfi_def_cfa_offset 12
GAS LISTING /tmp/cc1DMqvg.s 			page 36


 1902              		.cfi_offset 7, -12
 1903 0002 56       		pushl	%esi
 1904              		.cfi_def_cfa_offset 16
 1905              		.cfi_offset 6, -16
 1906 0003 53       		pushl	%ebx
 1907              		.cfi_def_cfa_offset 20
 1908              		.cfi_offset 3, -20
 1909 0004 E8FCFFFF 		call	__x86.get_pc_thunk.bx
 1909      FF
 1910 0009 81C30200 		addl	$_GLOBAL_OFFSET_TABLE_, %ebx
 1910      0000
 1911 000f 83EC0C   		subl	$12, %esp
 1912              		.cfi_def_cfa_offset 32
 1913              		.loc 1 579 76 view .LVU573
 1914 0012 8B742420 		movl	32(%esp), %esi
 1915              		.loc 1 580 13 view .LVU574
 1916 0016 8B830000 		movl	ch@GOT(%ebx), %eax
 1916      0000
 1917              	.LBB286:
 1918              	.LBB287:
 1919              	.LBB288:
 1920              		.loc 3 364 16 view .LVU575
 1921 001c 8BAB0000 		movl	port_irq_sts@GOT(%ebx), %ebp
 1921      0000
 1922              	.LBE288:
 1923              	.LBE287:
 1924              	.LBE286:
 1925              		.loc 1 580 13 view .LVU576
 1926 0022 8B7818   		movl	24(%eax), %edi
 1927              	.LVL92:
 1928              		.loc 1 582 3 is_stmt 1 view .LVU577
 1929              	.LBB291:
 1930              	.LBI286:
 1931              		.loc 2 353 20 view .LVU578
 1932              	.LBE291:
 1933              		.loc 2 355 3 view .LVU579
 1934              	.LBB292:
 1935              	.LBB290:
 1936              	.LBI287:
 1937              		.loc 3 362 20 view .LVU580
 1938              	.LBB289:
 1939              		.loc 3 364 3 view .LVU581
 1940              		.loc 3 364 16 is_stmt 0 view .LVU582
 1941 0025 C7450001 		movl	$1, 0(%ebp)
 1941      000000
 1942              	.LBE289:
 1943              	.LBE290:
 1944              	.LBE292:
 1945              		.loc 2 356 34 is_stmt 1 view .LVU583
 1946              		.loc 2 357 20 view .LVU584
 1947              		.loc 1 583 3 view .LVU585
 1948              		.loc 1 583 11 is_stmt 0 view .LVU586
 1949 002c 8B4734   		movl	52(%edi), %eax
 1950              		.loc 1 583 22 view .LVU587
 1951 002f 89C2     		movl	%eax, %edx
 1952 0031 21F2     		andl	%esi, %edx
 1953              		.loc 1 583 6 view .LVU588
GAS LISTING /tmp/cc1DMqvg.s 			page 37


 1954 0033 39F2     		cmpl	%esi, %edx
 1955 0035 7434     		je	.L80
 1956              		.loc 1 584 5 is_stmt 1 view .LVU589
 1957              		.loc 1 584 8 is_stmt 0 view .LVU590
 1958 0037 8B442424 		movl	36(%esp), %eax
 1959 003b 85C0     		testl	%eax, %eax
 1960 003d 7511     		jne	.L81
 1961              	.L83:
 1962              		.loc 1 585 7 is_stmt 1 view .LVU591
 1963              	.LBB293:
 1964              	.LBI293:
 1965              		.loc 2 365 20 view .LVU592
 1966              	.LBB294:
 1967              		.loc 2 367 22 view .LVU593
 1968              		.loc 2 368 33 view .LVU594
 1969              		.loc 2 374 3 view .LVU595
 1970              		.loc 2 374 3 view .LVU596
 1971              		.loc 2 378 3 view .LVU597
 1972              	.LBB295:
 1973              	.LBI295:
 1974              		.loc 3 371 20 view .LVU598
 1975              	.LBB296:
 1976              		.loc 3 373 3 view .LVU599
 1977              		.loc 3 373 16 is_stmt 0 view .LVU600
 1978 003f C7450000 		movl	$0, 0(%ebp)
 1978      000000
 1979              	.LBE296:
 1980              	.LBE295:
 1981              	.LBE294:
 1982              	.LBE293:
 1983              		.loc 1 586 7 is_stmt 1 view .LVU601
 1984              		.loc 1 598 1 is_stmt 0 view .LVU602
 1985 0046 83C40C   		addl	$12, %esp
 1986              		.cfi_remember_state
 1987              		.cfi_def_cfa_offset 20
 1988              		.loc 1 586 14 view .LVU603
 1989 0049 31C0     		xorl	%eax, %eax
 1990              		.loc 1 598 1 view .LVU604
 1991 004b 5B       		popl	%ebx
 1992              		.cfi_restore 3
 1993              		.cfi_def_cfa_offset 16
 1994 004c 5E       		popl	%esi
 1995              		.cfi_restore 6
 1996              		.cfi_def_cfa_offset 12
 1997 004d 5F       		popl	%edi
 1998              		.cfi_restore 7
 1999              		.cfi_def_cfa_offset 8
 2000              	.LVL93:
 2001              		.loc 1 598 1 view .LVU605
 2002 004e 5D       		popl	%ebp
 2003              		.cfi_restore 5
 2004              		.cfi_def_cfa_offset 4
 2005 004f C3       		ret
 2006              	.LVL94:
 2007              		.p2align 4,,10
 2008              		.p2align 3
 2009              	.L81:
GAS LISTING /tmp/cc1DMqvg.s 			page 38


 2010              		.cfi_restore_state
 2011              		.loc 1 588 5 is_stmt 1 view .LVU606
 2012              		.loc 1 589 9 is_stmt 0 view .LVU607
 2013 0050 83EC08   		subl	$8, %esp
 2014              		.cfi_def_cfa_offset 40
 2015              		.loc 1 588 19 view .LVU608
 2016 0053 897724   		movl	%esi, 36(%edi)
 2017              		.loc 1 589 5 is_stmt 1 view .LVU609
 2018              		.loc 1 589 9 is_stmt 0 view .LVU610
 2019 0056 FF74242C 		pushl	44(%esp)
 2020              		.cfi_def_cfa_offset 44
 2021 005a 6A0B     		pushl	$11
 2022              		.cfi_def_cfa_offset 48
 2023 005c E8FCFFFF 		call	chSchGoSleepTimeoutS@PLT
 2023      FF
 2024              	.LVL95:
 2025              		.loc 1 589 8 view .LVU611
 2026 0061 83C410   		addl	$16, %esp
 2027              		.cfi_def_cfa_offset 32
 2028 0064 85C0     		testl	%eax, %eax
 2029 0066 78D7     		js	.L83
 2030 0068 8B4734   		movl	52(%edi), %eax
 2031              	.L80:
 2032              		.loc 1 594 3 is_stmt 1 view .LVU612
 2033              		.loc 1 594 20 is_stmt 0 view .LVU613
 2034 006b 89F2     		movl	%esi, %edx
 2035              	.LBB297:
 2036              	.LBB298:
 2037              	.LBB299:
 2038              	.LBB300:
 2039              		.loc 3 373 16 view .LVU614
 2040 006d C7450000 		movl	$0, 0(%ebp)
 2040      000000
 2041              	.LBE300:
 2042              	.LBE299:
 2043              	.LBE298:
 2044              	.LBE297:
 2045              		.loc 1 594 20 view .LVU615
 2046 0074 F7D2     		notl	%edx
 2047              		.loc 1 594 17 view .LVU616
 2048 0076 21D0     		andl	%edx, %eax
 2049 0078 894734   		movl	%eax, 52(%edi)
 2050              		.loc 1 595 3 is_stmt 1 view .LVU617
 2051              	.LBB304:
 2052              	.LBI297:
 2053              		.loc 2 365 20 view .LVU618
 2054              	.LBB303:
 2055              		.loc 2 367 22 view .LVU619
 2056              		.loc 2 368 33 view .LVU620
 2057              		.loc 2 374 3 view .LVU621
 2058              		.loc 2 374 3 view .LVU622
 2059              		.loc 2 378 3 view .LVU623
 2060              	.LBB302:
 2061              	.LBI299:
 2062              		.loc 3 371 20 view .LVU624
 2063              	.LBB301:
 2064              		.loc 3 373 3 view .LVU625
GAS LISTING /tmp/cc1DMqvg.s 			page 39


 2065              	.LBE301:
 2066              	.LBE302:
 2067              	.LBE303:
 2068              	.LBE304:
 2069              		.loc 1 597 3 view .LVU626
 2070              		.loc 1 598 1 is_stmt 0 view .LVU627
 2071 007b 83C40C   		addl	$12, %esp
 2072              		.cfi_def_cfa_offset 20
 2073              		.loc 1 597 10 view .LVU628
 2074 007e 89F0     		movl	%esi, %eax
 2075              		.loc 1 598 1 view .LVU629
 2076 0080 5B       		popl	%ebx
 2077              		.cfi_restore 3
 2078              		.cfi_def_cfa_offset 16
 2079 0081 5E       		popl	%esi
 2080              		.cfi_restore 6
 2081              		.cfi_def_cfa_offset 12
 2082 0082 5F       		popl	%edi
 2083              		.cfi_restore 7
 2084              		.cfi_def_cfa_offset 8
 2085              	.LVL96:
 2086              		.loc 1 598 1 view .LVU630
 2087 0083 5D       		popl	%ebp
 2088              		.cfi_restore 5
 2089              		.cfi_def_cfa_offset 4
 2090 0084 C3       		ret
 2091              		.cfi_endproc
 2092              	.LFE155:
 2093              		.size	chEvtWaitAllTimeout, .-chEvtWaitAllTimeout
 2094              		.section	.text.__x86.get_pc_thunk.ax,"axG",@progbits,__x86.get_pc_thunk.ax,comdat
 2095              		.globl	__x86.get_pc_thunk.ax
 2096              		.hidden	__x86.get_pc_thunk.ax
 2097              		.type	__x86.get_pc_thunk.ax, @function
 2098              	__x86.get_pc_thunk.ax:
 2099              	.LFB156:
 2100              		.cfi_startproc
 2101 0000 8B0424   		movl	(%esp), %eax
 2102 0003 C3       		ret
 2103              		.cfi_endproc
 2104              	.LFE156:
 2105              		.section	.text.__x86.get_pc_thunk.dx,"axG",@progbits,__x86.get_pc_thunk.dx,comdat
 2106              		.globl	__x86.get_pc_thunk.dx
 2107              		.hidden	__x86.get_pc_thunk.dx
 2108              		.type	__x86.get_pc_thunk.dx, @function
 2109              	__x86.get_pc_thunk.dx:
 2110              	.LFB157:
 2111              		.cfi_startproc
 2112 0000 8B1424   		movl	(%esp), %edx
 2113 0003 C3       		ret
 2114              		.cfi_endproc
 2115              	.LFE157:
 2116              		.section	.text.__x86.get_pc_thunk.cx,"axG",@progbits,__x86.get_pc_thunk.cx,comdat
 2117              		.globl	__x86.get_pc_thunk.cx
 2118              		.hidden	__x86.get_pc_thunk.cx
 2119              		.type	__x86.get_pc_thunk.cx, @function
 2120              	__x86.get_pc_thunk.cx:
 2121              	.LFB158:
GAS LISTING /tmp/cc1DMqvg.s 			page 40


 2122              		.cfi_startproc
 2123 0000 8B0C24   		movl	(%esp), %ecx
 2124 0003 C3       		ret
 2125              		.cfi_endproc
 2126              	.LFE158:
 2127              		.section	.text.__x86.get_pc_thunk.bx,"axG",@progbits,__x86.get_pc_thunk.bx,comdat
 2128              		.globl	__x86.get_pc_thunk.bx
 2129              		.hidden	__x86.get_pc_thunk.bx
 2130              		.type	__x86.get_pc_thunk.bx, @function
 2131              	__x86.get_pc_thunk.bx:
 2132              	.LFB159:
 2133              		.cfi_startproc
 2134 0000 8B1C24   		movl	(%esp), %ebx
 2135 0003 C3       		ret
 2136              		.cfi_endproc
 2137              	.LFE159:
 2138              		.text
 2139              	.Letext0:
 2140              		.file 5 "/usr/lib/gcc/x86_64-linux-gnu/8/include/stddef.h"
 2141              		.file 6 "/usr/include/i386-linux-gnu/bits/types.h"
 2142              		.file 7 "/usr/include/i386-linux-gnu/bits/stdint-intn.h"
 2143              		.file 8 "/usr/include/i386-linux-gnu/bits/stdint-uintn.h"
 2144              		.file 9 "../../../os/common/ports/SIMIA32/compilers/GCC/chtypes.h"
 2145              		.file 10 "../../../os/rt/include/chsystypes.h"
 2146              		.file 11 "../../../os/rt/include/chschd.h"
 2147              		.file 12 "../../../os/rt/include/chtime.h"
 2148              		.file 13 "../../../os/rt/include/chtm.h"
 2149              		.file 14 "../../../os/rt/include/chsem.h"
 2150              		.file 15 "../../../os/rt/include/chmtx.h"
 2151              		.file 16 "../../../os/rt/include/chregistry.h"
 2152              		.file 17 "../../../os/common/oslib/include/chmemcore.h"
 2153              		.file 18 "../../../os/common/oslib/include/chmempools.h"
 2154              		.file 19 "../../../os/common/oslib/include/chfactory.h"
 7116              		.section	.note.GNU-stack,"",@progbits
GAS LISTING /tmp/cc1DMqvg.s 			page 135

