GAS LISTING /tmp/ccrDiXtt.s 			page 1


   1              		.file	"chheap.c"
   2              		.text
   3              	.Ltext0:
   4              		.section	.text._heap_init,"ax",@progbits
   5              		.p2align 4,,15
   6              		.globl	_heap_init
   7              		.type	_heap_init, @function
   8              	_heap_init:
   9              	.LFB138:
  10              		.file 1 "../../../os/common/oslib/src/chheap.c"
  11              		.loc 1 107 23 view -0
  12              		.cfi_startproc
  13              		.loc 1 109 3 view .LVU1
  14              		.loc 1 107 23 is_stmt 0 view .LVU2
  15 0000 53       		pushl	%ebx
  16              		.cfi_def_cfa_offset 8
  17              		.cfi_offset 3, -8
  18 0001 E8FCFFFF 		call	__x86.get_pc_thunk.bx
  18      FF
  19 0006 81C30200 		addl	$_GLOBAL_OFFSET_TABLE_, %ebx
  19      0000
  20 000c 83EC14   		subl	$20, %esp
  21              		.cfi_def_cfa_offset 28
  22              		.loc 1 110 32 view .LVU3
  23 000f C7830400 		movl	$0, 4+default_heap@GOTOFF(%ebx)
  23      00000000 
  23      0000
  24              		.loc 1 109 25 view .LVU4
  25 0019 8B830000 		movl	chCoreAllocAlignedWithOffset@GOT(%ebx), %eax
  25      0000
  26              		.loc 1 111 33 view .LVU5
  27 001f C7830800 		movl	$0, 8+default_heap@GOTOFF(%ebx)
  27      00000000 
  27      0000
  28              		.loc 1 109 25 view .LVU6
  29 0029 89830000 		movl	%eax, default_heap@GOTOFF(%ebx)
  29      0000
  30              		.loc 1 110 3 is_stmt 1 view .LVU7
  31              		.loc 1 111 3 view .LVU8
  32              		.loc 1 113 3 view .LVU9
  33 002f 8D830C00 		leal	12+default_heap@GOTOFF(%ebx), %eax
  33      0000
  34 0035 50       		pushl	%eax
  35              		.cfi_def_cfa_offset 32
  36 0036 E8FCFFFF 		call	chMtxObjectInit@PLT
  36      FF
  37              	.LVL0:
  38              		.loc 1 117 1 is_stmt 0 view .LVU10
  39 003b 83C418   		addl	$24, %esp
  40              		.cfi_def_cfa_offset 8
  41 003e 5B       		popl	%ebx
  42              		.cfi_restore 3
  43              		.cfi_def_cfa_offset 4
  44 003f C3       		ret
  45              		.cfi_endproc
  46              	.LFE138:
  47              		.size	_heap_init, .-_heap_init
GAS LISTING /tmp/ccrDiXtt.s 			page 2


  48              		.section	.text.chHeapObjectInit,"ax",@progbits
  49              		.p2align 4,,15
  50              		.globl	chHeapObjectInit
  51              		.type	chHeapObjectInit, @function
  52              	chHeapObjectInit:
  53              	.LVL1:
  54              	.LFB139:
  55              		.loc 1 131 69 is_stmt 1 view -0
  56              		.cfi_startproc
  57              		.loc 1 132 3 view .LVU12
  58              		.loc 1 131 69 is_stmt 0 view .LVU13
  59 0000 56       		pushl	%esi
  60              		.cfi_def_cfa_offset 8
  61              		.cfi_offset 6, -8
  62 0001 53       		pushl	%ebx
  63              		.cfi_def_cfa_offset 12
  64              		.cfi_offset 3, -12
  65 0002 E8FCFFFF 		call	__x86.get_pc_thunk.bx
  65      FF
  66 0007 81C30200 		addl	$_GLOBAL_OFFSET_TABLE_, %ebx
  66      0000
  67 000d 83EC10   		subl	$16, %esp
  68              		.cfi_def_cfa_offset 28
  69              		.loc 1 131 69 view .LVU14
  70 0010 8B4C2420 		movl	32(%esp), %ecx
  71              		.loc 1 147 23 view .LVU15
  72 0014 8B742424 		movl	36(%esp), %esi
  73              		.loc 1 131 69 view .LVU16
  74 0018 8B44241C 		movl	28(%esp), %eax
  75              		.loc 1 132 40 view .LVU17
  76 001c 8D5107   		leal	7(%ecx), %edx
  77 001f 83E2F8   		andl	$-8, %edx
  78              	.LVL2:
  79              		.loc 1 134 3 is_stmt 1 view .LVU18
  80              		.loc 1 134 3 view .LVU19
  81              		.loc 1 139 3 view .LVU20
  82              		.loc 1 143 3 view .LVU21
  83              		.loc 1 143 19 is_stmt 0 view .LVU22
  84 0022 C7000000 		movl	$0, (%eax)
  84      0000
  85              		.loc 1 144 3 is_stmt 1 view .LVU23
  86              		.loc 1 149 3 is_stmt 0 view .LVU24
  87 0028 83C00C   		addl	$12, %eax
  88              		.loc 1 139 34 view .LVU25
  89 002b 29D1     		subl	%edx, %ecx
  90              	.LVL3:
  91              		.loc 1 144 26 view .LVU26
  92 002d 8950F8   		movl	%edx, -8(%eax)
  93              		.loc 1 145 3 is_stmt 1 view .LVU27
  94              		.loc 1 147 23 is_stmt 0 view .LVU28
  95 0030 8D4C31F8 		leal	-8(%ecx,%esi), %ecx
  96              	.LVL4:
  97              		.loc 1 145 27 view .LVU29
  98 0034 C740FC00 		movl	$0, -4(%eax)
  98      000000
  99              		.loc 1 146 3 is_stmt 1 view .LVU30
 100              		.loc 1 147 49 is_stmt 0 view .LVU31
GAS LISTING /tmp/ccrDiXtt.s 			page 3


 101 003b C1E903   		shrl	$3, %ecx
 102              		.loc 1 146 14 view .LVU32
 103 003e C7020000 		movl	$0, (%edx)
 103      0000
 104              		.loc 1 147 3 is_stmt 1 view .LVU33
 105              		.loc 1 147 49 is_stmt 0 view .LVU34
 106 0044 894A04   		movl	%ecx, 4(%edx)
 107              		.loc 1 149 3 is_stmt 1 view .LVU35
 108 0047 50       		pushl	%eax
 109              		.cfi_def_cfa_offset 32
 110 0048 E8FCFFFF 		call	chMtxObjectInit@PLT
 110      FF
 111              	.LVL5:
 112              		.loc 1 153 1 is_stmt 0 view .LVU36
 113 004d 83C414   		addl	$20, %esp
 114              		.cfi_def_cfa_offset 12
 115 0050 5B       		popl	%ebx
 116              		.cfi_restore 3
 117              		.cfi_def_cfa_offset 8
 118 0051 5E       		popl	%esi
 119              		.cfi_restore 6
 120              		.cfi_def_cfa_offset 4
 121              	.LVL6:
 122              		.loc 1 153 1 view .LVU37
 123 0052 C3       		ret
 124              		.cfi_endproc
 125              	.LFE139:
 126              		.size	chHeapObjectInit, .-chHeapObjectInit
 127              		.section	.text.chHeapAllocAligned,"ax",@progbits
 128              		.p2align 4,,15
 129              		.globl	chHeapAllocAligned
 130              		.type	chHeapAllocAligned, @function
 131              	chHeapAllocAligned:
 132              	.LVL7:
 133              	.LFB140:
 134              		.loc 1 172 77 is_stmt 1 view -0
 135              		.cfi_startproc
 136              		.loc 1 173 3 view .LVU39
 137              		.loc 1 174 3 view .LVU40
 138              		.loc 1 176 3 view .LVU41
 139              		.loc 1 176 3 view .LVU42
 140              		.loc 1 179 3 view .LVU43
 141              		.loc 1 172 77 is_stmt 0 view .LVU44
 142 0000 55       		pushl	%ebp
 143              		.cfi_def_cfa_offset 8
 144              		.cfi_offset 5, -8
 145 0001 57       		pushl	%edi
 146              		.cfi_def_cfa_offset 12
 147              		.cfi_offset 7, -12
 148 0002 56       		pushl	%esi
 149              		.cfi_def_cfa_offset 16
 150              		.cfi_offset 6, -16
 151 0003 53       		pushl	%ebx
 152              		.cfi_def_cfa_offset 20
 153              		.cfi_offset 3, -20
 154 0004 E8FCFFFF 		call	__x86.get_pc_thunk.bx
 154      FF
GAS LISTING /tmp/ccrDiXtt.s 			page 4


 155 0009 81C30200 		addl	$_GLOBAL_OFFSET_TABLE_, %ebx
 155      0000
 156 000f 83EC38   		subl	$56, %esp
 157              		.cfi_def_cfa_offset 76
 158              		.loc 1 180 11 view .LVU45
 159 0012 8B54244C 		movl	76(%esp), %edx
 160              		.loc 1 172 77 view .LVU46
 161 0016 8B442454 		movl	84(%esp), %eax
 162              		.loc 1 180 11 view .LVU47
 163 001a 85D2     		testl	%edx, %edx
 164 001c 8D930000 		leal	default_heap@GOTOFF(%ebx), %edx
 164      0000
 165 0022 0F455424 		cmovne	76(%esp), %edx
 165      4C
 166 0027 83F808   		cmpl	$8, %eax
 167 002a 895C2420 		movl	%ebx, 32(%esp)
 168 002e 8954244C 		movl	%edx, 76(%esp)
 169              	.LVL8:
 170              		.loc 1 184 3 is_stmt 1 view .LVU48
 171 0032 BA080000 		movl	$8, %edx
 171      00
 172              	.LVL9:
 173              		.loc 1 184 3 is_stmt 0 view .LVU49
 174 0037 89D6     		movl	%edx, %esi
 175 0039 0F43F0   		cmovnb	%eax, %esi
 176              		.loc 1 189 11 view .LVU50
 177 003c 8B442450 		movl	80(%esp), %eax
 178 0040 83C007   		addl	$7, %eax
 179 0043 89742428 		movl	%esi, 40(%esp)
 180              	.LVL10:
 181              		.loc 1 189 3 is_stmt 1 view .LVU51
 182              		.loc 1 189 9 is_stmt 0 view .LVU52
 183 0047 C1E803   		shrl	$3, %eax
 184 004a 8944241C 		movl	%eax, 28(%esp)
 185              	.LVL11:
 186              		.loc 1 192 3 is_stmt 1 view .LVU53
 187 004e 8B44244C 		movl	76(%esp), %eax
 188              	.LVL12:
 189              		.loc 1 192 3 is_stmt 0 view .LVU54
 190 0052 83C00C   		addl	$12, %eax
 191 0055 89442424 		movl	%eax, 36(%esp)
 192 0059 50       		pushl	%eax
 193              		.cfi_def_cfa_offset 80
 194 005a E8FCFFFF 		call	chMtxLock@PLT
 194      FF
 195              	.LVL13:
 196              		.loc 1 195 3 is_stmt 1 view .LVU55
 197              		.loc 1 195 6 is_stmt 0 view .LVU56
 198 005f 8B442450 		movl	80(%esp), %eax
 199              		.loc 1 196 9 view .LVU57
 200 0063 83C410   		addl	$16, %esp
 201              		.cfi_def_cfa_offset 64
 202              		.loc 1 195 6 view .LVU58
 203 0066 8D5804   		leal	4(%eax), %ebx
 204              	.LVL14:
 205              		.loc 1 196 3 is_stmt 1 view .LVU59
 206              		.loc 1 196 10 is_stmt 0 view .LVU60
GAS LISTING /tmp/ccrDiXtt.s 			page 5


 207 0069 8B13     		movl	(%ebx), %edx
 208              		.loc 1 202 28 view .LVU61
 209 006b 8D4607   		leal	7(%esi), %eax
 210 006e F7DE     		negl	%esi
 211              	.LVL15:
 212              		.loc 1 202 28 view .LVU62
 213 0070 89442408 		movl	%eax, 8(%esp)
 214 0074 8974240C 		movl	%esi, 12(%esp)
 215              		.loc 1 196 9 view .LVU63
 216 0078 85D2     		testl	%edx, %edx
 217 007a 7431     		je	.L20
 218 007c 8D742600 		.p2align 4,,10
 219              		.p2align 3
 220              	.L14:
 221              		.loc 1 199 5 is_stmt 1 view .LVU64
 222              	.LVL16:
 223              		.loc 1 202 5 view .LVU65
 224              		.loc 1 202 28 is_stmt 0 view .LVU66
 225 0080 8B442408 		movl	8(%esp), %eax
 226              		.loc 1 204 16 view .LVU67
 227 0084 8B6A04   		movl	4(%edx), %ebp
 228              		.loc 1 202 28 view .LVU68
 229 0087 01D0     		addl	%edx, %eax
 230 0089 2344240C 		andl	12(%esp), %eax
 231              		.loc 1 204 16 view .LVU69
 232 008d 8D4CEA08 		leal	8(%edx,%ebp,8), %ecx
 233              		.loc 1 202 63 view .LVU70
 234 0091 8D70F8   		leal	-8(%eax), %esi
 235              	.LVL17:
 236              		.loc 1 204 5 is_stmt 1 view .LVU71
 237              		.loc 1 204 8 is_stmt 0 view .LVU72
 238 0094 39F1     		cmpl	%esi, %ecx
 239 0096 760D     		jbe	.L9
 240              		.loc 1 204 42 discriminator 1 view .LVU73
 241 0098 89CF     		movl	%ecx, %edi
 242 009a 29C7     		subl	%eax, %edi
 243 009c C1FF03   		sarl	$3, %edi
 244              		.loc 1 204 29 discriminator 1 view .LVU74
 245 009f 3B7C2410 		cmpl	16(%esp), %edi
 246 00a3 7363     		jnb	.L21
 247              	.L9:
 248              	.LBB2:
 249              		.loc 1 243 22 view .LVU75
 250 00a5 89D3     		movl	%edx, %ebx
 251              	.LVL18:
 252              		.loc 1 243 22 view .LVU76
 253              	.LBE2:
 254              		.loc 1 196 10 view .LVU77
 255 00a7 8B13     		movl	(%ebx), %edx
 256              	.LVL19:
 257              		.loc 1 196 9 view .LVU78
 258 00a9 85D2     		testl	%edx, %edx
 259 00ab 75D3     		jne	.L14
 260              	.LVL20:
 261              	.L20:
 262              		.loc 1 264 3 is_stmt 1 view .LVU79
 263 00ad 83EC0C   		subl	$12, %esp
GAS LISTING /tmp/ccrDiXtt.s 			page 6


 264              		.cfi_def_cfa_offset 76
 265 00b0 FF742424 		pushl	36(%esp)
 266              		.cfi_def_cfa_offset 80
 267 00b4 8B5C2424 		movl	36(%esp), %ebx
 268              	.LVL21:
 269              		.loc 1 264 3 is_stmt 0 view .LVU80
 270 00b8 E8FCFFFF 		call	chMtxUnlock@PLT
 270      FF
 271              	.LVL22:
 272              		.loc 1 268 3 is_stmt 1 view .LVU81
 273              		.loc 1 268 12 is_stmt 0 view .LVU82
 274 00bd 8B442450 		movl	80(%esp), %eax
 275              		.loc 1 268 6 view .LVU83
 276 00c1 83C410   		addl	$16, %esp
 277              		.cfi_def_cfa_offset 64
 278              		.loc 1 268 12 view .LVU84
 279 00c4 8B00     		movl	(%eax), %eax
 280              		.loc 1 268 6 view .LVU85
 281 00c6 85C0     		testl	%eax, %eax
 282 00c8 0F84CB00 		je	.L15
 282      0000
 283              		.loc 1 269 5 is_stmt 1 view .LVU86
 284              		.loc 1 269 11 is_stmt 0 view .LVU87
 285 00ce 83EC04   		subl	$4, %esp
 286              		.cfi_def_cfa_offset 68
 287 00d1 6A08     		pushl	$8
 288              		.cfi_def_cfa_offset 72
 289 00d3 FF742424 		pushl	36(%esp)
 290              		.cfi_def_cfa_offset 76
 291 00d7 8B4C241C 		movl	28(%esp), %ecx
 292 00db 8D14CD08 		leal	8(,%ecx,8), %edx
 292      000000
 293 00e2 52       		pushl	%edx
 294              		.cfi_def_cfa_offset 80
 295 00e3 FFD0     		call	*%eax
 296              	.LVL23:
 297              		.loc 1 272 5 is_stmt 1 view .LVU88
 298              		.loc 1 272 8 is_stmt 0 view .LVU89
 299 00e5 83C410   		addl	$16, %esp
 300              		.cfi_def_cfa_offset 64
 301 00e8 85C0     		testl	%eax, %eax
 302 00ea 740E     		je	.L6
 303              		.loc 1 273 7 is_stmt 1 view .LVU90
 304              	.LVL24:
 305              		.loc 1 274 7 view .LVU91
 306              		.loc 1 274 18 is_stmt 0 view .LVU92
 307 00ec 8B4C2440 		movl	64(%esp), %ecx
 308 00f0 8948F8   		movl	%ecx, -8(%eax)
 309              		.loc 1 275 7 is_stmt 1 view .LVU93
 310              		.loc 1 275 18 is_stmt 0 view .LVU94
 311 00f3 8B4C2444 		movl	68(%esp), %ecx
 312 00f7 8948FC   		movl	%ecx, -4(%eax)
 313              		.loc 1 278 7 is_stmt 1 view .LVU95
 314              	.LVL25:
 315              	.L6:
 316              		.loc 1 284 1 is_stmt 0 view .LVU96
 317 00fa 83C42C   		addl	$44, %esp
GAS LISTING /tmp/ccrDiXtt.s 			page 7


 318              		.cfi_remember_state
 319              		.cfi_def_cfa_offset 20
 320 00fd 5B       		popl	%ebx
 321              		.cfi_restore 3
 322              		.cfi_def_cfa_offset 16
 323 00fe 5E       		popl	%esi
 324              		.cfi_restore 6
 325              		.cfi_def_cfa_offset 12
 326 00ff 5F       		popl	%edi
 327              		.cfi_restore 7
 328              		.cfi_def_cfa_offset 8
 329 0100 5D       		popl	%ebp
 330              		.cfi_restore 5
 331              		.cfi_def_cfa_offset 4
 332 0101 C3       		ret
 333              	.LVL26:
 334              		.p2align 4,,10
 335 0102 8DB60000 		.p2align 3
 335      0000
 336              	.L21:
 337              		.cfi_restore_state
 338              		.loc 1 208 7 is_stmt 1 view .LVU97
 339 0108 897C2408 		movl	%edi, 8(%esp)
 340 010c 8D7A08   		leal	8(%edx), %edi
 341              		.loc 1 208 10 is_stmt 0 view .LVU98
 342 010f 39F2     		cmpl	%esi, %edx
 343 0111 725D     		jb	.L22
 344              		.loc 1 232 9 is_stmt 1 view .LVU99
 345 0113 8B32     		movl	(%edx), %esi
 346              	.LVL27:
 347              		.loc 1 232 12 is_stmt 0 view .LVU100
 348 0115 3B6C2410 		cmpl	16(%esp), %ebp
 349 0119 0F848400 		je	.L23
 349      0000
 350              	.LBB3:
 351              		.loc 1 238 11 is_stmt 1 view .LVU101
 352              		.loc 1 240 11 view .LVU102
 353              		.loc 1 240 14 is_stmt 0 view .LVU103
 354 011f 8B442410 		movl	16(%esp), %eax
 355              	.LVL28:
 356              		.loc 1 240 14 view .LVU104
 357 0123 8D44C208 		leal	8(%edx,%eax,8), %eax
 358              	.LVL29:
 359              		.loc 1 241 11 is_stmt 1 view .LVU105
 360              		.loc 1 241 22 is_stmt 0 view .LVU106
 361 0127 8930     		movl	%esi, (%eax)
 362              		.loc 1 242 11 is_stmt 1 view .LVU107
 363              		.loc 1 242 25 is_stmt 0 view .LVU108
 364 0129 8D7008   		leal	8(%eax), %esi
 365 012c 29F1     		subl	%esi, %ecx
 366              		.loc 1 243 22 view .LVU109
 367 012e 89D6     		movl	%edx, %esi
 368              		.loc 1 242 25 view .LVU110
 369 0130 C1F903   		sarl	$3, %ecx
 370              		.loc 1 242 23 view .LVU111
 371 0133 894804   		movl	%ecx, 4(%eax)
 372              		.loc 1 243 11 is_stmt 1 view .LVU112
GAS LISTING /tmp/ccrDiXtt.s 			page 8


 373              		.loc 1 243 22 is_stmt 0 view .LVU113
 374 0136 8903     		movl	%eax, (%ebx)
 375 0138 89F8     		movl	%edi, %eax
 376              	.LVL30:
 377              	.L11:
 378              		.loc 1 243 22 view .LVU114
 379 013a 89442408 		movl	%eax, 8(%esp)
 380              	.LVL31:
 381              		.loc 1 243 22 view .LVU115
 382              	.LBE3:
 383              		.loc 1 248 7 is_stmt 1 view .LVU116
 384              		.loc 1 248 18 is_stmt 0 view .LVU117
 385 013e 8B442444 		movl	68(%esp), %eax
 386              		.loc 1 252 7 view .LVU118
 387 0142 83EC0C   		subl	$12, %esp
 388              		.cfi_def_cfa_offset 76
 389              		.loc 1 248 18 view .LVU119
 390 0145 894604   		movl	%eax, 4(%esi)
 391              		.loc 1 249 7 is_stmt 1 view .LVU120
 392              		.loc 1 249 18 is_stmt 0 view .LVU121
 393 0148 8B44244C 		movl	76(%esp), %eax
 394 014c 8906     		movl	%eax, (%esi)
 395              		.loc 1 252 7 is_stmt 1 view .LVU122
 396 014e FF742424 		pushl	36(%esp)
 397              		.cfi_def_cfa_offset 80
 398 0152 8B5C2424 		movl	36(%esp), %ebx
 399 0156 E8FCFFFF 		call	chMtxUnlock@PLT
 399      FF
 400              	.LVL32:
 401              		.loc 1 255 7 view .LVU123
 402              		.loc 1 255 14 is_stmt 0 view .LVU124
 403 015b 83C410   		addl	$16, %esp
 404              		.cfi_def_cfa_offset 64
 405 015e 8B442408 		movl	8(%esp), %eax
 406              		.loc 1 284 1 view .LVU125
 407 0162 83C42C   		addl	$44, %esp
 408              		.cfi_remember_state
 409              		.cfi_def_cfa_offset 20
 410 0165 5B       		popl	%ebx
 411              		.cfi_restore 3
 412              		.cfi_def_cfa_offset 16
 413 0166 5E       		popl	%esi
 414              		.cfi_restore 6
 415              		.cfi_def_cfa_offset 12
 416              	.LVL33:
 417              		.loc 1 284 1 view .LVU126
 418 0167 5F       		popl	%edi
 419              		.cfi_restore 7
 420              		.cfi_def_cfa_offset 8
 421 0168 5D       		popl	%ebp
 422              		.cfi_restore 5
 423              		.cfi_def_cfa_offset 4
 424 0169 C3       		ret
 425              	.LVL34:
 426 016a 8DB60000 		.p2align 4,,10
 426      0000
 427              		.p2align 3
GAS LISTING /tmp/ccrDiXtt.s 			page 9


 428              	.L22:
 429              		.cfi_restore_state
 430              	.LBB4:
 431              		.loc 1 210 9 is_stmt 1 view .LVU127
 432              		.loc 1 212 9 view .LVU128
 433              		.loc 1 213 9 view .LVU129
 434              		.loc 1 213 23 is_stmt 0 view .LVU130
 435 0170 89F1     		movl	%esi, %ecx
 436 0172 29F9     		subl	%edi, %ecx
 437              		.loc 1 214 12 view .LVU131
 438 0174 8B7C2408 		movl	8(%esp), %edi
 439              		.loc 1 213 23 view .LVU132
 440 0178 C1F903   		sarl	$3, %ecx
 441              		.loc 1 213 21 view .LVU133
 442 017b 894A04   		movl	%ecx, 4(%edx)
 443              		.loc 1 214 9 is_stmt 1 view .LVU134
 444              		.loc 1 214 12 is_stmt 0 view .LVU135
 445 017e 8B4C2410 		movl	16(%esp), %ecx
 446 0182 39CF     		cmpl	%ecx, %edi
 447 0184 76B4     		jbe	.L11
 448              	.LBB5:
 449              		.loc 1 216 11 is_stmt 1 view .LVU136
 450              		.loc 1 219 11 view .LVU137
 451              		.loc 1 219 14 is_stmt 0 view .LVU138
 452 0186 8D5CCE08 		leal	8(%esi,%ecx,8), %ebx
 453              	.LVL35:
 454              		.loc 1 220 11 is_stmt 1 view .LVU139
 455              		.loc 1 220 42 is_stmt 0 view .LVU140
 456 018a F7D1     		notl	%ecx
 457 018c 01F9     		addl	%edi, %ecx
 458 018e 894B04   		movl	%ecx, 4(%ebx)
 459              		.loc 1 223 11 is_stmt 1 view .LVU141
 460              		.loc 1 223 24 is_stmt 0 view .LVU142
 461 0191 8B0A     		movl	(%edx), %ecx
 462              		.loc 1 223 22 view .LVU143
 463 0193 890B     		movl	%ecx, (%ebx)
 464              		.loc 1 224 11 is_stmt 1 view .LVU144
 465              		.loc 1 224 22 is_stmt 0 view .LVU145
 466 0195 891A     		movl	%ebx, (%edx)
 467 0197 EBA1     		jmp	.L11
 468              	.LVL36:
 469              	.L15:
 470              		.loc 1 224 22 view .LVU146
 471              	.LBE5:
 472              	.LBE4:
 473              		.loc 1 284 1 view .LVU147
 474 0199 83C42C   		addl	$44, %esp
 475              		.cfi_remember_state
 476              		.cfi_def_cfa_offset 20
 477              		.loc 1 283 10 view .LVU148
 478 019c 31C0     		xorl	%eax, %eax
 479              		.loc 1 284 1 view .LVU149
 480 019e 5B       		popl	%ebx
 481              		.cfi_restore 3
 482              		.cfi_def_cfa_offset 16
 483 019f 5E       		popl	%esi
 484              		.cfi_restore 6
GAS LISTING /tmp/ccrDiXtt.s 			page 10


 485              		.cfi_def_cfa_offset 12
 486 01a0 5F       		popl	%edi
 487              		.cfi_restore 7
 488              		.cfi_def_cfa_offset 8
 489 01a1 5D       		popl	%ebp
 490              		.cfi_restore 5
 491              		.cfi_def_cfa_offset 4
 492 01a2 C3       		ret
 493              	.LVL37:
 494              	.L23:
 495              		.cfi_restore_state
 496              		.loc 1 234 11 is_stmt 1 view .LVU150
 497              		.loc 1 234 22 is_stmt 0 view .LVU151
 498 01a3 8933     		movl	%esi, (%ebx)
 499 01a5 89F8     		movl	%edi, %eax
 500              	.LVL38:
 501              		.loc 1 234 22 view .LVU152
 502 01a7 89D6     		movl	%edx, %esi
 503 01a9 EB8F     		jmp	.L11
 504              		.cfi_endproc
 505              	.LFE140:
 506              		.size	chHeapAllocAligned, .-chHeapAllocAligned
 507              		.section	.text.chHeapFree,"ax",@progbits
 508              		.p2align 4,,15
 509              		.globl	chHeapFree
 510              		.type	chHeapFree, @function
 511              	chHeapFree:
 512              	.LVL39:
 513              	.LFB141:
 514              		.loc 1 293 26 is_stmt 1 view -0
 515              		.cfi_startproc
 516              		.loc 1 294 3 view .LVU154
 517              		.loc 1 295 3 view .LVU155
 518              		.loc 1 297 3 view .LVU156
 519              		.loc 1 297 3 view .LVU157
 520              		.loc 1 300 3 view .LVU158
 521              		.loc 1 293 26 is_stmt 0 view .LVU159
 522 0000 55       		pushl	%ebp
 523              		.cfi_def_cfa_offset 8
 524              		.cfi_offset 5, -8
 525 0001 57       		pushl	%edi
 526              		.cfi_def_cfa_offset 12
 527              		.cfi_offset 7, -12
 528 0002 56       		pushl	%esi
 529              		.cfi_def_cfa_offset 16
 530              		.cfi_offset 6, -16
 531 0003 53       		pushl	%ebx
 532              		.cfi_def_cfa_offset 20
 533              		.cfi_offset 3, -20
 534 0004 E8FCFFFF 		call	__x86.get_pc_thunk.bx
 534      FF
 535 0009 81C30200 		addl	$_GLOBAL_OFFSET_TABLE_, %ebx
 535      0000
 536 000f 83EC28   		subl	$40, %esp
 537              		.cfi_def_cfa_offset 60
 538              		.loc 1 293 26 view .LVU160
 539 0012 8B7C243C 		movl	60(%esp), %edi
GAS LISTING /tmp/ccrDiXtt.s 			page 11


 540              		.loc 1 306 17 view .LVU161
 541 0016 8B47FC   		movl	-4(%edi), %eax
 542              		.loc 1 302 9 view .LVU162
 543 0019 8B6FF8   		movl	-8(%edi), %ebp
 544              		.loc 1 300 6 view .LVU163
 545 001c 8D77F8   		leal	-8(%edi), %esi
 546              	.LVL40:
 547              		.loc 1 302 3 is_stmt 1 view .LVU164
 548              		.loc 1 303 3 view .LVU165
 549              		.loc 1 306 17 is_stmt 0 view .LVU166
 550 001f 83C007   		addl	$7, %eax
 551              		.loc 1 303 6 view .LVU167
 552 0022 8D5504   		leal	4(%ebp), %edx
 553              		.loc 1 310 3 view .LVU168
 554 0025 83C50C   		addl	$12, %ebp
 555              	.LVL41:
 556              		.loc 1 307 51 view .LVU169
 557 0028 C1E803   		shrl	$3, %eax
 558              		.loc 1 303 6 view .LVU170
 559 002b 89542418 		movl	%edx, 24(%esp)
 560              	.LVL42:
 561              		.loc 1 306 3 is_stmt 1 view .LVU171
 562              		.loc 1 307 51 is_stmt 0 view .LVU172
 563 002f 8947FC   		movl	%eax, -4(%edi)
 564              		.loc 1 310 3 is_stmt 1 view .LVU173
 565 0032 55       		pushl	%ebp
 566              		.cfi_def_cfa_offset 64
 567              	.LVL43:
 568              		.loc 1 310 3 is_stmt 0 view .LVU174
 569 0033 E8FCFFFF 		call	chMtxLock@PLT
 569      FF
 570              	.LVL44:
 571              		.loc 1 310 3 view .LVU175
 572 0038 83C410   		addl	$16, %esp
 573              		.cfi_def_cfa_offset 48
 574              		.loc 1 303 6 view .LVU176
 575 003b 8B54240C 		movl	12(%esp), %edx
 576 003f 89D0     		movl	%edx, %eax
 577              	.LVL45:
 578              		.p2align 4,,10
 579 0041 8DB42600 		.p2align 3
 579      000000
 580              	.L25:
 581              		.loc 1 312 3 is_stmt 1 view .LVU177
 582              		.loc 1 313 5 view .LVU178
 583              		.loc 1 313 5 view .LVU179
 584              		.loc 1 315 5 view .LVU180
 585 0048 8B08     		movl	(%eax), %ecx
 586              		.loc 1 315 33 is_stmt 0 view .LVU181
 587 004a 39C6     		cmpl	%eax, %esi
 588 004c 7704     		ja	.L31
 589 004e 39D0     		cmpl	%edx, %eax
 590 0050 7508     		jne	.L26
 591              	.L31:
 592              		.loc 1 315 47 discriminator 3 view .LVU182
 593 0052 85C9     		testl	%ecx, %ecx
 594 0054 740A     		je	.L28
GAS LISTING /tmp/ccrDiXtt.s 			page 12


 595              		.loc 1 316 31 view .LVU183
 596 0056 39CE     		cmpl	%ecx, %esi
 597 0058 7206     		jb	.L28
 598              	.L26:
 599              		.loc 1 293 26 view .LVU184
 600 005a 89C8     		movl	%ecx, %eax
 601              	.LVL46:
 602              		.loc 1 293 26 view .LVU185
 603 005c EBEA     		jmp	.L25
 604              	.LVL47:
 605 005e 6690     		.p2align 4,,10
 606              		.p2align 3
 607              	.L28:
 608              		.loc 1 318 7 is_stmt 1 view .LVU186
 609              		.loc 1 321 11 is_stmt 0 view .LVU187
 610 0060 8B57FC   		movl	-4(%edi), %edx
 611              		.loc 1 318 18 view .LVU188
 612 0063 894FF8   		movl	%ecx, -8(%edi)
 613              		.loc 1 319 7 is_stmt 1 view .LVU189
 614              		.loc 1 319 18 is_stmt 0 view .LVU190
 615 0066 8930     		movl	%esi, (%eax)
 616              		.loc 1 321 7 is_stmt 1 view .LVU191
 617              		.loc 1 321 26 is_stmt 0 view .LVU192
 618 0068 8B4FF8   		movl	-8(%edi), %ecx
 619              		.loc 1 321 11 view .LVU193
 620 006b 83C201   		addl	$1, %edx
 621              		.loc 1 321 26 view .LVU194
 622 006e 894C240C 		movl	%ecx, 12(%esp)
 623              		.loc 1 321 11 view .LVU195
 624 0072 8D0CD6   		leal	(%esi,%edx,8), %ecx
 625              		.loc 1 321 10 view .LVU196
 626 0075 394C240C 		cmpl	%ecx, 12(%esp)
 627 0079 7425     		je	.L39
 628              		.loc 1 326 7 is_stmt 1 view .LVU197
 629              		.loc 1 326 12 is_stmt 0 view .LVU198
 630 007b 8B5004   		movl	4(%eax), %edx
 631 007e 8D4CD008 		leal	8(%eax,%edx,8), %ecx
 632              		.loc 1 326 10 view .LVU199
 633 0082 39CE     		cmpl	%ecx, %esi
 634 0084 7434     		je	.L40
 635              	.L30:
 636              		.loc 1 331 7 is_stmt 1 view .LVU200
 637              		.loc 1 337 3 view .LVU201
 638 0086 83EC0C   		subl	$12, %esp
 639              		.cfi_def_cfa_offset 60
 640 0089 55       		pushl	%ebp
 641              		.cfi_def_cfa_offset 64
 642 008a E8FCFFFF 		call	chMtxUnlock@PLT
 642      FF
 643              	.LVL48:
 644              		.loc 1 339 3 view .LVU202
 645              		.loc 1 340 1 is_stmt 0 view .LVU203
 646 008f 83C42C   		addl	$44, %esp
 647              		.cfi_def_cfa_offset 20
 648 0092 5B       		popl	%ebx
 649              		.cfi_restore 3
 650              		.cfi_def_cfa_offset 16
GAS LISTING /tmp/ccrDiXtt.s 			page 13


 651 0093 5E       		popl	%esi
 652              		.cfi_restore 6
 653              		.cfi_def_cfa_offset 12
 654              	.LVL49:
 655              		.loc 1 340 1 view .LVU204
 656 0094 5F       		popl	%edi
 657              		.cfi_restore 7
 658              		.cfi_def_cfa_offset 8
 659              	.LVL50:
 660              		.loc 1 340 1 view .LVU205
 661 0095 5D       		popl	%ebp
 662              		.cfi_restore 5
 663              		.cfi_def_cfa_offset 4
 664              	.LVL51:
 665              		.loc 1 340 1 view .LVU206
 666 0096 C3       		ret
 667              	.LVL52:
 668 0097 8DB42600 		.p2align 4,,10
 668      00000066 
 668      90
 669              		.p2align 3
 670              	.L39:
 671              		.cfi_def_cfa_offset 48
 672              		.cfi_offset 3, -20
 673              		.cfi_offset 5, -8
 674              		.cfi_offset 6, -16
 675              		.cfi_offset 7, -12
 676              		.loc 1 323 9 is_stmt 1 view .LVU207
 677              		.loc 1 323 21 is_stmt 0 view .LVU208
 678 00a0 8B4C240C 		movl	12(%esp), %ecx
 679 00a4 035104   		addl	4(%ecx), %edx
 680 00a7 8957FC   		movl	%edx, -4(%edi)
 681              		.loc 1 324 9 is_stmt 1 view .LVU209
 682              		.loc 1 324 22 is_stmt 0 view .LVU210
 683 00aa 8B11     		movl	(%ecx), %edx
 684              		.loc 1 324 20 view .LVU211
 685 00ac 8957F8   		movl	%edx, -8(%edi)
 686              		.loc 1 326 7 is_stmt 1 view .LVU212
 687              		.loc 1 326 12 is_stmt 0 view .LVU213
 688 00af 8B5004   		movl	4(%eax), %edx
 689 00b2 8D4CD008 		leal	8(%eax,%edx,8), %ecx
 690              		.loc 1 326 10 view .LVU214
 691 00b6 39CE     		cmpl	%ecx, %esi
 692 00b8 75CC     		jne	.L30
 693              	.L40:
 694              		.loc 1 328 9 is_stmt 1 view .LVU215
 695              		.loc 1 328 21 is_stmt 0 view .LVU216
 696 00ba 8B4FFC   		movl	-4(%edi), %ecx
 697 00bd 8D540A01 		leal	1(%edx,%ecx), %edx
 698 00c1 895004   		movl	%edx, 4(%eax)
 699              		.loc 1 329 9 is_stmt 1 view .LVU217
 700              		.loc 1 329 22 is_stmt 0 view .LVU218
 701 00c4 8B57F8   		movl	-8(%edi), %edx
 702              		.loc 1 329 20 view .LVU219
 703 00c7 8910     		movl	%edx, (%eax)
 704 00c9 EBBB     		jmp	.L30
 705              		.cfi_endproc
GAS LISTING /tmp/ccrDiXtt.s 			page 14


 706              	.LFE141:
 707              		.size	chHeapFree, .-chHeapFree
 708              		.section	.text.chHeapStatus,"ax",@progbits
 709              		.p2align 4,,15
 710              		.globl	chHeapStatus
 711              		.type	chHeapStatus, @function
 712              	chHeapStatus:
 713              	.LVL53:
 714              	.LFB142:
 715              		.loc 1 357 77 is_stmt 1 view -0
 716              		.cfi_startproc
 717              		.loc 1 358 3 view .LVU221
 718              		.loc 1 359 3 view .LVU222
 719              		.loc 1 361 3 view .LVU223
 720              		.loc 1 357 77 is_stmt 0 view .LVU224
 721 0000 55       		pushl	%ebp
 722              		.cfi_def_cfa_offset 8
 723              		.cfi_offset 5, -8
 724 0001 57       		pushl	%edi
 725              		.cfi_def_cfa_offset 12
 726              		.cfi_offset 7, -12
 727 0002 56       		pushl	%esi
 728              		.cfi_def_cfa_offset 16
 729              		.cfi_offset 6, -16
 730 0003 53       		pushl	%ebx
 731              		.cfi_def_cfa_offset 20
 732              		.cfi_offset 3, -20
 733 0004 E8FCFFFF 		call	__x86.get_pc_thunk.bx
 733      FF
 734 0009 81C30200 		addl	$_GLOBAL_OFFSET_TABLE_, %ebx
 734      0000
 735 000f 83EC28   		subl	$40, %esp
 736              		.cfi_def_cfa_offset 60
 737              		.loc 1 357 77 view .LVU225
 738 0012 8B74243C 		movl	60(%esp), %esi
 739              		.loc 1 362 11 view .LVU226
 740 0016 85F6     		testl	%esi, %esi
 741 0018 8D830000 		leal	default_heap@GOTOFF(%ebx), %eax
 741      0000
 742 001e 0F44F0   		cmove	%eax, %esi
 743              	.LVL54:
 744              		.loc 1 365 3 is_stmt 1 view .LVU227
 745              		.loc 1 366 10 is_stmt 0 view .LVU228
 746 0021 31FF     		xorl	%edi, %edi
 747              		.loc 1 368 5 view .LVU229
 748 0023 31ED     		xorl	%ebp, %ebp
 749              		.loc 1 365 3 view .LVU230
 750 0025 8D460C   		leal	12(%esi), %eax
 751 0028 50       		pushl	%eax
 752              		.cfi_def_cfa_offset 64
 753 0029 8944241C 		movl	%eax, 28(%esp)
 754 002d E8FCFFFF 		call	chMtxLock@PLT
 754      FF
 755              	.LVL55:
 756              		.loc 1 366 3 is_stmt 1 view .LVU231
 757              		.loc 1 367 3 view .LVU232
 758              		.loc 1 368 3 view .LVU233
GAS LISTING /tmp/ccrDiXtt.s 			page 15


 759              		.loc 1 369 3 view .LVU234
 760              		.loc 1 370 3 view .LVU235
 761              		.loc 1 370 10 is_stmt 0 view .LVU236
 762 0032 8B5604   		movl	4(%esi), %edx
 763              		.loc 1 370 9 view .LVU237
 764 0035 83C410   		addl	$16, %esp
 765              		.cfi_def_cfa_offset 48
 766              		.loc 1 367 10 view .LVU238
 767 0038 31F6     		xorl	%esi, %esi
 768              	.LVL56:
 769              		.loc 1 370 9 view .LVU239
 770 003a 8B44240C 		movl	12(%esp), %eax
 771 003e 85D2     		testl	%edx, %edx
 772 0040 7419     		je	.L43
 773              	.LVL57:
 774              		.p2align 4,,10
 775 0042 8DB60000 		.p2align 3
 775      0000
 776              	.L44:
 777              	.LBB6:
 778              		.loc 1 371 5 is_stmt 1 view .LVU240
 779              		.loc 1 371 12 is_stmt 0 view .LVU241
 780 0048 8B4A04   		movl	4(%edx), %ecx
 781              	.LVL58:
 782              		.loc 1 374 5 is_stmt 1 view .LVU242
 783              	.LBE6:
 784              		.loc 1 370 10 is_stmt 0 view .LVU243
 785 004b 8B12     		movl	(%edx), %edx
 786              	.LBB7:
 787              		.loc 1 374 6 view .LVU244
 788 004d 83C501   		addl	$1, %ebp
 789              	.LVL59:
 790              		.loc 1 375 5 is_stmt 1 view .LVU245
 791              		.loc 1 375 12 is_stmt 0 view .LVU246
 792 0050 01CF     		addl	%ecx, %edi
 793              	.LVL60:
 794              		.loc 1 376 5 is_stmt 1 view .LVU247
 795 0052 39CE     		cmpl	%ecx, %esi
 796 0054 0F42F1   		cmovb	%ecx, %esi
 797              	.LVL61:
 798              		.loc 1 376 5 is_stmt 0 view .LVU248
 799              	.LBE7:
 800              		.loc 1 370 9 view .LVU249
 801 0057 85D2     		testl	%edx, %edx
 802 0059 75ED     		jne	.L44
 803              	.LVL62:
 804              	.L43:
 805              		.loc 1 384 3 is_stmt 1 view .LVU250
 806              		.loc 1 384 6 is_stmt 0 view .LVU251
 807 005b 8B4C2434 		movl	52(%esp), %ecx
 808 005f 85C9     		testl	%ecx, %ecx
 809 0061 7409     		je	.L45
 810              		.loc 1 385 5 is_stmt 1 view .LVU252
 811              		.loc 1 385 22 is_stmt 0 view .LVU253
 812 0063 8B542434 		movl	52(%esp), %edx
 813 0067 C1E703   		sall	$3, %edi
 814 006a 893A     		movl	%edi, (%edx)
GAS LISTING /tmp/ccrDiXtt.s 			page 16


 815              	.L45:
 816              		.loc 1 389 3 is_stmt 1 view .LVU254
 817              		.loc 1 389 6 is_stmt 0 view .LVU255
 818 006c 8B542438 		movl	56(%esp), %edx
 819 0070 85D2     		testl	%edx, %edx
 820 0072 7409     		je	.L46
 821              		.loc 1 390 5 is_stmt 1 view .LVU256
 822              		.loc 1 390 24 is_stmt 0 view .LVU257
 823 0074 8B7C2438 		movl	56(%esp), %edi
 824 0078 C1E603   		sall	$3, %esi
 825 007b 8937     		movl	%esi, (%edi)
 826              	.L46:
 827              		.loc 1 392 3 is_stmt 1 view .LVU258
 828 007d 83EC0C   		subl	$12, %esp
 829              		.cfi_def_cfa_offset 60
 830 0080 50       		pushl	%eax
 831              		.cfi_def_cfa_offset 64
 832 0081 E8FCFFFF 		call	chMtxUnlock@PLT
 832      FF
 833              	.LVL63:
 834              		.loc 1 394 3 view .LVU259
 835              		.loc 1 395 1 is_stmt 0 view .LVU260
 836 0086 83C42C   		addl	$44, %esp
 837              		.cfi_def_cfa_offset 20
 838 0089 89E8     		movl	%ebp, %eax
 839 008b 5B       		popl	%ebx
 840              		.cfi_restore 3
 841              		.cfi_def_cfa_offset 16
 842 008c 5E       		popl	%esi
 843              		.cfi_restore 6
 844              		.cfi_def_cfa_offset 12
 845 008d 5F       		popl	%edi
 846              		.cfi_restore 7
 847              		.cfi_def_cfa_offset 8
 848 008e 5D       		popl	%ebp
 849              		.cfi_restore 5
 850              		.cfi_def_cfa_offset 4
 851 008f C3       		ret
 852              		.cfi_endproc
 853              	.LFE142:
 854              		.size	chHeapStatus, .-chHeapStatus
 855              		.section	.bss.default_heap,"aw",@nobits
 856              		.align 4
 857              		.type	default_heap, @object
 858              		.size	default_heap, 28
 859              	default_heap:
 860 0000 00000000 		.zero	28
 860      00000000 
 860      00000000 
 860      00000000 
 860      00000000 
 861              		.section	.text.__x86.get_pc_thunk.bx,"axG",@progbits,__x86.get_pc_thunk.bx,comdat
 862              		.globl	__x86.get_pc_thunk.bx
 863              		.hidden	__x86.get_pc_thunk.bx
 864              		.type	__x86.get_pc_thunk.bx, @function
 865              	__x86.get_pc_thunk.bx:
 866              	.LFB143:
GAS LISTING /tmp/ccrDiXtt.s 			page 17


 867              		.cfi_startproc
 868 0000 8B1C24   		movl	(%esp), %ebx
 869 0003 C3       		ret
 870              		.cfi_endproc
 871              	.LFE143:
 872              		.text
 873              	.Letext0:
 874              		.file 2 "/usr/lib/gcc/x86_64-linux-gnu/8/include/stddef.h"
 875              		.file 3 "/usr/include/i386-linux-gnu/bits/types.h"
 876              		.file 4 "/usr/include/i386-linux-gnu/bits/stdint-intn.h"
 877              		.file 5 "/usr/include/i386-linux-gnu/bits/stdint-uintn.h"
 878              		.file 6 "../../../os/common/ports/SIMIA32/compilers/GCC/chtypes.h"
 879              		.file 7 "../../../os/rt/include/chsystypes.h"
 880              		.file 8 "../../../os/rt/include/chschd.h"
 881              		.file 9 "../../../os/rt/include/chtime.h"
 882              		.file 10 "../../../os/common/ports/SIMIA32/chcore.h"
 883              		.file 11 "../../../os/rt/include/chtm.h"
 884              		.file 12 "../../../os/rt/include/chsem.h"
 885              		.file 13 "../../../os/rt/include/chmtx.h"
 886              		.file 14 "../../../os/rt/include/chsys.h"
 887              		.file 15 "../../../os/rt/include/chregistry.h"
 888              		.file 16 "../../../os/common/oslib/include/chmemcore.h"
 889              		.file 17 "../../../os/common/oslib/include/chheap.h"
 890              		.file 18 "../../../os/common/oslib/include/chmempools.h"
 891              		.file 19 "../../../os/common/oslib/include/chfactory.h"
 4457              		.section	.note.GNU-stack,"",@progbits
GAS LISTING /tmp/ccrDiXtt.s 			page 87

