GAS LISTING /tmp/ccjtbjGp.s 			page 1


   1              		.file	"chmboxes.c"
   2              		.text
   3              	.Ltext0:
   4              		.section	.text.chMBObjectInit,"ax",@progbits
   5              		.p2align 4,,15
   6              		.globl	chMBObjectInit
   7              		.type	chMBObjectInit, @function
   8              	chMBObjectInit:
   9              	.LVL0:
  10              	.LFB138:
  11              		.file 1 "../../../os/common/oslib/src/chmboxes.c"
  12              		.loc 1 87 59 view -0
  13              		.cfi_startproc
  14              		.loc 1 89 3 view .LVU1
  15              		.loc 1 89 3 view .LVU2
  16              		.loc 1 91 3 view .LVU3
  17              		.loc 1 87 59 is_stmt 0 view .LVU4
  18 0000 8B442404 		movl	4(%esp), %eax
  19 0004 8B542408 		movl	8(%esp), %edx
  20              		.loc 1 94 17 view .LVU5
  21 0008 8B4C240C 		movl	12(%esp), %ecx
  22              		.loc 1 91 15 view .LVU6
  23 000c 8910     		movl	%edx, (%eax)
  24              		.loc 1 92 3 is_stmt 1 view .LVU7
  25              		.loc 1 92 15 is_stmt 0 view .LVU8
  26 000e 89500C   		movl	%edx, 12(%eax)
  27              		.loc 1 93 3 is_stmt 1 view .LVU9
  28              		.loc 1 93 15 is_stmt 0 view .LVU10
  29 0011 895008   		movl	%edx, 8(%eax)
  30              		.loc 1 94 3 is_stmt 1 view .LVU11
  31              		.loc 1 94 17 is_stmt 0 view .LVU12
  32 0014 8D148A   		leal	(%edx,%ecx,4), %edx
  33 0017 895004   		movl	%edx, 4(%eax)
  34              		.loc 1 95 3 is_stmt 1 view .LVU13
  35              		.loc 1 97 3 is_stmt 0 view .LVU14
  36 001a 8D5018   		leal	24(%eax), %edx
  37              	.LBB82:
  38              	.LBB83:
  39              	.LBB84:
  40              		.file 2 "../../../os/rt/include/chschd.h"
  41              		.loc 2 539 13 view .LVU15
  42 001d 895018   		movl	%edx, 24(%eax)
  43              		.loc 2 540 13 view .LVU16
  44 0020 89501C   		movl	%edx, 28(%eax)
  45              	.LBE84:
  46              	.LBE83:
  47              	.LBE82:
  48              		.loc 1 98 3 view .LVU17
  49 0023 8D5020   		leal	32(%eax), %edx
  50              		.loc 1 95 15 view .LVU18
  51 0026 C7401000 		movl	$0, 16(%eax)
  51      000000
  52              		.loc 1 96 3 is_stmt 1 view .LVU19
  53              		.loc 1 96 15 is_stmt 0 view .LVU20
  54 002d C6401400 		movb	$0, 20(%eax)
  55              		.loc 1 97 3 is_stmt 1 view .LVU21
  56              	.LBB87:
GAS LISTING /tmp/ccjtbjGp.s 			page 2


  57              	.LBI82:
  58              		.file 3 "../../../os/rt/include/chthreads.h"
  59              		.loc 3 392 20 view .LVU22
  60              	.LBE87:
  61              		.loc 3 394 3 view .LVU23
  62              	.LBB88:
  63              	.LBB86:
  64              	.LBI83:
  65              		.loc 2 537 20 view .LVU24
  66              	.LBB85:
  67              		.loc 2 539 3 view .LVU25
  68              		.loc 2 540 3 view .LVU26
  69              	.LBE85:
  70              	.LBE86:
  71              	.LBE88:
  72              		.loc 1 98 3 view .LVU27
  73              	.LVL1:
  74              	.LBB89:
  75              	.LBI89:
  76              		.loc 3 392 20 view .LVU28
  77              	.LBE89:
  78              		.loc 3 394 3 view .LVU29
  79              	.LBB92:
  80              	.LBB90:
  81              	.LBI90:
  82              		.loc 2 537 20 view .LVU30
  83              	.LBB91:
  84              		.loc 2 539 3 view .LVU31
  85              		.loc 2 539 13 is_stmt 0 view .LVU32
  86 0031 895020   		movl	%edx, 32(%eax)
  87              		.loc 2 540 3 is_stmt 1 view .LVU33
  88              		.loc 2 540 13 is_stmt 0 view .LVU34
  89 0034 895024   		movl	%edx, 36(%eax)
  90              	.LVL2:
  91              		.loc 2 540 13 view .LVU35
  92              	.LBE91:
  93              	.LBE90:
  94              	.LBE92:
  95              		.loc 1 99 1 view .LVU36
  96 0037 C3       		ret
  97              		.cfi_endproc
  98              	.LFE138:
  99              		.size	chMBObjectInit, .-chMBObjectInit
 100              		.section	.text.chMBResetI,"ax",@progbits
 101              		.p2align 4,,15
 102              		.globl	chMBResetI
 103              		.type	chMBResetI, @function
 104              	chMBResetI:
 105              	.LVL3:
 106              	.LFB140:
 107              		.loc 1 133 33 is_stmt 1 view -0
 108              		.cfi_startproc
 109              		.loc 1 135 21 view .LVU38
 110              		.loc 1 136 3 view .LVU39
 111              		.loc 1 136 3 view .LVU40
 112              		.loc 1 138 3 view .LVU41
 113              		.loc 1 133 33 is_stmt 0 view .LVU42
GAS LISTING /tmp/ccjtbjGp.s 			page 3


 114 0000 56       		pushl	%esi
 115              		.cfi_def_cfa_offset 8
 116              		.cfi_offset 6, -8
 117 0001 53       		pushl	%ebx
 118              		.cfi_def_cfa_offset 12
 119              		.cfi_offset 3, -12
 120 0002 E8FCFFFF 		call	__x86.get_pc_thunk.bx
 120      FF
 121 0007 81C30200 		addl	$_GLOBAL_OFFSET_TABLE_, %ebx
 121      0000
 122 000d 83EC0C   		subl	$12, %esp
 123              		.cfi_def_cfa_offset 24
 124              		.loc 1 133 33 view .LVU43
 125 0010 8B742418 		movl	24(%esp), %esi
 126              		.loc 1 138 19 view .LVU44
 127 0014 8B06     		movl	(%esi), %eax
 128              		.loc 1 140 14 view .LVU45
 129 0016 C7461000 		movl	$0, 16(%esi)
 129      000000
 130              		.loc 1 141 14 view .LVU46
 131 001d C6461401 		movb	$1, 20(%esi)
 132              		.loc 1 138 14 view .LVU47
 133 0021 894608   		movl	%eax, 8(%esi)
 134              		.loc 1 139 3 is_stmt 1 view .LVU48
 135              		.loc 1 139 14 is_stmt 0 view .LVU49
 136 0024 89460C   		movl	%eax, 12(%esi)
 137              		.loc 1 140 3 is_stmt 1 view .LVU50
 138              		.loc 1 141 3 view .LVU51
 139              		.loc 1 142 3 view .LVU52
 140 0027 8D4618   		leal	24(%esi), %eax
 141              		.loc 1 143 3 is_stmt 0 view .LVU53
 142 002a 83C620   		addl	$32, %esi
 143              		.loc 1 142 3 view .LVU54
 144 002d 6AFE     		pushl	$-2
 145              		.cfi_def_cfa_offset 28
 146 002f 50       		pushl	%eax
 147              		.cfi_def_cfa_offset 32
 148 0030 E8FCFFFF 		call	chThdDequeueAllI@PLT
 148      FF
 149              	.LVL4:
 150              		.loc 1 143 3 is_stmt 1 view .LVU55
 151 0035 58       		popl	%eax
 152              		.cfi_def_cfa_offset 28
 153 0036 5A       		popl	%edx
 154              		.cfi_def_cfa_offset 24
 155 0037 6AFE     		pushl	$-2
 156              		.cfi_def_cfa_offset 28
 157 0039 56       		pushl	%esi
 158              		.cfi_def_cfa_offset 32
 159 003a E8FCFFFF 		call	chThdDequeueAllI@PLT
 159      FF
 160              	.LVL5:
 161              		.loc 1 144 1 is_stmt 0 view .LVU56
 162 003f 83C414   		addl	$20, %esp
 163              		.cfi_def_cfa_offset 12
 164 0042 5B       		popl	%ebx
 165              		.cfi_restore 3
GAS LISTING /tmp/ccjtbjGp.s 			page 4


 166              		.cfi_def_cfa_offset 8
 167 0043 5E       		popl	%esi
 168              		.cfi_restore 6
 169              		.cfi_def_cfa_offset 4
 170 0044 C3       		ret
 171              		.cfi_endproc
 172              	.LFE140:
 173              		.size	chMBResetI, .-chMBResetI
 174              		.section	.text.chMBReset,"ax",@progbits
 175              		.p2align 4,,15
 176              		.globl	chMBReset
 177              		.type	chMBReset, @function
 178              	chMBReset:
 179              	.LVL6:
 180              	.LFB139:
 181              		.loc 1 113 32 is_stmt 1 view -0
 182              		.cfi_startproc
 183              		.loc 1 115 3 view .LVU58
 184              	.LBB93:
 185              	.LBI93:
 186              		.file 4 "../../../os/rt/include/chsys.h"
 187              		.loc 4 353 20 view .LVU59
 188              	.LBE93:
 189              		.loc 4 355 3 view .LVU60
 190              	.LBB98:
 191              	.LBB94:
 192              	.LBI94:
 193              		.file 5 "../../../os/common/ports/SIMIA32/chcore.h"
 194              		.loc 5 362 20 view .LVU61
 195              	.LBB95:
 196              		.loc 5 364 3 view .LVU62
 197              	.LBE95:
 198              	.LBE94:
 199              	.LBE98:
 200              		.loc 1 113 32 is_stmt 0 view .LVU63
 201 0000 56       		pushl	%esi
 202              		.cfi_def_cfa_offset 8
 203              		.cfi_offset 6, -8
 204 0001 53       		pushl	%ebx
 205              		.cfi_def_cfa_offset 12
 206              		.cfi_offset 3, -12
 207 0002 E8FCFFFF 		call	__x86.get_pc_thunk.bx
 207      FF
 208 0007 81C30200 		addl	$_GLOBAL_OFFSET_TABLE_, %ebx
 208      0000
 209 000d 83EC10   		subl	$16, %esp
 210              		.cfi_def_cfa_offset 28
 211              		.loc 1 116 3 view .LVU64
 212 0010 FF74241C 		pushl	28(%esp)
 213              		.cfi_def_cfa_offset 32
 214              	.LBB99:
 215              	.LBB97:
 216              	.LBB96:
 217              		.loc 5 364 16 view .LVU65
 218 0014 8BB30000 		movl	port_irq_sts@GOT(%ebx), %esi
 218      0000
 219 001a C7060100 		movl	$1, (%esi)
GAS LISTING /tmp/ccjtbjGp.s 			page 5


 219      0000
 220              	.LBE96:
 221              	.LBE97:
 222              	.LBE99:
 223              		.loc 4 356 34 is_stmt 1 view .LVU66
 224              		.loc 4 357 20 view .LVU67
 225              		.loc 1 116 3 view .LVU68
 226 0020 E8FCFFFF 		call	chMBResetI
 226      FF
 227              	.LVL7:
 228              		.loc 1 117 3 view .LVU69
 229 0025 E8FCFFFF 		call	chSchRescheduleS@PLT
 229      FF
 230              	.LVL8:
 231              		.loc 1 118 3 view .LVU70
 232              	.LBB100:
 233              	.LBI100:
 234              		.loc 4 365 20 view .LVU71
 235              	.LBB101:
 236              		.loc 4 367 22 view .LVU72
 237              		.loc 4 368 33 view .LVU73
 238              		.loc 4 374 3 view .LVU74
 239              		.loc 4 374 3 view .LVU75
 240              		.loc 4 378 3 view .LVU76
 241              	.LBB102:
 242              	.LBI102:
 243              		.loc 5 371 20 view .LVU77
 244              	.LBB103:
 245              		.loc 5 373 3 view .LVU78
 246              		.loc 5 373 16 is_stmt 0 view .LVU79
 247 002a C7060000 		movl	$0, (%esi)
 247      0000
 248              	.LBE103:
 249              	.LBE102:
 250              	.LBE101:
 251              	.LBE100:
 252              		.loc 1 119 1 view .LVU80
 253 0030 83C414   		addl	$20, %esp
 254              		.cfi_def_cfa_offset 12
 255 0033 5B       		popl	%ebx
 256              		.cfi_restore 3
 257              		.cfi_def_cfa_offset 8
 258 0034 5E       		popl	%esi
 259              		.cfi_restore 6
 260              		.cfi_def_cfa_offset 4
 261 0035 C3       		ret
 262              		.cfi_endproc
 263              	.LFE139:
 264              		.size	chMBReset, .-chMBReset
 265              		.section	.text.chMBPostTimeoutS,"ax",@progbits
 266              		.p2align 4,,15
 267              		.globl	chMBPostTimeoutS
 268              		.type	chMBPostTimeoutS, @function
 269              	chMBPostTimeoutS:
 270              	.LVL9:
 271              	.LFB142:
 272              		.loc 1 194 74 is_stmt 1 view -0
GAS LISTING /tmp/ccjtbjGp.s 			page 6


 273              		.cfi_startproc
 274              		.loc 1 194 74 is_stmt 0 view .LVU82
 275 0000 55       		pushl	%ebp
 276              		.cfi_def_cfa_offset 8
 277              		.cfi_offset 5, -8
 278 0001 57       		pushl	%edi
 279              		.cfi_def_cfa_offset 12
 280              		.cfi_offset 7, -12
 281 0002 56       		pushl	%esi
 282              		.cfi_def_cfa_offset 16
 283              		.cfi_offset 6, -16
 284 0003 53       		pushl	%ebx
 285              		.cfi_def_cfa_offset 20
 286              		.cfi_offset 3, -20
 287 0004 E8FCFFFF 		call	__x86.get_pc_thunk.bx
 287      FF
 288 0009 81C30200 		addl	$_GLOBAL_OFFSET_TABLE_, %ebx
 288      0000
 289 000f 83EC0C   		subl	$12, %esp
 290              		.cfi_def_cfa_offset 32
 291              		.loc 1 194 74 view .LVU83
 292 0012 8B742420 		movl	32(%esp), %esi
 293              		.loc 1 195 3 is_stmt 1 view .LVU84
 294              		.loc 1 197 21 view .LVU85
 295              		.loc 1 198 3 view .LVU86
 296              		.loc 1 198 3 view .LVU87
 297              		.loc 1 194 74 is_stmt 0 view .LVU88
 298 0016 8B6C2428 		movl	40(%esp), %ebp
 299              		.loc 1 222 14 view .LVU89
 300 001a 8D7E18   		leal	24(%esi), %edi
 301 001d EB23     		jmp	.L11
 302 001f 90       		.p2align 4,,10
 303              		.p2align 3
 304              	.L17:
 305              		.loc 1 207 5 is_stmt 1 view .LVU90
 306              	.LVL10:
 307              	.LBB114:
 308              	.LBI114:
 309              		.file 6 "../../../os/common/oslib/include/chmboxes.h"
 310              		.loc 6 171 22 view .LVU91
 311              	.LBB115:
 312              		.loc 6 173 21 view .LVU92
 313              		.loc 6 175 3 view .LVU93
 314              		.loc 6 175 10 is_stmt 0 view .LVU94
 315 0020 8B5604   		movl	4(%esi), %edx
 316 0023 8B0E     		movl	(%esi), %ecx
 317              	.LBB116:
 318              	.LBI116:
 319              		.loc 6 140 22 is_stmt 1 view .LVU95
 320              	.LVL11:
 321              	.LBB117:
 322              		.loc 6 144 3 view .LVU96
 323              		.loc 6 144 3 is_stmt 0 view .LVU97
 324              	.LBE117:
 325              	.LBE116:
 326              	.LBE115:
 327              	.LBE114:
GAS LISTING /tmp/ccjtbjGp.s 			page 7


 328              		.loc 6 158 21 is_stmt 1 view .LVU98
 329              		.loc 6 160 3 view .LVU99
 330              	.LBB121:
 331              	.LBB120:
 332              	.LBB119:
 333              	.LBB118:
 334              		.loc 6 144 28 is_stmt 0 view .LVU100
 335 0025 89D0     		movl	%edx, %eax
 336 0027 29C8     		subl	%ecx, %eax
 337 0029 C1F802   		sarl	$2, %eax
 338              	.LBE118:
 339              	.LBE119:
 340              	.LBE120:
 341              	.LBE121:
 342              		.loc 1 207 8 view .LVU101
 343 002c 3B4610   		cmpl	16(%esi), %eax
 344 002f 7527     		jne	.L16
 345              		.loc 1 222 5 is_stmt 1 view .LVU102
 346              		.loc 1 222 14 is_stmt 0 view .LVU103
 347 0031 83EC08   		subl	$8, %esp
 348              		.cfi_def_cfa_offset 40
 349 0034 55       		pushl	%ebp
 350              		.cfi_def_cfa_offset 44
 351 0035 57       		pushl	%edi
 352              		.cfi_def_cfa_offset 48
 353 0036 E8FCFFFF 		call	chThdEnqueueTimeoutS@PLT
 353      FF
 354              	.LVL12:
 355              		.loc 1 223 3 view .LVU104
 356 003b 83C410   		addl	$16, %esp
 357              		.cfi_def_cfa_offset 32
 358 003e 85C0     		testl	%eax, %eax
 359 0040 750B     		jne	.L7
 360              	.LVL13:
 361              	.L11:
 362              		.loc 1 200 3 is_stmt 1 view .LVU105
 363              		.loc 1 202 5 view .LVU106
 364              		.loc 1 202 8 is_stmt 0 view .LVU107
 365 0042 807E1400 		cmpb	$0, 20(%esi)
 366 0046 74D8     		je	.L17
 367              		.loc 1 203 14 view .LVU108
 368 0048 B8FEFFFF 		movl	$-2, %eax
 368      FF
 369              	.L7:
 370              		.loc 1 226 1 view .LVU109
 371 004d 83C40C   		addl	$12, %esp
 372              		.cfi_remember_state
 373              		.cfi_def_cfa_offset 20
 374 0050 5B       		popl	%ebx
 375              		.cfi_restore 3
 376              		.cfi_def_cfa_offset 16
 377 0051 5E       		popl	%esi
 378              		.cfi_restore 6
 379              		.cfi_def_cfa_offset 12
 380 0052 5F       		popl	%edi
 381              		.cfi_restore 7
 382              		.cfi_def_cfa_offset 8
GAS LISTING /tmp/ccjtbjGp.s 			page 8


 383 0053 5D       		popl	%ebp
 384              		.cfi_restore 5
 385              		.cfi_def_cfa_offset 4
 386 0054 C3       		ret
 387              	.LVL14:
 388              		.p2align 4,,10
 389 0055 8D7600   		.p2align 3
 390              	.L16:
 391              		.cfi_restore_state
 392              		.loc 1 208 7 is_stmt 1 view .LVU110
 393              		.loc 1 208 11 is_stmt 0 view .LVU111
 394 0058 8B7E08   		movl	8(%esi), %edi
 395              		.loc 1 208 21 view .LVU112
 396 005b 8B6C2424 		movl	36(%esp), %ebp
 397              		.loc 1 208 18 view .LVU113
 398 005f 8D4704   		leal	4(%edi), %eax
 399 0062 894608   		movl	%eax, 8(%esi)
 400              		.loc 1 208 21 view .LVU114
 401 0065 892F     		movl	%ebp, (%edi)
 402              		.loc 1 209 7 is_stmt 1 view .LVU115
 403              		.loc 1 209 10 is_stmt 0 view .LVU116
 404 0067 39D0     		cmpl	%edx, %eax
 405 0069 7203     		jb	.L10
 406              		.loc 1 210 9 is_stmt 1 view .LVU117
 407              		.loc 1 210 20 is_stmt 0 view .LVU118
 408 006b 894E08   		movl	%ecx, 8(%esi)
 409              	.L10:
 410              	.LVL15:
 411              	.LBB122:
 412              	.LBI122:
 413              		.loc 1 194 7 is_stmt 1 view .LVU119
 414              	.LBB123:
 415              		.loc 1 212 7 view .LVU120
 416              		.loc 1 215 7 is_stmt 0 view .LVU121
 417 006e 83EC08   		subl	$8, %esp
 418              		.cfi_def_cfa_offset 40
 419              		.loc 1 212 15 view .LVU122
 420 0071 83461001 		addl	$1, 16(%esi)
 421              		.loc 1 215 7 is_stmt 1 view .LVU123
 422 0075 83C620   		addl	$32, %esi
 423              	.LVL16:
 424              		.loc 1 215 7 is_stmt 0 view .LVU124
 425 0078 6A00     		pushl	$0
 426              		.cfi_def_cfa_offset 44
 427 007a 56       		pushl	%esi
 428              		.cfi_def_cfa_offset 48
 429 007b E8FCFFFF 		call	chThdDequeueNextI@PLT
 429      FF
 430              	.LVL17:
 431              		.loc 1 216 7 is_stmt 1 view .LVU125
 432 0080 E8FCFFFF 		call	chSchRescheduleS@PLT
 432      FF
 433              	.LVL18:
 434              		.loc 1 218 7 view .LVU126
 435              		.loc 1 216 7 is_stmt 0 view .LVU127
 436 0085 83C410   		addl	$16, %esp
 437              		.cfi_def_cfa_offset 32
GAS LISTING /tmp/ccjtbjGp.s 			page 9


 438 0088 31C0     		xorl	%eax, %eax
 439              	.LBE123:
 440              	.LBE122:
 441              		.loc 1 226 1 view .LVU128
 442 008a 83C40C   		addl	$12, %esp
 443              		.cfi_def_cfa_offset 20
 444 008d 5B       		popl	%ebx
 445              		.cfi_restore 3
 446              		.cfi_def_cfa_offset 16
 447 008e 5E       		popl	%esi
 448              		.cfi_restore 6
 449              		.cfi_def_cfa_offset 12
 450 008f 5F       		popl	%edi
 451              		.cfi_restore 7
 452              		.cfi_def_cfa_offset 8
 453 0090 5D       		popl	%ebp
 454              		.cfi_restore 5
 455              		.cfi_def_cfa_offset 4
 456 0091 C3       		ret
 457              		.cfi_endproc
 458              	.LFE142:
 459              		.size	chMBPostTimeoutS, .-chMBPostTimeoutS
 460              		.section	.text.chMBPostTimeout,"ax",@progbits
 461              		.p2align 4,,15
 462              		.globl	chMBPostTimeout
 463              		.type	chMBPostTimeout, @function
 464              	chMBPostTimeout:
 465              	.LVL19:
 466              	.LFB141:
 467              		.loc 1 165 73 is_stmt 1 view -0
 468              		.cfi_startproc
 469              		.loc 1 166 3 view .LVU130
 470              		.loc 1 168 3 view .LVU131
 471              	.LBB124:
 472              	.LBI124:
 473              		.loc 4 353 20 view .LVU132
 474              	.LBE124:
 475              		.loc 4 355 3 view .LVU133
 476              	.LBB131:
 477              	.LBB125:
 478              	.LBI125:
 479              		.loc 5 362 20 view .LVU134
 480              	.LBB126:
 481              		.loc 5 364 3 view .LVU135
 482 0000 E8FCFFFF 		call	__x86.get_pc_thunk.ax
 482      FF
 483 0005 05010000 		addl	$_GLOBAL_OFFSET_TABLE_, %eax
 483      00
 484              	.LBE126:
 485              	.LBE125:
 486              	.LBE131:
 487              		.loc 1 165 73 is_stmt 0 view .LVU136
 488 000a 53       		pushl	%ebx
 489              		.cfi_def_cfa_offset 8
 490              		.cfi_offset 3, -8
 491 000b 83EC0C   		subl	$12, %esp
 492              		.cfi_def_cfa_offset 20
GAS LISTING /tmp/ccjtbjGp.s 			page 10


 493              		.loc 1 169 12 view .LVU137
 494 000e FF74241C 		pushl	28(%esp)
 495              		.cfi_def_cfa_offset 24
 496 0012 FF74241C 		pushl	28(%esp)
 497              		.cfi_def_cfa_offset 28
 498              	.LBB132:
 499              	.LBB129:
 500              	.LBB127:
 501              		.loc 5 364 16 view .LVU138
 502 0016 8B980000 		movl	port_irq_sts@GOT(%eax), %ebx
 502      0000
 503              	.LBE127:
 504              	.LBE129:
 505              	.LBE132:
 506              		.loc 1 169 12 view .LVU139
 507 001c FF74241C 		pushl	28(%esp)
 508              		.cfi_def_cfa_offset 32
 509              	.LBB133:
 510              	.LBB130:
 511              	.LBB128:
 512              		.loc 5 364 16 view .LVU140
 513 0020 C7030100 		movl	$1, (%ebx)
 513      0000
 514              	.LBE128:
 515              	.LBE130:
 516              	.LBE133:
 517              		.loc 4 356 34 is_stmt 1 view .LVU141
 518              		.loc 4 357 20 view .LVU142
 519              		.loc 1 169 3 view .LVU143
 520              		.loc 1 169 12 is_stmt 0 view .LVU144
 521 0026 E8FCFFFF 		call	chMBPostTimeoutS
 521      FF
 522              	.LVL20:
 523              		.loc 1 170 3 is_stmt 1 view .LVU145
 524              	.LBB134:
 525              	.LBI134:
 526              		.loc 4 365 20 view .LVU146
 527              	.LBB135:
 528              		.loc 4 367 22 view .LVU147
 529              		.loc 4 368 33 view .LVU148
 530              		.loc 4 374 3 view .LVU149
 531              		.loc 4 374 3 view .LVU150
 532              		.loc 4 378 3 view .LVU151
 533              	.LBB136:
 534              	.LBI136:
 535              		.loc 5 371 20 view .LVU152
 536              	.LBB137:
 537              		.loc 5 373 3 view .LVU153
 538              		.loc 5 373 16 is_stmt 0 view .LVU154
 539 002b C7030000 		movl	$0, (%ebx)
 539      0000
 540              	.LBE137:
 541              	.LBE136:
 542              	.LBE135:
 543              	.LBE134:
 544              		.loc 1 172 3 is_stmt 1 view .LVU155
 545              		.loc 1 173 1 is_stmt 0 view .LVU156
GAS LISTING /tmp/ccjtbjGp.s 			page 11


 546 0031 83C418   		addl	$24, %esp
 547              		.cfi_def_cfa_offset 8
 548 0034 5B       		popl	%ebx
 549              		.cfi_restore 3
 550              		.cfi_def_cfa_offset 4
 551 0035 C3       		ret
 552              		.cfi_endproc
 553              	.LFE141:
 554              		.size	chMBPostTimeout, .-chMBPostTimeout
 555              		.section	.text.chMBPostI,"ax",@progbits
 556              		.p2align 4,,15
 557              		.globl	chMBPostI
 558              		.type	chMBPostI, @function
 559              	chMBPostI:
 560              	.LVL21:
 561              	.LFB143:
 562              		.loc 1 243 44 is_stmt 1 view -0
 563              		.cfi_startproc
 564              		.loc 1 245 21 view .LVU158
 565              		.loc 1 246 3 view .LVU159
 566              		.loc 1 246 3 view .LVU160
 567              		.loc 1 249 3 view .LVU161
 568              		.loc 1 243 44 is_stmt 0 view .LVU162
 569 0000 55       		pushl	%ebp
 570              		.cfi_def_cfa_offset 8
 571              		.cfi_offset 5, -8
 572 0001 57       		pushl	%edi
 573              		.cfi_def_cfa_offset 12
 574              		.cfi_offset 7, -12
 575 0002 56       		pushl	%esi
 576              		.cfi_def_cfa_offset 16
 577              		.cfi_offset 6, -16
 578 0003 53       		pushl	%ebx
 579              		.cfi_def_cfa_offset 20
 580              		.cfi_offset 3, -20
 581 0004 E8FCFFFF 		call	__x86.get_pc_thunk.bx
 581      FF
 582 0009 81C30200 		addl	$_GLOBAL_OFFSET_TABLE_, %ebx
 582      0000
 583 000f 83EC0C   		subl	$12, %esp
 584              		.cfi_def_cfa_offset 32
 585              		.loc 1 243 44 view .LVU163
 586 0012 8B442420 		movl	32(%esp), %eax
 587              		.loc 1 249 6 view .LVU164
 588 0016 80781400 		cmpb	$0, 20(%eax)
 589 001a 7554     		jne	.L23
 590              		.loc 1 254 3 is_stmt 1 view .LVU165
 591              	.LVL22:
 592              	.LBB138:
 593              	.LBI138:
 594              		.loc 6 171 22 view .LVU166
 595              	.LBB139:
 596              		.loc 6 173 21 view .LVU167
 597              		.loc 6 175 3 view .LVU168
 598              		.loc 6 175 10 is_stmt 0 view .LVU169
 599 001c 8B4804   		movl	4(%eax), %ecx
 600 001f 8B30     		movl	(%eax), %esi
GAS LISTING /tmp/ccjtbjGp.s 			page 12


 601              	.LBB140:
 602              	.LBI140:
 603              		.loc 6 140 22 is_stmt 1 view .LVU170
 604              	.LVL23:
 605              	.LBB141:
 606              		.loc 6 144 3 view .LVU171
 607              		.loc 6 144 3 is_stmt 0 view .LVU172
 608              	.LBE141:
 609              	.LBE140:
 610              	.LBE139:
 611              	.LBE138:
 612              		.loc 6 158 21 is_stmt 1 view .LVU173
 613              		.loc 6 160 3 view .LVU174
 614              	.LBB145:
 615              	.LBB144:
 616              	.LBB143:
 617              	.LBB142:
 618              		.loc 6 144 28 is_stmt 0 view .LVU175
 619 0021 89CA     		movl	%ecx, %edx
 620 0023 29F2     		subl	%esi, %edx
 621 0025 C1FA02   		sarl	$2, %edx
 622              	.LBE142:
 623              	.LBE143:
 624              	.LBE144:
 625              	.LBE145:
 626              		.loc 1 254 6 view .LVU176
 627 0028 3B5010   		cmpl	16(%eax), %edx
 628 002b 743B     		je	.L24
 629              		.loc 1 255 5 is_stmt 1 view .LVU177
 630              		.loc 1 255 9 is_stmt 0 view .LVU178
 631 002d 8B7808   		movl	8(%eax), %edi
 632              		.loc 1 255 19 view .LVU179
 633 0030 8B6C2424 		movl	36(%esp), %ebp
 634              		.loc 1 255 16 view .LVU180
 635 0034 8D5704   		leal	4(%edi), %edx
 636 0037 895008   		movl	%edx, 8(%eax)
 637              		.loc 1 255 19 view .LVU181
 638 003a 892F     		movl	%ebp, (%edi)
 639              		.loc 1 256 5 is_stmt 1 view .LVU182
 640              		.loc 1 256 8 is_stmt 0 view .LVU183
 641 003c 39CA     		cmpl	%ecx, %edx
 642 003e 7320     		jnb	.L26
 643              	.L22:
 644              		.loc 1 259 5 is_stmt 1 view .LVU184
 645              		.loc 1 259 13 is_stmt 0 view .LVU185
 646 0040 83401001 		addl	$1, 16(%eax)
 647              		.loc 1 262 5 is_stmt 1 view .LVU186
 648 0044 83EC08   		subl	$8, %esp
 649              		.cfi_def_cfa_offset 40
 650 0047 83C020   		addl	$32, %eax
 651              	.LVL24:
 652              		.loc 1 262 5 is_stmt 0 view .LVU187
 653 004a 6A00     		pushl	$0
 654              		.cfi_def_cfa_offset 44
 655 004c 50       		pushl	%eax
 656              		.cfi_def_cfa_offset 48
 657 004d E8FCFFFF 		call	chThdDequeueNextI@PLT
GAS LISTING /tmp/ccjtbjGp.s 			page 13


 657      FF
 658              	.LVL25:
 659              		.loc 1 264 5 is_stmt 1 view .LVU188
 660              		.loc 1 264 12 is_stmt 0 view .LVU189
 661 0052 83C410   		addl	$16, %esp
 662              		.cfi_def_cfa_offset 32
 663 0055 31C0     		xorl	%eax, %eax
 664              	.LVL26:
 665              	.L20:
 666              		.loc 1 269 1 view .LVU190
 667 0057 83C40C   		addl	$12, %esp
 668              		.cfi_remember_state
 669              		.cfi_def_cfa_offset 20
 670 005a 5B       		popl	%ebx
 671              		.cfi_restore 3
 672              		.cfi_def_cfa_offset 16
 673 005b 5E       		popl	%esi
 674              		.cfi_restore 6
 675              		.cfi_def_cfa_offset 12
 676 005c 5F       		popl	%edi
 677              		.cfi_restore 7
 678              		.cfi_def_cfa_offset 8
 679 005d 5D       		popl	%ebp
 680              		.cfi_restore 5
 681              		.cfi_def_cfa_offset 4
 682 005e C3       		ret
 683              	.LVL27:
 684 005f 90       		.p2align 4,,10
 685              		.p2align 3
 686              	.L26:
 687              		.cfi_restore_state
 688              		.loc 1 257 7 is_stmt 1 view .LVU191
 689              		.loc 1 257 18 is_stmt 0 view .LVU192
 690 0060 897008   		movl	%esi, 8(%eax)
 691 0063 EBDB     		jmp	.L22
 692              		.p2align 4,,10
 693 0065 8D7600   		.p2align 3
 694              	.L24:
 695              		.loc 1 268 10 view .LVU193
 696 0068 B8FFFFFF 		movl	$-1, %eax
 696      FF
 697              	.LVL28:
 698              		.loc 1 268 10 view .LVU194
 699 006d EBE8     		jmp	.L20
 700              	.LVL29:
 701 006f 90       		.p2align 4,,10
 702              		.p2align 3
 703              	.L23:
 704              		.loc 1 250 12 view .LVU195
 705 0070 B8FEFFFF 		movl	$-2, %eax
 705      FF
 706 0075 EBE0     		jmp	.L20
 707              		.cfi_endproc
 708              	.LFE143:
 709              		.size	chMBPostI, .-chMBPostI
 710              		.section	.text.chMBPostAheadTimeoutS,"ax",@progbits
 711              		.p2align 4,,15
GAS LISTING /tmp/ccjtbjGp.s 			page 14


 712              		.globl	chMBPostAheadTimeoutS
 713              		.type	chMBPostAheadTimeoutS, @function
 714              	chMBPostAheadTimeoutS:
 715              	.LVL30:
 716              	.LFB145:
 717              		.loc 1 319 79 is_stmt 1 view -0
 718              		.cfi_startproc
 719              		.loc 1 319 79 is_stmt 0 view .LVU197
 720 0000 55       		pushl	%ebp
 721              		.cfi_def_cfa_offset 8
 722              		.cfi_offset 5, -8
 723 0001 57       		pushl	%edi
 724              		.cfi_def_cfa_offset 12
 725              		.cfi_offset 7, -12
 726 0002 56       		pushl	%esi
 727              		.cfi_def_cfa_offset 16
 728              		.cfi_offset 6, -16
 729 0003 53       		pushl	%ebx
 730              		.cfi_def_cfa_offset 20
 731              		.cfi_offset 3, -20
 732 0004 E8FCFFFF 		call	__x86.get_pc_thunk.bx
 732      FF
 733 0009 81C30200 		addl	$_GLOBAL_OFFSET_TABLE_, %ebx
 733      0000
 734 000f 83EC0C   		subl	$12, %esp
 735              		.cfi_def_cfa_offset 32
 736              		.loc 1 319 79 view .LVU198
 737 0012 8B742420 		movl	32(%esp), %esi
 738              		.loc 1 320 3 is_stmt 1 view .LVU199
 739              		.loc 1 322 21 view .LVU200
 740              		.loc 1 323 3 view .LVU201
 741              		.loc 1 323 3 view .LVU202
 742              		.loc 1 319 79 is_stmt 0 view .LVU203
 743 0016 8B6C2428 		movl	40(%esp), %ebp
 744              		.loc 1 347 14 view .LVU204
 745 001a 8D7E18   		leal	24(%esi), %edi
 746 001d EB23     		jmp	.L32
 747 001f 90       		.p2align 4,,10
 748              		.p2align 3
 749              	.L39:
 750              		.loc 1 332 5 is_stmt 1 view .LVU205
 751              	.LVL31:
 752              	.LBB156:
 753              	.LBI156:
 754              		.loc 6 171 22 view .LVU206
 755              	.LBB157:
 756              		.loc 6 173 21 view .LVU207
 757              		.loc 6 175 3 view .LVU208
 758              		.loc 6 175 10 is_stmt 0 view .LVU209
 759 0020 8B4E04   		movl	4(%esi), %ecx
 760 0023 8B16     		movl	(%esi), %edx
 761              	.LBB158:
 762              	.LBI158:
 763              		.loc 6 140 22 is_stmt 1 view .LVU210
 764              	.LVL32:
 765              	.LBB159:
 766              		.loc 6 144 3 view .LVU211
GAS LISTING /tmp/ccjtbjGp.s 			page 15


 767              		.loc 6 144 3 is_stmt 0 view .LVU212
 768              	.LBE159:
 769              	.LBE158:
 770              	.LBE157:
 771              	.LBE156:
 772              		.loc 6 158 21 is_stmt 1 view .LVU213
 773              		.loc 6 160 3 view .LVU214
 774              	.LBB163:
 775              	.LBB162:
 776              	.LBB161:
 777              	.LBB160:
 778              		.loc 6 144 28 is_stmt 0 view .LVU215
 779 0025 89C8     		movl	%ecx, %eax
 780 0027 29D0     		subl	%edx, %eax
 781 0029 C1F802   		sarl	$2, %eax
 782              	.LBE160:
 783              	.LBE161:
 784              	.LBE162:
 785              	.LBE163:
 786              		.loc 1 332 8 view .LVU216
 787 002c 3B4610   		cmpl	16(%esi), %eax
 788 002f 7527     		jne	.L38
 789              		.loc 1 347 5 is_stmt 1 view .LVU217
 790              		.loc 1 347 14 is_stmt 0 view .LVU218
 791 0031 83EC08   		subl	$8, %esp
 792              		.cfi_def_cfa_offset 40
 793 0034 55       		pushl	%ebp
 794              		.cfi_def_cfa_offset 44
 795 0035 57       		pushl	%edi
 796              		.cfi_def_cfa_offset 48
 797 0036 E8FCFFFF 		call	chThdEnqueueTimeoutS@PLT
 797      FF
 798              	.LVL33:
 799              		.loc 1 348 3 view .LVU219
 800 003b 83C410   		addl	$16, %esp
 801              		.cfi_def_cfa_offset 32
 802 003e 85C0     		testl	%eax, %eax
 803 0040 750B     		jne	.L27
 804              	.LVL34:
 805              	.L32:
 806              		.loc 1 325 3 is_stmt 1 view .LVU220
 807              		.loc 1 327 5 view .LVU221
 808              		.loc 1 327 8 is_stmt 0 view .LVU222
 809 0042 807E1400 		cmpb	$0, 20(%esi)
 810 0046 74D8     		je	.L39
 811              		.loc 1 328 14 view .LVU223
 812 0048 B8FEFFFF 		movl	$-2, %eax
 812      FF
 813              	.L27:
 814              		.loc 1 351 1 view .LVU224
 815 004d 83C40C   		addl	$12, %esp
 816              		.cfi_remember_state
 817              		.cfi_def_cfa_offset 20
 818 0050 5B       		popl	%ebx
 819              		.cfi_restore 3
 820              		.cfi_def_cfa_offset 16
 821 0051 5E       		popl	%esi
GAS LISTING /tmp/ccjtbjGp.s 			page 16


 822              		.cfi_restore 6
 823              		.cfi_def_cfa_offset 12
 824 0052 5F       		popl	%edi
 825              		.cfi_restore 7
 826              		.cfi_def_cfa_offset 8
 827 0053 5D       		popl	%ebp
 828              		.cfi_restore 5
 829              		.cfi_def_cfa_offset 4
 830 0054 C3       		ret
 831              	.LVL35:
 832              		.p2align 4,,10
 833 0055 8D7600   		.p2align 3
 834              	.L38:
 835              		.cfi_restore_state
 836              		.loc 1 333 7 is_stmt 1 view .LVU225
 837              		.loc 1 333 11 is_stmt 0 view .LVU226
 838 0058 8B460C   		movl	12(%esi), %eax
 839 005b 83E804   		subl	$4, %eax
 840              		.loc 1 333 10 view .LVU227
 841 005e 39D0     		cmpl	%edx, %eax
 842 0060 7303     		jnb	.L37
 843              		.loc 1 334 9 is_stmt 1 view .LVU228
 844              		.loc 1 334 31 is_stmt 0 view .LVU229
 845 0062 8D41FC   		leal	-4(%ecx), %eax
 846              	.L37:
 847              	.LBB164:
 848              	.LBB165:
 849              		.loc 1 336 19 view .LVU230
 850 0065 8B542424 		movl	36(%esp), %edx
 851              	.LBE165:
 852              	.LBE164:
 853              		.loc 1 334 20 view .LVU231
 854 0069 89460C   		movl	%eax, 12(%esi)
 855              	.LVL36:
 856              	.LBB167:
 857              	.LBI164:
 858              		.loc 1 319 7 is_stmt 1 view .LVU232
 859              	.LBB166:
 860              		.loc 1 336 7 view .LVU233
 861              		.loc 1 340 7 is_stmt 0 view .LVU234
 862 006c 83EC08   		subl	$8, %esp
 863              		.cfi_def_cfa_offset 40
 864              		.loc 1 336 19 view .LVU235
 865 006f 8910     		movl	%edx, (%eax)
 866              		.loc 1 337 7 is_stmt 1 view .LVU236
 867              		.loc 1 337 15 is_stmt 0 view .LVU237
 868 0071 83461001 		addl	$1, 16(%esi)
 869              		.loc 1 340 7 is_stmt 1 view .LVU238
 870 0075 83C620   		addl	$32, %esi
 871              	.LVL37:
 872              		.loc 1 340 7 is_stmt 0 view .LVU239
 873 0078 6A00     		pushl	$0
 874              		.cfi_def_cfa_offset 44
 875 007a 56       		pushl	%esi
 876              		.cfi_def_cfa_offset 48
 877 007b E8FCFFFF 		call	chThdDequeueNextI@PLT
 877      FF
GAS LISTING /tmp/ccjtbjGp.s 			page 17


 878              	.LVL38:
 879              		.loc 1 341 7 is_stmt 1 view .LVU240
 880 0080 E8FCFFFF 		call	chSchRescheduleS@PLT
 880      FF
 881              	.LVL39:
 882              		.loc 1 343 7 view .LVU241
 883              		.loc 1 341 7 is_stmt 0 view .LVU242
 884 0085 83C410   		addl	$16, %esp
 885              		.cfi_def_cfa_offset 32
 886 0088 31C0     		xorl	%eax, %eax
 887              	.LBE166:
 888              	.LBE167:
 889              		.loc 1 351 1 view .LVU243
 890 008a 83C40C   		addl	$12, %esp
 891              		.cfi_def_cfa_offset 20
 892 008d 5B       		popl	%ebx
 893              		.cfi_restore 3
 894              		.cfi_def_cfa_offset 16
 895 008e 5E       		popl	%esi
 896              		.cfi_restore 6
 897              		.cfi_def_cfa_offset 12
 898 008f 5F       		popl	%edi
 899              		.cfi_restore 7
 900              		.cfi_def_cfa_offset 8
 901 0090 5D       		popl	%ebp
 902              		.cfi_restore 5
 903              		.cfi_def_cfa_offset 4
 904 0091 C3       		ret
 905              		.cfi_endproc
 906              	.LFE145:
 907              		.size	chMBPostAheadTimeoutS, .-chMBPostAheadTimeoutS
 908              		.section	.text.chMBPostAheadTimeout,"ax",@progbits
 909              		.p2align 4,,15
 910              		.globl	chMBPostAheadTimeout
 911              		.type	chMBPostAheadTimeout, @function
 912              	chMBPostAheadTimeout:
 913              	.LVL40:
 914              	.LFB144:
 915              		.loc 1 290 78 is_stmt 1 view -0
 916              		.cfi_startproc
 917              		.loc 1 291 3 view .LVU245
 918              		.loc 1 293 3 view .LVU246
 919              	.LBB168:
 920              	.LBI168:
 921              		.loc 4 353 20 view .LVU247
 922              	.LBE168:
 923              		.loc 4 355 3 view .LVU248
 924              	.LBB175:
 925              	.LBB169:
 926              	.LBI169:
 927              		.loc 5 362 20 view .LVU249
 928              	.LBB170:
 929              		.loc 5 364 3 view .LVU250
 930 0000 E8FCFFFF 		call	__x86.get_pc_thunk.ax
 930      FF
 931 0005 05010000 		addl	$_GLOBAL_OFFSET_TABLE_, %eax
 931      00
GAS LISTING /tmp/ccjtbjGp.s 			page 18


 932              	.LBE170:
 933              	.LBE169:
 934              	.LBE175:
 935              		.loc 1 290 78 is_stmt 0 view .LVU251
 936 000a 53       		pushl	%ebx
 937              		.cfi_def_cfa_offset 8
 938              		.cfi_offset 3, -8
 939 000b 83EC0C   		subl	$12, %esp
 940              		.cfi_def_cfa_offset 20
 941              		.loc 1 294 12 view .LVU252
 942 000e FF74241C 		pushl	28(%esp)
 943              		.cfi_def_cfa_offset 24
 944 0012 FF74241C 		pushl	28(%esp)
 945              		.cfi_def_cfa_offset 28
 946              	.LBB176:
 947              	.LBB173:
 948              	.LBB171:
 949              		.loc 5 364 16 view .LVU253
 950 0016 8B980000 		movl	port_irq_sts@GOT(%eax), %ebx
 950      0000
 951              	.LBE171:
 952              	.LBE173:
 953              	.LBE176:
 954              		.loc 1 294 12 view .LVU254
 955 001c FF74241C 		pushl	28(%esp)
 956              		.cfi_def_cfa_offset 32
 957              	.LBB177:
 958              	.LBB174:
 959              	.LBB172:
 960              		.loc 5 364 16 view .LVU255
 961 0020 C7030100 		movl	$1, (%ebx)
 961      0000
 962              	.LBE172:
 963              	.LBE174:
 964              	.LBE177:
 965              		.loc 4 356 34 is_stmt 1 view .LVU256
 966              		.loc 4 357 20 view .LVU257
 967              		.loc 1 294 3 view .LVU258
 968              		.loc 1 294 12 is_stmt 0 view .LVU259
 969 0026 E8FCFFFF 		call	chMBPostAheadTimeoutS
 969      FF
 970              	.LVL41:
 971              		.loc 1 295 3 is_stmt 1 view .LVU260
 972              	.LBB178:
 973              	.LBI178:
 974              		.loc 4 365 20 view .LVU261
 975              	.LBB179:
 976              		.loc 4 367 22 view .LVU262
 977              		.loc 4 368 33 view .LVU263
 978              		.loc 4 374 3 view .LVU264
 979              		.loc 4 374 3 view .LVU265
 980              		.loc 4 378 3 view .LVU266
 981              	.LBB180:
 982              	.LBI180:
 983              		.loc 5 371 20 view .LVU267
 984              	.LBB181:
 985              		.loc 5 373 3 view .LVU268
GAS LISTING /tmp/ccjtbjGp.s 			page 19


 986              		.loc 5 373 16 is_stmt 0 view .LVU269
 987 002b C7030000 		movl	$0, (%ebx)
 987      0000
 988              	.LBE181:
 989              	.LBE180:
 990              	.LBE179:
 991              	.LBE178:
 992              		.loc 1 297 3 is_stmt 1 view .LVU270
 993              		.loc 1 298 1 is_stmt 0 view .LVU271
 994 0031 83C418   		addl	$24, %esp
 995              		.cfi_def_cfa_offset 8
 996 0034 5B       		popl	%ebx
 997              		.cfi_restore 3
 998              		.cfi_def_cfa_offset 4
 999 0035 C3       		ret
 1000              		.cfi_endproc
 1001              	.LFE144:
 1002              		.size	chMBPostAheadTimeout, .-chMBPostAheadTimeout
 1003              		.section	.text.chMBPostAheadI,"ax",@progbits
 1004              		.p2align 4,,15
 1005              		.globl	chMBPostAheadI
 1006              		.type	chMBPostAheadI, @function
 1007              	chMBPostAheadI:
 1008              	.LVL42:
 1009              	.LFB146:
 1010              		.loc 1 368 49 is_stmt 1 view -0
 1011              		.cfi_startproc
 1012              		.loc 1 370 21 view .LVU273
 1013              		.loc 1 371 3 view .LVU274
 1014              		.loc 1 371 3 view .LVU275
 1015              		.loc 1 374 3 view .LVU276
 1016              		.loc 1 368 49 is_stmt 0 view .LVU277
 1017 0000 56       		pushl	%esi
 1018              		.cfi_def_cfa_offset 8
 1019              		.cfi_offset 6, -8
 1020 0001 53       		pushl	%ebx
 1021              		.cfi_def_cfa_offset 12
 1022              		.cfi_offset 3, -12
 1023 0002 E8FCFFFF 		call	__x86.get_pc_thunk.bx
 1023      FF
 1024 0007 81C30200 		addl	$_GLOBAL_OFFSET_TABLE_, %ebx
 1024      0000
 1025 000d 83EC04   		subl	$4, %esp
 1026              		.cfi_def_cfa_offset 16
 1027              		.loc 1 368 49 view .LVU278
 1028 0010 8B442410 		movl	16(%esp), %eax
 1029              		.loc 1 374 6 view .LVU279
 1030 0014 80781400 		cmpb	$0, 20(%eax)
 1031 0018 7556     		jne	.L46
 1032              		.loc 1 379 3 is_stmt 1 view .LVU280
 1033              	.LVL43:
 1034              	.LBB182:
 1035              	.LBI182:
 1036              		.loc 6 171 22 view .LVU281
 1037              	.LBB183:
 1038              		.loc 6 173 21 view .LVU282
 1039              		.loc 6 175 3 view .LVU283
GAS LISTING /tmp/ccjtbjGp.s 			page 20


 1040              		.loc 6 175 10 is_stmt 0 view .LVU284
 1041 001a 8B7004   		movl	4(%eax), %esi
 1042 001d 8B08     		movl	(%eax), %ecx
 1043              	.LBB184:
 1044              	.LBI184:
 1045              		.loc 6 140 22 is_stmt 1 view .LVU285
 1046              	.LVL44:
 1047              	.LBB185:
 1048              		.loc 6 144 3 view .LVU286
 1049              		.loc 6 144 3 is_stmt 0 view .LVU287
 1050              	.LBE185:
 1051              	.LBE184:
 1052              	.LBE183:
 1053              	.LBE182:
 1054              		.loc 6 158 21 is_stmt 1 view .LVU288
 1055              		.loc 6 160 3 view .LVU289
 1056              	.LBB189:
 1057              	.LBB188:
 1058              	.LBB187:
 1059              	.LBB186:
 1060              		.loc 6 144 28 is_stmt 0 view .LVU290
 1061 001f 89F2     		movl	%esi, %edx
 1062 0021 29CA     		subl	%ecx, %edx
 1063 0023 C1FA02   		sarl	$2, %edx
 1064              	.LBE186:
 1065              	.LBE187:
 1066              	.LBE188:
 1067              	.LBE189:
 1068              		.loc 1 379 6 view .LVU291
 1069 0026 3B5010   		cmpl	16(%eax), %edx
 1070 0029 743D     		je	.L47
 1071              		.loc 1 380 5 is_stmt 1 view .LVU292
 1072              		.loc 1 380 9 is_stmt 0 view .LVU293
 1073 002b 8B500C   		movl	12(%eax), %edx
 1074 002e 83EA04   		subl	$4, %edx
 1075              		.loc 1 380 8 view .LVU294
 1076 0031 39CA     		cmpl	%ecx, %edx
 1077 0033 722B     		jb	.L44
 1078              	.L49:
 1079              		.loc 1 383 17 view .LVU295
 1080 0035 8B4C2414 		movl	20(%esp), %ecx
 1081              		.loc 1 381 18 view .LVU296
 1082 0039 89500C   		movl	%edx, 12(%eax)
 1083              		.loc 1 383 5 is_stmt 1 view .LVU297
 1084              		.loc 1 387 5 is_stmt 0 view .LVU298
 1085 003c 83EC08   		subl	$8, %esp
 1086              		.cfi_def_cfa_offset 24
 1087              		.loc 1 383 17 view .LVU299
 1088 003f 890A     		movl	%ecx, (%edx)
 1089              		.loc 1 384 5 is_stmt 1 view .LVU300
 1090              		.loc 1 384 13 is_stmt 0 view .LVU301
 1091 0041 83401001 		addl	$1, 16(%eax)
 1092              		.loc 1 387 5 is_stmt 1 view .LVU302
 1093 0045 83C020   		addl	$32, %eax
 1094              	.LVL45:
 1095              		.loc 1 387 5 is_stmt 0 view .LVU303
 1096 0048 6A00     		pushl	$0
GAS LISTING /tmp/ccjtbjGp.s 			page 21


 1097              		.cfi_def_cfa_offset 28
 1098 004a 50       		pushl	%eax
 1099              		.cfi_def_cfa_offset 32
 1100 004b E8FCFFFF 		call	chThdDequeueNextI@PLT
 1100      FF
 1101              	.LVL46:
 1102              		.loc 1 389 5 is_stmt 1 view .LVU304
 1103              		.loc 1 389 12 is_stmt 0 view .LVU305
 1104 0050 83C410   		addl	$16, %esp
 1105              		.cfi_def_cfa_offset 16
 1106 0053 31C0     		xorl	%eax, %eax
 1107              	.LVL47:
 1108              	.L42:
 1109              		.loc 1 394 1 view .LVU306
 1110 0055 83C404   		addl	$4, %esp
 1111              		.cfi_remember_state
 1112              		.cfi_def_cfa_offset 12
 1113 0058 5B       		popl	%ebx
 1114              		.cfi_restore 3
 1115              		.cfi_def_cfa_offset 8
 1116 0059 5E       		popl	%esi
 1117              		.cfi_restore 6
 1118              		.cfi_def_cfa_offset 4
 1119 005a C3       		ret
 1120              	.LVL48:
 1121 005b 8D742600 		.p2align 4,,10
 1121      90
 1122              		.p2align 3
 1123              	.L44:
 1124              		.cfi_restore_state
 1125              		.loc 1 381 7 is_stmt 1 view .LVU307
 1126              		.loc 1 381 29 is_stmt 0 view .LVU308
 1127 0060 8D56FC   		leal	-4(%esi), %edx
 1128 0063 EBD0     		jmp	.L49
 1129              		.p2align 4,,10
 1130 0065 8D7600   		.p2align 3
 1131              	.L47:
 1132              		.loc 1 393 10 view .LVU309
 1133 0068 B8FFFFFF 		movl	$-1, %eax
 1133      FF
 1134              	.LVL49:
 1135              		.loc 1 393 10 view .LVU310
 1136 006d EBE6     		jmp	.L42
 1137              	.LVL50:
 1138 006f 90       		.p2align 4,,10
 1139              		.p2align 3
 1140              	.L46:
 1141              		.loc 1 375 12 view .LVU311
 1142 0070 B8FEFFFF 		movl	$-2, %eax
 1142      FF
 1143 0075 EBDE     		jmp	.L42
 1144              		.cfi_endproc
 1145              	.LFE146:
 1146              		.size	chMBPostAheadI, .-chMBPostAheadI
 1147              		.section	.text.chMBFetchTimeoutS,"ax",@progbits
 1148              		.p2align 4,,15
 1149              		.globl	chMBFetchTimeoutS
GAS LISTING /tmp/ccjtbjGp.s 			page 22


 1150              		.type	chMBFetchTimeoutS, @function
 1151              	chMBFetchTimeoutS:
 1152              	.LVL51:
 1153              	.LFB148:
 1154              		.loc 1 444 77 is_stmt 1 view -0
 1155              		.cfi_startproc
 1156              		.loc 1 444 77 is_stmt 0 view .LVU313
 1157 0000 55       		pushl	%ebp
 1158              		.cfi_def_cfa_offset 8
 1159              		.cfi_offset 5, -8
 1160 0001 57       		pushl	%edi
 1161              		.cfi_def_cfa_offset 12
 1162              		.cfi_offset 7, -12
 1163 0002 56       		pushl	%esi
 1164              		.cfi_def_cfa_offset 16
 1165              		.cfi_offset 6, -16
 1166 0003 53       		pushl	%ebx
 1167              		.cfi_def_cfa_offset 20
 1168              		.cfi_offset 3, -20
 1169 0004 E8FCFFFF 		call	__x86.get_pc_thunk.bx
 1169      FF
 1170 0009 81C30200 		addl	$_GLOBAL_OFFSET_TABLE_, %ebx
 1170      0000
 1171 000f 83EC0C   		subl	$12, %esp
 1172              		.cfi_def_cfa_offset 32
 1173              		.loc 1 444 77 view .LVU314
 1174 0012 8B742420 		movl	32(%esp), %esi
 1175              		.loc 1 445 3 is_stmt 1 view .LVU315
 1176              		.loc 1 447 21 view .LVU316
 1177              		.loc 1 448 3 view .LVU317
 1178              		.loc 1 448 3 view .LVU318
 1179              		.loc 1 444 77 is_stmt 0 view .LVU319
 1180 0016 8B6C2428 		movl	40(%esp), %ebp
 1181              		.loc 1 472 14 view .LVU320
 1182 001a 8D7E20   		leal	32(%esi), %edi
 1183 001d EB19     		jmp	.L54
 1184 001f 90       		.p2align 4,,10
 1185              		.p2align 3
 1186              	.L60:
 1187              		.loc 1 457 5 is_stmt 1 view .LVU321
 1188              	.LVL52:
 1189              		.loc 6 158 21 view .LVU322
 1190              		.loc 6 160 3 view .LVU323
 1191              		.loc 1 457 8 is_stmt 0 view .LVU324
 1192 0020 8B4610   		movl	16(%esi), %eax
 1193 0023 85C0     		testl	%eax, %eax
 1194 0025 7529     		jne	.L59
 1195              		.loc 1 472 5 is_stmt 1 view .LVU325
 1196              		.loc 1 472 14 is_stmt 0 view .LVU326
 1197 0027 83EC08   		subl	$8, %esp
 1198              		.cfi_def_cfa_offset 40
 1199 002a 55       		pushl	%ebp
 1200              		.cfi_def_cfa_offset 44
 1201 002b 57       		pushl	%edi
 1202              		.cfi_def_cfa_offset 48
 1203 002c E8FCFFFF 		call	chThdEnqueueTimeoutS@PLT
 1203      FF
GAS LISTING /tmp/ccjtbjGp.s 			page 23


 1204              	.LVL53:
 1205              		.loc 1 473 3 view .LVU327
 1206 0031 83C410   		addl	$16, %esp
 1207              		.cfi_def_cfa_offset 32
 1208 0034 85C0     		testl	%eax, %eax
 1209 0036 750B     		jne	.L50
 1210              	.LVL54:
 1211              	.L54:
 1212              		.loc 1 450 3 is_stmt 1 view .LVU328
 1213              		.loc 1 452 5 view .LVU329
 1214              		.loc 1 452 8 is_stmt 0 view .LVU330
 1215 0038 807E1400 		cmpb	$0, 20(%esi)
 1216 003c 74E2     		je	.L60
 1217              		.loc 1 453 14 view .LVU331
 1218 003e B8FEFFFF 		movl	$-2, %eax
 1218      FF
 1219              	.L50:
 1220              		.loc 1 476 1 view .LVU332
 1221 0043 83C40C   		addl	$12, %esp
 1222              		.cfi_remember_state
 1223              		.cfi_def_cfa_offset 20
 1224 0046 5B       		popl	%ebx
 1225              		.cfi_restore 3
 1226              		.cfi_def_cfa_offset 16
 1227 0047 5E       		popl	%esi
 1228              		.cfi_restore 6
 1229              		.cfi_def_cfa_offset 12
 1230 0048 5F       		popl	%edi
 1231              		.cfi_restore 7
 1232              		.cfi_def_cfa_offset 8
 1233 0049 5D       		popl	%ebp
 1234              		.cfi_restore 5
 1235              		.cfi_def_cfa_offset 4
 1236 004a C3       		ret
 1237              	.LVL55:
 1238 004b 8D742600 		.p2align 4,,10
 1238      90
 1239              		.p2align 3
 1240              	.L59:
 1241              		.cfi_restore_state
 1242              	.LBB194:
 1243              	.LBI194:
 1244              		.loc 1 444 7 is_stmt 1 view .LVU333
 1245              	.LBB195:
 1246              		.loc 1 458 7 view .LVU334
 1247              		.loc 1 458 19 is_stmt 0 view .LVU335
 1248 0050 8B560C   		movl	12(%esi), %edx
 1249              		.loc 1 458 26 view .LVU336
 1250 0053 8D4204   		leal	4(%edx), %eax
 1251              		.loc 1 458 15 view .LVU337
 1252 0056 8B0A     		movl	(%edx), %ecx
 1253              		.loc 1 458 13 view .LVU338
 1254 0058 8B542424 		movl	36(%esp), %edx
 1255              		.loc 1 458 26 view .LVU339
 1256 005c 89460C   		movl	%eax, 12(%esi)
 1257              		.loc 1 458 13 view .LVU340
 1258 005f 890A     		movl	%ecx, (%edx)
GAS LISTING /tmp/ccjtbjGp.s 			page 24


 1259              		.loc 1 459 7 is_stmt 1 view .LVU341
 1260              		.loc 1 459 10 is_stmt 0 view .LVU342
 1261 0061 3B4604   		cmpl	4(%esi), %eax
 1262 0064 7205     		jb	.L53
 1263              		.loc 1 460 9 is_stmt 1 view .LVU343
 1264              		.loc 1 460 20 is_stmt 0 view .LVU344
 1265 0066 8B06     		movl	(%esi), %eax
 1266 0068 89460C   		movl	%eax, 12(%esi)
 1267              	.L53:
 1268              		.loc 1 462 7 is_stmt 1 view .LVU345
 1269              		.loc 1 465 7 is_stmt 0 view .LVU346
 1270 006b 83EC08   		subl	$8, %esp
 1271              		.cfi_def_cfa_offset 40
 1272              		.loc 1 462 15 view .LVU347
 1273 006e 836E1001 		subl	$1, 16(%esi)
 1274              		.loc 1 465 7 is_stmt 1 view .LVU348
 1275 0072 83C618   		addl	$24, %esi
 1276              	.LVL56:
 1277              		.loc 1 465 7 is_stmt 0 view .LVU349
 1278 0075 6A00     		pushl	$0
 1279              		.cfi_def_cfa_offset 44
 1280 0077 56       		pushl	%esi
 1281              		.cfi_def_cfa_offset 48
 1282 0078 E8FCFFFF 		call	chThdDequeueNextI@PLT
 1282      FF
 1283              	.LVL57:
 1284              		.loc 1 466 7 is_stmt 1 view .LVU350
 1285 007d E8FCFFFF 		call	chSchRescheduleS@PLT
 1285      FF
 1286              	.LVL58:
 1287              		.loc 1 468 7 view .LVU351
 1288              		.loc 1 466 7 is_stmt 0 view .LVU352
 1289 0082 83C410   		addl	$16, %esp
 1290              		.cfi_def_cfa_offset 32
 1291 0085 31C0     		xorl	%eax, %eax
 1292              	.LBE195:
 1293              	.LBE194:
 1294              		.loc 1 476 1 view .LVU353
 1295 0087 83C40C   		addl	$12, %esp
 1296              		.cfi_def_cfa_offset 20
 1297 008a 5B       		popl	%ebx
 1298              		.cfi_restore 3
 1299              		.cfi_def_cfa_offset 16
 1300 008b 5E       		popl	%esi
 1301              		.cfi_restore 6
 1302              		.cfi_def_cfa_offset 12
 1303 008c 5F       		popl	%edi
 1304              		.cfi_restore 7
 1305              		.cfi_def_cfa_offset 8
 1306 008d 5D       		popl	%ebp
 1307              		.cfi_restore 5
 1308              		.cfi_def_cfa_offset 4
 1309 008e C3       		ret
 1310              		.cfi_endproc
 1311              	.LFE148:
 1312              		.size	chMBFetchTimeoutS, .-chMBFetchTimeoutS
 1313              		.section	.text.chMBFetchTimeout,"ax",@progbits
GAS LISTING /tmp/ccjtbjGp.s 			page 25


 1314              		.p2align 4,,15
 1315              		.globl	chMBFetchTimeout
 1316              		.type	chMBFetchTimeout, @function
 1317              	chMBFetchTimeout:
 1318              	.LVL59:
 1319              	.LFB147:
 1320              		.loc 1 415 76 is_stmt 1 view -0
 1321              		.cfi_startproc
 1322              		.loc 1 416 3 view .LVU355
 1323              		.loc 1 418 3 view .LVU356
 1324              	.LBB196:
 1325              	.LBI196:
 1326              		.loc 4 353 20 view .LVU357
 1327              	.LBE196:
 1328              		.loc 4 355 3 view .LVU358
 1329              	.LBB203:
 1330              	.LBB197:
 1331              	.LBI197:
 1332              		.loc 5 362 20 view .LVU359
 1333              	.LBB198:
 1334              		.loc 5 364 3 view .LVU360
 1335 0000 E8FCFFFF 		call	__x86.get_pc_thunk.ax
 1335      FF
 1336 0005 05010000 		addl	$_GLOBAL_OFFSET_TABLE_, %eax
 1336      00
 1337              	.LBE198:
 1338              	.LBE197:
 1339              	.LBE203:
 1340              		.loc 1 415 76 is_stmt 0 view .LVU361
 1341 000a 53       		pushl	%ebx
 1342              		.cfi_def_cfa_offset 8
 1343              		.cfi_offset 3, -8
 1344 000b 83EC0C   		subl	$12, %esp
 1345              		.cfi_def_cfa_offset 20
 1346              		.loc 1 419 12 view .LVU362
 1347 000e FF74241C 		pushl	28(%esp)
 1348              		.cfi_def_cfa_offset 24
 1349 0012 FF74241C 		pushl	28(%esp)
 1350              		.cfi_def_cfa_offset 28
 1351              	.LBB204:
 1352              	.LBB201:
 1353              	.LBB199:
 1354              		.loc 5 364 16 view .LVU363
 1355 0016 8B980000 		movl	port_irq_sts@GOT(%eax), %ebx
 1355      0000
 1356              	.LBE199:
 1357              	.LBE201:
 1358              	.LBE204:
 1359              		.loc 1 419 12 view .LVU364
 1360 001c FF74241C 		pushl	28(%esp)
 1361              		.cfi_def_cfa_offset 32
 1362              	.LBB205:
 1363              	.LBB202:
 1364              	.LBB200:
 1365              		.loc 5 364 16 view .LVU365
 1366 0020 C7030100 		movl	$1, (%ebx)
 1366      0000
GAS LISTING /tmp/ccjtbjGp.s 			page 26


 1367              	.LBE200:
 1368              	.LBE202:
 1369              	.LBE205:
 1370              		.loc 4 356 34 is_stmt 1 view .LVU366
 1371              		.loc 4 357 20 view .LVU367
 1372              		.loc 1 419 3 view .LVU368
 1373              		.loc 1 419 12 is_stmt 0 view .LVU369
 1374 0026 E8FCFFFF 		call	chMBFetchTimeoutS
 1374      FF
 1375              	.LVL60:
 1376              		.loc 1 420 3 is_stmt 1 view .LVU370
 1377              	.LBB206:
 1378              	.LBI206:
 1379              		.loc 4 365 20 view .LVU371
 1380              	.LBB207:
 1381              		.loc 4 367 22 view .LVU372
 1382              		.loc 4 368 33 view .LVU373
 1383              		.loc 4 374 3 view .LVU374
 1384              		.loc 4 374 3 view .LVU375
 1385              		.loc 4 378 3 view .LVU376
 1386              	.LBB208:
 1387              	.LBI208:
 1388              		.loc 5 371 20 view .LVU377
 1389              	.LBB209:
 1390              		.loc 5 373 3 view .LVU378
 1391              		.loc 5 373 16 is_stmt 0 view .LVU379
 1392 002b C7030000 		movl	$0, (%ebx)
 1392      0000
 1393              	.LBE209:
 1394              	.LBE208:
 1395              	.LBE207:
 1396              	.LBE206:
 1397              		.loc 1 422 3 is_stmt 1 view .LVU380
 1398              		.loc 1 423 1 is_stmt 0 view .LVU381
 1399 0031 83C418   		addl	$24, %esp
 1400              		.cfi_def_cfa_offset 8
 1401 0034 5B       		popl	%ebx
 1402              		.cfi_restore 3
 1403              		.cfi_def_cfa_offset 4
 1404 0035 C3       		ret
 1405              		.cfi_endproc
 1406              	.LFE147:
 1407              		.size	chMBFetchTimeout, .-chMBFetchTimeout
 1408              		.section	.text.chMBFetchI,"ax",@progbits
 1409              		.p2align 4,,15
 1410              		.globl	chMBFetchI
 1411              		.type	chMBFetchI, @function
 1412              	chMBFetchI:
 1413              	.LVL61:
 1414              	.LFB149:
 1415              		.loc 1 493 47 is_stmt 1 view -0
 1416              		.cfi_startproc
 1417              		.loc 1 495 21 view .LVU383
 1418              		.loc 1 496 3 view .LVU384
 1419              		.loc 1 496 3 view .LVU385
 1420              		.loc 1 499 3 view .LVU386
 1421              		.loc 1 493 47 is_stmt 0 view .LVU387
GAS LISTING /tmp/ccjtbjGp.s 			page 27


 1422 0000 56       		pushl	%esi
 1423              		.cfi_def_cfa_offset 8
 1424              		.cfi_offset 6, -8
 1425 0001 53       		pushl	%ebx
 1426              		.cfi_def_cfa_offset 12
 1427              		.cfi_offset 3, -12
 1428 0002 E8FCFFFF 		call	__x86.get_pc_thunk.bx
 1428      FF
 1429 0007 81C30200 		addl	$_GLOBAL_OFFSET_TABLE_, %ebx
 1429      0000
 1430 000d 83EC04   		subl	$4, %esp
 1431              		.cfi_def_cfa_offset 16
 1432              		.loc 1 493 47 view .LVU388
 1433 0010 8B442410 		movl	16(%esp), %eax
 1434              		.loc 1 499 6 view .LVU389
 1435 0014 80781400 		cmpb	$0, 20(%eax)
 1436 0018 7556     		jne	.L66
 1437              		.loc 1 504 3 is_stmt 1 view .LVU390
 1438              	.LVL62:
 1439              		.loc 6 158 21 view .LVU391
 1440              		.loc 6 160 3 view .LVU392
 1441              		.loc 1 504 6 is_stmt 0 view .LVU393
 1442 001a 8B5010   		movl	16(%eax), %edx
 1443 001d 85D2     		testl	%edx, %edx
 1444 001f 743F     		je	.L67
 1445              		.loc 1 505 5 is_stmt 1 view .LVU394
 1446              		.loc 1 505 17 is_stmt 0 view .LVU395
 1447 0021 8B480C   		movl	12(%eax), %ecx
 1448              		.loc 1 505 24 view .LVU396
 1449 0024 8D5104   		leal	4(%ecx), %edx
 1450              		.loc 1 505 13 view .LVU397
 1451 0027 8B31     		movl	(%ecx), %esi
 1452              		.loc 1 505 11 view .LVU398
 1453 0029 8B4C2414 		movl	20(%esp), %ecx
 1454              		.loc 1 505 24 view .LVU399
 1455 002d 89500C   		movl	%edx, 12(%eax)
 1456              		.loc 1 505 11 view .LVU400
 1457 0030 8931     		movl	%esi, (%ecx)
 1458              		.loc 1 506 5 is_stmt 1 view .LVU401
 1459              		.loc 1 506 8 is_stmt 0 view .LVU402
 1460 0032 3B5004   		cmpl	4(%eax), %edx
 1461 0035 7321     		jnb	.L69
 1462              	.L65:
 1463              		.loc 1 509 5 is_stmt 1 view .LVU403
 1464              		.loc 1 509 13 is_stmt 0 view .LVU404
 1465 0037 83681001 		subl	$1, 16(%eax)
 1466              		.loc 1 512 5 is_stmt 1 view .LVU405
 1467 003b 83EC08   		subl	$8, %esp
 1468              		.cfi_def_cfa_offset 24
 1469 003e 83C018   		addl	$24, %eax
 1470              	.LVL63:
 1471              		.loc 1 512 5 is_stmt 0 view .LVU406
 1472 0041 6A00     		pushl	$0
 1473              		.cfi_def_cfa_offset 28
 1474 0043 50       		pushl	%eax
 1475              		.cfi_def_cfa_offset 32
 1476 0044 E8FCFFFF 		call	chThdDequeueNextI@PLT
GAS LISTING /tmp/ccjtbjGp.s 			page 28


 1476      FF
 1477              	.LVL64:
 1478              		.loc 1 514 5 is_stmt 1 view .LVU407
 1479              		.loc 1 514 12 is_stmt 0 view .LVU408
 1480 0049 83C410   		addl	$16, %esp
 1481              		.cfi_def_cfa_offset 16
 1482 004c 31C0     		xorl	%eax, %eax
 1483              	.LVL65:
 1484              	.L63:
 1485              		.loc 1 519 1 view .LVU409
 1486 004e 83C404   		addl	$4, %esp
 1487              		.cfi_remember_state
 1488              		.cfi_def_cfa_offset 12
 1489 0051 5B       		popl	%ebx
 1490              		.cfi_restore 3
 1491              		.cfi_def_cfa_offset 8
 1492 0052 5E       		popl	%esi
 1493              		.cfi_restore 6
 1494              		.cfi_def_cfa_offset 4
 1495 0053 C3       		ret
 1496              	.LVL66:
 1497              		.p2align 4,,10
 1498 0054 8D742600 		.p2align 3
 1499              	.L69:
 1500              		.cfi_restore_state
 1501              		.loc 1 507 7 is_stmt 1 view .LVU410
 1502              		.loc 1 507 18 is_stmt 0 view .LVU411
 1503 0058 8B10     		movl	(%eax), %edx
 1504 005a 89500C   		movl	%edx, 12(%eax)
 1505 005d EBD8     		jmp	.L65
 1506 005f 90       		.p2align 4,,10
 1507              		.p2align 3
 1508              	.L67:
 1509              		.loc 1 518 10 view .LVU412
 1510 0060 B8FFFFFF 		movl	$-1, %eax
 1510      FF
 1511              	.LVL67:
 1512              		.loc 1 518 10 view .LVU413
 1513 0065 EBE7     		jmp	.L63
 1514              	.LVL68:
 1515 0067 8DB42600 		.p2align 4,,10
 1515      00000066 
 1515      90
 1516              		.p2align 3
 1517              	.L66:
 1518              		.loc 1 500 12 view .LVU414
 1519 0070 B8FEFFFF 		movl	$-2, %eax
 1519      FF
 1520 0075 EBD7     		jmp	.L63
 1521              		.cfi_endproc
 1522              	.LFE149:
 1523              		.size	chMBFetchI, .-chMBFetchI
 1524              		.section	.text.__x86.get_pc_thunk.ax,"axG",@progbits,__x86.get_pc_thunk.ax,comdat
 1525              		.globl	__x86.get_pc_thunk.ax
 1526              		.hidden	__x86.get_pc_thunk.ax
 1527              		.type	__x86.get_pc_thunk.ax, @function
 1528              	__x86.get_pc_thunk.ax:
GAS LISTING /tmp/ccjtbjGp.s 			page 29


 1529              	.LFB155:
 1530              		.cfi_startproc
 1531 0000 8B0424   		movl	(%esp), %eax
 1532 0003 C3       		ret
 1533              		.cfi_endproc
 1534              	.LFE155:
 1535              		.section	.text.__x86.get_pc_thunk.bx,"axG",@progbits,__x86.get_pc_thunk.bx,comdat
 1536              		.globl	__x86.get_pc_thunk.bx
 1537              		.hidden	__x86.get_pc_thunk.bx
 1538              		.type	__x86.get_pc_thunk.bx, @function
 1539              	__x86.get_pc_thunk.bx:
 1540              	.LFB156:
 1541              		.cfi_startproc
 1542 0000 8B1C24   		movl	(%esp), %ebx
 1543 0003 C3       		ret
 1544              		.cfi_endproc
 1545              	.LFE156:
 1546              		.text
 1547              	.Letext0:
 1548              		.file 7 "/usr/lib/gcc/x86_64-linux-gnu/8/include/stddef.h"
 1549              		.file 8 "/usr/include/i386-linux-gnu/bits/types.h"
 1550              		.file 9 "/usr/include/i386-linux-gnu/bits/stdint-intn.h"
 1551              		.file 10 "/usr/include/i386-linux-gnu/bits/stdint-uintn.h"
 1552              		.file 11 "../../../os/common/ports/SIMIA32/compilers/GCC/chtypes.h"
 1553              		.file 12 "../../../os/rt/include/chsystypes.h"
 1554              		.file 13 "../../../os/rt/include/chtime.h"
 1555              		.file 14 "../../../os/rt/include/chtm.h"
 1556              		.file 15 "../../../os/rt/include/chsem.h"
 1557              		.file 16 "../../../os/rt/include/chmtx.h"
 1558              		.file 17 "../../../os/rt/include/chregistry.h"
 1559              		.file 18 "../../../os/common/oslib/include/chmemcore.h"
 1560              		.file 19 "../../../os/common/oslib/include/chmempools.h"
 1561              		.file 20 "../../../os/common/oslib/include/chfactory.h"
 6138              		.section	.note.GNU-stack,"",@progbits
GAS LISTING /tmp/ccjtbjGp.s 			page 117

