GAS LISTING /tmp/cchw4uxw.s 			page 1


   1              		.file	"chmempools.c"
   2              		.text
   3              	.Ltext0:
   4              		.section	.text.chPoolAllocI.part.0,"ax",@progbits
   5              		.p2align 4,,15
   6              		.type	chPoolAllocI.part.0, @function
   7              	chPoolAllocI.part.0:
   8              	.LVL0:
   9              	.LFB150:
  10              		.file 1 "../../../os/common/oslib/src/chmempools.c"
  11              		.loc 1 126 7 view -0
  12              		.cfi_startproc
  13              		.loc 1 137 8 view .LVU1
  14              		.loc 1 137 14 is_stmt 0 view .LVU2
  15 0000 8B500C   		movl	12(%eax), %edx
  16              		.loc 1 137 11 view .LVU3
  17 0003 85D2     		testl	%edx, %edx
  18 0005 7419     		je	.L3
  19              		.loc 1 138 5 is_stmt 1 view .LVU4
  20              		.loc 1 126 7 is_stmt 0 view .LVU5
  21 0007 83EC14   		subl	$20, %esp
  22              		.cfi_def_cfa_offset 24
  23              		.loc 1 138 12 view .LVU6
  24 000a FF7008   		pushl	8(%eax)
  25              		.cfi_def_cfa_offset 28
  26 000d FF7004   		pushl	4(%eax)
  27              		.cfi_def_cfa_offset 32
  28 0010 FFD2     		call	*%edx
  29              	.LVL1:
  30              		.loc 1 143 1 view .LVU7
  31 0012 83C41C   		addl	$28, %esp
  32              		.cfi_def_cfa_offset 4
  33 0015 C3       		ret
  34              	.LVL2:
  35 0016 8DB42600 		.p2align 4,,10
  35      0000008D 
  35      7600
  36              		.p2align 3
  37              	.L3:
  38              		.loc 1 132 8 view .LVU8
  39 0020 31C0     		xorl	%eax, %eax
  40              	.LVL3:
  41              		.loc 1 142 3 is_stmt 1 view .LVU9
  42              		.loc 1 143 1 is_stmt 0 view .LVU10
  43 0022 C3       		ret
  44              		.cfi_endproc
  45              	.LFE150:
  46              		.size	chPoolAllocI.part.0, .-chPoolAllocI.part.0
  47              		.section	.text.chPoolObjectInitAligned,"ax",@progbits
  48              		.p2align 4,,15
  49              		.globl	chPoolObjectInitAligned
  50              		.type	chPoolObjectInitAligned, @function
  51              	chPoolObjectInitAligned:
  52              	.LVL4:
  53              	.LFB138:
  54              		.loc 1 78 69 is_stmt 1 view -0
  55              		.cfi_startproc
GAS LISTING /tmp/cchw4uxw.s 			page 2


  56              		.loc 1 80 3 view .LVU12
  57              		.loc 1 80 3 view .LVU13
  58              		.loc 1 82 3 view .LVU14
  59              		.loc 1 78 69 is_stmt 0 view .LVU15
  60 0000 8B442404 		movl	4(%esp), %eax
  61              		.loc 1 83 19 view .LVU16
  62 0004 8B542408 		movl	8(%esp), %edx
  63 0008 895004   		movl	%edx, 4(%eax)
  64              		.loc 1 84 13 view .LVU17
  65 000b 8B54240C 		movl	12(%esp), %edx
  66              		.loc 1 82 12 view .LVU18
  67 000f C7000000 		movl	$0, (%eax)
  67      0000
  68              		.loc 1 83 3 is_stmt 1 view .LVU19
  69              		.loc 1 84 3 view .LVU20
  70              		.loc 1 84 13 is_stmt 0 view .LVU21
  71 0015 895008   		movl	%edx, 8(%eax)
  72              		.loc 1 85 3 is_stmt 1 view .LVU22
  73              		.loc 1 85 16 is_stmt 0 view .LVU23
  74 0018 8B542410 		movl	16(%esp), %edx
  75 001c 89500C   		movl	%edx, 12(%eax)
  76              		.loc 1 86 1 view .LVU24
  77 001f C3       		ret
  78              		.cfi_endproc
  79              	.LFE138:
  80              		.size	chPoolObjectInitAligned, .-chPoolObjectInitAligned
  81              		.section	.text.chPoolLoadArray,"ax",@progbits
  82              		.p2align 4,,15
  83              		.globl	chPoolLoadArray
  84              		.type	chPoolLoadArray, @function
  85              	chPoolLoadArray:
  86              	.LVL5:
  87              	.LFB139:
  88              		.loc 1 103 60 is_stmt 1 view -0
  89              		.cfi_startproc
  90              		.loc 1 105 3 view .LVU26
  91              		.loc 1 105 3 view .LVU27
  92              		.loc 1 107 3 view .LVU28
  93              		.loc 1 103 60 is_stmt 0 view .LVU29
  94 0000 55       		pushl	%ebp
  95              		.cfi_def_cfa_offset 8
  96              		.cfi_offset 5, -8
  97 0001 E8FCFFFF 		call	__x86.get_pc_thunk.bp
  97      FF
  98 0006 81C50200 		addl	$_GLOBAL_OFFSET_TABLE_, %ebp
  98      0000
  99 000c 57       		pushl	%edi
 100              		.cfi_def_cfa_offset 12
 101              		.cfi_offset 7, -12
 102 000d 56       		pushl	%esi
 103              		.cfi_def_cfa_offset 16
 104              		.cfi_offset 6, -16
 105 000e 53       		pushl	%ebx
 106              		.cfi_def_cfa_offset 20
 107              		.cfi_offset 3, -20
 108              		.loc 1 103 60 view .LVU30
 109 000f 8B54241C 		movl	28(%esp), %edx
GAS LISTING /tmp/cchw4uxw.s 			page 3


 110              		.loc 1 103 60 view .LVU31
 111 0013 8B742414 		movl	20(%esp), %esi
 112 0017 8B442418 		movl	24(%esp), %eax
 113              		.loc 1 107 9 view .LVU32
 114 001b 85D2     		testl	%edx, %edx
 115 001d 742D     		je	.L10
 116              		.loc 1 110 37 view .LVU33
 117 001f 8B7E04   		movl	4(%esi), %edi
 118 0022 8B0E     		movl	(%esi), %ecx
 119 0024 EB0C     		jmp	.L12
 120              	.LVL6:
 121 0026 8DB42600 		.p2align 4,,10
 121      0000008D 
 121      7600
 122              		.p2align 3
 123              	.L13:
 124              		.loc 1 110 7 view .LVU34
 125 0030 89D8     		movl	%ebx, %eax
 126              	.LVL7:
 127              	.L12:
 128              		.loc 1 108 5 is_stmt 1 view .LVU35
 129              	.LBB104:
 130              	.LBI104:
 131              		.file 2 "../../../os/common/oslib/include/chmempools.h"
 132              		.loc 2 216 20 view .LVU36
 133              		.loc 2 216 20 is_stmt 0 view .LVU37
 134              	.LBE104:
 135              		.loc 2 218 3 is_stmt 1 view .LVU38
 136              	.LBB112:
 137              	.LBB105:
 138              	.LBI105:
 139              		.loc 1 202 6 view .LVU39
 140              	.LBE105:
 141              	.LBE112:
 142              		.loc 1 204 3 view .LVU40
 143              		.file 3 "../../../os/rt/include/chsys.h"
 144              		.loc 3 355 3 view .LVU41
 145              		.file 4 "../../../os/common/ports/SIMIA32/chcore.h"
 146              		.loc 4 364 3 view .LVU42
 147              		.loc 3 356 34 view .LVU43
 148              		.loc 3 357 20 view .LVU44
 149              		.loc 1 205 3 view .LVU45
 150              	.LBB113:
 151              	.LBB110:
 152              	.LBB106:
 153              	.LBI106:
 154              		.loc 1 177 6 view .LVU46
 155              	.LBB107:
 156              		.loc 1 178 3 view .LVU47
 157              		.loc 1 180 21 view .LVU48
 158              		.loc 1 181 3 view .LVU49
 159              		.loc 1 181 3 view .LVU50
 160              		.loc 1 183 3 view .LVU51
 161              		.loc 1 183 3 view .LVU52
 162              		.loc 1 186 3 view .LVU53
 163              		.loc 1 186 13 is_stmt 0 view .LVU54
 164 0032 8908     		movl	%ecx, (%eax)
GAS LISTING /tmp/cchw4uxw.s 			page 4


 165              		.loc 1 187 3 is_stmt 1 view .LVU55
 166              	.LBE107:
 167              	.LBE106:
 168              	.LBE110:
 169              	.LBE113:
 170              		.loc 1 110 7 is_stmt 0 view .LVU56
 171 0034 8D1C38   		leal	(%eax,%edi), %ebx
 172 0037 89C1     		movl	%eax, %ecx
 173              	.LBB114:
 174              	.LBB111:
 175              	.LBB109:
 176              	.LBB108:
 177              		.loc 1 187 12 view .LVU57
 178 0039 8906     		movl	%eax, (%esi)
 179              	.LVL8:
 180              		.loc 1 187 12 view .LVU58
 181              	.LBE108:
 182              	.LBE109:
 183              	.LBE111:
 184              	.LBE114:
 185              		.loc 1 206 3 is_stmt 1 view .LVU59
 186              		.loc 3 367 22 view .LVU60
 187              		.loc 3 368 33 view .LVU61
 188              		.loc 3 374 3 view .LVU62
 189              		.loc 3 374 3 view .LVU63
 190              		.loc 3 378 3 view .LVU64
 191              		.loc 4 373 3 view .LVU65
 192              		.loc 1 110 5 view .LVU66
 193              		.loc 1 112 5 view .LVU67
 194              		.loc 1 107 9 is_stmt 0 view .LVU68
 195 003b 83EA01   		subl	$1, %edx
 196              	.LVL9:
 197              		.loc 1 107 9 view .LVU69
 198 003e 75F0     		jne	.L13
 199              		.loc 1 107 9 view .LVU70
 200 0040 8B850000 		movl	port_irq_sts@GOT(%ebp), %eax
 200      0000
 201              	.LVL10:
 202              		.loc 1 107 9 view .LVU71
 203 0046 C7000000 		movl	$0, (%eax)
 203      0000
 204              	.LVL11:
 205              	.L10:
 206              		.loc 1 114 1 view .LVU72
 207 004c 5B       		popl	%ebx
 208              		.cfi_restore 3
 209              		.cfi_def_cfa_offset 16
 210 004d 5E       		popl	%esi
 211              		.cfi_restore 6
 212              		.cfi_def_cfa_offset 12
 213              	.LVL12:
 214              		.loc 1 114 1 view .LVU73
 215 004e 5F       		popl	%edi
 216              		.cfi_restore 7
 217              		.cfi_def_cfa_offset 8
 218 004f 5D       		popl	%ebp
 219              		.cfi_restore 5
GAS LISTING /tmp/cchw4uxw.s 			page 5


 220              		.cfi_def_cfa_offset 4
 221 0050 C3       		ret
 222              		.cfi_endproc
 223              	.LFE139:
 224              		.size	chPoolLoadArray, .-chPoolLoadArray
 225              		.section	.text.chPoolAllocI,"ax",@progbits
 226              		.p2align 4,,15
 227              		.globl	chPoolAllocI
 228              		.type	chPoolAllocI, @function
 229              	chPoolAllocI:
 230              	.LVL13:
 231              	.LFB140:
 232              		.loc 1 126 39 is_stmt 1 view -0
 233              		.cfi_startproc
 234              		.loc 1 127 3 view .LVU75
 235              		.loc 1 129 21 view .LVU76
 236              		.loc 1 130 3 view .LVU77
 237              		.loc 1 130 3 view .LVU78
 238              		.loc 1 132 3 view .LVU79
 239              		.loc 1 126 39 is_stmt 0 view .LVU80
 240 0000 8B542404 		movl	4(%esp), %edx
 241              		.loc 1 132 8 view .LVU81
 242 0004 8B02     		movl	(%edx), %eax
 243              	.LVL14:
 244              		.loc 1 134 3 is_stmt 1 view .LVU82
 245              		.loc 1 134 6 is_stmt 0 view .LVU83
 246 0006 85C0     		testl	%eax, %eax
 247 0008 7406     		je	.L23
 248              		.loc 1 135 5 is_stmt 1 view .LVU84
 249              		.loc 1 135 14 is_stmt 0 view .LVU85
 250 000a 8B08     		movl	(%eax), %ecx
 251 000c 890A     		movl	%ecx, (%edx)
 252              		.loc 1 143 1 view .LVU86
 253 000e C3       		ret
 254 000f 90       		.p2align 4,,10
 255              		.p2align 3
 256              	.L23:
 257              		.loc 1 143 1 view .LVU87
 258 0010 89D0     		movl	%edx, %eax
 259              	.LVL15:
 260              		.loc 1 143 1 view .LVU88
 261 0012 E9FCFFFF 		jmp	chPoolAllocI.part.0
 261      FF
 262              	.LVL16:
 263              		.loc 1 143 1 view .LVU89
 264              		.cfi_endproc
 265              	.LFE140:
 266              		.size	chPoolAllocI, .-chPoolAllocI
 267              		.section	.text.chPoolAlloc,"ax",@progbits
 268              		.p2align 4,,15
 269              		.globl	chPoolAlloc
 270              		.type	chPoolAlloc, @function
 271              	chPoolAlloc:
 272              	.LVL17:
 273              	.LFB141:
 274              		.loc 1 155 38 is_stmt 1 view -0
 275              		.cfi_startproc
GAS LISTING /tmp/cchw4uxw.s 			page 6


 276              		.loc 1 156 3 view .LVU91
 277              		.loc 1 158 3 view .LVU92
 278              	.LBB115:
 279              	.LBI115:
 280              		.loc 3 353 20 view .LVU93
 281              	.LBE115:
 282              		.loc 3 355 3 view .LVU94
 283              	.LBB122:
 284              	.LBB116:
 285              	.LBI116:
 286              		.loc 4 362 20 view .LVU95
 287              	.LBB117:
 288              		.loc 4 364 3 view .LVU96
 289 0000 E8FCFFFF 		call	__x86.get_pc_thunk.ax
 289      FF
 290 0005 05010000 		addl	$_GLOBAL_OFFSET_TABLE_, %eax
 290      00
 291              	.LBE117:
 292              	.LBE116:
 293              	.LBE122:
 294              		.loc 1 155 38 is_stmt 0 view .LVU97
 295 000a 53       		pushl	%ebx
 296              		.cfi_def_cfa_offset 8
 297              		.cfi_offset 3, -8
 298 000b 83EC08   		subl	$8, %esp
 299              		.cfi_def_cfa_offset 16
 300              		.loc 1 155 38 view .LVU98
 301 000e 8B542410 		movl	16(%esp), %edx
 302              	.LBB123:
 303              	.LBB120:
 304              	.LBB118:
 305              		.loc 4 364 16 view .LVU99
 306 0012 8B980000 		movl	port_irq_sts@GOT(%eax), %ebx
 306      0000
 307              	.LBE118:
 308              	.LBE120:
 309              	.LBE123:
 310              	.LBB124:
 311              	.LBB125:
 312              		.loc 1 132 8 view .LVU100
 313 0018 8B02     		movl	(%edx), %eax
 314              	.LBE125:
 315              	.LBE124:
 316              	.LBB128:
 317              	.LBB121:
 318              	.LBB119:
 319              		.loc 4 364 16 view .LVU101
 320 001a C7030100 		movl	$1, (%ebx)
 320      0000
 321              	.LBE119:
 322              	.LBE121:
 323              	.LBE128:
 324              		.loc 3 356 34 is_stmt 1 view .LVU102
 325              		.loc 3 357 20 view .LVU103
 326              		.loc 1 159 3 view .LVU104
 327              	.LVL18:
 328              	.LBB129:
GAS LISTING /tmp/cchw4uxw.s 			page 7


 329              	.LBI124:
 330              		.loc 1 126 7 view .LVU105
 331              	.LBB126:
 332              		.loc 1 127 3 view .LVU106
 333              		.loc 1 129 21 view .LVU107
 334              		.loc 1 130 3 view .LVU108
 335              		.loc 1 130 3 view .LVU109
 336              		.loc 1 132 3 view .LVU110
 337              		.loc 1 134 3 view .LVU111
 338              		.loc 1 134 6 is_stmt 0 view .LVU112
 339 0020 85C0     		testl	%eax, %eax
 340 0022 7414     		je	.L25
 341              		.loc 1 135 5 is_stmt 1 view .LVU113
 342              		.loc 1 135 14 is_stmt 0 view .LVU114
 343 0024 8B08     		movl	(%eax), %ecx
 344 0026 890A     		movl	%ecx, (%edx)
 345              		.loc 1 142 3 is_stmt 1 view .LVU115
 346              	.LVL19:
 347              		.loc 1 142 3 is_stmt 0 view .LVU116
 348              	.LBE126:
 349              	.LBE129:
 350              		.loc 1 160 3 is_stmt 1 view .LVU117
 351              	.LBB130:
 352              	.LBI130:
 353              		.loc 3 365 20 view .LVU118
 354              	.LBB131:
 355              		.loc 3 367 22 view .LVU119
 356              		.loc 3 368 33 view .LVU120
 357              		.loc 3 374 3 view .LVU121
 358              		.loc 3 374 3 view .LVU122
 359              		.loc 3 378 3 view .LVU123
 360              	.LBB132:
 361              	.LBI132:
 362              		.loc 4 371 20 view .LVU124
 363              	.LBB133:
 364              		.loc 4 373 3 view .LVU125
 365              		.loc 4 373 16 is_stmt 0 view .LVU126
 366 0028 C7030000 		movl	$0, (%ebx)
 366      0000
 367              	.LBE133:
 368              	.LBE132:
 369              	.LBE131:
 370              	.LBE130:
 371              		.loc 1 162 3 is_stmt 1 view .LVU127
 372              		.loc 1 163 1 is_stmt 0 view .LVU128
 373 002e 83C408   		addl	$8, %esp
 374              		.cfi_remember_state
 375              		.cfi_def_cfa_offset 8
 376 0031 5B       		popl	%ebx
 377              		.cfi_restore 3
 378              		.cfi_def_cfa_offset 4
 379 0032 C3       		ret
 380              	.LVL20:
 381              		.p2align 4,,10
 382 0033 8D742600 		.p2align 3
 382      90
 383              	.L25:
GAS LISTING /tmp/cchw4uxw.s 			page 8


 384              		.cfi_restore_state
 385              	.LBB137:
 386              	.LBB127:
 387              		.loc 1 163 1 view .LVU129
 388 0038 89D0     		movl	%edx, %eax
 389              	.LVL21:
 390              		.loc 1 163 1 view .LVU130
 391 003a E8FCFFFF 		call	chPoolAllocI.part.0
 391      FF
 392              	.LVL22:
 393              		.loc 1 142 3 is_stmt 1 view .LVU131
 394              		.loc 1 142 3 is_stmt 0 view .LVU132
 395              	.LBE127:
 396              	.LBE137:
 397              		.loc 1 160 3 is_stmt 1 view .LVU133
 398              	.LBB138:
 399              		.loc 3 365 20 view .LVU134
 400              	.LBB136:
 401              		.loc 3 367 22 view .LVU135
 402              		.loc 3 368 33 view .LVU136
 403              		.loc 3 374 3 view .LVU137
 404              		.loc 3 374 3 view .LVU138
 405              		.loc 3 378 3 view .LVU139
 406              	.LBB135:
 407              		.loc 4 371 20 view .LVU140
 408              	.LBB134:
 409              		.loc 4 373 3 view .LVU141
 410              		.loc 4 373 16 is_stmt 0 view .LVU142
 411 003f C7030000 		movl	$0, (%ebx)
 411      0000
 412              	.LBE134:
 413              	.LBE135:
 414              	.LBE136:
 415              	.LBE138:
 416              		.loc 1 162 3 is_stmt 1 view .LVU143
 417              		.loc 1 163 1 is_stmt 0 view .LVU144
 418 0045 83C408   		addl	$8, %esp
 419              		.cfi_def_cfa_offset 8
 420 0048 5B       		popl	%ebx
 421              		.cfi_restore 3
 422              		.cfi_def_cfa_offset 4
 423 0049 C3       		ret
 424              		.cfi_endproc
 425              	.LFE141:
 426              		.size	chPoolAlloc, .-chPoolAlloc
 427              		.section	.text.chPoolFreeI,"ax",@progbits
 428              		.p2align 4,,15
 429              		.globl	chPoolFreeI
 430              		.type	chPoolFreeI, @function
 431              	chPoolFreeI:
 432              	.LVL23:
 433              	.LFB142:
 434              		.loc 1 177 49 is_stmt 1 view -0
 435              		.cfi_startproc
 436              		.loc 1 178 3 view .LVU146
 437              		.loc 1 177 49 is_stmt 0 view .LVU147
 438 0000 8B442404 		movl	4(%esp), %eax
GAS LISTING /tmp/cchw4uxw.s 			page 9


 439 0004 8B542408 		movl	8(%esp), %edx
 440              	.LVL24:
 441              		.loc 1 180 21 is_stmt 1 view .LVU148
 442              		.loc 1 181 3 view .LVU149
 443              		.loc 1 181 3 view .LVU150
 444              		.loc 1 183 3 view .LVU151
 445              		.loc 1 183 3 view .LVU152
 446              		.loc 1 186 3 view .LVU153
 447              		.loc 1 186 13 is_stmt 0 view .LVU154
 448 0008 8B08     		movl	(%eax), %ecx
 449 000a 890A     		movl	%ecx, (%edx)
 450              		.loc 1 187 3 is_stmt 1 view .LVU155
 451              		.loc 1 187 12 is_stmt 0 view .LVU156
 452 000c 8910     		movl	%edx, (%eax)
 453              		.loc 1 188 1 view .LVU157
 454 000e C3       		ret
 455              		.cfi_endproc
 456              	.LFE142:
 457              		.size	chPoolFreeI, .-chPoolFreeI
 458              		.section	.text.chPoolFree,"ax",@progbits
 459              		.p2align 4,,15
 460              		.globl	chPoolFree
 461              		.type	chPoolFree, @function
 462              	chPoolFree:
 463              	.LVL25:
 464              	.LFB143:
 465              		.loc 1 202 48 is_stmt 1 view -0
 466              		.cfi_startproc
 467              		.loc 1 204 3 view .LVU159
 468              		.loc 3 355 3 view .LVU160
 469              		.loc 4 364 3 view .LVU161
 470              		.loc 3 356 34 view .LVU162
 471              		.loc 3 357 20 view .LVU163
 472              		.loc 1 205 3 view .LVU164
 473 0000 E8FCFFFF 		call	__x86.get_pc_thunk.cx
 473      FF
 474 0005 81C10200 		addl	$_GLOBAL_OFFSET_TABLE_, %ecx
 474      0000
 475              		.loc 1 202 48 is_stmt 0 view .LVU165
 476 000b 53       		pushl	%ebx
 477              		.cfi_def_cfa_offset 8
 478              		.cfi_offset 3, -8
 479              		.loc 1 202 48 view .LVU166
 480 000c 8B442408 		movl	8(%esp), %eax
 481              	.LVL26:
 482              		.loc 1 202 48 view .LVU167
 483 0010 8B54240C 		movl	12(%esp), %edx
 484              	.LVL27:
 485              	.LBB139:
 486              	.LBI139:
 487              		.loc 1 177 6 is_stmt 1 view .LVU168
 488              	.LBB140:
 489              		.loc 1 178 3 view .LVU169
 490              		.loc 1 180 21 view .LVU170
 491              		.loc 1 181 3 view .LVU171
 492              		.loc 1 181 3 view .LVU172
 493              		.loc 1 183 3 view .LVU173
GAS LISTING /tmp/cchw4uxw.s 			page 10


 494              		.loc 1 183 3 view .LVU174
 495              		.loc 1 186 3 view .LVU175
 496              		.loc 1 186 13 is_stmt 0 view .LVU176
 497 0014 8B18     		movl	(%eax), %ebx
 498 0016 891A     		movl	%ebx, (%edx)
 499              		.loc 1 187 3 is_stmt 1 view .LVU177
 500              		.loc 1 187 12 is_stmt 0 view .LVU178
 501 0018 8910     		movl	%edx, (%eax)
 502              	.LVL28:
 503              		.loc 1 187 12 view .LVU179
 504              	.LBE140:
 505              	.LBE139:
 506              		.loc 1 206 3 is_stmt 1 view .LVU180
 507              	.LBB141:
 508              	.LBI141:
 509              		.loc 3 365 20 view .LVU181
 510              	.LBB142:
 511              		.loc 3 367 22 view .LVU182
 512              		.loc 3 368 33 view .LVU183
 513              		.loc 3 374 3 view .LVU184
 514              		.loc 3 374 3 view .LVU185
 515              		.loc 3 378 3 view .LVU186
 516              	.LBB143:
 517              	.LBI143:
 518              		.loc 4 371 20 view .LVU187
 519              	.LBB144:
 520              		.loc 4 373 3 view .LVU188
 521              		.loc 4 373 16 is_stmt 0 view .LVU189
 522 001a 8B810000 		movl	port_irq_sts@GOT(%ecx), %eax
 522      0000
 523 0020 C7000000 		movl	$0, (%eax)
 523      0000
 524              	.LBE144:
 525              	.LBE143:
 526              	.LBE142:
 527              	.LBE141:
 528              		.loc 1 207 1 view .LVU190
 529 0026 5B       		popl	%ebx
 530              		.cfi_restore 3
 531              		.cfi_def_cfa_offset 4
 532 0027 C3       		ret
 533              		.cfi_endproc
 534              	.LFE143:
 535              		.size	chPoolFree, .-chPoolFree
 536              		.section	.text.chGuardedPoolObjectInitAligned,"ax",@progbits
 537              		.p2align 4,,15
 538              		.globl	chGuardedPoolObjectInitAligned
 539              		.type	chGuardedPoolObjectInitAligned, @function
 540              	chGuardedPoolObjectInitAligned:
 541              	.LVL29:
 542              	.LFB144:
 543              		.loc 1 223 53 is_stmt 1 view -0
 544              		.cfi_startproc
 545              		.loc 1 225 3 view .LVU192
 546              		.loc 1 223 53 is_stmt 0 view .LVU193
 547 0000 53       		pushl	%ebx
 548              		.cfi_def_cfa_offset 8
GAS LISTING /tmp/cchw4uxw.s 			page 11


 549              		.cfi_offset 3, -8
 550 0001 E8FCFFFF 		call	__x86.get_pc_thunk.bx
 550      FF
 551 0006 81C30200 		addl	$_GLOBAL_OFFSET_TABLE_, %ebx
 551      0000
 552 000c 83EC10   		subl	$16, %esp
 553              		.cfi_def_cfa_offset 24
 554              		.loc 1 223 53 view .LVU194
 555 000f 8B442418 		movl	24(%esp), %eax
 556              	.LVL30:
 557              	.LBB145:
 558              	.LBI145:
 559              		.loc 1 77 6 is_stmt 1 view .LVU195
 560              	.LBB146:
 561              		.loc 1 80 3 view .LVU196
 562              		.loc 1 80 3 view .LVU197
 563              		.loc 1 82 3 view .LVU198
 564              		.loc 1 83 19 is_stmt 0 view .LVU199
 565 0013 8B54241C 		movl	28(%esp), %edx
 566 0017 895010   		movl	%edx, 16(%eax)
 567              		.loc 1 84 13 view .LVU200
 568 001a 8B542420 		movl	32(%esp), %edx
 569              		.loc 1 82 12 view .LVU201
 570 001e C7400C00 		movl	$0, 12(%eax)
 570      000000
 571              		.loc 1 83 3 is_stmt 1 view .LVU202
 572              		.loc 1 84 3 view .LVU203
 573              		.loc 1 84 13 is_stmt 0 view .LVU204
 574 0025 895014   		movl	%edx, 20(%eax)
 575              		.loc 1 85 3 is_stmt 1 view .LVU205
 576              		.loc 1 85 16 is_stmt 0 view .LVU206
 577 0028 C7401800 		movl	$0, 24(%eax)
 577      000000
 578              	.LVL31:
 579              		.loc 1 85 16 view .LVU207
 580              	.LBE146:
 581              	.LBE145:
 582              		.loc 1 226 3 is_stmt 1 view .LVU208
 583 002f 6A00     		pushl	$0
 584              		.cfi_def_cfa_offset 28
 585 0031 50       		pushl	%eax
 586              		.cfi_def_cfa_offset 32
 587 0032 E8FCFFFF 		call	chSemObjectInit@PLT
 587      FF
 588              	.LVL32:
 589              		.loc 1 227 1 is_stmt 0 view .LVU209
 590 0037 83C418   		addl	$24, %esp
 591              		.cfi_def_cfa_offset 8
 592 003a 5B       		popl	%ebx
 593              		.cfi_restore 3
 594              		.cfi_def_cfa_offset 4
 595 003b C3       		ret
 596              		.cfi_endproc
 597              	.LFE144:
 598              		.size	chGuardedPoolObjectInitAligned, .-chGuardedPoolObjectInitAligned
 599              		.section	.text.chGuardedPoolLoadArray,"ax",@progbits
 600              		.p2align 4,,15
GAS LISTING /tmp/cchw4uxw.s 			page 12


 601              		.globl	chGuardedPoolLoadArray
 602              		.type	chGuardedPoolLoadArray, @function
 603              	chGuardedPoolLoadArray:
 604              	.LVL33:
 605              	.LFB145:
 606              		.loc 1 242 76 is_stmt 1 view -0
 607              		.cfi_startproc
 608              		.loc 1 244 3 view .LVU211
 609              		.loc 1 244 3 view .LVU212
 610              		.loc 1 246 3 view .LVU213
 611              		.loc 1 242 76 is_stmt 0 view .LVU214
 612 0000 55       		pushl	%ebp
 613              		.cfi_def_cfa_offset 8
 614              		.cfi_offset 5, -8
 615 0001 57       		pushl	%edi
 616              		.cfi_def_cfa_offset 12
 617              		.cfi_offset 7, -12
 618 0002 56       		pushl	%esi
 619              		.cfi_def_cfa_offset 16
 620              		.cfi_offset 6, -16
 621 0003 53       		pushl	%ebx
 622              		.cfi_def_cfa_offset 20
 623              		.cfi_offset 3, -20
 624 0004 E8FCFFFF 		call	__x86.get_pc_thunk.bx
 624      FF
 625 0009 81C30200 		addl	$_GLOBAL_OFFSET_TABLE_, %ebx
 625      0000
 626 000f 83EC0C   		subl	$12, %esp
 627              		.cfi_def_cfa_offset 32
 628              		.loc 1 246 9 view .LVU215
 629 0012 8B442428 		movl	40(%esp), %eax
 630              		.loc 1 242 76 view .LVU216
 631 0016 8B7C2420 		movl	32(%esp), %edi
 632 001a 8B742424 		movl	36(%esp), %esi
 633              	.LVL34:
 634              		.loc 1 242 76 view .LVU217
 635 001e 8BAB0000 		movl	port_irq_sts@GOT(%ebx), %ebp
 635      0000
 636              		.loc 1 246 9 view .LVU218
 637 0024 85C0     		testl	%eax, %eax
 638 0026 7439     		je	.L33
 639              	.LVL35:
 640 0028 8DB42600 		.p2align 4,,10
 640      00000090 
 641              		.p2align 3
 642              	.L35:
 643              		.loc 1 247 5 is_stmt 1 view .LVU219
 644              	.LBB147:
 645              	.LBI147:
 646              		.loc 2 272 20 view .LVU220
 647              	.LBE147:
 648              		.loc 2 274 3 view .LVU221
 649              	.LBB179:
 650              	.LBB148:
 651              	.LBI148:
 652              		.loc 1 338 6 view .LVU222
 653              	.LBB149:
GAS LISTING /tmp/cchw4uxw.s 			page 13


 654              		.loc 1 340 3 view .LVU223
 655              	.LBB150:
 656              	.LBI150:
 657              		.loc 3 353 20 view .LVU224
 658              	.LBE150:
 659              	.LBE149:
 660              	.LBE148:
 661              	.LBE179:
 662              		.loc 3 355 3 view .LVU225
 663              	.LBB180:
 664              	.LBB176:
 665              	.LBB173:
 666              	.LBB155:
 667              	.LBB151:
 668              	.LBI151:
 669              		.loc 4 362 20 view .LVU226
 670              	.LBB152:
 671              		.loc 4 364 3 view .LVU227
 672              	.LBE152:
 673              	.LBE151:
 674              	.LBE155:
 675              	.LBB156:
 676              	.LBB157:
 677              	.LBB158:
 678              	.LBB159:
 679              		.loc 1 186 13 is_stmt 0 view .LVU228
 680 0030 8B570C   		movl	12(%edi), %edx
 681              	.LBE159:
 682              	.LBE158:
 683              		.loc 1 323 3 view .LVU229
 684 0033 83EC0C   		subl	$12, %esp
 685              		.cfi_def_cfa_offset 44
 686              	.LBE157:
 687              	.LBE156:
 688              	.LBB163:
 689              	.LBB154:
 690              	.LBB153:
 691              		.loc 4 364 16 view .LVU230
 692 0036 C7450001 		movl	$1, 0(%ebp)
 692      000000
 693              	.LBE153:
 694              	.LBE154:
 695              	.LBE163:
 696              	.LBE173:
 697              	.LBE176:
 698              	.LBE180:
 699              		.loc 3 356 34 is_stmt 1 view .LVU231
 700              		.loc 3 357 20 view .LVU232
 701              	.LBB181:
 702              	.LBB177:
 703              	.LBB174:
 704              		.loc 1 341 3 view .LVU233
 705              	.LVL36:
 706              	.LBB164:
 707              	.LBI156:
 708              		.loc 1 320 6 view .LVU234
 709              	.LBB162:
GAS LISTING /tmp/cchw4uxw.s 			page 14


 710              		.loc 1 322 3 view .LVU235
 711              	.LBB161:
 712              	.LBI158:
 713              		.loc 1 177 6 view .LVU236
 714              	.LBB160:
 715              		.loc 1 178 3 view .LVU237
 716              		.loc 1 180 21 view .LVU238
 717              		.loc 1 181 3 view .LVU239
 718              		.loc 1 181 3 view .LVU240
 719              		.loc 1 183 3 view .LVU241
 720              		.loc 1 183 3 view .LVU242
 721              		.loc 1 186 3 view .LVU243
 722              		.loc 1 186 13 is_stmt 0 view .LVU244
 723 003d 8916     		movl	%edx, (%esi)
 724              		.loc 1 187 3 is_stmt 1 view .LVU245
 725              		.loc 1 187 12 is_stmt 0 view .LVU246
 726 003f 89770C   		movl	%esi, 12(%edi)
 727              	.LVL37:
 728              		.loc 1 187 12 view .LVU247
 729              	.LBE160:
 730              	.LBE161:
 731              		.loc 1 323 3 is_stmt 1 view .LVU248
 732 0042 57       		pushl	%edi
 733              		.cfi_def_cfa_offset 48
 734 0043 E8FCFFFF 		call	chSemSignalI@PLT
 734      FF
 735              	.LVL38:
 736              		.loc 1 323 3 is_stmt 0 view .LVU249
 737              	.LBE162:
 738              	.LBE164:
 739              		.loc 1 342 3 is_stmt 1 view .LVU250
 740 0048 E8FCFFFF 		call	chSchRescheduleS@PLT
 740      FF
 741              	.LVL39:
 742              		.loc 1 343 3 view .LVU251
 743              	.LBB165:
 744              	.LBI165:
 745              		.loc 3 365 20 view .LVU252
 746              	.LBB166:
 747              		.loc 3 367 22 view .LVU253
 748              		.loc 3 368 33 view .LVU254
 749              		.loc 3 374 3 view .LVU255
 750              		.loc 3 374 3 view .LVU256
 751              		.loc 3 378 3 view .LVU257
 752              	.LBB167:
 753              	.LBI167:
 754              		.loc 4 371 20 view .LVU258
 755              	.LBB168:
 756              		.loc 4 373 3 view .LVU259
 757              	.LBE168:
 758              	.LBE167:
 759              	.LBE166:
 760              	.LBE165:
 761              	.LBE174:
 762              	.LBE177:
 763              	.LBE181:
 764              		.loc 1 246 9 is_stmt 0 view .LVU260
GAS LISTING /tmp/cchw4uxw.s 			page 15


 765 004d 83C410   		addl	$16, %esp
 766              		.cfi_def_cfa_offset 32
 767              		.loc 1 249 7 view .LVU261
 768 0050 037710   		addl	16(%edi), %esi
 769              	.LVL40:
 770              	.LBB182:
 771              	.LBB178:
 772              	.LBB175:
 773              	.LBB172:
 774              	.LBB171:
 775              	.LBB170:
 776              	.LBB169:
 777              		.loc 4 373 16 view .LVU262
 778 0053 C7450000 		movl	$0, 0(%ebp)
 778      000000
 779              	.LVL41:
 780              		.loc 4 373 16 view .LVU263
 781              	.LBE169:
 782              	.LBE170:
 783              	.LBE171:
 784              	.LBE172:
 785              	.LBE175:
 786              	.LBE178:
 787              	.LBE182:
 788              		.loc 1 249 5 is_stmt 1 view .LVU264
 789              		.loc 1 251 5 view .LVU265
 790              		.loc 1 246 9 is_stmt 0 view .LVU266
 791 005a 836C2428 		subl	$1, 40(%esp)
 791      01
 792 005f 75CF     		jne	.L35
 793              	.L33:
 794              		.loc 1 253 1 view .LVU267
 795 0061 83C40C   		addl	$12, %esp
 796              		.cfi_def_cfa_offset 20
 797 0064 5B       		popl	%ebx
 798              		.cfi_restore 3
 799              		.cfi_def_cfa_offset 16
 800 0065 5E       		popl	%esi
 801              		.cfi_restore 6
 802              		.cfi_def_cfa_offset 12
 803 0066 5F       		popl	%edi
 804              		.cfi_restore 7
 805              		.cfi_def_cfa_offset 8
 806 0067 5D       		popl	%ebp
 807              		.cfi_restore 5
 808              		.cfi_def_cfa_offset 4
 809 0068 C3       		ret
 810              		.cfi_endproc
 811              	.LFE145:
 812              		.size	chGuardedPoolLoadArray, .-chGuardedPoolLoadArray
 813              		.section	.text.chGuardedPoolAllocTimeoutS,"ax",@progbits
 814              		.p2align 4,,15
 815              		.globl	chGuardedPoolAllocTimeoutS
 816              		.type	chGuardedPoolAllocTimeoutS, @function
 817              	chGuardedPoolAllocTimeoutS:
 818              	.LVL42:
 819              	.LFB146:
GAS LISTING /tmp/cchw4uxw.s 			page 16


 820              		.loc 1 271 57 is_stmt 1 view -0
 821              		.cfi_startproc
 822              		.loc 1 272 3 view .LVU269
 823              		.loc 1 274 3 view .LVU270
 824              		.loc 1 271 57 is_stmt 0 view .LVU271
 825 0000 56       		pushl	%esi
 826              		.cfi_def_cfa_offset 8
 827              		.cfi_offset 6, -8
 828 0001 53       		pushl	%ebx
 829              		.cfi_def_cfa_offset 12
 830              		.cfi_offset 3, -12
 831 0002 E8FCFFFF 		call	__x86.get_pc_thunk.bx
 831      FF
 832 0007 81C30200 		addl	$_GLOBAL_OFFSET_TABLE_, %ebx
 832      0000
 833 000d 83EC0C   		subl	$12, %esp
 834              		.cfi_def_cfa_offset 24
 835              		.loc 1 271 57 view .LVU272
 836 0010 8B742418 		movl	24(%esp), %esi
 837              		.loc 1 274 9 view .LVU273
 838 0014 FF74241C 		pushl	28(%esp)
 839              		.cfi_def_cfa_offset 28
 840 0018 56       		pushl	%esi
 841              		.cfi_def_cfa_offset 32
 842 0019 E8FCFFFF 		call	chSemWaitTimeoutS@PLT
 842      FF
 843              	.LVL43:
 844              		.loc 1 275 3 is_stmt 1 view .LVU274
 845              		.loc 1 275 6 is_stmt 0 view .LVU275
 846 001e 83C410   		addl	$16, %esp
 847              		.cfi_def_cfa_offset 16
 848 0021 85C0     		testl	%eax, %eax
 849 0023 752B     		jne	.L43
 850              		.loc 1 279 3 is_stmt 1 view .LVU276
 851              	.LVL44:
 852              	.LBB183:
 853              	.LBI183:
 854              		.loc 1 126 7 view .LVU277
 855              	.LBB184:
 856              		.loc 1 127 3 view .LVU278
 857              		.loc 1 129 21 view .LVU279
 858              		.loc 1 130 3 view .LVU280
 859              		.loc 1 130 3 view .LVU281
 860              		.loc 1 132 3 view .LVU282
 861              		.loc 1 132 8 is_stmt 0 view .LVU283
 862 0025 8B460C   		movl	12(%esi), %eax
 863              	.LVL45:
 864              		.loc 1 134 3 is_stmt 1 view .LVU284
 865              		.loc 1 134 6 is_stmt 0 view .LVU285
 866 0028 85C0     		testl	%eax, %eax
 867 002a 7414     		je	.L42
 868              		.loc 1 135 5 is_stmt 1 view .LVU286
 869              		.loc 1 135 14 is_stmt 0 view .LVU287
 870 002c 8B10     		movl	(%eax), %edx
 871 002e 89560C   		movl	%edx, 12(%esi)
 872              	.LBE184:
 873              	.LBE183:
GAS LISTING /tmp/cchw4uxw.s 			page 17


 874              		.loc 1 280 1 view .LVU288
 875 0031 83C404   		addl	$4, %esp
 876              		.cfi_remember_state
 877              		.cfi_def_cfa_offset 12
 878 0034 5B       		popl	%ebx
 879              		.cfi_restore 3
 880              		.cfi_def_cfa_offset 8
 881 0035 5E       		popl	%esi
 882              		.cfi_restore 6
 883              		.cfi_def_cfa_offset 4
 884              	.LVL46:
 885              		.loc 1 280 1 view .LVU289
 886 0036 C3       		ret
 887              	.LVL47:
 888 0037 8DB42600 		.p2align 4,,10
 888      00000066 
 888      90
 889              		.p2align 3
 890              	.L42:
 891              		.cfi_restore_state
 892              		.loc 1 280 1 view .LVU290
 893 0040 83C404   		addl	$4, %esp
 894              		.cfi_remember_state
 895              		.cfi_def_cfa_offset 12
 896              		.loc 1 279 10 view .LVU291
 897 0043 8D460C   		leal	12(%esi), %eax
 898              	.LVL48:
 899              		.loc 1 280 1 view .LVU292
 900 0046 5B       		popl	%ebx
 901              		.cfi_restore 3
 902              		.cfi_def_cfa_offset 8
 903 0047 5E       		popl	%esi
 904              		.cfi_restore 6
 905              		.cfi_def_cfa_offset 4
 906              	.LVL49:
 907              	.LBB186:
 908              	.LBB185:
 909              		.loc 1 280 1 view .LVU293
 910 0048 E9FCFFFF 		jmp	chPoolAllocI.part.0
 910      FF
 911              	.LVL50:
 912 004d 8D7600   		.p2align 4,,10
 913              		.p2align 3
 914              	.L43:
 915              		.cfi_restore_state
 916              		.loc 1 280 1 view .LVU294
 917              	.LBE185:
 918              	.LBE186:
 919 0050 83C404   		addl	$4, %esp
 920              		.cfi_def_cfa_offset 12
 921              		.loc 1 276 12 view .LVU295
 922 0053 31C0     		xorl	%eax, %eax
 923              	.LVL51:
 924              		.loc 1 280 1 view .LVU296
 925 0055 5B       		popl	%ebx
 926              		.cfi_restore 3
 927              		.cfi_def_cfa_offset 8
GAS LISTING /tmp/cchw4uxw.s 			page 18


 928 0056 5E       		popl	%esi
 929              		.cfi_restore 6
 930              		.cfi_def_cfa_offset 4
 931 0057 C3       		ret
 932              		.cfi_endproc
 933              	.LFE146:
 934              		.size	chGuardedPoolAllocTimeoutS, .-chGuardedPoolAllocTimeoutS
 935              		.section	.text.chGuardedPoolAllocTimeout,"ax",@progbits
 936              		.p2align 4,,15
 937              		.globl	chGuardedPoolAllocTimeout
 938              		.type	chGuardedPoolAllocTimeout, @function
 939              	chGuardedPoolAllocTimeout:
 940              	.LVL52:
 941              	.LFB147:
 942              		.loc 1 298 56 is_stmt 1 view -0
 943              		.cfi_startproc
 944              		.loc 1 299 3 view .LVU298
 945              		.loc 1 301 3 view .LVU299
 946              	.LBB187:
 947              	.LBI187:
 948              		.loc 3 353 20 view .LVU300
 949              	.LBE187:
 950              		.loc 3 355 3 view .LVU301
 951              	.LBB192:
 952              	.LBB188:
 953              	.LBI188:
 954              		.loc 4 362 20 view .LVU302
 955              	.LBB189:
 956              		.loc 4 364 3 view .LVU303
 957 0000 E8FCFFFF 		call	__x86.get_pc_thunk.ax
 957      FF
 958 0005 05010000 		addl	$_GLOBAL_OFFSET_TABLE_, %eax
 958      00
 959              	.LBE189:
 960              	.LBE188:
 961              	.LBE192:
 962              		.loc 1 298 56 is_stmt 0 view .LVU304
 963 000a 53       		pushl	%ebx
 964              		.cfi_def_cfa_offset 8
 965              		.cfi_offset 3, -8
 966 000b 83EC10   		subl	$16, %esp
 967              		.cfi_def_cfa_offset 24
 968              		.loc 1 302 7 view .LVU305
 969 000e FF74241C 		pushl	28(%esp)
 970              		.cfi_def_cfa_offset 28
 971 0012 FF74241C 		pushl	28(%esp)
 972              		.cfi_def_cfa_offset 32
 973              	.LBB193:
 974              	.LBB191:
 975              	.LBB190:
 976              		.loc 4 364 16 view .LVU306
 977 0016 8B980000 		movl	port_irq_sts@GOT(%eax), %ebx
 977      0000
 978 001c C7030100 		movl	$1, (%ebx)
 978      0000
 979              	.LBE190:
 980              	.LBE191:
GAS LISTING /tmp/cchw4uxw.s 			page 19


 981              	.LBE193:
 982              		.loc 3 356 34 is_stmt 1 view .LVU307
 983              		.loc 3 357 20 view .LVU308
 984              		.loc 1 302 3 view .LVU309
 985              		.loc 1 302 7 is_stmt 0 view .LVU310
 986 0022 E8FCFFFF 		call	chGuardedPoolAllocTimeoutS
 986      FF
 987              	.LVL53:
 988              		.loc 1 303 3 is_stmt 1 view .LVU311
 989              	.LBB194:
 990              	.LBI194:
 991              		.loc 3 365 20 view .LVU312
 992              	.LBB195:
 993              		.loc 3 367 22 view .LVU313
 994              		.loc 3 368 33 view .LVU314
 995              		.loc 3 374 3 view .LVU315
 996              		.loc 3 374 3 view .LVU316
 997              		.loc 3 378 3 view .LVU317
 998              	.LBB196:
 999              	.LBI196:
 1000              		.loc 4 371 20 view .LVU318
 1001              	.LBB197:
 1002              		.loc 4 373 3 view .LVU319
 1003              		.loc 4 373 16 is_stmt 0 view .LVU320
 1004 0027 C7030000 		movl	$0, (%ebx)
 1004      0000
 1005              	.LBE197:
 1006              	.LBE196:
 1007              	.LBE195:
 1008              	.LBE194:
 1009              		.loc 1 305 3 is_stmt 1 view .LVU321
 1010              		.loc 1 306 1 is_stmt 0 view .LVU322
 1011 002d 83C418   		addl	$24, %esp
 1012              		.cfi_def_cfa_offset 8
 1013 0030 5B       		popl	%ebx
 1014              		.cfi_restore 3
 1015              		.cfi_def_cfa_offset 4
 1016 0031 C3       		ret
 1017              		.cfi_endproc
 1018              	.LFE147:
 1019              		.size	chGuardedPoolAllocTimeout, .-chGuardedPoolAllocTimeout
 1020              		.section	.text.chGuardedPoolFreeI,"ax",@progbits
 1021              		.p2align 4,,15
 1022              		.globl	chGuardedPoolFreeI
 1023              		.type	chGuardedPoolFreeI, @function
 1024              	chGuardedPoolFreeI:
 1025              	.LVL54:
 1026              	.LFB148:
 1027              		.loc 1 320 65 is_stmt 1 view -0
 1028              		.cfi_startproc
 1029              		.loc 1 322 3 view .LVU324
 1030              		.loc 1 320 65 is_stmt 0 view .LVU325
 1031 0000 53       		pushl	%ebx
 1032              		.cfi_def_cfa_offset 8
 1033              		.cfi_offset 3, -8
 1034 0001 E8FCFFFF 		call	__x86.get_pc_thunk.bx
 1034      FF
GAS LISTING /tmp/cchw4uxw.s 			page 20


 1035 0006 81C30200 		addl	$_GLOBAL_OFFSET_TABLE_, %ebx
 1035      0000
 1036 000c 83EC14   		subl	$20, %esp
 1037              		.cfi_def_cfa_offset 28
 1038              		.loc 1 320 65 view .LVU326
 1039 000f 8B44241C 		movl	28(%esp), %eax
 1040              	.LVL55:
 1041              		.loc 1 320 65 view .LVU327
 1042 0013 8B542420 		movl	32(%esp), %edx
 1043              	.LVL56:
 1044              	.LBB198:
 1045              	.LBI198:
 1046              		.loc 1 177 6 is_stmt 1 view .LVU328
 1047              	.LBB199:
 1048              		.loc 1 178 3 view .LVU329
 1049              		.loc 1 180 21 view .LVU330
 1050              		.loc 1 181 3 view .LVU331
 1051              		.loc 1 181 3 view .LVU332
 1052              		.loc 1 183 3 view .LVU333
 1053              		.loc 1 183 3 view .LVU334
 1054              		.loc 1 186 3 view .LVU335
 1055              		.loc 1 186 13 is_stmt 0 view .LVU336
 1056 0017 8B480C   		movl	12(%eax), %ecx
 1057 001a 890A     		movl	%ecx, (%edx)
 1058              		.loc 1 187 3 is_stmt 1 view .LVU337
 1059              		.loc 1 187 12 is_stmt 0 view .LVU338
 1060 001c 89500C   		movl	%edx, 12(%eax)
 1061              	.LVL57:
 1062              		.loc 1 187 12 view .LVU339
 1063              	.LBE199:
 1064              	.LBE198:
 1065              		.loc 1 323 3 is_stmt 1 view .LVU340
 1066 001f 50       		pushl	%eax
 1067              		.cfi_def_cfa_offset 32
 1068 0020 E8FCFFFF 		call	chSemSignalI@PLT
 1068      FF
 1069              	.LVL58:
 1070              		.loc 1 324 1 is_stmt 0 view .LVU341
 1071 0025 83C418   		addl	$24, %esp
 1072              		.cfi_def_cfa_offset 8
 1073 0028 5B       		popl	%ebx
 1074              		.cfi_restore 3
 1075              		.cfi_def_cfa_offset 4
 1076 0029 C3       		ret
 1077              		.cfi_endproc
 1078              	.LFE148:
 1079              		.size	chGuardedPoolFreeI, .-chGuardedPoolFreeI
 1080              		.section	.text.chGuardedPoolFree,"ax",@progbits
 1081              		.p2align 4,,15
 1082              		.globl	chGuardedPoolFree
 1083              		.type	chGuardedPoolFree, @function
 1084              	chGuardedPoolFree:
 1085              	.LVL59:
 1086              	.LFB149:
 1087              		.loc 1 338 64 is_stmt 1 view -0
 1088              		.cfi_startproc
 1089              		.loc 1 340 3 view .LVU343
GAS LISTING /tmp/cchw4uxw.s 			page 21


 1090              	.LBB200:
 1091              	.LBI200:
 1092              		.loc 3 353 20 view .LVU344
 1093              	.LBE200:
 1094              		.loc 3 355 3 view .LVU345
 1095              	.LBB205:
 1096              	.LBB201:
 1097              	.LBI201:
 1098              		.loc 4 362 20 view .LVU346
 1099              	.LBB202:
 1100              		.loc 4 364 3 view .LVU347
 1101              	.LBE202:
 1102              	.LBE201:
 1103              	.LBE205:
 1104              		.loc 1 338 64 is_stmt 0 view .LVU348
 1105 0000 56       		pushl	%esi
 1106              		.cfi_def_cfa_offset 8
 1107              		.cfi_offset 6, -8
 1108 0001 53       		pushl	%ebx
 1109              		.cfi_def_cfa_offset 12
 1110              		.cfi_offset 3, -12
 1111 0002 E8FCFFFF 		call	__x86.get_pc_thunk.bx
 1111      FF
 1112 0007 81C30200 		addl	$_GLOBAL_OFFSET_TABLE_, %ebx
 1112      0000
 1113 000d 83EC10   		subl	$16, %esp
 1114              		.cfi_def_cfa_offset 28
 1115              		.loc 1 338 64 view .LVU349
 1116 0010 8B44241C 		movl	28(%esp), %eax
 1117 0014 8B542420 		movl	32(%esp), %edx
 1118              	.LBB206:
 1119              	.LBB207:
 1120              	.LBB208:
 1121              	.LBB209:
 1122              		.loc 1 186 13 view .LVU350
 1123 0018 8B480C   		movl	12(%eax), %ecx
 1124              	.LBE209:
 1125              	.LBE208:
 1126              	.LBE207:
 1127              	.LBE206:
 1128              	.LBB213:
 1129              	.LBB204:
 1130              	.LBB203:
 1131              		.loc 4 364 16 view .LVU351
 1132 001b 8BB30000 		movl	port_irq_sts@GOT(%ebx), %esi
 1132      0000
 1133 0021 C7060100 		movl	$1, (%esi)
 1133      0000
 1134              	.LBE203:
 1135              	.LBE204:
 1136              	.LBE213:
 1137              		.loc 3 356 34 is_stmt 1 view .LVU352
 1138              		.loc 3 357 20 view .LVU353
 1139              		.loc 1 341 3 view .LVU354
 1140              	.LVL60:
 1141              	.LBB214:
 1142              	.LBI206:
GAS LISTING /tmp/cchw4uxw.s 			page 22


 1143              		.loc 1 320 6 view .LVU355
 1144              	.LBB212:
 1145              		.loc 1 322 3 view .LVU356
 1146              	.LBB211:
 1147              	.LBI208:
 1148              		.loc 1 177 6 view .LVU357
 1149              	.LBB210:
 1150              		.loc 1 178 3 view .LVU358
 1151              		.loc 1 180 21 view .LVU359
 1152              		.loc 1 181 3 view .LVU360
 1153              		.loc 1 181 3 view .LVU361
 1154              		.loc 1 183 3 view .LVU362
 1155              		.loc 1 183 3 view .LVU363
 1156              		.loc 1 186 3 view .LVU364
 1157              		.loc 1 186 13 is_stmt 0 view .LVU365
 1158 0027 890A     		movl	%ecx, (%edx)
 1159              		.loc 1 187 3 is_stmt 1 view .LVU366
 1160              		.loc 1 187 12 is_stmt 0 view .LVU367
 1161 0029 89500C   		movl	%edx, 12(%eax)
 1162              	.LVL61:
 1163              		.loc 1 187 12 view .LVU368
 1164              	.LBE210:
 1165              	.LBE211:
 1166              		.loc 1 323 3 is_stmt 1 view .LVU369
 1167 002c 50       		pushl	%eax
 1168              		.cfi_def_cfa_offset 32
 1169 002d E8FCFFFF 		call	chSemSignalI@PLT
 1169      FF
 1170              	.LVL62:
 1171              		.loc 1 323 3 is_stmt 0 view .LVU370
 1172              	.LBE212:
 1173              	.LBE214:
 1174              		.loc 1 342 3 is_stmt 1 view .LVU371
 1175 0032 E8FCFFFF 		call	chSchRescheduleS@PLT
 1175      FF
 1176              	.LVL63:
 1177              		.loc 1 343 3 view .LVU372
 1178              	.LBB215:
 1179              	.LBI215:
 1180              		.loc 3 365 20 view .LVU373
 1181              	.LBB216:
 1182              		.loc 3 367 22 view .LVU374
 1183              		.loc 3 368 33 view .LVU375
 1184              		.loc 3 374 3 view .LVU376
 1185              		.loc 3 374 3 view .LVU377
 1186              		.loc 3 378 3 view .LVU378
 1187              	.LBB217:
 1188              	.LBI217:
 1189              		.loc 4 371 20 view .LVU379
 1190              	.LBB218:
 1191              		.loc 4 373 3 view .LVU380
 1192              		.loc 4 373 16 is_stmt 0 view .LVU381
 1193 0037 C7060000 		movl	$0, (%esi)
 1193      0000
 1194              	.LBE218:
 1195              	.LBE217:
 1196              	.LBE216:
GAS LISTING /tmp/cchw4uxw.s 			page 23


 1197              	.LBE215:
 1198              		.loc 1 344 1 view .LVU382
 1199 003d 83C414   		addl	$20, %esp
 1200              		.cfi_def_cfa_offset 12
 1201 0040 5B       		popl	%ebx
 1202              		.cfi_restore 3
 1203              		.cfi_def_cfa_offset 8
 1204 0041 5E       		popl	%esi
 1205              		.cfi_restore 6
 1206              		.cfi_def_cfa_offset 4
 1207 0042 C3       		ret
 1208              		.cfi_endproc
 1209              	.LFE149:
 1210              		.size	chGuardedPoolFree, .-chGuardedPoolFree
 1211              		.section	.text.__x86.get_pc_thunk.ax,"axG",@progbits,__x86.get_pc_thunk.ax,comdat
 1212              		.globl	__x86.get_pc_thunk.ax
 1213              		.hidden	__x86.get_pc_thunk.ax
 1214              		.type	__x86.get_pc_thunk.ax, @function
 1215              	__x86.get_pc_thunk.ax:
 1216              	.LFB152:
 1217              		.cfi_startproc
 1218 0000 8B0424   		movl	(%esp), %eax
 1219 0003 C3       		ret
 1220              		.cfi_endproc
 1221              	.LFE152:
 1222              		.section	.text.__x86.get_pc_thunk.cx,"axG",@progbits,__x86.get_pc_thunk.cx,comdat
 1223              		.globl	__x86.get_pc_thunk.cx
 1224              		.hidden	__x86.get_pc_thunk.cx
 1225              		.type	__x86.get_pc_thunk.cx, @function
 1226              	__x86.get_pc_thunk.cx:
 1227              	.LFB153:
 1228              		.cfi_startproc
 1229 0000 8B0C24   		movl	(%esp), %ecx
 1230 0003 C3       		ret
 1231              		.cfi_endproc
 1232              	.LFE153:
 1233              		.section	.text.__x86.get_pc_thunk.bx,"axG",@progbits,__x86.get_pc_thunk.bx,comdat
 1234              		.globl	__x86.get_pc_thunk.bx
 1235              		.hidden	__x86.get_pc_thunk.bx
 1236              		.type	__x86.get_pc_thunk.bx, @function
 1237              	__x86.get_pc_thunk.bx:
 1238              	.LFB154:
 1239              		.cfi_startproc
 1240 0000 8B1C24   		movl	(%esp), %ebx
 1241 0003 C3       		ret
 1242              		.cfi_endproc
 1243              	.LFE154:
 1244              		.section	.text.__x86.get_pc_thunk.bp,"axG",@progbits,__x86.get_pc_thunk.bp,comdat
 1245              		.globl	__x86.get_pc_thunk.bp
 1246              		.hidden	__x86.get_pc_thunk.bp
 1247              		.type	__x86.get_pc_thunk.bp, @function
 1248              	__x86.get_pc_thunk.bp:
 1249              	.LFB155:
 1250              		.cfi_startproc
 1251 0000 8B2C24   		movl	(%esp), %ebp
 1252 0003 C3       		ret
 1253              		.cfi_endproc
GAS LISTING /tmp/cchw4uxw.s 			page 24


 1254              	.LFE155:
 1255              		.text
 1256              	.Letext0:
 1257              		.file 5 "/usr/lib/gcc/x86_64-linux-gnu/8/include/stddef.h"
 1258              		.file 6 "/usr/include/i386-linux-gnu/bits/types.h"
 1259              		.file 7 "/usr/include/i386-linux-gnu/bits/stdint-intn.h"
 1260              		.file 8 "/usr/include/i386-linux-gnu/bits/stdint-uintn.h"
 1261              		.file 9 "../../../os/common/ports/SIMIA32/compilers/GCC/chtypes.h"
 1262              		.file 10 "../../../os/rt/include/chsystypes.h"
 1263              		.file 11 "../../../os/rt/include/chschd.h"
 1264              		.file 12 "../../../os/rt/include/chtime.h"
 1265              		.file 13 "../../../os/rt/include/chtm.h"
 1266              		.file 14 "../../../os/rt/include/chsem.h"
 1267              		.file 15 "../../../os/rt/include/chmtx.h"
 1268              		.file 16 "../../../os/rt/include/chregistry.h"
 1269              		.file 17 "../../../os/common/oslib/include/chmemcore.h"
 1270              		.file 18 "../../../os/common/oslib/include/chfactory.h"
 6257              		.section	.note.GNU-stack,"",@progbits
GAS LISTING /tmp/cchw4uxw.s 			page 119

