GAS LISTING /tmp/ccTXorqe.s 			page 1


   1              		.file	"chmtx.c"
   2              		.text
   3              	.Ltext0:
   4              		.section	.text.chMtxObjectInit,"ax",@progbits
   5              		.p2align 4,,15
   6              		.globl	chMtxObjectInit
   7              		.type	chMtxObjectInit, @function
   8              	chMtxObjectInit:
   9              	.LVL0:
  10              	.LFB138:
  11              		.file 1 "../../../os/rt/src/chmtx.c"
  12              		.loc 1 103 35 view -0
  13              		.cfi_startproc
  14              		.loc 1 105 3 view .LVU1
  15              		.loc 1 105 3 view .LVU2
  16              		.loc 1 107 3 view .LVU3
  17              		.loc 1 103 35 is_stmt 0 view .LVU4
  18 0000 8B442404 		movl	4(%esp), %eax
  19              	.LVL1:
  20              	.LBB95:
  21              	.LBI95:
  22              		.file 2 "../../../os/rt/include/chschd.h"
  23              		.loc 2 537 20 is_stmt 1 view .LVU5
  24              	.LBB96:
  25              		.loc 2 539 3 view .LVU6
  26              		.loc 2 539 13 is_stmt 0 view .LVU7
  27 0004 8900     		movl	%eax, (%eax)
  28              		.loc 2 540 3 is_stmt 1 view .LVU8
  29              		.loc 2 540 13 is_stmt 0 view .LVU9
  30 0006 894004   		movl	%eax, 4(%eax)
  31              	.LVL2:
  32              		.loc 2 540 13 view .LVU10
  33              	.LBE96:
  34              	.LBE95:
  35              		.loc 1 108 3 is_stmt 1 view .LVU11
  36              		.loc 1 108 13 is_stmt 0 view .LVU12
  37 0009 C7400800 		movl	$0, 8(%eax)
  37      000000
  38              		.loc 1 112 1 view .LVU13
  39 0010 C3       		ret
  40              		.cfi_endproc
  41              	.LFE138:
  42              		.size	chMtxObjectInit, .-chMtxObjectInit
  43              		.section	.text.chMtxLockS,"ax",@progbits
  44              		.p2align 4,,15
  45              		.globl	chMtxLockS
  46              		.type	chMtxLockS, @function
  47              	chMtxLockS:
  48              	.LVL3:
  49              	.LFB140:
  50              		.loc 1 139 30 is_stmt 1 view -0
  51              		.cfi_startproc
  52              		.loc 1 140 3 view .LVU15
  53              		.loc 1 139 30 is_stmt 0 view .LVU16
  54 0000 55       		pushl	%ebp
  55              		.cfi_def_cfa_offset 8
  56              		.cfi_offset 5, -8
GAS LISTING /tmp/ccTXorqe.s 			page 2


  57 0001 E8FCFFFF 		call	__x86.get_pc_thunk.bp
  57      FF
  58 0006 81C50200 		addl	$_GLOBAL_OFFSET_TABLE_, %ebp
  58      0000
  59 000c 57       		pushl	%edi
  60              		.cfi_def_cfa_offset 12
  61              		.cfi_offset 7, -12
  62 000d 56       		pushl	%esi
  63              		.cfi_def_cfa_offset 16
  64              		.cfi_offset 6, -16
  65 000e 53       		pushl	%ebx
  66              		.cfi_def_cfa_offset 20
  67              		.cfi_offset 3, -20
  68 000f 83EC1C   		subl	$28, %esp
  69              		.cfi_def_cfa_offset 48
  70              		.loc 1 139 30 view .LVU17
  71 0012 8B7C2430 		movl	48(%esp), %edi
  72              		.loc 1 140 13 view .LVU18
  73 0016 8B850000 		movl	ch@GOT(%ebp), %eax
  73      0000
  74 001c 8B7018   		movl	24(%eax), %esi
  75              	.LVL4:
  76              		.loc 1 142 21 is_stmt 1 view .LVU19
  77              		.loc 1 143 3 view .LVU20
  78              		.loc 1 143 3 view .LVU21
  79              		.loc 1 146 3 view .LVU22
  80              		.loc 1 146 9 is_stmt 0 view .LVU23
  81 001f 8B4708   		movl	8(%edi), %eax
  82              		.loc 1 146 6 view .LVU24
  83 0022 85C0     		testl	%eax, %eax
  84 0024 0F847E00 		je	.L27
  84      0000
  85              	.LVL5:
  86              	.LBB97:
  87              		.loc 1 165 28 view .LVU25
  88 002a 8B5608   		movl	8(%esi), %edx
  89              		.loc 1 165 13 view .LVU26
  90 002d 395008   		cmpl	%edx, 8(%eax)
  91 0030 7319     		jnb	.L9
  92              	.L12:
  93              		.loc 1 167 9 is_stmt 1 view .LVU27
  94              		.loc 1 170 19 is_stmt 0 view .LVU28
  95 0032 0FB64820 		movzbl	32(%eax), %ecx
  96              		.loc 1 167 18 view .LVU29
  97 0036 895008   		movl	%edx, 8(%eax)
  98              		.loc 1 170 9 is_stmt 1 view .LVU30
  99 0039 80F906   		cmpb	$6, %cl
 100 003c 0F84BE00 		je	.L6
 100      0000
 101              		.loc 1 170 9 is_stmt 0 view .LVU31
 102 0042 80F907   		cmpb	$7, %cl
 103 0045 7479     		je	.L7
 104 0047 84C9     		testb	%cl, %cl
 105 0049 743D     		je	.L28
 106              	.LVL6:
 107              	.L9:
 108              		.loc 1 212 7 is_stmt 1 view .LVU32
GAS LISTING /tmp/ccTXorqe.s 			page 3


 109              	.LBB98:
 110              	.LBI98:
 111              		.loc 2 586 20 view .LVU33
 112              	.LBB99:
 113              		.loc 2 588 3 view .LVU34
 114              		.loc 2 588 13 is_stmt 0 view .LVU35
 115 004b 89F8     		movl	%edi, %eax
 116 004d EB09     		jmp	.L17
 117              	.LVL7:
 118 004f 90       		.p2align 4,,10
 119              		.p2align 3
 120              	.L29:
 121              		.loc 2 591 36 view .LVU36
 122 0050 8B5E08   		movl	8(%esi), %ebx
 123 0053 395808   		cmpl	%ebx, 8(%eax)
 124 0056 7206     		jb	.L16
 125              	.L17:
 126              		.loc 2 589 3 is_stmt 1 view .LVU37
 127              		.loc 2 590 5 view .LVU38
 128              		.loc 2 590 8 is_stmt 0 view .LVU39
 129 0058 8B00     		movl	(%eax), %eax
 130              	.LVL8:
 131              		.loc 2 591 3 view .LVU40
 132 005a 39C7     		cmpl	%eax, %edi
 133 005c 75F2     		jne	.L29
 134              	.L16:
 135              		.loc 2 592 3 is_stmt 1 view .LVU41
 136              		.loc 2 593 41 is_stmt 0 view .LVU42
 137 005e 8B5004   		movl	4(%eax), %edx
 138              	.LBE99:
 139              	.LBE98:
 140              		.loc 1 214 7 view .LVU43
 141 0061 83EC0C   		subl	$12, %esp
 142              		.cfi_def_cfa_offset 60
 143              	.LBB102:
 144              	.LBB100:
 145              		.loc 2 592 30 view .LVU44
 146 0064 8906     		movl	%eax, (%esi)
 147              		.loc 2 593 3 is_stmt 1 view .LVU45
 148              	.LBE100:
 149              	.LBE102:
 150              		.loc 1 214 7 is_stmt 0 view .LVU46
 151 0066 89EB     		movl	%ebp, %ebx
 152              	.LBB103:
 153              	.LBB101:
 154              		.loc 2 593 30 view .LVU47
 155 0068 895604   		movl	%edx, 4(%esi)
 156              		.loc 2 594 3 is_stmt 1 view .LVU48
 157              		.loc 2 594 30 is_stmt 0 view .LVU49
 158 006b 8932     		movl	%esi, (%edx)
 159              		.loc 2 595 3 is_stmt 1 view .LVU50
 160              		.loc 2 595 30 is_stmt 0 view .LVU51
 161 006d 897004   		movl	%esi, 4(%eax)
 162              	.LVL9:
 163              		.loc 2 595 30 view .LVU52
 164              	.LBE101:
 165              	.LBE103:
GAS LISTING /tmp/ccTXorqe.s 			page 4


 166              		.loc 1 213 7 is_stmt 1 view .LVU53
 167              		.loc 1 213 21 is_stmt 0 view .LVU54
 168 0070 897E24   		movl	%edi, 36(%esi)
 169              		.loc 1 214 7 is_stmt 1 view .LVU55
 170 0073 6A06     		pushl	$6
 171              		.cfi_def_cfa_offset 64
 172 0075 E8FCFFFF 		call	chSchGoSleepS@PLT
 172      FF
 173              	.LVL10:
 174              		.loc 1 218 7 view .LVU56
 175              		.loc 1 218 7 view .LVU57
 176              		.loc 1 219 7 view .LVU58
 177              		.loc 1 219 7 view .LVU59
 178 007a 83C410   		addl	$16, %esp
 179              		.cfi_def_cfa_offset 48
 180              	.LBE97:
 181              		.loc 1 236 1 is_stmt 0 view .LVU60
 182 007d 83C41C   		addl	$28, %esp
 183              		.cfi_remember_state
 184              		.cfi_def_cfa_offset 20
 185 0080 5B       		popl	%ebx
 186              		.cfi_restore 3
 187              		.cfi_def_cfa_offset 16
 188 0081 5E       		popl	%esi
 189              		.cfi_restore 6
 190              		.cfi_def_cfa_offset 12
 191              	.LVL11:
 192              		.loc 1 236 1 view .LVU61
 193 0082 5F       		popl	%edi
 194              		.cfi_restore 7
 195              		.cfi_def_cfa_offset 8
 196 0083 5D       		popl	%ebp
 197              		.cfi_restore 5
 198              		.cfi_def_cfa_offset 4
 199 0084 C3       		ret
 200              	.LVL12:
 201              		.p2align 4,,10
 202 0085 8D7600   		.p2align 3
 203              	.L28:
 204              		.cfi_restore_state
 205              	.LBB126:
 206              		.loc 1 202 11 is_stmt 1 view .LVU62
 207              	.LBB104:
 208              	.LBI104:
 209              		.loc 2 624 25 view .LVU63
 210              	.LBB105:
 211              		.loc 2 626 3 view .LVU64
 212              		.loc 2 626 12 is_stmt 0 view .LVU65
 213 0088 8B4804   		movl	4(%eax), %ecx
 214              		.loc 2 626 41 view .LVU66
 215 008b 8B10     		movl	(%eax), %edx
 216              	.LBE105:
 217              	.LBE104:
 218              		.loc 1 202 18 view .LVU67
 219 008d 83EC0C   		subl	$12, %esp
 220              		.cfi_def_cfa_offset 60
 221 0090 89EB     		movl	%ebp, %ebx
GAS LISTING /tmp/ccTXorqe.s 			page 5


 222              	.LBB107:
 223              	.LBB106:
 224              		.loc 2 626 30 view .LVU68
 225 0092 8911     		movl	%edx, (%ecx)
 226              		.loc 2 627 3 is_stmt 1 view .LVU69
 227              		.loc 2 627 30 is_stmt 0 view .LVU70
 228 0094 894A04   		movl	%ecx, 4(%edx)
 229              		.loc 2 629 3 is_stmt 1 view .LVU71
 230              	.LVL13:
 231              		.loc 2 629 3 is_stmt 0 view .LVU72
 232              	.LBE106:
 233              	.LBE107:
 234              		.loc 1 202 18 view .LVU73
 235 0097 50       		pushl	%eax
 236              		.cfi_def_cfa_offset 64
 237 0098 E8FCFFFF 		call	chSchReadyI@PLT
 237      FF
 238              	.LVL14:
 239              		.loc 1 203 11 is_stmt 1 view .LVU74
 240 009d 83C410   		addl	$16, %esp
 241              		.cfi_def_cfa_offset 48
 242 00a0 EBA9     		jmp	.L9
 243              		.p2align 4,,10
 244 00a2 8DB60000 		.p2align 3
 244      0000
 245              	.L27:
 246              		.loc 1 203 11 is_stmt 0 view .LVU75
 247              	.LBE126:
 248              		.loc 1 232 5 is_stmt 1 view .LVU76
 249              		.loc 1 233 14 is_stmt 0 view .LVU77
 250 00a8 8B4638   		movl	56(%esi), %eax
 251              		.loc 1 232 15 view .LVU78
 252 00ab 897708   		movl	%esi, 8(%edi)
 253              		.loc 1 233 5 is_stmt 1 view .LVU79
 254              		.loc 1 233 14 is_stmt 0 view .LVU80
 255 00ae 89470C   		movl	%eax, 12(%edi)
 256              		.loc 1 234 5 is_stmt 1 view .LVU81
 257              		.loc 1 234 18 is_stmt 0 view .LVU82
 258 00b1 897E38   		movl	%edi, 56(%esi)
 259              		.loc 1 236 1 view .LVU83
 260 00b4 83C41C   		addl	$28, %esp
 261              		.cfi_remember_state
 262              		.cfi_def_cfa_offset 20
 263 00b7 5B       		popl	%ebx
 264              		.cfi_restore 3
 265              		.cfi_def_cfa_offset 16
 266 00b8 5E       		popl	%esi
 267              		.cfi_restore 6
 268              		.cfi_def_cfa_offset 12
 269              	.LVL15:
 270              		.loc 1 236 1 view .LVU84
 271 00b9 5F       		popl	%edi
 272              		.cfi_restore 7
 273              		.cfi_def_cfa_offset 8
 274 00ba 5D       		popl	%ebp
 275              		.cfi_restore 5
 276              		.cfi_def_cfa_offset 4
GAS LISTING /tmp/ccTXorqe.s 			page 6


 277 00bb C3       		ret
 278              	.LVL16:
 279 00bc 8D742600 		.p2align 4,,10
 280              		.p2align 3
 281              	.L7:
 282              		.cfi_restore_state
 283              	.LBB127:
 284              		.loc 1 193 11 is_stmt 1 view .LVU85
 285              	.LBB108:
 286              	.LBI108:
 287              		.loc 2 624 25 view .LVU86
 288              	.LBB109:
 289              		.loc 2 626 3 view .LVU87
 290              	.LBE109:
 291              	.LBE108:
 292              		.loc 1 193 11 is_stmt 0 view .LVU88
 293 00c0 8B4824   		movl	36(%eax), %ecx
 294              	.LBB112:
 295              	.LBB110:
 296              		.loc 2 626 12 view .LVU89
 297 00c3 8B5804   		movl	4(%eax), %ebx
 298              	.LBE110:
 299              	.LBE112:
 300              		.loc 1 193 11 view .LVU90
 301 00c6 894C240C 		movl	%ecx, 12(%esp)
 302              	.LBB113:
 303              	.LBB111:
 304              		.loc 2 626 12 view .LVU91
 305 00ca 89D9     		movl	%ebx, %ecx
 306              		.loc 2 626 41 view .LVU92
 307 00cc 8B18     		movl	(%eax), %ebx
 308              		.loc 2 626 30 view .LVU93
 309 00ce 8919     		movl	%ebx, (%ecx)
 310              		.loc 2 627 3 is_stmt 1 view .LVU94
 311              		.loc 2 627 30 is_stmt 0 view .LVU95
 312 00d0 894B04   		movl	%ecx, 4(%ebx)
 313              		.loc 2 629 3 is_stmt 1 view .LVU96
 314              	.LVL17:
 315              		.loc 2 629 3 is_stmt 0 view .LVU97
 316              	.LBE111:
 317              	.LBE113:
 318              	.LBB114:
 319              	.LBI114:
 320              		.loc 2 586 20 is_stmt 1 view .LVU98
 321              	.LBB115:
 322              		.loc 2 588 13 is_stmt 0 view .LVU99
 323 00d3 8B4C240C 		movl	12(%esp), %ecx
 324 00d7 89CB     		movl	%ecx, %ebx
 325 00d9 EB0A     		jmp	.L14
 326              	.LVL18:
 327 00db 8D742600 		.p2align 4,,10
 327      90
 328              		.p2align 3
 329              	.L30:
 330              		.loc 2 591 36 view .LVU100
 331 00e0 3B5308   		cmpl	8(%ebx), %edx
 332 00e3 7706     		ja	.L13
GAS LISTING /tmp/ccTXorqe.s 			page 7


 333              	.LVL19:
 334              	.L14:
 335              		.loc 2 589 3 is_stmt 1 view .LVU101
 336              		.loc 2 590 5 view .LVU102
 337              		.loc 2 590 8 is_stmt 0 view .LVU103
 338 00e5 8B1B     		movl	(%ebx), %ebx
 339              	.LVL20:
 340              		.loc 2 591 3 view .LVU104
 341 00e7 39D9     		cmpl	%ebx, %ecx
 342 00e9 75F5     		jne	.L30
 343              	.L13:
 344              		.loc 2 592 3 is_stmt 1 view .LVU105
 345              		.loc 2 593 41 is_stmt 0 view .LVU106
 346 00eb 8B5304   		movl	4(%ebx), %edx
 347              		.loc 2 592 30 view .LVU107
 348 00ee 8918     		movl	%ebx, (%eax)
 349              		.loc 2 593 3 is_stmt 1 view .LVU108
 350              		.loc 2 593 30 is_stmt 0 view .LVU109
 351 00f0 895004   		movl	%edx, 4(%eax)
 352              		.loc 2 594 3 is_stmt 1 view .LVU110
 353              		.loc 2 594 30 is_stmt 0 view .LVU111
 354 00f3 8902     		movl	%eax, (%edx)
 355              		.loc 2 595 3 is_stmt 1 view .LVU112
 356              		.loc 2 595 30 is_stmt 0 view .LVU113
 357 00f5 894304   		movl	%eax, 4(%ebx)
 358 00f8 E94EFFFF 		jmp	.L9
 358      FF
 359              	.LVL21:
 360 00fd 8D7600   		.p2align 4,,10
 361              		.p2align 3
 362              	.L6:
 363              		.loc 2 595 30 view .LVU114
 364              	.LBE115:
 365              	.LBE114:
 366              		.loc 1 173 11 is_stmt 1 view .LVU115
 367              	.LBB116:
 368              	.LBI116:
 369              		.loc 2 624 25 view .LVU116
 370              	.LBB117:
 371              		.loc 2 626 3 view .LVU117
 372              	.LBE117:
 373              	.LBE116:
 374              		.loc 1 173 54 is_stmt 0 view .LVU118
 375 0100 8B5824   		movl	36(%eax), %ebx
 376              	.LBB120:
 377              	.LBB118:
 378              		.loc 2 626 12 view .LVU119
 379 0103 8B4804   		movl	4(%eax), %ecx
 380              	.LBE118:
 381              	.LBE120:
 382              		.loc 1 173 54 view .LVU120
 383 0106 895C240C 		movl	%ebx, 12(%esp)
 384              	.LBB121:
 385              	.LBB119:
 386              		.loc 2 626 12 view .LVU121
 387 010a 89CB     		movl	%ecx, %ebx
 388              		.loc 2 626 41 view .LVU122
GAS LISTING /tmp/ccTXorqe.s 			page 8


 389 010c 8B08     		movl	(%eax), %ecx
 390              		.loc 2 626 30 view .LVU123
 391 010e 890B     		movl	%ecx, (%ebx)
 392              		.loc 2 627 3 is_stmt 1 view .LVU124
 393              		.loc 2 627 30 is_stmt 0 view .LVU125
 394 0110 895904   		movl	%ebx, 4(%ecx)
 395              		.loc 2 629 3 is_stmt 1 view .LVU126
 396              	.LVL22:
 397              		.loc 2 629 3 is_stmt 0 view .LVU127
 398              	.LBE119:
 399              	.LBE121:
 400              	.LBB122:
 401              	.LBI122:
 402              		.loc 2 586 20 is_stmt 1 view .LVU128
 403              	.LBB123:
 404              		.loc 2 588 13 is_stmt 0 view .LVU129
 405 0113 8B5C240C 		movl	12(%esp), %ebx
 406 0117 89D9     		movl	%ebx, %ecx
 407 0119 EB0A     		jmp	.L11
 408              	.LVL23:
 409 011b 8D742600 		.p2align 4,,10
 409      90
 410              		.p2align 3
 411              	.L31:
 412              		.loc 2 591 36 view .LVU130
 413 0120 3B5108   		cmpl	8(%ecx), %edx
 414 0123 7706     		ja	.L10
 415              	.LVL24:
 416              	.L11:
 417              		.loc 2 589 3 is_stmt 1 view .LVU131
 418              		.loc 2 590 5 view .LVU132
 419              		.loc 2 590 8 is_stmt 0 view .LVU133
 420 0125 8B09     		movl	(%ecx), %ecx
 421              	.LVL25:
 422              		.loc 2 591 3 view .LVU134
 423 0127 39CB     		cmpl	%ecx, %ebx
 424 0129 75F5     		jne	.L31
 425              	.L10:
 426              		.loc 2 592 3 is_stmt 1 view .LVU135
 427              		.loc 2 593 41 is_stmt 0 view .LVU136
 428 012b 8B5104   		movl	4(%ecx), %edx
 429              		.loc 2 592 30 view .LVU137
 430 012e 8908     		movl	%ecx, (%eax)
 431              		.loc 2 593 3 is_stmt 1 view .LVU138
 432              		.loc 2 593 30 is_stmt 0 view .LVU139
 433 0130 895004   		movl	%edx, 4(%eax)
 434              		.loc 2 594 3 is_stmt 1 view .LVU140
 435              		.loc 2 594 30 is_stmt 0 view .LVU141
 436 0133 8902     		movl	%eax, (%edx)
 437              		.loc 2 595 3 is_stmt 1 view .LVU142
 438              	.LBE123:
 439              	.LBE122:
 440              		.loc 1 165 28 is_stmt 0 view .LVU143
 441 0135 8B5608   		movl	8(%esi), %edx
 442              	.LBB125:
 443              	.LBB124:
 444              		.loc 2 595 30 view .LVU144
GAS LISTING /tmp/ccTXorqe.s 			page 9


 445 0138 894104   		movl	%eax, 4(%ecx)
 446              	.LVL26:
 447              		.loc 2 595 30 view .LVU145
 448              	.LBE124:
 449              	.LBE125:
 450              		.loc 1 174 11 is_stmt 1 view .LVU146
 451              		.loc 1 174 14 is_stmt 0 view .LVU147
 452 013b 8B4308   		movl	8(%ebx), %eax
 453              	.LVL27:
 454              		.loc 1 176 11 is_stmt 1 view .LVU148
 455              		.loc 1 165 13 is_stmt 0 view .LVU149
 456 013e 395008   		cmpl	%edx, 8(%eax)
 457 0141 0F82EBFE 		jb	.L12
 457      FFFF
 458 0147 E9FFFEFF 		jmp	.L9
 458      FF
 459              	.LBE127:
 460              		.cfi_endproc
 461              	.LFE140:
 462              		.size	chMtxLockS, .-chMtxLockS
 463              		.section	.text.chMtxLock,"ax",@progbits
 464              		.p2align 4,,15
 465              		.globl	chMtxLock
 466              		.type	chMtxLock, @function
 467              	chMtxLock:
 468              	.LVL28:
 469              	.LFB139:
 470              		.loc 1 123 29 is_stmt 1 view -0
 471              		.cfi_startproc
 472              		.loc 1 125 3 view .LVU151
 473              	.LBB128:
 474              	.LBI128:
 475              		.file 3 "../../../os/rt/include/chsys.h"
 476              		.loc 3 353 20 view .LVU152
 477              	.LBE128:
 478              		.loc 3 355 3 view .LVU153
 479              	.LBB133:
 480              	.LBB129:
 481              	.LBI129:
 482              		.file 4 "../../../os/common/ports/SIMIA32/chcore.h"
 483              		.loc 4 362 20 view .LVU154
 484              	.LBB130:
 485              		.loc 4 364 3 view .LVU155
 486 0000 E8FCFFFF 		call	__x86.get_pc_thunk.ax
 486      FF
 487 0005 05010000 		addl	$_GLOBAL_OFFSET_TABLE_, %eax
 487      00
 488              	.LBE130:
 489              	.LBE129:
 490              	.LBE133:
 491              		.loc 1 123 29 is_stmt 0 view .LVU156
 492 000a 53       		pushl	%ebx
 493              		.cfi_def_cfa_offset 8
 494              		.cfi_offset 3, -8
 495 000b 83EC14   		subl	$20, %esp
 496              		.cfi_def_cfa_offset 28
 497              		.loc 1 126 3 view .LVU157
GAS LISTING /tmp/ccTXorqe.s 			page 10


 498 000e FF74241C 		pushl	28(%esp)
 499              		.cfi_def_cfa_offset 32
 500              	.LBB134:
 501              	.LBB132:
 502              	.LBB131:
 503              		.loc 4 364 16 view .LVU158
 504 0012 8B980000 		movl	port_irq_sts@GOT(%eax), %ebx
 504      0000
 505 0018 C7030100 		movl	$1, (%ebx)
 505      0000
 506              	.LBE131:
 507              	.LBE132:
 508              	.LBE134:
 509              		.loc 3 356 34 is_stmt 1 view .LVU159
 510              		.loc 3 357 20 view .LVU160
 511              		.loc 1 126 3 view .LVU161
 512 001e E8FCFFFF 		call	chMtxLockS
 512      FF
 513              	.LVL29:
 514              		.loc 1 127 3 view .LVU162
 515              	.LBB135:
 516              	.LBI135:
 517              		.loc 3 365 20 view .LVU163
 518              	.LBB136:
 519              		.loc 3 367 22 view .LVU164
 520              		.loc 3 368 33 view .LVU165
 521              		.loc 3 374 3 view .LVU166
 522              		.loc 3 374 3 view .LVU167
 523              		.loc 3 378 3 view .LVU168
 524              	.LBB137:
 525              	.LBI137:
 526              		.loc 4 371 20 view .LVU169
 527              	.LBB138:
 528              		.loc 4 373 3 view .LVU170
 529              		.loc 4 373 16 is_stmt 0 view .LVU171
 530 0023 C7030000 		movl	$0, (%ebx)
 530      0000
 531              	.LBE138:
 532              	.LBE137:
 533              	.LBE136:
 534              	.LBE135:
 535              		.loc 1 128 1 view .LVU172
 536 0029 83C418   		addl	$24, %esp
 537              		.cfi_def_cfa_offset 8
 538 002c 5B       		popl	%ebx
 539              		.cfi_restore 3
 540              		.cfi_def_cfa_offset 4
 541 002d C3       		ret
 542              		.cfi_endproc
 543              	.LFE139:
 544              		.size	chMtxLock, .-chMtxLock
 545              		.section	.text.chMtxTryLock,"ax",@progbits
 546              		.p2align 4,,15
 547              		.globl	chMtxTryLock
 548              		.type	chMtxTryLock, @function
 549              	chMtxTryLock:
 550              	.LVL30:
GAS LISTING /tmp/ccTXorqe.s 			page 11


 551              	.LFB141:
 552              		.loc 1 255 32 is_stmt 1 view -0
 553              		.cfi_startproc
 554              		.loc 1 256 3 view .LVU174
 555              		.loc 1 258 3 view .LVU175
 556              	.LBB150:
 557              	.LBI150:
 558              		.loc 3 353 20 view .LVU176
 559              	.LBE150:
 560              		.loc 3 355 3 view .LVU177
 561              	.LBB155:
 562              	.LBB151:
 563              	.LBI151:
 564              		.loc 4 362 20 view .LVU178
 565              	.LBB152:
 566              		.loc 4 364 3 view .LVU179
 567              	.LBE152:
 568              	.LBE151:
 569              	.LBE155:
 570              		.loc 1 255 32 is_stmt 0 view .LVU180
 571 0000 53       		pushl	%ebx
 572              		.cfi_def_cfa_offset 8
 573              		.cfi_offset 3, -8
 574              		.loc 1 255 32 view .LVU181
 575 0001 8B542408 		movl	8(%esp), %edx
 576 0005 E8FCFFFF 		call	__x86.get_pc_thunk.bx
 576      FF
 577 000a 81C30200 		addl	$_GLOBAL_OFFSET_TABLE_, %ebx
 577      0000
 578              	.LBB156:
 579              	.LBB157:
 580              		.loc 1 287 6 view .LVU182
 581 0010 8B4208   		movl	8(%edx), %eax
 582              	.LBE157:
 583              	.LBE156:
 584              	.LBB165:
 585              	.LBB154:
 586              	.LBB153:
 587              		.loc 4 364 16 view .LVU183
 588 0013 8B8B0000 		movl	port_irq_sts@GOT(%ebx), %ecx
 588      0000
 589 0019 C7010100 		movl	$1, (%ecx)
 589      0000
 590              	.LBE153:
 591              	.LBE154:
 592              	.LBE165:
 593              		.loc 3 356 34 is_stmt 1 view .LVU184
 594              		.loc 3 357 20 view .LVU185
 595              		.loc 1 259 3 view .LVU186
 596              	.LVL31:
 597              	.LBB166:
 598              	.LBI156:
 599              		.loc 1 282 6 view .LVU187
 600              	.LBB162:
 601              		.loc 1 284 21 view .LVU188
 602              		.loc 1 285 3 view .LVU189
 603              		.loc 1 285 3 view .LVU190
GAS LISTING /tmp/ccTXorqe.s 			page 12


 604              		.loc 1 287 3 view .LVU191
 605              		.loc 1 287 6 is_stmt 0 view .LVU192
 606 001f 85C0     		testl	%eax, %eax
 607 0021 740D     		je	.L39
 608 0023 31C0     		xorl	%eax, %eax
 609              	.LVL32:
 610              		.loc 1 287 6 view .LVU193
 611              	.LBE162:
 612              	.LBE166:
 613              		.loc 1 260 3 is_stmt 1 view .LVU194
 614              	.LBB167:
 615              	.LBI167:
 616              		.loc 3 365 20 view .LVU195
 617              	.LBB168:
 618              		.loc 3 367 22 view .LVU196
 619              		.loc 3 368 33 view .LVU197
 620              		.loc 3 374 3 view .LVU198
 621              		.loc 3 374 3 view .LVU199
 622              		.loc 3 378 3 view .LVU200
 623              	.LBB169:
 624              	.LBI169:
 625              		.loc 4 371 20 view .LVU201
 626              	.LBB170:
 627              		.loc 4 373 3 view .LVU202
 628              		.loc 4 373 16 is_stmt 0 view .LVU203
 629 0025 C7010000 		movl	$0, (%ecx)
 629      0000
 630              	.LBE170:
 631              	.LBE169:
 632              	.LBE168:
 633              	.LBE167:
 634              		.loc 1 262 3 is_stmt 1 view .LVU204
 635              		.loc 1 263 1 is_stmt 0 view .LVU205
 636 002b 5B       		popl	%ebx
 637              		.cfi_remember_state
 638              		.cfi_restore 3
 639              		.cfi_def_cfa_offset 4
 640 002c C3       		ret
 641              	.LVL33:
 642 002d 8D7600   		.p2align 4,,10
 643              		.p2align 3
 644              	.L39:
 645              		.cfi_restore_state
 646              	.LBB177:
 647              	.LBB163:
 648              	.LBB158:
 649              	.LBI158:
 650              		.loc 1 282 6 is_stmt 1 view .LVU206
 651              	.LBB159:
 652              		.loc 1 305 3 view .LVU207
 653              		.loc 1 305 15 is_stmt 0 view .LVU208
 654 0030 8B830000 		movl	ch@GOT(%ebx), %eax
 654      0000
 655              	.LBE159:
 656              	.LBE158:
 657              	.LBE163:
 658              	.LBE177:
GAS LISTING /tmp/ccTXorqe.s 			page 13


 659              	.LBB178:
 660              	.LBB175:
 661              	.LBB173:
 662              	.LBB171:
 663              		.loc 4 373 16 view .LVU209
 664 0036 C7010000 		movl	$0, (%ecx)
 664      0000
 665              	.LBE171:
 666              	.LBE173:
 667              	.LBE175:
 668              	.LBE178:
 669              	.LBB179:
 670              	.LBB164:
 671              	.LBB161:
 672              	.LBB160:
 673              		.loc 1 305 15 view .LVU210
 674 003c 8B4018   		movl	24(%eax), %eax
 675              		.loc 1 306 12 view .LVU211
 676 003f 8B5838   		movl	56(%eax), %ebx
 677              		.loc 1 305 13 view .LVU212
 678 0042 894208   		movl	%eax, 8(%edx)
 679              		.loc 1 306 3 is_stmt 1 view .LVU213
 680              		.loc 1 306 12 is_stmt 0 view .LVU214
 681 0045 895A0C   		movl	%ebx, 12(%edx)
 682              		.loc 1 307 3 is_stmt 1 view .LVU215
 683              		.loc 1 307 18 is_stmt 0 view .LVU216
 684 0048 895038   		movl	%edx, 56(%eax)
 685              		.loc 1 308 3 is_stmt 1 view .LVU217
 686              	.LVL34:
 687              		.loc 1 307 18 is_stmt 0 view .LVU218
 688 004b B8010000 		movl	$1, %eax
 688      00
 689              	.LVL35:
 690              		.loc 1 307 18 view .LVU219
 691              	.LBE160:
 692              	.LBE161:
 693              	.LBE164:
 694              	.LBE179:
 695              		.loc 1 260 3 is_stmt 1 view .LVU220
 696              	.LBB180:
 697              		.loc 3 365 20 view .LVU221
 698              	.LBB176:
 699              		.loc 3 367 22 view .LVU222
 700              		.loc 3 368 33 view .LVU223
 701              		.loc 3 374 3 view .LVU224
 702              		.loc 3 374 3 view .LVU225
 703              		.loc 3 378 3 view .LVU226
 704              	.LBB174:
 705              		.loc 4 371 20 view .LVU227
 706              	.LBB172:
 707              		.loc 4 373 3 view .LVU228
 708              	.LBE172:
 709              	.LBE174:
 710              	.LBE176:
 711              	.LBE180:
 712              		.loc 1 262 3 view .LVU229
 713              		.loc 1 263 1 is_stmt 0 view .LVU230
GAS LISTING /tmp/ccTXorqe.s 			page 14


 714 0050 5B       		popl	%ebx
 715              		.cfi_restore 3
 716              		.cfi_def_cfa_offset 4
 717 0051 C3       		ret
 718              		.cfi_endproc
 719              	.LFE141:
 720              		.size	chMtxTryLock, .-chMtxTryLock
 721              		.section	.text.chMtxTryLockS,"ax",@progbits
 722              		.p2align 4,,15
 723              		.globl	chMtxTryLockS
 724              		.type	chMtxTryLockS, @function
 725              	chMtxTryLockS:
 726              	.LVL36:
 727              	.LFB142:
 728              		.loc 1 282 33 is_stmt 1 view -0
 729              		.cfi_startproc
 730              		.loc 1 284 21 view .LVU232
 731              		.loc 1 285 3 view .LVU233
 732              		.loc 1 285 3 view .LVU234
 733              		.loc 1 287 3 view .LVU235
 734 0000 E8FCFFFF 		call	__x86.get_pc_thunk.cx
 734      FF
 735 0005 81C10200 		addl	$_GLOBAL_OFFSET_TABLE_, %ecx
 735      0000
 736              		.loc 1 282 33 is_stmt 0 view .LVU236
 737 000b 8B542404 		movl	4(%esp), %edx
 738              		.loc 1 297 12 view .LVU237
 739 000f 31C0     		xorl	%eax, %eax
 740              		.loc 1 287 6 view .LVU238
 741 0011 837A0800 		cmpl	$0, 8(%edx)
 742 0015 7409     		je	.L43
 743              		.loc 1 309 1 view .LVU239
 744 0017 C3       		ret
 745 0018 8DB42600 		.p2align 4,,10
 745      00000090 
 746              		.p2align 3
 747              	.L43:
 748              	.LVL37:
 749              	.LBB183:
 750              	.LBI183:
 751              		.loc 1 282 6 is_stmt 1 view .LVU240
 752              	.LBB184:
 753              		.loc 1 305 3 view .LVU241
 754              		.loc 1 305 15 is_stmt 0 view .LVU242
 755 0020 8B810000 		movl	ch@GOT(%ecx), %eax
 755      0000
 756 0026 8B4018   		movl	24(%eax), %eax
 757              		.loc 1 306 12 view .LVU243
 758 0029 8B4838   		movl	56(%eax), %ecx
 759              		.loc 1 305 13 view .LVU244
 760 002c 894208   		movl	%eax, 8(%edx)
 761              		.loc 1 306 3 is_stmt 1 view .LVU245
 762              		.loc 1 306 12 is_stmt 0 view .LVU246
 763 002f 894A0C   		movl	%ecx, 12(%edx)
 764              		.loc 1 307 3 is_stmt 1 view .LVU247
 765              		.loc 1 307 18 is_stmt 0 view .LVU248
 766 0032 895038   		movl	%edx, 56(%eax)
GAS LISTING /tmp/ccTXorqe.s 			page 15


 767              		.loc 1 308 3 is_stmt 1 view .LVU249
 768              	.LVL38:
 769              		.loc 1 307 18 is_stmt 0 view .LVU250
 770 0035 B8010000 		movl	$1, %eax
 770      00
 771              	.LBE184:
 772              	.LBE183:
 773              		.loc 1 309 1 view .LVU251
 774 003a C3       		ret
 775              		.cfi_endproc
 776              	.LFE142:
 777              		.size	chMtxTryLockS, .-chMtxTryLockS
 778              		.section	.text.chMtxUnlock,"ax",@progbits
 779              		.p2align 4,,15
 780              		.globl	chMtxUnlock
 781              		.type	chMtxUnlock, @function
 782              	chMtxUnlock:
 783              	.LVL39:
 784              	.LFB143:
 785              		.loc 1 323 31 is_stmt 1 view -0
 786              		.cfi_startproc
 787              		.loc 1 324 3 view .LVU253
 788              		.loc 1 323 31 is_stmt 0 view .LVU254
 789 0000 55       		pushl	%ebp
 790              		.cfi_def_cfa_offset 8
 791              		.cfi_offset 5, -8
 792 0001 57       		pushl	%edi
 793              		.cfi_def_cfa_offset 12
 794              		.cfi_offset 7, -12
 795 0002 56       		pushl	%esi
 796              		.cfi_def_cfa_offset 16
 797              		.cfi_offset 6, -16
 798 0003 53       		pushl	%ebx
 799              		.cfi_def_cfa_offset 20
 800              		.cfi_offset 3, -20
 801 0004 E8FCFFFF 		call	__x86.get_pc_thunk.bx
 801      FF
 802 0009 81C30200 		addl	$_GLOBAL_OFFSET_TABLE_, %ebx
 802      0000
 803 000f 83EC1C   		subl	$28, %esp
 804              		.cfi_def_cfa_offset 48
 805              		.loc 1 323 31 view .LVU255
 806 0012 8B742430 		movl	48(%esp), %esi
 807              	.LBB185:
 808              	.LBB186:
 809              	.LBB187:
 810              	.LBB188:
 811              		.loc 2 566 20 view .LVU256
 812 0016 8B3E     		movl	(%esi), %edi
 813              	.LBE188:
 814              	.LBE187:
 815              	.LBE186:
 816              	.LBE185:
 817              		.loc 1 324 13 view .LVU257
 818 0018 8B830000 		movl	ch@GOT(%ebx), %eax
 818      0000
 819 001e 8B6818   		movl	24(%eax), %ebp
GAS LISTING /tmp/ccTXorqe.s 			page 16


 820              	.LVL40:
 821              		.loc 1 325 3 is_stmt 1 view .LVU258
 822              		.loc 1 327 3 view .LVU259
 823              		.loc 1 327 3 view .LVU260
 824              		.loc 1 329 3 view .LVU261
 825              	.LBB192:
 826              	.LBI192:
 827              		.loc 3 353 20 view .LVU262
 828              	.LBE192:
 829              		.loc 3 355 3 view .LVU263
 830              	.LBB195:
 831              	.LBB193:
 832              	.LBI193:
 833              		.loc 4 362 20 view .LVU264
 834              	.LBB194:
 835              		.loc 4 364 3 view .LVU265
 836              		.loc 4 364 16 is_stmt 0 view .LVU266
 837 0021 8B830000 		movl	port_irq_sts@GOT(%ebx), %eax
 837      0000
 838 0027 8944240C 		movl	%eax, 12(%esp)
 839 002b C7000100 		movl	$1, (%eax)
 839      0000
 840              	.LBE194:
 841              	.LBE193:
 842              	.LBE195:
 843              		.loc 3 356 34 is_stmt 1 view .LVU267
 844              		.loc 3 357 20 view .LVU268
 845              		.loc 1 331 3 view .LVU269
 846              		.loc 1 331 3 view .LVU270
 847              		.loc 1 332 3 view .LVU271
 848              		.loc 1 332 3 view .LVU272
 849              		.loc 1 339 5 view .LVU273
 850              		.loc 1 339 5 view .LVU274
 851              		.loc 1 344 5 view .LVU275
 852              		.loc 1 344 22 is_stmt 0 view .LVU276
 853 0031 8B460C   		movl	12(%esi), %eax
 854              		.loc 1 344 18 view .LVU277
 855 0034 894538   		movl	%eax, 56(%ebp)
 856              		.loc 1 347 5 is_stmt 1 view .LVU278
 857              	.LVL41:
 858              	.LBB196:
 859              	.LBI185:
 860              		.file 5 "../../../os/rt/include/chmtx.h"
 861              		.loc 5 129 20 view .LVU279
 862              	.LBB191:
 863              		.loc 5 131 21 view .LVU280
 864              		.loc 5 133 3 view .LVU281
 865              	.LBB190:
 866              	.LBI187:
 867              		.loc 2 564 20 view .LVU282
 868              	.LBB189:
 869              		.loc 2 566 3 view .LVU283
 870              		.loc 2 566 3 is_stmt 0 view .LVU284
 871              	.LBE189:
 872              	.LBE190:
 873              	.LBE191:
 874              	.LBE196:
GAS LISTING /tmp/ccTXorqe.s 			page 17


 875              		.loc 1 347 8 view .LVU285
 876 0037 39F7     		cmpl	%esi, %edi
 877 0039 7465     		je	.L45
 878              	.LBB197:
 879              		.loc 1 348 7 is_stmt 1 view .LVU286
 880              		.loc 1 352 7 view .LVU287
 881              		.loc 1 352 15 is_stmt 0 view .LVU288
 882 003b 8B4D3C   		movl	60(%ebp), %ecx
 883              	.LVL42:
 884              		.loc 1 353 7 is_stmt 1 view .LVU289
 885              		.loc 1 354 7 view .LVU290
 886              		.loc 1 354 13 is_stmt 0 view .LVU291
 887 003e 85C0     		testl	%eax, %eax
 888 0040 741B     		je	.L46
 889              		.p2align 4,,10
 890 0042 8DB60000 		.p2align 3
 890      0000
 891              	.L48:
 892              		.loc 1 358 9 is_stmt 1 view .LVU292
 893              	.LVL43:
 894              	.LBB198:
 895              	.LBI198:
 896              		.loc 5 129 20 view .LVU293
 897              	.LBB199:
 898              		.loc 5 131 21 view .LVU294
 899              		.loc 5 133 3 view .LVU295
 900              	.LBB200:
 901              	.LBI200:
 902              		.loc 2 564 20 view .LVU296
 903              	.LBB201:
 904              		.loc 2 566 3 view .LVU297
 905              		.loc 2 566 20 is_stmt 0 view .LVU298
 906 0048 8B10     		movl	(%eax), %edx
 907              	.LVL44:
 908              		.loc 2 566 20 view .LVU299
 909              	.LBE201:
 910              	.LBE200:
 911              	.LBE199:
 912              	.LBE198:
 913              		.loc 1 358 12 view .LVU300
 914 004a 39D0     		cmpl	%edx, %eax
 915 004c 7408     		je	.L47
 916              		.loc 1 358 12 view .LVU301
 917 004e 8B5208   		movl	8(%edx), %edx
 918 0051 39D1     		cmpl	%edx, %ecx
 919 0053 0F42CA   		cmovb	%edx, %ecx
 920              	.LVL45:
 921              	.L47:
 922              		.loc 1 362 9 is_stmt 1 view .LVU302
 923              		.loc 1 362 13 is_stmt 0 view .LVU303
 924 0056 8B400C   		movl	12(%eax), %eax
 925              	.LVL46:
 926              		.loc 1 354 13 view .LVU304
 927 0059 85C0     		testl	%eax, %eax
 928 005b 75EB     		jne	.L48
 929              	.L46:
 930              		.loc 1 367 7 is_stmt 1 view .LVU305
GAS LISTING /tmp/ccTXorqe.s 			page 18


 931              	.LBB202:
 932              	.LBB203:
 933              		.loc 2 609 36 is_stmt 0 view .LVU306
 934 005d 8B07     		movl	(%edi), %eax
 935              	.LVL47:
 936              		.loc 2 609 36 view .LVU307
 937              	.LBE203:
 938              	.LBE202:
 939              		.loc 1 367 17 view .LVU308
 940 005f 894D08   		movl	%ecx, 8(%ebp)
 941              		.loc 1 374 7 is_stmt 1 view .LVU309
 942              	.LVL48:
 943              	.LBB206:
 944              	.LBI202:
 945              		.loc 2 606 25 view .LVU310
 946              	.LBB204:
 947              		.loc 2 607 3 view .LVU311
 948              		.loc 2 609 3 view .LVU312
 949              	.LBE204:
 950              	.LBE206:
 951              		.loc 1 383 14 is_stmt 0 view .LVU313
 952 0062 83EC0C   		subl	$12, %esp
 953              		.cfi_def_cfa_offset 60
 954              	.LBB207:
 955              	.LBB205:
 956              		.loc 2 609 25 view .LVU314
 957 0065 8906     		movl	%eax, (%esi)
 958              		.loc 2 610 3 is_stmt 1 view .LVU315
 959              		.loc 2 610 25 is_stmt 0 view .LVU316
 960 0067 897004   		movl	%esi, 4(%eax)
 961              		.loc 2 612 3 is_stmt 1 view .LVU317
 962              	.LVL49:
 963              		.loc 2 612 3 is_stmt 0 view .LVU318
 964              	.LBE205:
 965              	.LBE207:
 966              		.loc 1 375 7 is_stmt 1 view .LVU319
 967              		.loc 1 376 16 is_stmt 0 view .LVU320
 968 006a 8B4738   		movl	56(%edi), %eax
 969              		.loc 1 375 17 view .LVU321
 970 006d 897E08   		movl	%edi, 8(%esi)
 971              		.loc 1 376 7 is_stmt 1 view .LVU322
 972              		.loc 1 376 16 is_stmt 0 view .LVU323
 973 0070 89460C   		movl	%eax, 12(%esi)
 974              		.loc 1 377 7 is_stmt 1 view .LVU324
 975              		.loc 1 377 19 is_stmt 0 view .LVU325
 976 0073 897738   		movl	%esi, 56(%edi)
 977              		.loc 1 383 7 is_stmt 1 view .LVU326
 978              		.loc 1 383 14 is_stmt 0 view .LVU327
 979 0076 57       		pushl	%edi
 980              		.cfi_def_cfa_offset 64
 981 0077 E8FCFFFF 		call	chSchReadyI@PLT
 981      FF
 982              	.LVL50:
 983              		.loc 1 384 7 is_stmt 1 view .LVU328
 984 007c E8FCFFFF 		call	chSchRescheduleS@PLT
 984      FF
 985              	.LVL51:
GAS LISTING /tmp/ccTXorqe.s 			page 19


 986              	.LBE197:
 987 0081 83C410   		addl	$16, %esp
 988              		.cfi_def_cfa_offset 48
 989              	.LVL52:
 990              	.L49:
 991              		.loc 1 393 3 view .LVU329
 992              	.LBB208:
 993              	.LBI208:
 994              		.loc 3 365 20 view .LVU330
 995              	.LBB209:
 996              		.loc 3 367 22 view .LVU331
 997              		.loc 3 368 33 view .LVU332
 998              		.loc 3 374 3 view .LVU333
 999              		.loc 3 374 3 view .LVU334
 1000              		.loc 3 378 3 view .LVU335
 1001              	.LBB210:
 1002              	.LBI210:
 1003              		.loc 4 371 20 view .LVU336
 1004              	.LBB211:
 1005              		.loc 4 373 3 view .LVU337
 1006              		.loc 4 373 16 is_stmt 0 view .LVU338
 1007 0084 8B44240C 		movl	12(%esp), %eax
 1008 0088 C7000000 		movl	$0, (%eax)
 1008      0000
 1009              	.LBE211:
 1010              	.LBE210:
 1011              	.LBE209:
 1012              	.LBE208:
 1013              		.loc 1 394 1 view .LVU339
 1014 008e 83C41C   		addl	$28, %esp
 1015              		.cfi_remember_state
 1016              		.cfi_def_cfa_offset 20
 1017 0091 5B       		popl	%ebx
 1018              		.cfi_restore 3
 1019              		.cfi_def_cfa_offset 16
 1020 0092 5E       		popl	%esi
 1021              		.cfi_restore 6
 1022              		.cfi_def_cfa_offset 12
 1023 0093 5F       		popl	%edi
 1024              		.cfi_restore 7
 1025              		.cfi_def_cfa_offset 8
 1026 0094 5D       		popl	%ebp
 1027              		.cfi_restore 5
 1028              		.cfi_def_cfa_offset 4
 1029              	.LVL53:
 1030              		.loc 1 394 1 view .LVU340
 1031 0095 C3       		ret
 1032              	.LVL54:
 1033 0096 8DB42600 		.p2align 4,,10
 1033      0000008D 
 1033      7600
 1034              		.p2align 3
 1035              	.L45:
 1036              		.cfi_restore_state
 1037              		.loc 1 387 7 is_stmt 1 view .LVU341
 1038              		.loc 1 387 17 is_stmt 0 view .LVU342
 1039 00a0 C7470800 		movl	$0, 8(%edi)
GAS LISTING /tmp/ccTXorqe.s 			page 20


 1039      000000
 1040 00a7 EBDB     		jmp	.L49
 1041              		.cfi_endproc
 1042              	.LFE143:
 1043              		.size	chMtxUnlock, .-chMtxUnlock
 1044              		.section	.text.chMtxUnlockS,"ax",@progbits
 1045              		.p2align 4,,15
 1046              		.globl	chMtxUnlockS
 1047              		.type	chMtxUnlockS, @function
 1048              	chMtxUnlockS:
 1049              	.LVL55:
 1050              	.LFB144:
 1051              		.loc 1 410 32 is_stmt 1 view -0
 1052              		.cfi_startproc
 1053              		.loc 1 411 3 view .LVU344
 1054              		.loc 1 410 32 is_stmt 0 view .LVU345
 1055 0000 55       		pushl	%ebp
 1056              		.cfi_def_cfa_offset 8
 1057              		.cfi_offset 5, -8
 1058 0001 57       		pushl	%edi
 1059              		.cfi_def_cfa_offset 12
 1060              		.cfi_offset 7, -12
 1061 0002 56       		pushl	%esi
 1062              		.cfi_def_cfa_offset 16
 1063              		.cfi_offset 6, -16
 1064 0003 53       		pushl	%ebx
 1065              		.cfi_def_cfa_offset 20
 1066              		.cfi_offset 3, -20
 1067 0004 E8FCFFFF 		call	__x86.get_pc_thunk.bx
 1067      FF
 1068 0009 81C30200 		addl	$_GLOBAL_OFFSET_TABLE_, %ebx
 1068      0000
 1069 000f 83EC0C   		subl	$12, %esp
 1070              		.cfi_def_cfa_offset 32
 1071              		.loc 1 410 32 view .LVU346
 1072 0012 8B742420 		movl	32(%esp), %esi
 1073              	.LBB212:
 1074              	.LBB213:
 1075              	.LBB214:
 1076              	.LBB215:
 1077              		.loc 2 566 20 view .LVU347
 1078 0016 8B3E     		movl	(%esi), %edi
 1079              	.LBE215:
 1080              	.LBE214:
 1081              	.LBE213:
 1082              	.LBE212:
 1083              		.loc 1 411 13 view .LVU348
 1084 0018 8B830000 		movl	ch@GOT(%ebx), %eax
 1084      0000
 1085 001e 8B6818   		movl	24(%eax), %ebp
 1086              	.LVL56:
 1087              		.loc 1 412 3 is_stmt 1 view .LVU349
 1088              		.loc 1 414 21 view .LVU350
 1089              		.loc 1 415 3 view .LVU351
 1090              		.loc 1 415 3 view .LVU352
 1091              		.loc 1 417 3 view .LVU353
 1092              		.loc 1 417 3 view .LVU354
GAS LISTING /tmp/ccTXorqe.s 			page 21


 1093              		.loc 1 418 3 view .LVU355
 1094              		.loc 1 418 3 view .LVU356
 1095              		.loc 1 425 5 view .LVU357
 1096              		.loc 1 425 5 view .LVU358
 1097              		.loc 1 430 5 view .LVU359
 1098              		.loc 1 430 22 is_stmt 0 view .LVU360
 1099 0021 8B460C   		movl	12(%esi), %eax
 1100              		.loc 1 430 18 view .LVU361
 1101 0024 894538   		movl	%eax, 56(%ebp)
 1102              		.loc 1 433 5 is_stmt 1 view .LVU362
 1103              	.LVL57:
 1104              	.LBB219:
 1105              	.LBI212:
 1106              		.loc 5 129 20 view .LVU363
 1107              	.LBB218:
 1108              		.loc 5 131 21 view .LVU364
 1109              		.loc 5 133 3 view .LVU365
 1110              	.LBB217:
 1111              	.LBI214:
 1112              		.loc 2 564 20 view .LVU366
 1113              	.LBB216:
 1114              		.loc 2 566 3 view .LVU367
 1115              		.loc 2 566 3 is_stmt 0 view .LVU368
 1116              	.LBE216:
 1117              	.LBE217:
 1118              	.LBE218:
 1119              	.LBE219:
 1120              		.loc 1 433 8 view .LVU369
 1121 0027 39F7     		cmpl	%esi, %edi
 1122 0029 7455     		je	.L56
 1123              	.LBB220:
 1124              		.loc 1 434 7 is_stmt 1 view .LVU370
 1125              		.loc 1 438 7 view .LVU371
 1126              		.loc 1 438 15 is_stmt 0 view .LVU372
 1127 002b 8B4D3C   		movl	60(%ebp), %ecx
 1128              	.LVL58:
 1129              		.loc 1 439 7 is_stmt 1 view .LVU373
 1130              		.loc 1 440 7 view .LVU374
 1131              		.loc 1 440 13 is_stmt 0 view .LVU375
 1132 002e 85C0     		testl	%eax, %eax
 1133 0030 741B     		je	.L57
 1134              		.p2align 4,,10
 1135 0032 8DB60000 		.p2align 3
 1135      0000
 1136              	.L59:
 1137              		.loc 1 444 9 is_stmt 1 view .LVU376
 1138              	.LVL59:
 1139              	.LBB221:
 1140              	.LBI221:
 1141              		.loc 5 129 20 view .LVU377
 1142              	.LBB222:
 1143              		.loc 5 131 21 view .LVU378
 1144              		.loc 5 133 3 view .LVU379
 1145              	.LBB223:
 1146              	.LBI223:
 1147              		.loc 2 564 20 view .LVU380
 1148              	.LBB224:
GAS LISTING /tmp/ccTXorqe.s 			page 22


 1149              		.loc 2 566 3 view .LVU381
 1150              		.loc 2 566 20 is_stmt 0 view .LVU382
 1151 0038 8B10     		movl	(%eax), %edx
 1152              	.LVL60:
 1153              		.loc 2 566 20 view .LVU383
 1154              	.LBE224:
 1155              	.LBE223:
 1156              	.LBE222:
 1157              	.LBE221:
 1158              		.loc 1 444 12 view .LVU384
 1159 003a 39D0     		cmpl	%edx, %eax
 1160 003c 7408     		je	.L58
 1161              		.loc 1 444 12 view .LVU385
 1162 003e 8B5208   		movl	8(%edx), %edx
 1163 0041 39D1     		cmpl	%edx, %ecx
 1164 0043 0F42CA   		cmovb	%edx, %ecx
 1165              	.LVL61:
 1166              	.L58:
 1167              		.loc 1 448 9 is_stmt 1 view .LVU386
 1168              		.loc 1 448 13 is_stmt 0 view .LVU387
 1169 0046 8B400C   		movl	12(%eax), %eax
 1170              	.LVL62:
 1171              		.loc 1 440 13 view .LVU388
 1172 0049 85C0     		testl	%eax, %eax
 1173 004b 75EB     		jne	.L59
 1174              	.L57:
 1175              		.loc 1 453 7 is_stmt 1 view .LVU389
 1176              	.LBB225:
 1177              	.LBB226:
 1178              		.loc 2 609 36 is_stmt 0 view .LVU390
 1179 004d 8B07     		movl	(%edi), %eax
 1180              	.LVL63:
 1181              		.loc 2 609 36 view .LVU391
 1182              	.LBE226:
 1183              	.LBE225:
 1184              		.loc 1 453 17 view .LVU392
 1185 004f 894D08   		movl	%ecx, 8(%ebp)
 1186              		.loc 1 460 7 is_stmt 1 view .LVU393
 1187              	.LVL64:
 1188              	.LBB229:
 1189              	.LBI225:
 1190              		.loc 2 606 25 view .LVU394
 1191              	.LBB227:
 1192              		.loc 2 607 3 view .LVU395
 1193              		.loc 2 609 3 view .LVU396
 1194              	.LBE227:
 1195              	.LBE229:
 1196              		.loc 1 464 14 is_stmt 0 view .LVU397
 1197 0052 83EC0C   		subl	$12, %esp
 1198              		.cfi_def_cfa_offset 44
 1199              	.LBB230:
 1200              	.LBB228:
 1201              		.loc 2 609 25 view .LVU398
 1202 0055 8906     		movl	%eax, (%esi)
 1203              		.loc 2 610 3 is_stmt 1 view .LVU399
 1204              		.loc 2 610 25 is_stmt 0 view .LVU400
 1205 0057 897004   		movl	%esi, 4(%eax)
GAS LISTING /tmp/ccTXorqe.s 			page 23


 1206              		.loc 2 612 3 is_stmt 1 view .LVU401
 1207              	.LVL65:
 1208              		.loc 2 612 3 is_stmt 0 view .LVU402
 1209              	.LBE228:
 1210              	.LBE230:
 1211              		.loc 1 461 7 is_stmt 1 view .LVU403
 1212              		.loc 1 462 16 is_stmt 0 view .LVU404
 1213 005a 8B4738   		movl	56(%edi), %eax
 1214              		.loc 1 461 17 view .LVU405
 1215 005d 897E08   		movl	%edi, 8(%esi)
 1216              		.loc 1 462 7 is_stmt 1 view .LVU406
 1217              		.loc 1 462 16 is_stmt 0 view .LVU407
 1218 0060 89460C   		movl	%eax, 12(%esi)
 1219              		.loc 1 463 7 is_stmt 1 view .LVU408
 1220              		.loc 1 463 19 is_stmt 0 view .LVU409
 1221 0063 897738   		movl	%esi, 56(%edi)
 1222              		.loc 1 464 7 is_stmt 1 view .LVU410
 1223              		.loc 1 464 14 is_stmt 0 view .LVU411
 1224 0066 57       		pushl	%edi
 1225              		.cfi_def_cfa_offset 48
 1226 0067 E8FCFFFF 		call	chSchReadyI@PLT
 1226      FF
 1227              	.LVL66:
 1228              		.loc 1 464 14 view .LVU412
 1229              	.LBE220:
 1230 006c 83C410   		addl	$16, %esp
 1231              		.cfi_def_cfa_offset 32
 1232              		.loc 1 472 1 view .LVU413
 1233 006f 83C40C   		addl	$12, %esp
 1234              		.cfi_remember_state
 1235              		.cfi_def_cfa_offset 20
 1236 0072 5B       		popl	%ebx
 1237              		.cfi_restore 3
 1238              		.cfi_def_cfa_offset 16
 1239 0073 5E       		popl	%esi
 1240              		.cfi_restore 6
 1241              		.cfi_def_cfa_offset 12
 1242 0074 5F       		popl	%edi
 1243              		.cfi_restore 7
 1244              		.cfi_def_cfa_offset 8
 1245              	.LVL67:
 1246              		.loc 1 472 1 view .LVU414
 1247 0075 5D       		popl	%ebp
 1248              		.cfi_restore 5
 1249              		.cfi_def_cfa_offset 4
 1250              	.LVL68:
 1251              		.loc 1 472 1 view .LVU415
 1252 0076 C3       		ret
 1253              	.LVL69:
 1254 0077 8DB42600 		.p2align 4,,10
 1254      00000066 
 1254      90
 1255              		.p2align 3
 1256              	.L56:
 1257              		.cfi_restore_state
 1258              		.loc 1 467 7 is_stmt 1 view .LVU416
 1259              		.loc 1 467 17 is_stmt 0 view .LVU417
GAS LISTING /tmp/ccTXorqe.s 			page 24


 1260 0080 C7470800 		movl	$0, 8(%edi)
 1260      000000
 1261              		.loc 1 472 1 view .LVU418
 1262 0087 83C40C   		addl	$12, %esp
 1263              		.cfi_def_cfa_offset 20
 1264 008a 5B       		popl	%ebx
 1265              		.cfi_restore 3
 1266              		.cfi_def_cfa_offset 16
 1267 008b 5E       		popl	%esi
 1268              		.cfi_restore 6
 1269              		.cfi_def_cfa_offset 12
 1270 008c 5F       		popl	%edi
 1271              		.cfi_restore 7
 1272              		.cfi_def_cfa_offset 8
 1273 008d 5D       		popl	%ebp
 1274              		.cfi_restore 5
 1275              		.cfi_def_cfa_offset 4
 1276              	.LVL70:
 1277              		.loc 1 472 1 view .LVU419
 1278 008e C3       		ret
 1279              		.cfi_endproc
 1280              	.LFE144:
 1281              		.size	chMtxUnlockS, .-chMtxUnlockS
 1282              		.section	.text.chMtxUnlockAllS,"ax",@progbits
 1283              		.p2align 4,,15
 1284              		.globl	chMtxUnlockAllS
 1285              		.type	chMtxUnlockAllS, @function
 1286              	chMtxUnlockAllS:
 1287              	.LFB145:
 1288              		.loc 1 487 28 is_stmt 1 view -0
 1289              		.cfi_startproc
 1290              		.loc 1 488 3 view .LVU421
 1291              		.loc 1 487 28 is_stmt 0 view .LVU422
 1292 0000 56       		pushl	%esi
 1293              		.cfi_def_cfa_offset 8
 1294              		.cfi_offset 6, -8
 1295 0001 53       		pushl	%ebx
 1296              		.cfi_def_cfa_offset 12
 1297              		.cfi_offset 3, -12
 1298 0002 E8FCFFFF 		call	__x86.get_pc_thunk.bx
 1298      FF
 1299 0007 81C30200 		addl	$_GLOBAL_OFFSET_TABLE_, %ebx
 1299      0000
 1300 000d 83EC04   		subl	$4, %esp
 1301              		.cfi_def_cfa_offset 16
 1302              		.loc 1 488 13 view .LVU423
 1303 0010 8B830000 		movl	ch@GOT(%ebx), %eax
 1303      0000
 1304 0016 8B7018   		movl	24(%eax), %esi
 1305              	.LVL71:
 1306              		.loc 1 490 3 is_stmt 1 view .LVU424
 1307 0019 8B4638   		movl	56(%esi), %eax
 1308              	.L67:
 1309              		.loc 1 490 9 is_stmt 0 view .LVU425
 1310 001c 85C0     		testl	%eax, %eax
 1311 001e 7432     		je	.L72
 1312              	.L70:
GAS LISTING /tmp/ccTXorqe.s 			page 25


 1313              	.LBB231:
 1314              		.loc 1 491 5 is_stmt 1 view .LVU426
 1315              	.LVL72:
 1316              		.loc 1 492 5 view .LVU427
 1317              		.loc 1 492 22 is_stmt 0 view .LVU428
 1318 0020 8B480C   		movl	12(%eax), %ecx
 1319              	.LBB232:
 1320              	.LBB233:
 1321              	.LBB234:
 1322              	.LBB235:
 1323              		.loc 2 566 20 view .LVU429
 1324 0023 8B10     		movl	(%eax), %edx
 1325              	.LBE235:
 1326              	.LBE234:
 1327              	.LBE233:
 1328              	.LBE232:
 1329              		.loc 1 492 18 view .LVU430
 1330 0025 894E38   		movl	%ecx, 56(%esi)
 1331              		.loc 1 493 5 is_stmt 1 view .LVU431
 1332              	.LVL73:
 1333              	.LBB239:
 1334              	.LBI232:
 1335              		.loc 5 129 20 view .LVU432
 1336              	.LBB238:
 1337              		.loc 5 131 21 view .LVU433
 1338              		.loc 5 133 3 view .LVU434
 1339              	.LBB237:
 1340              	.LBI234:
 1341              		.loc 2 564 20 view .LVU435
 1342              	.LBB236:
 1343              		.loc 2 566 3 view .LVU436
 1344              		.loc 2 566 3 is_stmt 0 view .LVU437
 1345              	.LBE236:
 1346              	.LBE237:
 1347              	.LBE238:
 1348              	.LBE239:
 1349              		.loc 1 493 8 view .LVU438
 1350 0028 39D0     		cmpl	%edx, %eax
 1351 002a 7434     		je	.L68
 1352              	.LBB240:
 1353              		.loc 1 497 7 is_stmt 1 view .LVU439
 1354              	.LVL74:
 1355              	.LBB241:
 1356              	.LBI241:
 1357              		.loc 2 606 25 view .LVU440
 1358              	.LBB242:
 1359              		.loc 2 607 3 view .LVU441
 1360              		.loc 2 609 3 view .LVU442
 1361              		.loc 2 609 36 is_stmt 0 view .LVU443
 1362 002c 8B0A     		movl	(%edx), %ecx
 1363              	.LBE242:
 1364              	.LBE241:
 1365              		.loc 1 501 14 view .LVU444
 1366 002e 83EC0C   		subl	$12, %esp
 1367              		.cfi_def_cfa_offset 28
 1368              	.LBB244:
 1369              	.LBB243:
GAS LISTING /tmp/ccTXorqe.s 			page 26


 1370              		.loc 2 609 25 view .LVU445
 1371 0031 8908     		movl	%ecx, (%eax)
 1372              		.loc 2 610 3 is_stmt 1 view .LVU446
 1373              		.loc 2 610 25 is_stmt 0 view .LVU447
 1374 0033 894104   		movl	%eax, 4(%ecx)
 1375              		.loc 2 612 3 is_stmt 1 view .LVU448
 1376              	.LVL75:
 1377              		.loc 2 612 3 is_stmt 0 view .LVU449
 1378              	.LBE243:
 1379              	.LBE244:
 1380              		.loc 1 498 7 is_stmt 1 view .LVU450
 1381              		.loc 1 499 16 is_stmt 0 view .LVU451
 1382 0036 8B4A38   		movl	56(%edx), %ecx
 1383              		.loc 1 498 17 view .LVU452
 1384 0039 895008   		movl	%edx, 8(%eax)
 1385              		.loc 1 499 7 is_stmt 1 view .LVU453
 1386              		.loc 1 499 16 is_stmt 0 view .LVU454
 1387 003c 89480C   		movl	%ecx, 12(%eax)
 1388              		.loc 1 500 7 is_stmt 1 view .LVU455
 1389              		.loc 1 500 19 is_stmt 0 view .LVU456
 1390 003f 894238   		movl	%eax, 56(%edx)
 1391              		.loc 1 501 7 is_stmt 1 view .LVU457
 1392              		.loc 1 501 14 is_stmt 0 view .LVU458
 1393 0042 52       		pushl	%edx
 1394              		.cfi_def_cfa_offset 32
 1395 0043 E8FCFFFF 		call	chSchReadyI@PLT
 1395      FF
 1396              	.LVL76:
 1397              		.loc 1 501 14 view .LVU459
 1398 0048 8B4638   		movl	56(%esi), %eax
 1399              	.LBE240:
 1400 004b 83C410   		addl	$16, %esp
 1401              		.cfi_def_cfa_offset 16
 1402              	.LVL77:
 1403              		.loc 1 501 14 view .LVU460
 1404              	.LBE231:
 1405              		.loc 1 490 9 view .LVU461
 1406 004e 85C0     		testl	%eax, %eax
 1407 0050 75CE     		jne	.L70
 1408              	.LVL78:
 1409              	.L72:
 1410              		.loc 1 510 3 is_stmt 1 view .LVU462
 1411              		.loc 1 510 13 is_stmt 0 view .LVU463
 1412 0052 8B463C   		movl	60(%esi), %eax
 1413 0055 894608   		movl	%eax, 8(%esi)
 1414              		.loc 1 511 1 view .LVU464
 1415 0058 83C404   		addl	$4, %esp
 1416              		.cfi_remember_state
 1417              		.cfi_def_cfa_offset 12
 1418 005b 5B       		popl	%ebx
 1419              		.cfi_restore 3
 1420              		.cfi_def_cfa_offset 8
 1421 005c 5E       		popl	%esi
 1422              		.cfi_restore 6
 1423              		.cfi_def_cfa_offset 4
 1424              	.LVL79:
 1425              		.loc 1 511 1 view .LVU465
GAS LISTING /tmp/ccTXorqe.s 			page 27


 1426 005d C3       		ret
 1427              	.LVL80:
 1428 005e 6690     		.p2align 4,,10
 1429              		.p2align 3
 1430              	.L68:
 1431              		.cfi_restore_state
 1432              	.LBB245:
 1433              		.loc 1 507 7 is_stmt 1 view .LVU466
 1434              		.loc 1 507 17 is_stmt 0 view .LVU467
 1435 0060 C7400800 		movl	$0, 8(%eax)
 1435      000000
 1436 0067 89C8     		movl	%ecx, %eax
 1437 0069 EBB1     		jmp	.L67
 1438              	.LBE245:
 1439              		.cfi_endproc
 1440              	.LFE145:
 1441              		.size	chMtxUnlockAllS, .-chMtxUnlockAllS
 1442              		.section	.text.chMtxUnlockAll,"ax",@progbits
 1443              		.p2align 4,,15
 1444              		.globl	chMtxUnlockAll
 1445              		.type	chMtxUnlockAll, @function
 1446              	chMtxUnlockAll:
 1447              	.LFB146:
 1448              		.loc 1 524 27 is_stmt 1 view -0
 1449              		.cfi_startproc
 1450              		.loc 1 525 3 view .LVU469
 1451              		.loc 1 524 27 is_stmt 0 view .LVU470
 1452 0000 57       		pushl	%edi
 1453              		.cfi_def_cfa_offset 8
 1454              		.cfi_offset 7, -8
 1455 0001 56       		pushl	%esi
 1456              		.cfi_def_cfa_offset 12
 1457              		.cfi_offset 6, -12
 1458 0002 53       		pushl	%ebx
 1459              		.cfi_def_cfa_offset 16
 1460              		.cfi_offset 3, -16
 1461 0003 E8FCFFFF 		call	__x86.get_pc_thunk.bx
 1461      FF
 1462 0008 81C30200 		addl	$_GLOBAL_OFFSET_TABLE_, %ebx
 1462      0000
 1463              		.loc 1 525 13 view .LVU471
 1464 000e 8B830000 		movl	ch@GOT(%ebx), %eax
 1464      0000
 1465              	.LBB246:
 1466              	.LBB247:
 1467              	.LBB248:
 1468              		.loc 4 364 16 view .LVU472
 1469 0014 8BB30000 		movl	port_irq_sts@GOT(%ebx), %esi
 1469      0000
 1470              	.LBE248:
 1471              	.LBE247:
 1472              	.LBE246:
 1473              		.loc 1 525 13 view .LVU473
 1474 001a 8B7818   		movl	24(%eax), %edi
 1475              	.LVL81:
 1476              		.loc 1 527 3 is_stmt 1 view .LVU474
 1477              	.LBB251:
GAS LISTING /tmp/ccTXorqe.s 			page 28


 1478              	.LBI246:
 1479              		.loc 3 353 20 view .LVU475
 1480              	.LBE251:
 1481              		.loc 3 355 3 view .LVU476
 1482              	.LBB252:
 1483              	.LBB250:
 1484              	.LBI247:
 1485              		.loc 4 362 20 view .LVU477
 1486              	.LBB249:
 1487              		.loc 4 364 3 view .LVU478
 1488              		.loc 4 364 16 is_stmt 0 view .LVU479
 1489 001d C7060100 		movl	$1, (%esi)
 1489      0000
 1490              	.LBE249:
 1491              	.LBE250:
 1492              	.LBE252:
 1493              		.loc 3 356 34 is_stmt 1 view .LVU480
 1494              		.loc 3 357 20 view .LVU481
 1495              		.loc 1 528 3 view .LVU482
 1496              		.loc 1 528 10 is_stmt 0 view .LVU483
 1497 0023 8B4738   		movl	56(%edi), %eax
 1498              		.loc 1 528 6 view .LVU484
 1499 0026 85C0     		testl	%eax, %eax
 1500 0028 752C     		jne	.L77
 1501 002a EB4E     		jmp	.L74
 1502              	.LVL82:
 1503 002c 8D742600 		.p2align 4,,10
 1504              		.p2align 3
 1505              	.L84:
 1506              	.LBB253:
 1507              	.LBB254:
 1508              		.loc 1 536 9 is_stmt 1 view .LVU485
 1509              	.LBB255:
 1510              	.LBI255:
 1511              		.loc 2 606 25 view .LVU486
 1512              	.LBB256:
 1513              		.loc 2 607 3 view .LVU487
 1514              		.loc 2 609 3 view .LVU488
 1515              		.loc 2 609 36 is_stmt 0 view .LVU489
 1516 0030 8B0A     		movl	(%edx), %ecx
 1517              	.LBE256:
 1518              	.LBE255:
 1519              		.loc 1 540 16 view .LVU490
 1520 0032 83EC0C   		subl	$12, %esp
 1521              		.cfi_def_cfa_offset 28
 1522              	.LBB258:
 1523              	.LBB257:
 1524              		.loc 2 609 25 view .LVU491
 1525 0035 8908     		movl	%ecx, (%eax)
 1526              		.loc 2 610 3 is_stmt 1 view .LVU492
 1527              		.loc 2 610 25 is_stmt 0 view .LVU493
 1528 0037 894104   		movl	%eax, 4(%ecx)
 1529              		.loc 2 612 3 is_stmt 1 view .LVU494
 1530              	.LVL83:
 1531              		.loc 2 612 3 is_stmt 0 view .LVU495
 1532              	.LBE257:
 1533              	.LBE258:
GAS LISTING /tmp/ccTXorqe.s 			page 29


 1534              		.loc 1 537 9 is_stmt 1 view .LVU496
 1535              		.loc 1 538 18 is_stmt 0 view .LVU497
 1536 003a 8B4A38   		movl	56(%edx), %ecx
 1537              		.loc 1 537 19 view .LVU498
 1538 003d 895008   		movl	%edx, 8(%eax)
 1539              		.loc 1 538 9 is_stmt 1 view .LVU499
 1540              		.loc 1 538 18 is_stmt 0 view .LVU500
 1541 0040 89480C   		movl	%ecx, 12(%eax)
 1542              		.loc 1 539 9 is_stmt 1 view .LVU501
 1543              		.loc 1 539 21 is_stmt 0 view .LVU502
 1544 0043 894238   		movl	%eax, 56(%edx)
 1545              		.loc 1 540 9 is_stmt 1 view .LVU503
 1546              		.loc 1 540 16 is_stmt 0 view .LVU504
 1547 0046 52       		pushl	%edx
 1548              		.cfi_def_cfa_offset 32
 1549 0047 E8FCFFFF 		call	chSchReadyI@PLT
 1549      FF
 1550              	.LVL84:
 1551              		.loc 1 540 16 view .LVU505
 1552 004c 8B4738   		movl	56(%edi), %eax
 1553              	.LBE254:
 1554 004f 83C410   		addl	$16, %esp
 1555              		.cfi_def_cfa_offset 16
 1556              	.LBE253:
 1557              		.loc 1 548 5 view .LVU506
 1558 0052 85C0     		testl	%eax, %eax
 1559 0054 7419     		je	.L83
 1560              	.L77:
 1561              		.loc 1 529 5 is_stmt 1 view .LVU507
 1562              	.LBB267:
 1563              		.loc 1 530 7 view .LVU508
 1564              	.LVL85:
 1565              		.loc 1 531 7 view .LVU509
 1566              		.loc 1 531 24 is_stmt 0 view .LVU510
 1567 0056 8B480C   		movl	12(%eax), %ecx
 1568              	.LBB259:
 1569              	.LBB260:
 1570              	.LBB261:
 1571              	.LBB262:
 1572              		.loc 2 566 20 view .LVU511
 1573 0059 8B10     		movl	(%eax), %edx
 1574              	.LBE262:
 1575              	.LBE261:
 1576              	.LBE260:
 1577              	.LBE259:
 1578              		.loc 1 531 20 view .LVU512
 1579 005b 894F38   		movl	%ecx, 56(%edi)
 1580              	.LVL86:
 1581              		.loc 1 532 7 is_stmt 1 view .LVU513
 1582              	.LBB266:
 1583              	.LBI259:
 1584              		.loc 5 129 20 view .LVU514
 1585              	.LBB265:
 1586              		.loc 5 131 21 view .LVU515
 1587              		.loc 5 133 3 view .LVU516
 1588              	.LBB264:
 1589              	.LBI261:
GAS LISTING /tmp/ccTXorqe.s 			page 30


 1590              		.loc 2 564 20 view .LVU517
 1591              	.LBB263:
 1592              		.loc 2 566 3 view .LVU518
 1593              		.loc 2 566 3 is_stmt 0 view .LVU519
 1594              	.LBE263:
 1595              	.LBE264:
 1596              	.LBE265:
 1597              	.LBE266:
 1598              		.loc 1 532 10 view .LVU520
 1599 005e 39D0     		cmpl	%edx, %eax
 1600 0060 75CE     		jne	.L84
 1601              		.loc 1 546 9 is_stmt 1 view .LVU521
 1602              		.loc 1 546 19 is_stmt 0 view .LVU522
 1603 0062 C7400800 		movl	$0, 8(%eax)
 1603      000000
 1604 0069 89C8     		movl	%ecx, %eax
 1605              	.LBE267:
 1606              		.loc 1 548 5 view .LVU523
 1607 006b 85C0     		testl	%eax, %eax
 1608 006d 75E7     		jne	.L77
 1609              	.L83:
 1610              		.loc 1 549 5 is_stmt 1 view .LVU524
 1611              		.loc 1 549 15 is_stmt 0 view .LVU525
 1612 006f 8B473C   		movl	60(%edi), %eax
 1613 0072 894708   		movl	%eax, 8(%edi)
 1614              		.loc 1 550 5 is_stmt 1 view .LVU526
 1615 0075 E8FCFFFF 		call	chSchRescheduleS@PLT
 1615      FF
 1616              	.LVL87:
 1617              	.L74:
 1618              		.loc 1 552 3 view .LVU527
 1619              	.LBB268:
 1620              	.LBI268:
 1621              		.loc 3 365 20 view .LVU528
 1622              	.LBB269:
 1623              		.loc 3 367 22 view .LVU529
 1624              		.loc 3 368 33 view .LVU530
 1625              		.loc 3 374 3 view .LVU531
 1626              		.loc 3 374 3 view .LVU532
 1627              		.loc 3 378 3 view .LVU533
 1628              	.LBB270:
 1629              	.LBI270:
 1630              		.loc 4 371 20 view .LVU534
 1631              	.LBB271:
 1632              		.loc 4 373 3 view .LVU535
 1633              	.LBE271:
 1634              	.LBE270:
 1635              	.LBE269:
 1636              	.LBE268:
 1637              		.loc 1 553 1 is_stmt 0 view .LVU536
 1638 007a 5B       		popl	%ebx
 1639              		.cfi_restore 3
 1640              		.cfi_def_cfa_offset 12
 1641              	.LBB275:
 1642              	.LBB274:
 1643              	.LBB273:
 1644              	.LBB272:
GAS LISTING /tmp/ccTXorqe.s 			page 31


 1645              		.loc 4 373 16 view .LVU537
 1646 007b C7060000 		movl	$0, (%esi)
 1646      0000
 1647              	.LBE272:
 1648              	.LBE273:
 1649              	.LBE274:
 1650              	.LBE275:
 1651              		.loc 1 553 1 view .LVU538
 1652 0081 5E       		popl	%esi
 1653              		.cfi_restore 6
 1654              		.cfi_def_cfa_offset 8
 1655 0082 5F       		popl	%edi
 1656              		.cfi_restore 7
 1657              		.cfi_def_cfa_offset 4
 1658              	.LVL88:
 1659              		.loc 1 553 1 view .LVU539
 1660 0083 C3       		ret
 1661              		.cfi_endproc
 1662              	.LFE146:
 1663              		.size	chMtxUnlockAll, .-chMtxUnlockAll
 1664              		.section	.text.__x86.get_pc_thunk.ax,"axG",@progbits,__x86.get_pc_thunk.ax,comdat
 1665              		.globl	__x86.get_pc_thunk.ax
 1666              		.hidden	__x86.get_pc_thunk.ax
 1667              		.type	__x86.get_pc_thunk.ax, @function
 1668              	__x86.get_pc_thunk.ax:
 1669              	.LFB148:
 1670              		.cfi_startproc
 1671 0000 8B0424   		movl	(%esp), %eax
 1672 0003 C3       		ret
 1673              		.cfi_endproc
 1674              	.LFE148:
 1675              		.section	.text.__x86.get_pc_thunk.cx,"axG",@progbits,__x86.get_pc_thunk.cx,comdat
 1676              		.globl	__x86.get_pc_thunk.cx
 1677              		.hidden	__x86.get_pc_thunk.cx
 1678              		.type	__x86.get_pc_thunk.cx, @function
 1679              	__x86.get_pc_thunk.cx:
 1680              	.LFB149:
 1681              		.cfi_startproc
 1682 0000 8B0C24   		movl	(%esp), %ecx
 1683 0003 C3       		ret
 1684              		.cfi_endproc
 1685              	.LFE149:
 1686              		.section	.text.__x86.get_pc_thunk.bx,"axG",@progbits,__x86.get_pc_thunk.bx,comdat
 1687              		.globl	__x86.get_pc_thunk.bx
 1688              		.hidden	__x86.get_pc_thunk.bx
 1689              		.type	__x86.get_pc_thunk.bx, @function
 1690              	__x86.get_pc_thunk.bx:
 1691              	.LFB150:
 1692              		.cfi_startproc
 1693 0000 8B1C24   		movl	(%esp), %ebx
 1694 0003 C3       		ret
 1695              		.cfi_endproc
 1696              	.LFE150:
 1697              		.section	.text.__x86.get_pc_thunk.bp,"axG",@progbits,__x86.get_pc_thunk.bp,comdat
 1698              		.globl	__x86.get_pc_thunk.bp
 1699              		.hidden	__x86.get_pc_thunk.bp
 1700              		.type	__x86.get_pc_thunk.bp, @function
GAS LISTING /tmp/ccTXorqe.s 			page 32


 1701              	__x86.get_pc_thunk.bp:
 1702              	.LFB151:
 1703              		.cfi_startproc
 1704 0000 8B2C24   		movl	(%esp), %ebp
 1705 0003 C3       		ret
 1706              		.cfi_endproc
 1707              	.LFE151:
 1708              		.text
 1709              	.Letext0:
 1710              		.file 6 "/usr/lib/gcc/x86_64-linux-gnu/8/include/stddef.h"
 1711              		.file 7 "/usr/include/i386-linux-gnu/bits/types.h"
 1712              		.file 8 "/usr/include/i386-linux-gnu/bits/stdint-intn.h"
 1713              		.file 9 "/usr/include/i386-linux-gnu/bits/stdint-uintn.h"
 1714              		.file 10 "../../../os/common/ports/SIMIA32/compilers/GCC/chtypes.h"
 1715              		.file 11 "../../../os/rt/include/chsystypes.h"
 1716              		.file 12 "../../../os/rt/include/chtime.h"
 1717              		.file 13 "../../../os/rt/include/chtm.h"
 1718              		.file 14 "../../../os/rt/include/chsem.h"
 1719              		.file 15 "../../../os/rt/include/chregistry.h"
 1720              		.file 16 "../../../os/common/oslib/include/chmemcore.h"
 1721              		.file 17 "../../../os/common/oslib/include/chmempools.h"
 1722              		.file 18 "../../../os/common/oslib/include/chfactory.h"
 6461              		.section	.note.GNU-stack,"",@progbits
GAS LISTING /tmp/ccTXorqe.s 			page 122

