GAS LISTING /tmp/ccTcDoEk.s 			page 1


   1              		.file	"chprintf.c"
   2              		.text
   3              	.Ltext0:
   4              		.section	.rodata.chvprintf.str1.1,"aMS",@progbits,1
   5              	.LC0:
   6 0000 286E756C 		.string	"(null)"
   6      6C2900
   7              		.section	.text.chvprintf,"ax",@progbits
   8              		.p2align 4,,15
   9              		.globl	chvprintf
  10              		.type	chvprintf, @function
  11              	chvprintf:
  12              	.LVL0:
  13              	.LFB224:
  14              		.file 1 "../../../os/hal/lib/streams/chprintf.c"
  15              		.loc 1 121 71 view -0
  16              		.cfi_startproc
  17              		.loc 1 121 71 is_stmt 0 view .LVU1
  18 0000 E8FCFFFF 		call	__x86.get_pc_thunk.ax
  18      FF
  19 0005 05010000 		addl	$_GLOBAL_OFFSET_TABLE_, %eax
  19      00
  20 000a 55       		pushl	%ebp
  21              		.cfi_def_cfa_offset 8
  22              		.cfi_offset 5, -8
  23 000b 57       		pushl	%edi
  24              		.cfi_def_cfa_offset 12
  25              		.cfi_offset 7, -12
  26 000c 56       		pushl	%esi
  27              		.cfi_def_cfa_offset 16
  28              		.cfi_offset 6, -16
  29 000d 53       		pushl	%ebx
  30              		.cfi_def_cfa_offset 20
  31              		.cfi_offset 3, -20
  32 000e 83EC3C   		subl	$60, %esp
  33              		.cfi_def_cfa_offset 80
  34 0011 89442418 		movl	%eax, 24(%esp)
  35              		.loc 1 121 71 view .LVU2
  36 0015 8B442454 		movl	84(%esp), %eax
  37 0019 8B7C2450 		movl	80(%esp), %edi
  38 001d 890424   		movl	%eax, (%esp)
  39 0020 8B442458 		movl	88(%esp), %eax
  40 0024 89442408 		movl	%eax, 8(%esp)
  41 0028 65A11400 		movl	%gs:20, %eax
  41      0000
  42 002e 8944242C 		movl	%eax, 44(%esp)
  43 0032 31C0     		xorl	%eax, %eax
  44              		.loc 1 122 3 is_stmt 1 view .LVU3
  45              		.loc 1 123 3 view .LVU4
  46              		.loc 1 124 3 view .LVU5
  47              	.LVL1:
  48              		.loc 1 124 7 is_stmt 0 view .LVU6
  49 0034 C7442404 		movl	$0, 4(%esp)
  49      00000000 
  50              	.LVL2:
  51              	.L2:
  52              		.loc 1 125 3 is_stmt 1 view .LVU7
GAS LISTING /tmp/ccTcDoEk.s 			page 2


  53              		.loc 1 126 3 view .LVU8
  54              		.loc 1 131 3 view .LVU9
  55              		.loc 1 134 3 view .LVU10
  56              		.loc 1 135 5 view .LVU11
  57              		.loc 1 135 13 is_stmt 0 view .LVU12
  58 003c 8B0424   		movl	(%esp), %eax
  59 003f 8D5801   		leal	1(%eax), %ebx
  60              	.LVL3:
  61              		.loc 1 135 7 view .LVU13
  62 0042 0FB600   		movzbl	(%eax), %eax
  63              	.LVL4:
  64              		.loc 1 136 5 is_stmt 1 view .LVU14
  65              		.loc 1 136 8 is_stmt 0 view .LVU15
  66 0045 84C0     		testb	%al, %al
  67 0047 7426     		je	.L102
  68              	.L111:
  69              		.loc 1 138 5 is_stmt 1 view .LVU16
  70              		.loc 1 138 8 is_stmt 0 view .LVU17
  71 0049 3C25     		cmpb	$37, %al
  72 004b 7443     		je	.L4
  73              		.loc 1 139 7 is_stmt 1 view .LVU18
  74 004d 83EC08   		subl	$8, %esp
  75              		.cfi_def_cfa_offset 88
  76 0050 8B17     		movl	(%edi), %edx
  77 0052 50       		pushl	%eax
  78              		.cfi_def_cfa_offset 92
  79 0053 57       		pushl	%edi
  80              		.cfi_def_cfa_offset 96
  81 0054 FF520C   		call	*12(%edx)
  82              	.LVL5:
  83              		.loc 1 140 7 view .LVU19
  84              		.loc 1 141 7 view .LVU20
  85              		.loc 1 140 8 is_stmt 0 view .LVU21
  86 0057 83442414 		addl	$1, 20(%esp)
  86      01
  87              	.LVL6:
  88              		.loc 1 141 7 view .LVU22
  89 005c 83C410   		addl	$16, %esp
  90              		.cfi_def_cfa_offset 80
  91              		.loc 1 135 13 view .LVU23
  92 005f 891C24   		movl	%ebx, (%esp)
  93              	.LVL7:
  94              		.loc 1 125 3 is_stmt 1 view .LVU24
  95              		.loc 1 126 3 view .LVU25
  96              		.loc 1 131 3 view .LVU26
  97              		.loc 1 134 3 view .LVU27
  98              		.loc 1 135 5 view .LVU28
  99              		.loc 1 135 13 is_stmt 0 view .LVU29
 100 0062 8B0424   		movl	(%esp), %eax
 101 0065 8D5801   		leal	1(%eax), %ebx
 102              	.LVL8:
 103              		.loc 1 135 7 view .LVU30
 104 0068 0FB600   		movzbl	(%eax), %eax
 105              	.LVL9:
 106              		.loc 1 136 5 is_stmt 1 view .LVU31
 107              		.loc 1 136 8 is_stmt 0 view .LVU32
 108 006b 84C0     		testb	%al, %al
GAS LISTING /tmp/ccTcDoEk.s 			page 3


 109 006d 75DA     		jne	.L111
 110              	.L102:
 111              		.loc 1 277 1 view .LVU33
 112 006f 8B7C242C 		movl	44(%esp), %edi
 113 0073 65333D14 		xorl	%gs:20, %edi
 113      000000
 114 007a 8B442404 		movl	4(%esp), %eax
 115              	.LVL10:
 116              		.loc 1 277 1 view .LVU34
 117 007e 0F850D05 		jne	.L112
 117      0000
 118 0084 83C43C   		addl	$60, %esp
 119              		.cfi_remember_state
 120              		.cfi_def_cfa_offset 20
 121 0087 5B       		popl	%ebx
 122              		.cfi_restore 3
 123              		.cfi_def_cfa_offset 16
 124              	.LVL11:
 125              		.loc 1 277 1 view .LVU35
 126 0088 5E       		popl	%esi
 127              		.cfi_restore 6
 128              		.cfi_def_cfa_offset 12
 129 0089 5F       		popl	%edi
 130              		.cfi_restore 7
 131              		.cfi_def_cfa_offset 8
 132 008a 5D       		popl	%ebp
 133              		.cfi_restore 5
 134              		.cfi_def_cfa_offset 4
 135 008b C3       		ret
 136              	.LVL12:
 137 008c 8D742600 		.p2align 4,,10
 138              		.p2align 3
 139              	.L4:
 140              		.cfi_restore_state
 141              		.loc 1 143 5 is_stmt 1 view .LVU36
 142              		.loc 1 144 5 view .LVU37
 143              		.loc 1 145 5 view .LVU38
 144              		.loc 1 146 5 view .LVU39
 145              		.loc 1 146 9 is_stmt 0 view .LVU40
 146 0090 8B0424   		movl	(%esp), %eax
 147              	.LVL13:
 148              		.loc 1 145 16 view .LVU41
 149 0093 C6442417 		movb	$0, 23(%esp)
 149      00
 150              		.loc 1 146 9 view .LVU42
 151 0098 0FB65001 		movzbl	1(%eax), %edx
 152              		.loc 1 146 8 view .LVU43
 153 009c 80FA2D   		cmpb	$45, %dl
 154 009f 750C     		jne	.L6
 155              		.loc 1 147 7 is_stmt 1 view .LVU44
 156              		.loc 1 148 18 is_stmt 0 view .LVU45
 157 00a1 C6442417 		movb	$1, 23(%esp)
 157      01
 158 00a6 0FB65002 		movzbl	2(%eax), %edx
 159              		.loc 1 147 10 view .LVU46
 160 00aa 8D5802   		leal	2(%eax), %ebx
 161              	.LVL14:
GAS LISTING /tmp/ccTcDoEk.s 			page 4


 162              		.loc 1 148 7 is_stmt 1 view .LVU47
 163              	.L6:
 164              		.loc 1 150 5 view .LVU48
 165              		.loc 1 151 5 view .LVU49
 166              		.loc 1 150 12 is_stmt 0 view .LVU50
 167 00ad C6442416 		movb	$32, 22(%esp)
 167      20
 168              		.loc 1 151 8 view .LVU51
 169 00b2 80FA30   		cmpb	$48, %dl
 170 00b5 750C     		jne	.L7
 171              		.loc 1 152 7 is_stmt 1 view .LVU52
 172              	.LVL15:
 173              		.loc 1 153 7 view .LVU53
 174              		.loc 1 153 14 is_stmt 0 view .LVU54
 175 00b7 C6442416 		movb	$48, 22(%esp)
 175      30
 176              		.loc 1 151 8 view .LVU55
 177 00bc 0FB65301 		movzbl	1(%ebx), %edx
 178              		.loc 1 152 10 view .LVU56
 179 00c0 83C301   		addl	$1, %ebx
 180              	.LVL16:
 181              	.L7:
 182              		.loc 1 155 5 is_stmt 1 view .LVU57
 183              		.loc 1 155 11 is_stmt 0 view .LVU58
 184 00c3 31C9     		xorl	%ecx, %ecx
 185 00c5 8B742408 		movl	8(%esp), %esi
 186 00c9 EB17     		jmp	.L11
 187              	.LVL17:
 188 00cb 8D742600 		.p2align 4,,10
 188      90
 189              		.p2align 3
 190              	.L113:
 191              		.loc 1 161 9 is_stmt 1 view .LVU59
 192              		.loc 1 161 11 is_stmt 0 view .LVU60
 193 00d0 0FB606   		movzbl	(%esi), %eax
 194              	.LVL18:
 195              		.loc 1 161 13 view .LVU61
 196 00d3 83C604   		addl	$4, %esi
 197              	.LVL19:
 198              	.L9:
 199              		.loc 1 164 7 is_stmt 1 view .LVU62
 200              		.loc 1 164 21 is_stmt 0 view .LVU63
 201 00d6 8D1489   		leal	(%ecx,%ecx,4), %edx
 202              		.loc 1 164 26 view .LVU64
 203 00d9 0FBEC0   		movsbl	%al, %eax
 204              		.loc 1 164 13 view .LVU65
 205 00dc 8D0C50   		leal	(%eax,%edx,2), %ecx
 206              	.LVL20:
 207              		.loc 1 164 13 view .LVU66
 208 00df 0FB613   		movzbl	(%ebx), %edx
 209              	.LVL21:
 210              	.L11:
 211              		.loc 1 156 5 is_stmt 1 view .LVU67
 212              		.loc 1 157 7 view .LVU68
 213              		.loc 1 158 20 is_stmt 0 view .LVU69
 214 00e2 8D42D0   		leal	-48(%edx), %eax
 215              		.loc 1 157 15 view .LVU70
GAS LISTING /tmp/ccTcDoEk.s 			page 5


 216 00e5 83C301   		addl	$1, %ebx
 217              	.LVL22:
 218              		.loc 1 158 7 is_stmt 1 view .LVU71
 219              		.loc 1 158 10 is_stmt 0 view .LVU72
 220 00e8 3C09     		cmpb	$9, %al
 221 00ea 76EA     		jbe	.L9
 222              		.loc 1 160 12 is_stmt 1 view .LVU73
 223              		.loc 1 160 15 is_stmt 0 view .LVU74
 224 00ec 80FA2A   		cmpb	$42, %dl
 225 00ef 74DF     		je	.L113
 226 00f1 89742408 		movl	%esi, 8(%esp)
 227              		.loc 1 166 5 is_stmt 1 view .LVU75
 228              	.LVL23:
 229              		.loc 1 167 5 view .LVU76
 230              		.loc 1 166 15 is_stmt 0 view .LVU77
 231 00f5 C7442410 		movl	$0, 16(%esp)
 231      00000000 
 232              		.loc 1 167 8 view .LVU78
 233 00fd 80FA2E   		cmpb	$46, %dl
 234 0100 0F84FC01 		je	.L114
 234      0000
 235              	.LVL24:
 236              	.L12:
 237              		.loc 1 181 5 is_stmt 1 view .LVU79
 238              		.loc 1 181 23 is_stmt 0 view .LVU80
 239 0106 89D6     		movl	%edx, %esi
 240 0108 83E6DF   		andl	$-33, %esi
 241              		.loc 1 181 8 view .LVU81
 242 010b 89F0     		movl	%esi, %eax
 243 010d 3C4C     		cmpb	$76, %al
 244 010f 752F     		jne	.L16
 245              		.loc 1 182 7 is_stmt 1 view .LVU82
 246              	.LVL25:
 247              		.loc 1 183 7 view .LVU83
 248              		.loc 1 183 11 is_stmt 0 view .LVU84
 249 0111 0FB633   		movzbl	(%ebx), %esi
 250              		.loc 1 183 10 view .LVU85
 251 0114 89F0     		movl	%esi, %eax
 252 0116 84C0     		testb	%al, %al
 253 0118 7405     		je	.L17
 254 011a 83C301   		addl	$1, %ebx
 255              	.LVL26:
 256              		.loc 1 183 10 view .LVU86
 257 011d 89F2     		movl	%esi, %edx
 258              	.LVL27:
 259              	.L17:
 260              		.loc 1 190 5 is_stmt 1 view .LVU87
 261 011f 8D72BC   		leal	-68(%edx), %esi
 262 0122 89F0     		movl	%esi, %eax
 263 0124 3C34     		cmpb	$52, %al
 264 0126 0F87E403 		ja	.L80
 264      0000
 265 012c 0FB6F0   		movzbl	%al, %esi
 266 012f 8B442418 		movl	24(%esp), %eax
 267 0133 8BACB000 		movl	.L61@GOTOFF(%eax,%esi,4), %ebp
 267      000000
 268 013a 01C5     		addl	%eax, %ebp
GAS LISTING /tmp/ccTcDoEk.s 			page 6


 269 013c FFE5     		jmp	*%ebp
 270              		.section	.rodata.chvprintf,"a",@progbits
 271              		.align 4
 272              		.align 4
 273              	.L61:
 274 0000 00000000 		.long	.L89@GOTOFF
 275 0004 00000000 		.long	.L80@GOTOFF
 276 0008 00000000 		.long	.L80@GOTOFF
 277 000c 00000000 		.long	.L80@GOTOFF
 278 0010 00000000 		.long	.L80@GOTOFF
 279 0014 00000000 		.long	.L89@GOTOFF
 280 0018 00000000 		.long	.L80@GOTOFF
 281 001c 00000000 		.long	.L80@GOTOFF
 282 0020 00000000 		.long	.L80@GOTOFF
 283 0024 00000000 		.long	.L80@GOTOFF
 284 0028 00000000 		.long	.L80@GOTOFF
 285 002c 00000000 		.long	.L62@GOTOFF
 286 0030 00000000 		.long	.L80@GOTOFF
 287 0034 00000000 		.long	.L80@GOTOFF
 288 0038 00000000 		.long	.L80@GOTOFF
 289 003c 00000000 		.long	.L80@GOTOFF
 290 0040 00000000 		.long	.L80@GOTOFF
 291 0044 00000000 		.long	.L40@GOTOFF
 292 0048 00000000 		.long	.L80@GOTOFF
 293 004c 00000000 		.long	.L80@GOTOFF
 294 0050 00000000 		.long	.L60@GOTOFF
 295 0054 00000000 		.long	.L80@GOTOFF
 296 0058 00000000 		.long	.L80@GOTOFF
 297 005c 00000000 		.long	.L80@GOTOFF
 298 0060 00000000 		.long	.L80@GOTOFF
 299 0064 00000000 		.long	.L80@GOTOFF
 300 0068 00000000 		.long	.L80@GOTOFF
 301 006c 00000000 		.long	.L80@GOTOFF
 302 0070 00000000 		.long	.L80@GOTOFF
 303 0074 00000000 		.long	.L80@GOTOFF
 304 0078 00000000 		.long	.L80@GOTOFF
 305 007c 00000000 		.long	.L81@GOTOFF
 306 0080 00000000 		.long	.L89@GOTOFF
 307 0084 00000000 		.long	.L80@GOTOFF
 308 0088 00000000 		.long	.L80@GOTOFF
 309 008c 00000000 		.long	.L80@GOTOFF
 310 0090 00000000 		.long	.L80@GOTOFF
 311 0094 00000000 		.long	.L89@GOTOFF
 312 0098 00000000 		.long	.L80@GOTOFF
 313 009c 00000000 		.long	.L80@GOTOFF
 314 00a0 00000000 		.long	.L80@GOTOFF
 315 00a4 00000000 		.long	.L80@GOTOFF
 316 00a8 00000000 		.long	.L80@GOTOFF
 317 00ac 00000000 		.long	.L62@GOTOFF
 318 00b0 00000000 		.long	.L80@GOTOFF
 319 00b4 00000000 		.long	.L80@GOTOFF
 320 00b8 00000000 		.long	.L80@GOTOFF
 321 00bc 00000000 		.long	.L82@GOTOFF
 322 00c0 00000000 		.long	.L80@GOTOFF
 323 00c4 00000000 		.long	.L40@GOTOFF
 324 00c8 00000000 		.long	.L80@GOTOFF
 325 00cc 00000000 		.long	.L80@GOTOFF
GAS LISTING /tmp/ccTcDoEk.s 			page 7


 326 00d0 00000000 		.long	.L60@GOTOFF
 327              		.section	.text.chvprintf
 328              	.LVL28:
 329 013e 6690     		.p2align 4,,10
 330              		.p2align 3
 331              	.L16:
 332              		.loc 1 187 7 view .LVU88
 333              		.loc 1 187 28 is_stmt 0 view .LVU89
 334 0140 8D42BF   		leal	-65(%edx), %eax
 335              		.loc 1 190 5 view .LVU90
 336 0143 8D72BC   		leal	-68(%edx), %esi
 337              		.loc 1 187 28 view .LVU91
 338 0146 880424   		movb	%al, (%esp)
 339              	.LVL29:
 340              		.loc 1 190 5 is_stmt 1 view .LVU92
 341 0149 89F0     		movl	%esi, %eax
 342              	.LVL30:
 343              		.loc 1 190 5 is_stmt 0 view .LVU93
 344 014b 3C34     		cmpb	$52, %al
 345 014d 0F87BD03 		ja	.L80
 345      0000
 346 0153 0FB6F0   		movzbl	%al, %esi
 347 0156 8B442418 		movl	24(%esp), %eax
 348 015a 8BACB0D4 		movl	.L20@GOTOFF(%eax,%esi,4), %ebp
 348      000000
 349 0161 01C5     		addl	%eax, %ebp
 350 0163 FFE5     		jmp	*%ebp
 351              		.section	.rodata.chvprintf
 352              		.align 4
 353              		.align 4
 354              	.L20:
 355 00d4 00000000 		.long	.L24@GOTOFF
 356 00d8 00000000 		.long	.L80@GOTOFF
 357 00dc 00000000 		.long	.L80@GOTOFF
 358 00e0 00000000 		.long	.L80@GOTOFF
 359 00e4 00000000 		.long	.L80@GOTOFF
 360 00e8 00000000 		.long	.L24@GOTOFF
 361 00ec 00000000 		.long	.L80@GOTOFF
 362 00f0 00000000 		.long	.L80@GOTOFF
 363 00f4 00000000 		.long	.L80@GOTOFF
 364 00f8 00000000 		.long	.L80@GOTOFF
 365 00fc 00000000 		.long	.L80@GOTOFF
 366 0100 00000000 		.long	.L23@GOTOFF
 367 0104 00000000 		.long	.L80@GOTOFF
 368 0108 00000000 		.long	.L80@GOTOFF
 369 010c 00000000 		.long	.L80@GOTOFF
 370 0110 00000000 		.long	.L80@GOTOFF
 371 0114 00000000 		.long	.L80@GOTOFF
 372 0118 00000000 		.long	.L69@GOTOFF
 373 011c 00000000 		.long	.L80@GOTOFF
 374 0120 00000000 		.long	.L80@GOTOFF
 375 0124 00000000 		.long	.L19@GOTOFF
 376 0128 00000000 		.long	.L80@GOTOFF
 377 012c 00000000 		.long	.L80@GOTOFF
 378 0130 00000000 		.long	.L80@GOTOFF
 379 0134 00000000 		.long	.L80@GOTOFF
 380 0138 00000000 		.long	.L80@GOTOFF
GAS LISTING /tmp/ccTcDoEk.s 			page 8


 381 013c 00000000 		.long	.L80@GOTOFF
 382 0140 00000000 		.long	.L80@GOTOFF
 383 0144 00000000 		.long	.L80@GOTOFF
 384 0148 00000000 		.long	.L80@GOTOFF
 385 014c 00000000 		.long	.L80@GOTOFF
 386 0150 00000000 		.long	.L81@GOTOFF
 387 0154 00000000 		.long	.L24@GOTOFF
 388 0158 00000000 		.long	.L80@GOTOFF
 389 015c 00000000 		.long	.L80@GOTOFF
 390 0160 00000000 		.long	.L80@GOTOFF
 391 0164 00000000 		.long	.L80@GOTOFF
 392 0168 00000000 		.long	.L24@GOTOFF
 393 016c 00000000 		.long	.L80@GOTOFF
 394 0170 00000000 		.long	.L80@GOTOFF
 395 0174 00000000 		.long	.L80@GOTOFF
 396 0178 00000000 		.long	.L80@GOTOFF
 397 017c 00000000 		.long	.L80@GOTOFF
 398 0180 00000000 		.long	.L23@GOTOFF
 399 0184 00000000 		.long	.L80@GOTOFF
 400 0188 00000000 		.long	.L80@GOTOFF
 401 018c 00000000 		.long	.L80@GOTOFF
 402 0190 00000000 		.long	.L82@GOTOFF
 403 0194 00000000 		.long	.L80@GOTOFF
 404 0198 00000000 		.long	.L69@GOTOFF
 405 019c 00000000 		.long	.L80@GOTOFF
 406 01a0 00000000 		.long	.L80@GOTOFF
 407 01a4 00000000 		.long	.L19@GOTOFF
 408              		.section	.text.chvprintf
 409              	.LVL31:
 410              	.L82:
 411              		.loc 1 197 14 view .LVU94
 412 0165 8B442408 		movl	8(%esp), %eax
 413              		.loc 1 190 5 view .LVU95
 414 0169 891C24   		movl	%ebx, (%esp)
 415              		.loc 1 196 7 is_stmt 1 view .LVU96
 416              	.LVL32:
 417              		.loc 1 197 7 view .LVU97
 418              		.loc 1 197 14 is_stmt 0 view .LVU98
 419 016c 8B28     		movl	(%eax), %ebp
 420 016e 8D7004   		leal	4(%eax), %esi
 421 0171 89742408 		movl	%esi, 8(%esp)
 422              	.LVL33:
 423              		.loc 1 197 10 view .LVU99
 424 0175 85ED     		testl	%ebp, %ebp
 425 0177 0F84B603 		je	.L115
 425      0000
 426              		.loc 1 199 10 view .LVU100
 427 017d 8B742410 		movl	16(%esp), %esi
 428              	.LVL34:
 429              		.loc 1 199 10 view .LVU101
 430 0181 0FB65D00 		movzbl	0(%ebp), %ebx
 431              	.LVL35:
 432              		.loc 1 199 7 is_stmt 1 view .LVU102
 433              		.loc 1 199 10 is_stmt 0 view .LVU103
 434 0185 85F6     		testl	%esi, %esi
 435 0187 0F845D03 		je	.L30
 435      0000
GAS LISTING /tmp/ccTcDoEk.s 			page 9


 436              	.LVL36:
 437              		.loc 1 201 7 discriminator 1 view .LVU104
 438 018d 84DB     		testb	%bl, %bl
 439 018f 0F84E003 		je	.L74
 439      0000
 440              	.LVL37:
 441              	.L29:
 442              		.loc 1 201 22 view .LVU105
 443 0195 8B442410 		movl	16(%esp), %eax
 444 0199 83E801   		subl	$1, %eax
 445              	.LVL38:
 446              		.loc 1 201 22 view .LVU106
 447 019c 89C2     		movl	%eax, %edx
 448              	.LVL39:
 449              		.loc 1 201 22 view .LVU107
 450 019e 0F88D103 		js	.L74
 450      0000
 451              	.LVL40:
 452              	.L28:
 453              		.loc 1 201 22 discriminator 4 view .LVU108
 454 01a4 89E8     		movl	%ebp, %eax
 455 01a6 EB10     		jmp	.L32
 456              	.LVL41:
 457 01a8 8DB42600 		.p2align 4,,10
 457      00000090 
 458              		.p2align 3
 459              	.L31:
 460              		.loc 1 201 22 discriminator 4 view .LVU109
 461 01b0 89EB     		movl	%ebp, %ebx
 462 01b2 29C3     		subl	%eax, %ebx
 463              		.loc 1 201 22 discriminator 3 view .LVU110
 464 01b4 01D3     		addl	%edx, %ebx
 465 01b6 7808     		js	.L109
 466              	.LVL42:
 467              	.L32:
 468              		.loc 1 202 9 is_stmt 1 discriminator 4 view .LVU111
 469              		.loc 1 201 46 is_stmt 0 discriminator 4 view .LVU112
 470 01b8 83C001   		addl	$1, %eax
 471              	.LVL43:
 472              		.loc 1 201 7 discriminator 4 view .LVU113
 473 01bb 803800   		cmpb	$0, (%eax)
 474 01be 75F0     		jne	.L31
 475              	.L109:
 476              		.loc 1 201 7 discriminator 4 view .LVU114
 477 01c0 29E8     		subl	%ebp, %eax
 478              	.LVL44:
 479              		.loc 1 201 7 discriminator 4 view .LVU115
 480 01c2 89CE     		movl	%ecx, %esi
 481              		.loc 1 196 14 view .LVU116
 482 01c4 C6442416 		movb	$32, 22(%esp)
 482      20
 483              	.LVL45:
 484              		.loc 1 250 5 is_stmt 1 view .LVU117
 485              		.loc 1 251 5 view .LVU118
 486              		.loc 1 251 5 is_stmt 0 view .LVU119
 487 01c9 89442410 		movl	%eax, 16(%esp)
 488 01cd 29C6     		subl	%eax, %esi
GAS LISTING /tmp/ccTcDoEk.s 			page 10


 489              		.loc 1 251 5 view .LVU120
 490 01cf 83E801   		subl	$1, %eax
 491 01d2 8944240C 		movl	%eax, 12(%esp)
 492              		.loc 1 251 8 view .LVU121
 493 01d6 85F6     		testl	%esi, %esi
 494 01d8 7952     		jns	.L47
 495 01da 8DB60000 		.p2align 4,,10
 495      0000
 496              		.p2align 3
 497              	.L51:
 498              	.LVL46:
 499              		.loc 1 266 11 view .LVU122
 500 01e0 8B44240C 		movl	12(%esp), %eax
 501 01e4 31F6     		xorl	%esi, %esi
 502 01e6 85C0     		testl	%eax, %eax
 503 01e8 0F899A00 		jns	.L57
 503      0000
 504 01ee E949FEFF 		jmp	.L2
 504      FF
 505              	.LVL47:
 506              	.L81:
 507              		.loc 1 190 5 view .LVU123
 508 01f3 891C24   		movl	%ebx, (%esp)
 509              		.loc 1 192 7 is_stmt 1 view .LVU124
 510              	.LVL48:
 511              		.loc 1 193 7 view .LVU125
 512              		.loc 1 193 12 is_stmt 0 view .LVU126
 513 01f6 8B5C2408 		movl	8(%esp), %ebx
 514              	.LVL49:
 515              		.loc 1 193 12 view .LVU127
 516 01fa 8D71FF   		leal	-1(%ecx), %esi
 517              		.loc 1 144 7 view .LVU128
 518 01fd 8D6C2420 		leal	32(%esp), %ebp
 519              	.LVL50:
 520              		.loc 1 194 7 view .LVU129
 521 0201 C744240C 		movl	$0, 12(%esp)
 521      00000000 
 522              		.loc 1 193 12 view .LVU130
 523 0209 8B03     		movl	(%ebx), %eax
 524              		.loc 1 194 7 view .LVU131
 525 020b C7442410 		movl	$1, 16(%esp)
 525      01000000 
 526              	.LVL51:
 527              		.loc 1 192 14 view .LVU132
 528 0213 C6442416 		movb	$32, 22(%esp)
 528      20
 529              		.loc 1 193 12 view .LVU133
 530 0218 88442420 		movb	%al, 32(%esp)
 531              		.loc 1 194 7 is_stmt 1 view .LVU134
 532              		.loc 1 193 14 is_stmt 0 view .LVU135
 533 021c 8D4304   		leal	4(%ebx), %eax
 534              	.LVL52:
 535              		.loc 1 193 14 view .LVU136
 536 021f 89442408 		movl	%eax, 8(%esp)
 537              	.LVL53:
 538              		.p2align 4,,10
 539 0223 8D742600 		.p2align 3
GAS LISTING /tmp/ccTcDoEk.s 			page 11


 539      90
 540              	.L26:
 541              		.loc 1 250 5 is_stmt 1 view .LVU137
 542              		.loc 1 251 5 view .LVU138
 543              		.loc 1 251 8 is_stmt 0 view .LVU139
 544 0228 85F6     		testl	%esi, %esi
 545 022a 78B4     		js	.L51
 546              	.L47:
 547              		.loc 1 253 5 is_stmt 1 view .LVU140
 548              		.loc 1 253 8 is_stmt 0 view .LVU141
 549 022c 807C2417 		cmpb	$0, 23(%esp)
 549      00
 550 0231 0F85C100 		jne	.L50
 550      0000
 551              		.loc 1 254 7 is_stmt 1 view .LVU142
 552              	.LVL54:
 553              		.loc 1 255 5 view .LVU143
 554              		.loc 1 255 8 is_stmt 0 view .LVU144
 555 0237 294C2410 		subl	%ecx, 16(%esp)
 556              	.LVL55:
 557              		.loc 1 255 8 view .LVU145
 558 023b 74A3     		je	.L51
 559              		.loc 1 256 7 is_stmt 1 view .LVU146
 560 023d 8B07     		movl	(%edi), %eax
 561              		.loc 1 256 21 is_stmt 0 view .LVU147
 562 023f 807D002D 		cmpb	$45, 0(%ebp)
 563 0243 8B400C   		movl	12(%eax), %eax
 564 0246 750B     		jne	.L52
 565 0248 807C2416 		cmpb	$48, 22(%esp)
 565      30
 566 024d 0F840003 		je	.L116
 566      0000
 567              	.LVL56:
 568              	.L52:
 569              		.loc 1 256 21 view .LVU148
 570 0253 0FBE5C24 		movsbl	22(%esp), %ebx
 570      16
 571              		.loc 1 196 14 discriminator 1 view .LVU149
 572 0258 8B742410 		movl	16(%esp), %esi
 573 025c EB07     		jmp	.L54
 574              	.LVL57:
 575 025e 6690     		.p2align 4,,10
 576              		.p2align 3
 577              	.L117:
 578              		.loc 1 196 14 discriminator 1 view .LVU150
 579 0260 8B07     		movl	(%edi), %eax
 580 0262 8B400C   		movl	12(%eax), %eax
 581              	.LVL58:
 582              	.L54:
 583              		.loc 1 261 7 is_stmt 1 discriminator 1 view .LVU151
 584              		.loc 1 262 9 discriminator 1 view .LVU152
 585 0265 83EC08   		subl	$8, %esp
 586              		.cfi_def_cfa_offset 88
 587              	.LVL59:
 588              		.loc 1 262 9 is_stmt 0 discriminator 1 view .LVU153
 589 0268 53       		pushl	%ebx
 590              		.cfi_def_cfa_offset 92
GAS LISTING /tmp/ccTcDoEk.s 			page 12


 591 0269 57       		pushl	%edi
 592              		.cfi_def_cfa_offset 96
 593 026a FFD0     		call	*%eax
 594              	.LVL60:
 595              		.loc 1 263 9 is_stmt 1 discriminator 1 view .LVU154
 596              		.loc 1 264 7 is_stmt 0 discriminator 1 view .LVU155
 597 026c 83C410   		addl	$16, %esp
 598              		.cfi_def_cfa_offset 80
 599              	.LVL61:
 600              		.loc 1 264 7 discriminator 1 view .LVU156
 601 026f 83C601   		addl	$1, %esi
 602              	.LVL62:
 603              		.loc 1 264 7 discriminator 1 view .LVU157
 604 0272 75EC     		jne	.L117
 605              	.LVL63:
 606              		.loc 1 266 11 view .LVU158
 607 0274 8B54240C 		movl	12(%esp), %edx
 608 0278 8B4C2410 		movl	16(%esp), %ecx
 609 027c 294C2404 		subl	%ecx, 4(%esp)
 610              	.LVL64:
 611              		.loc 1 266 11 view .LVU159
 612 0280 85D2     		testl	%edx, %edx
 613 0282 0F88B4FD 		js	.L2
 613      FFFF
 614              	.LVL65:
 615              	.L57:
 616              		.loc 1 266 11 view .LVU160
 617 0288 8B44240C 		movl	12(%esp), %eax
 618 028c 8D5C0500 		leal	0(%ebp,%eax), %ebx
 619              		.p2align 4,,10
 620              		.p2align 3
 621              	.L55:
 622              	.LVL66:
 623              		.loc 1 267 7 is_stmt 1 view .LVU161
 624 0290 83C501   		addl	$1, %ebp
 625              	.LVL67:
 626              		.loc 1 267 7 is_stmt 0 view .LVU162
 627 0293 0FB655FF 		movzbl	-1(%ebp), %edx
 628 0297 83EC08   		subl	$8, %esp
 629              		.cfi_def_cfa_offset 88
 630              	.LVL68:
 631              		.loc 1 267 7 view .LVU163
 632 029a 8B07     		movl	(%edi), %eax
 633 029c 52       		pushl	%edx
 634              		.cfi_def_cfa_offset 92
 635 029d 57       		pushl	%edi
 636              		.cfi_def_cfa_offset 96
 637 029e FF500C   		call	*12(%eax)
 638              	.LVL69:
 639              		.loc 1 268 7 is_stmt 1 view .LVU164
 640              		.loc 1 266 11 is_stmt 0 view .LVU165
 641 02a1 83C410   		addl	$16, %esp
 642              		.cfi_def_cfa_offset 80
 643              	.LVL70:
 644              		.loc 1 266 11 view .LVU166
 645 02a4 39EB     		cmpl	%ebp, %ebx
 646 02a6 79E8     		jns	.L55
GAS LISTING /tmp/ccTcDoEk.s 			page 13


 647 02a8 8B4C2404 		movl	4(%esp), %ecx
 648 02ac 8B44240C 		movl	12(%esp), %eax
 649 02b0 8D440801 		leal	1(%eax,%ecx), %eax
 650 02b4 89442404 		movl	%eax, 4(%esp)
 651              	.LVL71:
 652              	.L56:
 653              		.loc 1 271 11 view .LVU167
 654 02b8 85F6     		testl	%esi, %esi
 655 02ba 0F847CFD 		je	.L2
 655      FFFF
 656              		.loc 1 271 11 view .LVU168
 657 02c0 0FBE6C24 		movsbl	22(%esp), %ebp
 657      16
 658 02c5 89F3     		movl	%esi, %ebx
 659              	.LVL72:
 660 02c7 8DB42600 		.p2align 4,,10
 660      00000066 
 660      90
 661              		.p2align 3
 662              	.L58:
 663              		.loc 1 272 7 is_stmt 1 view .LVU169
 664 02d0 83EC08   		subl	$8, %esp
 665              		.cfi_def_cfa_offset 88
 666              	.LVL73:
 667              		.loc 1 272 7 is_stmt 0 view .LVU170
 668 02d3 8B07     		movl	(%edi), %eax
 669 02d5 55       		pushl	%ebp
 670              		.cfi_def_cfa_offset 92
 671 02d6 57       		pushl	%edi
 672              		.cfi_def_cfa_offset 96
 673 02d7 FF500C   		call	*12(%eax)
 674              	.LVL74:
 675              		.loc 1 273 7 is_stmt 1 view .LVU171
 676              		.loc 1 274 7 view .LVU172
 677              		.loc 1 271 11 is_stmt 0 view .LVU173
 678 02da 83C410   		addl	$16, %esp
 679              		.cfi_def_cfa_offset 80
 680              	.LVL75:
 681              		.loc 1 271 11 view .LVU174
 682 02dd 83EB01   		subl	$1, %ebx
 683              	.LVL76:
 684              		.loc 1 271 11 view .LVU175
 685 02e0 75EE     		jne	.L58
 686 02e2 8B442404 		movl	4(%esp), %eax
 687 02e6 01F0     		addl	%esi, %eax
 688 02e8 89442404 		movl	%eax, 4(%esp)
 689 02ec E94BFDFF 		jmp	.L2
 689      FF
 690              	.LVL77:
 691              		.p2align 4,,10
 692 02f1 8DB42600 		.p2align 3
 692      000000
 693              	.L50:
 694              		.loc 1 266 11 view .LVU176
 695 02f8 8B4C240C 		movl	12(%esp), %ecx
 696 02fc 85C9     		testl	%ecx, %ecx
 697 02fe 7988     		jns	.L57
GAS LISTING /tmp/ccTcDoEk.s 			page 14


 698 0300 EBB6     		jmp	.L56
 699              	.LVL78:
 700              	.L114:
 701              		.loc 1 266 11 view .LVU177
 702 0302 89CD     		movl	%ecx, %ebp
 703 0304 31C0     		xorl	%eax, %eax
 704 0306 EB17     		jmp	.L15
 705              	.LVL79:
 706 0308 8DB42600 		.p2align 4,,10
 706      00000090 
 707              		.p2align 3
 708              	.L118:
 709              		.loc 1 173 11 is_stmt 1 view .LVU178
 710              		.loc 1 173 13 is_stmt 0 view .LVU179
 711 0310 0FB616   		movzbl	(%esi), %edx
 712              	.LVL80:
 713              		.loc 1 173 15 view .LVU180
 714 0313 83C604   		addl	$4, %esi
 715              	.LVL81:
 716              	.L14:
 717              		.loc 1 176 9 is_stmt 1 view .LVU181
 718              		.loc 1 176 19 is_stmt 0 view .LVU182
 719 0316 8D0480   		leal	(%eax,%eax,4), %eax
 720              	.LVL82:
 721              		.loc 1 177 9 is_stmt 1 view .LVU183
 722              		.loc 1 177 19 is_stmt 0 view .LVU184
 723 0319 0FBED2   		movsbl	%dl, %edx
 724              		.loc 1 177 19 view .LVU185
 725 031c 8D0442   		leal	(%edx,%eax,2), %eax
 726              	.LVL83:
 727              	.L15:
 728              		.loc 1 168 7 is_stmt 1 view .LVU186
 729              		.loc 1 169 9 view .LVU187
 730              		.loc 1 169 17 is_stmt 0 view .LVU188
 731 031f 83C301   		addl	$1, %ebx
 732              	.LVL84:
 733              		.loc 1 169 11 view .LVU189
 734 0322 0FB64BFF 		movzbl	-1(%ebx), %ecx
 735              	.LVL85:
 736              		.loc 1 170 9 is_stmt 1 view .LVU190
 737              		.loc 1 170 22 is_stmt 0 view .LVU191
 738 0326 8D51D0   		leal	-48(%ecx), %edx
 739              		.loc 1 170 12 view .LVU192
 740 0329 80FA09   		cmpb	$9, %dl
 741 032c 76E8     		jbe	.L14
 742              		.loc 1 172 14 is_stmt 1 view .LVU193
 743              		.loc 1 172 17 is_stmt 0 view .LVU194
 744 032e 80F92A   		cmpb	$42, %cl
 745 0331 74DD     		je	.L118
 746 0333 89CA     		movl	%ecx, %edx
 747 0335 89442410 		movl	%eax, 16(%esp)
 748 0339 89E9     		movl	%ebp, %ecx
 749              	.LVL86:
 750              		.loc 1 172 17 view .LVU195
 751 033b 89742408 		movl	%esi, 8(%esp)
 752 033f E9C2FDFF 		jmp	.L12
 752      FF
GAS LISTING /tmp/ccTcDoEk.s 			page 15


 753              	.LVL87:
 754              	.L69:
 755              		.loc 1 190 5 view .LVU196
 756 0344 BA0A0000 		movl	$10, %edx
 756      00
 757              	.LVL88:
 758              	.L21:
 759              		.loc 1 240 7 is_stmt 1 view .LVU197
 760 0349 8B742408 		movl	8(%esp), %esi
 761 034d 891C24   		movl	%ebx, (%esp)
 762              	.LVL89:
 763              		.loc 1 240 7 is_stmt 0 view .LVU198
 764 0350 8B06     		movl	(%esi), %eax
 765 0352 83C604   		addl	$4, %esi
 766 0355 89742408 		movl	%esi, 8(%esp)
 767              	.LVL90:
 768              	.L42:
 769              		.loc 1 244 7 is_stmt 1 view .LVU199
 770              	.LBB12:
 771              	.LBI12:
 772              		.loc 1 70 14 view .LVU200
 773              	.LBE12:
 774              		.loc 1 72 3 view .LVU201
 775              	.LBB15:
 776              	.LBB13:
 777              	.LBI13:
 778              		.loc 1 37 14 view .LVU202
 779              	.LBB14:
 780              		.loc 1 41 3 view .LVU203
 781              		.loc 1 42 3 view .LVU204
 782              		.loc 1 43 3 view .LVU205
 783              		.loc 1 45 3 view .LVU206
 784              		.loc 1 46 3 view .LVU207
 785              		.loc 1 52 3 view .LVU208
 786              		.loc 1 52 5 is_stmt 0 view .LVU209
 787 0359 894C241C 		movl	%ecx, 28(%esp)
 788 035d 8D74242B 		leal	43(%esp), %esi
 789              	.LVL91:
 790              		.loc 1 52 5 view .LVU210
 791 0361 89742410 		movl	%esi, 16(%esp)
 792              	.LVL92:
 793              		.loc 1 52 5 view .LVU211
 794 0365 89F3     		movl	%esi, %ebx
 795              	.LVL93:
 796              		.loc 1 52 5 view .LVU212
 797 0367 89D6     		movl	%edx, %esi
 798              	.LVL94:
 799 0369 8DB42600 		.p2align 4,,10
 799      000000
 800              		.p2align 3
 801              	.L44:
 802              		.loc 1 53 3 is_stmt 1 view .LVU213
 803              		.loc 1 54 5 view .LVU214
 804 0370 31D2     		xorl	%edx, %edx
 805              		.loc 1 54 17 is_stmt 0 view .LVU215
 806 0372 89C1     		movl	%eax, %ecx
 807 0374 F7F6     		divl	%esi
GAS LISTING /tmp/ccTcDoEk.s 			page 16


 808              	.LVL95:
 809              		.loc 1 55 5 is_stmt 1 view .LVU216
 810              		.loc 1 55 7 is_stmt 0 view .LVU217
 811 0376 8D6A30   		leal	48(%edx), %ebp
 812              	.LVL96:
 813              		.loc 1 56 5 is_stmt 1 view .LVU218
 814              		.loc 1 57 9 is_stmt 0 view .LVU219
 815 0379 83C237   		addl	$55, %edx
 816 037c 83FD39   		cmpl	$57, %ebp
 817 037f 0F4FEA   		cmovg	%edx, %ebp
 818              	.LVL97:
 819              		.loc 1 58 5 is_stmt 1 view .LVU220
 820              		.loc 1 58 10 is_stmt 0 view .LVU221
 821 0382 83EB01   		subl	$1, %ebx
 822              	.LVL98:
 823              		.loc 1 58 10 view .LVU222
 824 0385 89EA     		movl	%ebp, %edx
 825 0387 8854240C 		movb	%dl, 12(%esp)
 826 038b 8813     		movb	%dl, (%ebx)
 827              		.loc 1 59 5 is_stmt 1 view .LVU223
 828              	.LVL99:
 829              		.loc 1 60 3 is_stmt 0 view .LVU224
 830 038d 39F1     		cmpl	%esi, %ecx
 831 038f 73DF     		jnb	.L44
 832              		.loc 1 62 5 view .LVU225
 833 0391 8B442410 		movl	16(%esp), %eax
 834              	.LVL100:
 835              		.loc 1 62 5 view .LVU226
 836 0395 8D742420 		leal	32(%esp), %esi
 837              	.LVL101:
 838              		.loc 1 62 5 view .LVU227
 839 0399 8B4C241C 		movl	28(%esp), %ecx
 840              		.loc 1 62 3 is_stmt 1 view .LVU228
 841              		.loc 1 62 5 is_stmt 0 view .LVU229
 842 039d 8974241C 		movl	%esi, 28(%esp)
 843              	.LVL102:
 844              		.loc 1 62 5 view .LVU230
 845 03a1 29D8     		subl	%ebx, %eax
 846              	.LVL103:
 847              		.loc 1 62 5 view .LVU231
 848 03a3 8D2C06   		leal	(%esi,%eax), %ebp
 849 03a6 EB0B     		jmp	.L46
 850              	.LVL104:
 851 03a8 8DB42600 		.p2align 4,,10
 851      00000090 
 852              		.p2align 3
 853              	.L45:
 854              		.loc 1 62 5 view .LVU232
 855 03b0 0FB613   		movzbl	(%ebx), %edx
 856              	.LVL105:
 857              	.L46:
 858              		.loc 1 63 3 is_stmt 1 view .LVU233
 859              		.loc 1 64 5 view .LVU234
 860              		.loc 1 64 7 is_stmt 0 view .LVU235
 861 03b3 83C601   		addl	$1, %esi
 862              	.LVL106:
 863              		.loc 1 64 14 view .LVU236
GAS LISTING /tmp/ccTcDoEk.s 			page 17


 864 03b6 83C301   		addl	$1, %ebx
 865              	.LVL107:
 866              		.loc 1 64 10 view .LVU237
 867 03b9 8856FF   		movb	%dl, -1(%esi)
 868              	.LVL108:
 869              		.loc 1 65 3 view .LVU238
 870 03bc 39F5     		cmpl	%esi, %ebp
 871 03be 75F0     		jne	.L45
 872 03c0 89CE     		movl	%ecx, %esi
 873              	.LVL109:
 874              		.loc 1 65 3 view .LVU239
 875 03c2 89442410 		movl	%eax, 16(%esp)
 876              	.LBE14:
 877              	.LBE13:
 878              	.LBE15:
 879              		.loc 1 144 7 view .LVU240
 880 03c6 8B6C241C 		movl	28(%esp), %ebp
 881 03ca 29C6     		subl	%eax, %esi
 882 03cc 83E801   		subl	$1, %eax
 883 03cf 8944240C 		movl	%eax, 12(%esp)
 884 03d3 E950FEFF 		jmp	.L26
 884      FF
 885              	.LVL110:
 886              	.L89:
 887              		.loc 1 144 7 view .LVU241
 888 03d8 8B442408 		movl	8(%esp), %eax
 889 03dc 83C004   		addl	$4, %eax
 890              	.LVL111:
 891              	.L33:
 892              		.loc 1 211 9 is_stmt 1 view .LVU242
 893              		.loc 1 211 11 is_stmt 0 view .LVU243
 894 03df 8B742408 		movl	8(%esp), %esi
 895              		.loc 1 143 7 view .LVU244
 896 03e3 8D6C2420 		leal	32(%esp), %ebp
 897              	.LVL112:
 898              		.loc 1 211 11 view .LVU245
 899 03e7 8B36     		movl	(%esi), %esi
 900 03e9 89442408 		movl	%eax, 8(%esp)
 901              	.LVL113:
 902              		.loc 1 211 11 view .LVU246
 903 03ed 891C24   		movl	%ebx, (%esp)
 904              	.LVL114:
 905              		.loc 1 212 7 is_stmt 1 view .LVU247
 906              		.loc 1 143 7 is_stmt 0 view .LVU248
 907 03f0 896C241C 		movl	%ebp, 28(%esp)
 908              		.loc 1 212 10 view .LVU249
 909 03f4 85F6     		testl	%esi, %esi
 910 03f6 790B     		jns	.L36
 911              		.loc 1 213 9 is_stmt 1 view .LVU250
 912              	.LVL115:
 913              		.loc 1 213 14 is_stmt 0 view .LVU251
 914 03f8 C6442420 		movb	$45, 32(%esp)
 914      2D
 915              		.loc 1 214 9 is_stmt 1 view .LVU252
 916              		.loc 1 214 11 is_stmt 0 view .LVU253
 917 03fd F7DE     		negl	%esi
 918              	.LVL116:
GAS LISTING /tmp/ccTcDoEk.s 			page 18


 919              		.loc 1 213 11 view .LVU254
 920 03ff 8D6C2421 		leal	33(%esp), %ebp
 921              	.LVL117:
 922              	.L36:
 923              		.loc 1 216 7 is_stmt 1 view .LVU255
 924              	.LBB16:
 925              	.LBI16:
 926              		.loc 1 70 14 view .LVU256
 927              	.LBE16:
 928              		.loc 1 72 3 view .LVU257
 929              	.LBB19:
 930              	.LBB17:
 931              	.LBI17:
 932              		.loc 1 37 14 view .LVU258
 933              	.LBB18:
 934              		.loc 1 41 3 view .LVU259
 935              		.loc 1 42 3 view .LVU260
 936              		.loc 1 43 3 view .LVU261
 937              		.loc 1 45 3 view .LVU262
 938              		.loc 1 46 3 view .LVU263
 939              		.loc 1 52 3 view .LVU264
 940              		.loc 1 52 5 is_stmt 0 view .LVU265
 941 0403 8D450B   		leal	11(%ebp), %eax
 942              	.LVL118:
 943              		.loc 1 52 5 view .LVU266
 944 0406 894C2410 		movl	%ecx, 16(%esp)
 945              	.LVL119:
 946              		.loc 1 52 5 view .LVU267
 947 040a 8944240C 		movl	%eax, 12(%esp)
 948              	.LVL120:
 949              		.loc 1 52 5 view .LVU268
 950 040e 89C3     		movl	%eax, %ebx
 951              	.LVL121:
 952              		.loc 1 52 5 view .LVU269
 953 0410 EB08     		jmp	.L37
 954              	.LVL122:
 955              		.p2align 4,,10
 956 0412 8DB60000 		.p2align 3
 956      0000
 957              	.L76:
 958              		.loc 1 60 3 view .LVU270
 959 0418 89CE     		movl	%ecx, %esi
 960              	.LVL123:
 961              	.L37:
 962              		.loc 1 53 3 is_stmt 1 view .LVU271
 963              		.loc 1 54 5 view .LVU272
 964              		.loc 1 54 17 is_stmt 0 view .LVU273
 965 041a B8CDCCCC 		movl	$-858993459, %eax
 965      CC
 966              		.loc 1 58 10 view .LVU274
 967 041f 83EB01   		subl	$1, %ebx
 968              	.LVL124:
 969              		.loc 1 54 17 view .LVU275
 970 0422 F7E6     		mull	%esi
 971 0424 C1EA03   		shrl	$3, %edx
 972 0427 8D0492   		leal	(%edx,%edx,4), %eax
 973 042a 89D1     		movl	%edx, %ecx
GAS LISTING /tmp/ccTcDoEk.s 			page 19


 974 042c 89F2     		movl	%esi, %edx
 975 042e 01C0     		addl	%eax, %eax
 976 0430 29C2     		subl	%eax, %edx
 977              	.LVL125:
 978              		.loc 1 55 5 is_stmt 1 view .LVU276
 979              		.loc 1 56 5 view .LVU277
 980              		.loc 1 58 5 view .LVU278
 981              		.loc 1 55 7 is_stmt 0 view .LVU279
 982 0432 8D4230   		leal	48(%edx), %eax
 983              	.LVL126:
 984              		.loc 1 58 10 view .LVU280
 985 0435 89C2     		movl	%eax, %edx
 986 0437 8803     		movb	%al, (%ebx)
 987              		.loc 1 59 5 is_stmt 1 view .LVU281
 988              	.LVL127:
 989              		.loc 1 60 3 is_stmt 0 view .LVU282
 990 0439 83FE09   		cmpl	$9, %esi
 991 043c 7FDA     		jg	.L76
 992              		.loc 1 62 5 view .LVU283
 993 043e 8B44240C 		movl	12(%esp), %eax
 994              	.LVL128:
 995              		.loc 1 62 5 view .LVU284
 996 0442 8B4C2410 		movl	16(%esp), %ecx
 997              	.LVL129:
 998              		.loc 1 62 3 is_stmt 1 view .LVU285
 999              		.loc 1 62 5 is_stmt 0 view .LVU286
 1000 0446 29D8     		subl	%ebx, %eax
 1001              	.LVL130:
 1002              		.loc 1 62 5 view .LVU287
 1003 0448 01E8     		addl	%ebp, %eax
 1004              	.LVL131:
 1005              		.loc 1 62 5 view .LVU288
 1006 044a EB07     		jmp	.L39
 1007              	.LVL132:
 1008 044c 8D742600 		.p2align 4,,10
 1009              		.p2align 3
 1010              	.L38:
 1011              		.loc 1 62 5 view .LVU289
 1012 0450 0FB613   		movzbl	(%ebx), %edx
 1013              	.L39:
 1014              		.loc 1 63 3 is_stmt 1 view .LVU290
 1015              		.loc 1 64 5 view .LVU291
 1016              		.loc 1 64 7 is_stmt 0 view .LVU292
 1017 0453 83C501   		addl	$1, %ebp
 1018              	.LVL133:
 1019              		.loc 1 64 14 view .LVU293
 1020 0456 83C301   		addl	$1, %ebx
 1021              	.LVL134:
 1022              		.loc 1 64 10 view .LVU294
 1023 0459 8855FF   		movb	%dl, -1(%ebp)
 1024              		.loc 1 65 3 view .LVU295
 1025 045c 39C5     		cmpl	%eax, %ebp
 1026 045e 75F0     		jne	.L38
 1027 0460 89E8     		movl	%ebp, %eax
 1028 0462 8B6C241C 		movl	28(%esp), %ebp
 1029              	.LVL135:
 1030              		.loc 1 65 3 view .LVU296
GAS LISTING /tmp/ccTcDoEk.s 			page 20


 1031 0466 89CE     		movl	%ecx, %esi
 1032              	.LVL136:
 1033              		.loc 1 65 3 view .LVU297
 1034 0468 29E8     		subl	%ebp, %eax
 1035              	.LVL137:
 1036              		.loc 1 65 3 view .LVU298
 1037 046a 89442410 		movl	%eax, 16(%esp)
 1038              	.LVL138:
 1039              		.loc 1 65 3 view .LVU299
 1040 046e 29C6     		subl	%eax, %esi
 1041 0470 83E801   		subl	$1, %eax
 1042 0473 8944240C 		movl	%eax, 12(%esp)
 1043              	.LVL139:
 1044              		.loc 1 65 3 view .LVU300
 1045 0477 E9ACFDFF 		jmp	.L26
 1045      FF
 1046              	.LVL140:
 1047              	.L24:
 1048              		.loc 1 65 3 view .LVU301
 1049              	.LBE18:
 1050              	.LBE17:
 1051              	.LBE19:
 1052              		.loc 1 208 7 is_stmt 1 view .LVU302
 1053 047c 8B442408 		movl	8(%esp), %eax
 1054 0480 83C004   		addl	$4, %eax
 1055 0483 E957FFFF 		jmp	.L33
 1055      FF
 1056              	.L23:
 1057              		.loc 1 190 5 is_stmt 0 view .LVU303
 1058 0488 BA080000 		movl	$8, %edx
 1058      00
 1059              	.LVL141:
 1060              		.loc 1 190 5 view .LVU304
 1061 048d E9B7FEFF 		jmp	.L21
 1061      FF
 1062              	.LVL142:
 1063              	.L19:
 1064              		.loc 1 190 5 view .LVU305
 1065 0492 BA100000 		movl	$16, %edx
 1065      00
 1066              	.LVL143:
 1067              		.loc 1 190 5 view .LVU306
 1068 0497 E9ADFEFF 		jmp	.L21
 1068      FF
 1069              	.LVL144:
 1070              	.L62:
 1071              		.loc 1 240 7 is_stmt 1 view .LVU307
 1072 049c 8B742408 		movl	8(%esp), %esi
 1073              		.loc 1 190 5 is_stmt 0 view .LVU308
 1074 04a0 891C24   		movl	%ebx, (%esp)
 1075 04a3 BA080000 		movl	$8, %edx
 1075      00
 1076 04a8 8B06     		movl	(%esi), %eax
 1077 04aa 83C604   		addl	$4, %esi
 1078 04ad 89742408 		movl	%esi, 8(%esp)
 1079              	.LVL145:
 1080              		.loc 1 190 5 view .LVU309
GAS LISTING /tmp/ccTcDoEk.s 			page 21


 1081 04b1 E9A3FEFF 		jmp	.L42
 1081      FF
 1082              	.LVL146:
 1083              	.L40:
 1084              		.loc 1 240 7 is_stmt 1 view .LVU310
 1085 04b6 8B742408 		movl	8(%esp), %esi
 1086              		.loc 1 190 5 is_stmt 0 view .LVU311
 1087 04ba 891C24   		movl	%ebx, (%esp)
 1088 04bd BA0A0000 		movl	$10, %edx
 1088      00
 1089 04c2 8B06     		movl	(%esi), %eax
 1090 04c4 83C604   		addl	$4, %esi
 1091 04c7 89742408 		movl	%esi, 8(%esp)
 1092              	.LVL147:
 1093              		.loc 1 190 5 view .LVU312
 1094 04cb E989FEFF 		jmp	.L42
 1094      FF
 1095              	.LVL148:
 1096              	.L60:
 1097              		.loc 1 190 5 view .LVU313
 1098 04d0 8B742408 		movl	8(%esp), %esi
 1099 04d4 891C24   		movl	%ebx, (%esp)
 1100 04d7 BA100000 		movl	$16, %edx
 1100      00
 1101              	.LVL149:
 1102              		.loc 1 190 5 view .LVU314
 1103 04dc 8B06     		movl	(%esi), %eax
 1104 04de 83C604   		addl	$4, %esi
 1105 04e1 89742408 		movl	%esi, 8(%esp)
 1106              	.LVL150:
 1107              		.loc 1 190 5 view .LVU315
 1108 04e5 E96FFEFF 		jmp	.L42
 1108      FF
 1109              	.LVL151:
 1110              	.L30:
 1111              		.loc 1 201 22 view .LVU316
 1112 04ea BAFE7F00 		movl	$32766, %edx
 1112      00
 1113              	.LVL152:
 1114              		.loc 1 201 7 view .LVU317
 1115 04ef 84DB     		testb	%bl, %bl
 1116 04f1 0F85ADFC 		jne	.L28
 1116      FFFF
 1117 04f7 89CE     		movl	%ecx, %esi
 1118 04f9 C744240C 		movl	$-1, 12(%esp)
 1118      FFFFFFFF 
 1119              		.loc 1 196 14 view .LVU318
 1120 0501 C6442416 		movb	$32, 22(%esp)
 1120      20
 1121 0506 E91DFDFF 		jmp	.L26
 1121      FF
 1122              	.LVL153:
 1123 050b 8D742600 		.p2align 4,,10
 1123      90
 1124              		.p2align 3
 1125              	.L80:
 1126              		.loc 1 190 5 view .LVU319
GAS LISTING /tmp/ccTcDoEk.s 			page 22


 1127 0510 891C24   		movl	%ebx, (%esp)
 1128              		.loc 1 247 7 is_stmt 1 view .LVU320
 1129              	.LVL154:
 1130              		.loc 1 247 7 is_stmt 0 view .LVU321
 1131 0513 8D71FF   		leal	-1(%ecx), %esi
 1132              		.loc 1 144 7 view .LVU322
 1133 0516 8D6C2420 		leal	32(%esp), %ebp
 1134              	.LVL155:
 1135              		.loc 1 247 12 view .LVU323
 1136 051a 88542420 		movb	%dl, 32(%esp)
 1137              		.loc 1 248 7 is_stmt 1 view .LVU324
 1138 051e C744240C 		movl	$0, 12(%esp)
 1138      00000000 
 1139 0526 C7442410 		movl	$1, 16(%esp)
 1139      01000000 
 1140              	.LVL156:
 1141              		.loc 1 248 7 is_stmt 0 view .LVU325
 1142 052e E9F5FCFF 		jmp	.L26
 1142      FF
 1143              	.LVL157:
 1144              	.L115:
 1145              		.loc 1 199 7 is_stmt 1 view .LVU326
 1146              		.loc 1 198 11 is_stmt 0 view .LVU327
 1147 0533 8B442418 		movl	24(%esp), %eax
 1148 0537 8DA80000 		leal	.LC0@GOTOFF(%eax), %ebp
 1148      0000
 1149              		.loc 1 199 10 view .LVU328
 1150 053d 8B442410 		movl	16(%esp), %eax
 1151 0541 85C0     		testl	%eax, %eax
 1152 0543 0F854CFC 		jne	.L29
 1152      FFFF
 1153              		.loc 1 201 22 view .LVU329
 1154 0549 BAFE7F00 		movl	$32766, %edx
 1154      00
 1155              	.LVL158:
 1156              		.loc 1 201 22 view .LVU330
 1157 054e E951FCFF 		jmp	.L28
 1157      FF
 1158              	.LVL159:
 1159              	.L116:
 1160              		.loc 1 257 9 is_stmt 1 view .LVU331
 1161              		.loc 1 257 9 is_stmt 0 view .LVU332
 1162 0553 83442404 		addl	$1, 4(%esp)
 1162      01
 1163              	.LVL160:
 1164              		.loc 1 257 9 view .LVU333
 1165 0558 83EC08   		subl	$8, %esp
 1166              		.cfi_def_cfa_offset 88
 1167              	.LVL161:
 1168              		.loc 1 257 9 view .LVU334
 1169 055b 83C501   		addl	$1, %ebp
 1170              	.LVL162:
 1171              		.loc 1 257 9 view .LVU335
 1172 055e 6A2D     		pushl	$45
 1173              		.cfi_def_cfa_offset 92
 1174 0560 57       		pushl	%edi
 1175              		.cfi_def_cfa_offset 96
GAS LISTING /tmp/ccTcDoEk.s 			page 23


 1176 0561 FFD0     		call	*%eax
 1177              	.LVL163:
 1178              		.loc 1 258 9 is_stmt 1 view .LVU336
 1179              		.loc 1 259 9 view .LVU337
 1180              		.loc 1 259 9 is_stmt 0 view .LVU338
 1181 0563 8B07     		movl	(%edi), %eax
 1182 0565 836C241C 		subl	$1, 28(%esp)
 1182      01
 1183 056a 8B400C   		movl	12(%eax), %eax
 1184 056d 83C410   		addl	$16, %esp
 1185              		.cfi_def_cfa_offset 80
 1186              	.LVL164:
 1187              		.loc 1 259 9 view .LVU339
 1188 0570 E9DEFCFF 		jmp	.L52
 1188      FF
 1189              	.LVL165:
 1190              	.L74:
 1191              		.loc 1 201 22 view .LVU340
 1192 0575 89CE     		movl	%ecx, %esi
 1193 0577 C744240C 		movl	$-1, 12(%esp)
 1193      FFFFFFFF 
 1194 057f C7442410 		movl	$0, 16(%esp)
 1194      00000000 
 1195              		.loc 1 196 14 view .LVU341
 1196 0587 C6442416 		movb	$32, 22(%esp)
 1196      20
 1197 058c E997FCFF 		jmp	.L26
 1197      FF
 1198              	.LVL166:
 1199              	.L112:
 1200              		.loc 1 277 1 view .LVU342
 1201 0591 E8FCFFFF 		call	__stack_chk_fail_local
 1201      FF
 1202              	.LVL167:
 1203              		.cfi_endproc
 1204              	.LFE224:
 1205              		.size	chvprintf, .-chvprintf
 1206              		.section	.text.chprintf,"ax",@progbits
 1207              		.p2align 4,,15
 1208              		.globl	chprintf
 1209              		.type	chprintf, @function
 1210              	chprintf:
 1211              	.LVL168:
 1212              	.LFB225:
 1213              		.loc 1 302 63 is_stmt 1 view -0
 1214              		.cfi_startproc
 1215              		.loc 1 303 3 view .LVU344
 1216              		.loc 1 304 3 view .LVU345
 1217              		.loc 1 306 3 view .LVU346
 1218              		.loc 1 302 63 is_stmt 0 view .LVU347
 1219 0000 83EC0C   		subl	$12, %esp
 1220              		.cfi_def_cfa_offset 16
 1221              		.loc 1 306 3 view .LVU348
 1222 0003 8D442418 		leal	24(%esp), %eax
 1223              	.LVL169:
 1224              		.loc 1 307 3 is_stmt 1 view .LVU349
 1225              		.loc 1 307 21 is_stmt 0 view .LVU350
GAS LISTING /tmp/ccTcDoEk.s 			page 24


 1226 0007 83EC04   		subl	$4, %esp
 1227              		.cfi_def_cfa_offset 20
 1228 000a 50       		pushl	%eax
 1229              		.cfi_def_cfa_offset 24
 1230 000b FF74241C 		pushl	28(%esp)
 1231              		.cfi_def_cfa_offset 28
 1232 000f FF74241C 		pushl	28(%esp)
 1233              		.cfi_def_cfa_offset 32
 1234 0013 E8FCFFFF 		call	chvprintf
 1234      FF
 1235              	.LVL170:
 1236              		.loc 1 308 3 is_stmt 1 view .LVU351
 1237              		.loc 1 310 3 view .LVU352
 1238              		.loc 1 311 1 is_stmt 0 view .LVU353
 1239 0018 83C41C   		addl	$28, %esp
 1240              		.cfi_def_cfa_offset 4
 1241 001b C3       		ret
 1242              		.cfi_endproc
 1243              	.LFE225:
 1244              		.size	chprintf, .-chprintf
 1245              		.section	.text.chsnprintf,"ax",@progbits
 1246              		.p2align 4,,15
 1247              		.globl	chsnprintf
 1248              		.type	chsnprintf, @function
 1249              	chsnprintf:
 1250              	.LVL171:
 1251              	.LFB226:
 1252              		.loc 1 340 62 is_stmt 1 view -0
 1253              		.cfi_startproc
 1254              		.loc 1 340 62 is_stmt 0 view .LVU355
 1255 0000 55       		pushl	%ebp
 1256              		.cfi_def_cfa_offset 8
 1257              		.cfi_offset 5, -8
 1258 0001 57       		pushl	%edi
 1259              		.cfi_def_cfa_offset 12
 1260              		.cfi_offset 7, -12
 1261 0002 56       		pushl	%esi
 1262              		.cfi_def_cfa_offset 16
 1263              		.cfi_offset 6, -16
 1264 0003 53       		pushl	%ebx
 1265              		.cfi_def_cfa_offset 20
 1266              		.cfi_offset 3, -20
 1267 0004 E8FCFFFF 		call	__x86.get_pc_thunk.bx
 1267      FF
 1268 0009 81C30200 		addl	$_GLOBAL_OFFSET_TABLE_, %ebx
 1268      0000
 1269 000f 83EC2C   		subl	$44, %esp
 1270              		.cfi_def_cfa_offset 64
 1271              		.loc 1 340 62 view .LVU356
 1272 0012 65A11400 		movl	%gs:20, %eax
 1272      0000
 1273 0018 8944241C 		movl	%eax, 28(%esp)
 1274 001c 31C0     		xorl	%eax, %eax
 1275              		.loc 1 341 3 is_stmt 1 view .LVU357
 1276              		.loc 1 342 3 view .LVU358
 1277              		.loc 1 343 3 view .LVU359
 1278              		.loc 1 344 3 view .LVU360
GAS LISTING /tmp/ccTcDoEk.s 			page 25


 1279              		.loc 1 345 3 view .LVU361
 1280              		.loc 1 347 3 view .LVU362
 1281              		.loc 1 347 6 is_stmt 0 view .LVU363
 1282 001e 8B442444 		movl	68(%esp), %eax
 1283              		.loc 1 340 62 view .LVU364
 1284 0022 8B7C2440 		movl	64(%esp), %edi
 1285 0026 8B6C2448 		movl	72(%esp), %ebp
 1286              		.loc 1 347 6 view .LVU365
 1287 002a 85C0     		testl	%eax, %eax
 1288 002c 7452     		je	.L122
 1289              		.loc 1 348 5 is_stmt 1 view .LVU366
 1290              	.LVL172:
 1291              		.loc 1 354 3 view .LVU367
 1292 002e 6A00     		pushl	$0
 1293              		.cfi_def_cfa_offset 68
 1294              		.loc 1 348 17 is_stmt 0 view .LVU368
 1295 0030 8B442448 		movl	72(%esp), %eax
 1296              		.loc 1 348 17 view .LVU369
 1297 0034 83E801   		subl	$1, %eax
 1298              	.LVL173:
 1299              		.loc 1 354 3 view .LVU370
 1300 0037 50       		pushl	%eax
 1301              		.cfi_def_cfa_offset 72
 1302 0038 57       		pushl	%edi
 1303              		.cfi_def_cfa_offset 76
 1304 0039 8D742414 		leal	20(%esp), %esi
 1305 003d 56       		pushl	%esi
 1306              		.cfi_def_cfa_offset 80
 1307 003e E8FCFFFF 		call	msObjectInit@PLT
 1307      FF
 1308              	.LVL174:
 1309              		.loc 1 357 3 is_stmt 1 view .LVU371
 1310              		.loc 1 358 3 view .LVU372
 1311 0043 8D54245C 		leal	92(%esp), %edx
 1312              	.LVL175:
 1313              		.loc 1 359 3 view .LVU373
 1314              		.loc 1 359 12 is_stmt 0 view .LVU374
 1315 0047 83C40C   		addl	$12, %esp
 1316              		.cfi_def_cfa_offset 68
 1317 004a 52       		pushl	%edx
 1318              		.cfi_def_cfa_offset 72
 1319 004b 55       		pushl	%ebp
 1320              		.cfi_def_cfa_offset 76
 1321 004c 56       		pushl	%esi
 1322              		.cfi_def_cfa_offset 80
 1323 004d E8FCFFFF 		call	chvprintf
 1323      FF
 1324              	.LVL176:
 1325              		.loc 1 360 3 is_stmt 1 view .LVU375
 1326              		.loc 1 363 3 view .LVU376
 1327              		.loc 1 363 9 is_stmt 0 view .LVU377
 1328 0052 8B542424 		movl	36(%esp), %edx
 1329              		.loc 1 363 6 view .LVU378
 1330 0056 83C410   		addl	$16, %esp
 1331              		.cfi_def_cfa_offset 64
 1332 0059 3B542444 		cmpl	68(%esp), %edx
 1333 005d 7304     		jnb	.L121
GAS LISTING /tmp/ccTcDoEk.s 			page 26


 1334              		.loc 1 364 7 is_stmt 1 view .LVU379
 1335              		.loc 1 364 19 is_stmt 0 view .LVU380
 1336 005f C6041700 		movb	$0, (%edi,%edx)
 1337              		.loc 1 367 3 is_stmt 1 view .LVU381
 1338              	.LVL177:
 1339              	.L121:
 1340              		.loc 1 368 1 is_stmt 0 view .LVU382
 1341 0063 8B4C241C 		movl	28(%esp), %ecx
 1342 0067 65330D14 		xorl	%gs:20, %ecx
 1342      000000
 1343 006e 7533     		jne	.L126
 1344 0070 83C42C   		addl	$44, %esp
 1345              		.cfi_remember_state
 1346              		.cfi_def_cfa_offset 20
 1347 0073 5B       		popl	%ebx
 1348              		.cfi_restore 3
 1349              		.cfi_def_cfa_offset 16
 1350 0074 5E       		popl	%esi
 1351              		.cfi_restore 6
 1352              		.cfi_def_cfa_offset 12
 1353              	.LVL178:
 1354              		.loc 1 368 1 view .LVU383
 1355 0075 5F       		popl	%edi
 1356              		.cfi_restore 7
 1357              		.cfi_def_cfa_offset 8
 1358 0076 5D       		popl	%ebp
 1359              		.cfi_restore 5
 1360              		.cfi_def_cfa_offset 4
 1361 0077 C3       		ret
 1362              	.LVL179:
 1363 0078 8DB42600 		.p2align 4,,10
 1363      00000090 
 1364              		.p2align 3
 1365              	.L122:
 1366              		.cfi_restore_state
 1367              		.loc 1 354 3 is_stmt 1 view .LVU384
 1368 0080 6A00     		pushl	$0
 1369              		.cfi_def_cfa_offset 68
 1370 0082 6A00     		pushl	$0
 1371              		.cfi_def_cfa_offset 72
 1372 0084 57       		pushl	%edi
 1373              		.cfi_def_cfa_offset 76
 1374 0085 8D742414 		leal	20(%esp), %esi
 1375 0089 56       		pushl	%esi
 1376              		.cfi_def_cfa_offset 80
 1377 008a E8FCFFFF 		call	msObjectInit@PLT
 1377      FF
 1378              	.LVL180:
 1379              		.loc 1 357 3 view .LVU385
 1380              		.loc 1 358 3 view .LVU386
 1381 008f 8D44245C 		leal	92(%esp), %eax
 1382              	.LVL181:
 1383              		.loc 1 359 3 view .LVU387
 1384              		.loc 1 359 12 is_stmt 0 view .LVU388
 1385 0093 83C40C   		addl	$12, %esp
 1386              		.cfi_def_cfa_offset 68
 1387 0096 50       		pushl	%eax
GAS LISTING /tmp/ccTcDoEk.s 			page 27


 1388              		.cfi_def_cfa_offset 72
 1389 0097 55       		pushl	%ebp
 1390              		.cfi_def_cfa_offset 76
 1391 0098 56       		pushl	%esi
 1392              		.cfi_def_cfa_offset 80
 1393 0099 E8FCFFFF 		call	chvprintf
 1393      FF
 1394              	.LVL182:
 1395              		.loc 1 360 3 is_stmt 1 view .LVU389
 1396              		.loc 1 363 3 view .LVU390
 1397              		.loc 1 359 12 is_stmt 0 view .LVU391
 1398 009e 83C410   		addl	$16, %esp
 1399              		.cfi_def_cfa_offset 64
 1400 00a1 EBC0     		jmp	.L121
 1401              	.LVL183:
 1402              	.L126:
 1403              		.loc 1 368 1 view .LVU392
 1404 00a3 E8FCFFFF 		call	__stack_chk_fail_local
 1404      FF
 1405              	.LVL184:
 1406              		.loc 1 368 1 view .LVU393
 1407              		.cfi_endproc
 1408              	.LFE226:
 1409              		.size	chsnprintf, .-chsnprintf
 1410              		.section	.text.__x86.get_pc_thunk.ax,"axG",@progbits,__x86.get_pc_thunk.ax,comdat
 1411              		.globl	__x86.get_pc_thunk.ax
 1412              		.hidden	__x86.get_pc_thunk.ax
 1413              		.type	__x86.get_pc_thunk.ax, @function
 1414              	__x86.get_pc_thunk.ax:
 1415              	.LFB227:
 1416              		.cfi_startproc
 1417 0000 8B0424   		movl	(%esp), %eax
 1418 0003 C3       		ret
 1419              		.cfi_endproc
 1420              	.LFE227:
 1421              		.section	.text.__x86.get_pc_thunk.bx,"axG",@progbits,__x86.get_pc_thunk.bx,comdat
 1422              		.globl	__x86.get_pc_thunk.bx
 1423              		.hidden	__x86.get_pc_thunk.bx
 1424              		.type	__x86.get_pc_thunk.bx, @function
 1425              	__x86.get_pc_thunk.bx:
 1426              	.LFB228:
 1427              		.cfi_startproc
 1428 0000 8B1C24   		movl	(%esp), %ebx
 1429 0003 C3       		ret
 1430              		.cfi_endproc
 1431              	.LFE228:
 1432              		.text
 1433              	.Letext0:
 1434              		.file 2 "/usr/lib/gcc/x86_64-linux-gnu/8/include/stddef.h"
 1435              		.file 3 "/usr/include/i386-linux-gnu/bits/types.h"
 1436              		.file 4 "/usr/include/i386-linux-gnu/bits/stdint-intn.h"
 1437              		.file 5 "/usr/include/i386-linux-gnu/bits/stdint-uintn.h"
 1438              		.file 6 "../../../os/common/ports/SIMIA32/compilers/GCC/chtypes.h"
 1439              		.file 7 "../../../os/rt/include/chsystypes.h"
 1440              		.file 8 "../../../os/rt/include/chschd.h"
 1441              		.file 9 "../../../os/rt/include/chtime.h"
 1442              		.file 10 "../../../os/common/ports/SIMIA32/chcore.h"
GAS LISTING /tmp/ccTcDoEk.s 			page 28


 1443              		.file 11 "../../../os/rt/include/chtm.h"
 1444              		.file 12 "../../../os/rt/include/chsem.h"
 1445              		.file 13 "../../../os/rt/include/chmtx.h"
 1446              		.file 14 "../../../os/rt/include/chsys.h"
 1447              		.file 15 "../../../os/rt/include/chregistry.h"
 1448              		.file 16 "../../../os/rt/include/chevents.h"
 1449              		.file 17 "../../../os/common/oslib/include/chmemcore.h"
 1450              		.file 18 "../../../os/common/oslib/include/chmempools.h"
 1451              		.file 19 "../../../os/common/oslib/include/chfactory.h"
 1452              		.file 20 "/usr/include/netinet/in.h"
 1453              		.file 21 "/usr/include/unistd.h"
 1454              		.file 22 "/usr/include/i386-linux-gnu/bits/getopt_core.h"
 1455              		.file 23 "/usr/lib/gcc/x86_64-linux-gnu/8/include/stdarg.h"
 1456              		.file 24 "/usr/include/i386-linux-gnu/bits/types/struct_FILE.h"
 1457              		.file 25 "/usr/include/i386-linux-gnu/bits/types/FILE.h"
 1458              		.file 26 "/usr/include/stdio.h"
 1459              		.file 27 "/usr/include/i386-linux-gnu/bits/sys_errlist.h"
 1460              		.file 28 "../../../os/hal/include/hal_streams.h"
 1461              		.file 29 "../../../os/hal/include/hal_queues.h"
 1462              		.file 30 "../../../os/hal/ports/simulator/hal_pal_lld.h"
 1463              		.file 31 "../../../os/hal/include/hal_serial.h"
 1464              		.file 32 "../../../os/hal/ports/simulator/posix/hal_serial_lld.h"
 1465              		.file 33 "../../../os/hal/lib/streams/memstreams.h"
 8150              		.section	.note.GNU-stack,"",@progbits
GAS LISTING /tmp/ccTcDoEk.s 			page 156

