GAS LISTING /tmp/ccNQps33.s 			page 1


   1              		.file	"chregistry.c"
   2              		.text
   3              	.Ltext0:
   4              		.section	.text.chRegFirstThread,"ax",@progbits
   5              		.p2align 4,,15
   6              		.globl	chRegFirstThread
   7              		.type	chRegFirstThread, @function
   8              	chRegFirstThread:
   9              	.LFB149:
  10              		.file 1 "../../../os/rt/src/chregistry.c"
  11              		.loc 1 134 34 view -0
  12              		.cfi_startproc
  13              		.loc 1 135 3 view .LVU1
  14              		.loc 1 137 3 view .LVU2
  15              		.file 2 "../../../os/rt/include/chsys.h"
  16              		.loc 2 355 3 view .LVU3
  17              		.file 3 "../../../os/common/ports/SIMIA32/chcore.h"
  18              		.loc 3 364 3 view .LVU4
  19              		.loc 2 356 34 view .LVU5
  20              		.loc 2 357 20 view .LVU6
  21              		.loc 1 138 3 view .LVU7
  22 0000 E8FCFFFF 		call	__x86.get_pc_thunk.dx
  22      FF
  23 0005 81C20200 		addl	$_GLOBAL_OFFSET_TABLE_, %edx
  23      0000
  24              		.loc 1 138 6 is_stmt 0 view .LVU8
  25 000b 8B820000 		movl	ch@GOT(%edx), %eax
  25      0000
  26              	.LBB71:
  27              	.LBB72:
  28              	.LBB73:
  29              	.LBB74:
  30              		.loc 3 373 16 view .LVU9
  31 0011 8B920000 		movl	port_irq_sts@GOT(%edx), %edx
  31      0000
  32              	.LBE74:
  33              	.LBE73:
  34              	.LBE72:
  35              	.LBE71:
  36              		.loc 1 138 6 view .LVU10
  37 0017 8B4010   		movl	16(%eax), %eax
  38              	.LVL0:
  39              		.loc 1 140 3 is_stmt 1 view .LVU11
  40              	.LBB81:
  41              	.LBB79:
  42              	.LBB77:
  43              	.LBB75:
  44              		.loc 3 373 16 is_stmt 0 view .LVU12
  45 001a C7020000 		movl	$0, (%edx)
  45      0000
  46              	.LBE75:
  47              	.LBE77:
  48              	.LBE79:
  49              	.LBE81:
  50              		.loc 1 140 11 view .LVU13
  51 0020 80402201 		addb	$1, 34(%eax)
  52              		.loc 1 142 3 is_stmt 1 view .LVU14
GAS LISTING /tmp/ccNQps33.s 			page 2


  53              	.LBB82:
  54              	.LBI71:
  55              		.loc 2 365 20 view .LVU15
  56              	.LBB80:
  57              		.loc 2 367 22 view .LVU16
  58              		.loc 2 368 33 view .LVU17
  59              		.loc 2 374 3 view .LVU18
  60              		.loc 2 374 3 view .LVU19
  61              		.loc 2 378 3 view .LVU20
  62              	.LBB78:
  63              	.LBI73:
  64              		.loc 3 371 20 view .LVU21
  65              	.LBB76:
  66              		.loc 3 373 3 view .LVU22
  67              	.LBE76:
  68              	.LBE78:
  69              	.LBE80:
  70              	.LBE82:
  71              		.loc 1 144 3 view .LVU23
  72              		.loc 1 145 1 is_stmt 0 view .LVU24
  73 0024 C3       		ret
  74              		.cfi_endproc
  75              	.LFE149:
  76              		.size	chRegFirstThread, .-chRegFirstThread
  77              		.section	.text.chRegNextThread,"ax",@progbits
  78              		.p2align 4,,15
  79              		.globl	chRegNextThread
  80              		.type	chRegNextThread, @function
  81              	chRegNextThread:
  82              	.LVL1:
  83              	.LFB150:
  84              		.loc 1 158 41 is_stmt 1 view -0
  85              		.cfi_startproc
  86              		.loc 1 159 3 view .LVU26
  87              		.loc 1 161 3 view .LVU27
  88              	.LBB83:
  89              	.LBI83:
  90              		.loc 2 353 20 view .LVU28
  91              	.LBE83:
  92              		.loc 2 355 3 view .LVU29
  93              	.LBB88:
  94              	.LBB84:
  95              	.LBI84:
  96              		.loc 3 362 20 view .LVU30
  97              	.LBB85:
  98              		.loc 3 364 3 view .LVU31
  99              	.LBE85:
 100              	.LBE84:
 101              	.LBE88:
 102              		.loc 1 158 41 is_stmt 0 view .LVU32
 103 0000 56       		pushl	%esi
 104              		.cfi_def_cfa_offset 8
 105              		.cfi_offset 6, -8
 106 0001 53       		pushl	%ebx
 107              		.cfi_def_cfa_offset 12
 108              		.cfi_offset 3, -12
 109 0002 E8FCFFFF 		call	__x86.get_pc_thunk.bx
GAS LISTING /tmp/ccNQps33.s 			page 3


 109      FF
 110 0007 81C30200 		addl	$_GLOBAL_OFFSET_TABLE_, %ebx
 110      0000
 111 000d 83EC04   		subl	$4, %esp
 112              		.cfi_def_cfa_offset 16
 113              		.loc 1 158 41 view .LVU33
 114 0010 8B442410 		movl	16(%esp), %eax
 115              		.loc 1 162 7 view .LVU34
 116 0014 8B7010   		movl	16(%eax), %esi
 117              	.LBB89:
 118              	.LBB87:
 119              	.LBB86:
 120              		.loc 3 364 16 view .LVU35
 121 0017 8B930000 		movl	port_irq_sts@GOT(%ebx), %edx
 121      0000
 122 001d C7020100 		movl	$1, (%edx)
 122      0000
 123              	.LBE86:
 124              	.LBE87:
 125              	.LBE89:
 126              		.loc 2 356 34 is_stmt 1 view .LVU36
 127              		.loc 2 357 20 view .LVU37
 128              		.loc 1 162 3 view .LVU38
 129              	.LVL2:
 130              		.loc 1 164 3 view .LVU39
 131              		.loc 1 164 6 is_stmt 0 view .LVU40
 132 0023 3BB30000 		cmpl	ch@GOT(%ebx), %esi
 132      0000
 133 0029 7425     		je	.L5
 134              		.loc 1 170 5 is_stmt 1 view .LVU41
 135              		.loc 1 170 5 view .LVU42
 136              		.loc 1 171 5 view .LVU43
 137              		.loc 1 171 14 is_stmt 0 view .LVU44
 138 002b 80462201 		addb	$1, 34(%esi)
 139              	.LVL3:
 140              	.L4:
 141              		.loc 1 174 3 is_stmt 1 view .LVU45
 142              	.LBB90:
 143              	.LBI90:
 144              		.loc 2 365 20 view .LVU46
 145              	.LBB91:
 146              		.loc 2 367 22 view .LVU47
 147              		.loc 2 368 33 view .LVU48
 148              		.loc 2 374 3 view .LVU49
 149              		.loc 2 374 3 view .LVU50
 150              		.loc 2 378 3 view .LVU51
 151              	.LBB92:
 152              	.LBI92:
 153              		.loc 3 371 20 view .LVU52
 154              	.LBB93:
 155              		.loc 3 373 3 view .LVU53
 156              	.LBE93:
 157              	.LBE92:
 158              	.LBE91:
 159              	.LBE90:
 160              		.loc 1 176 3 is_stmt 0 view .LVU54
 161 002f 83EC0C   		subl	$12, %esp
GAS LISTING /tmp/ccNQps33.s 			page 4


 162              		.cfi_def_cfa_offset 28
 163              	.LBB97:
 164              	.LBB96:
 165              	.LBB95:
 166              	.LBB94:
 167              		.loc 3 373 16 view .LVU55
 168 0032 C7020000 		movl	$0, (%edx)
 168      0000
 169              	.LBE94:
 170              	.LBE95:
 171              	.LBE96:
 172              	.LBE97:
 173              		.loc 1 176 3 is_stmt 1 view .LVU56
 174 0038 50       		pushl	%eax
 175              		.cfi_def_cfa_offset 32
 176 0039 E8FCFFFF 		call	chThdRelease@PLT
 176      FF
 177              	.LVL4:
 178              		.loc 1 179 3 view .LVU57
 179              		.loc 1 180 1 is_stmt 0 view .LVU58
 180 003e 83C414   		addl	$20, %esp
 181              		.cfi_def_cfa_offset 12
 182 0041 89F0     		movl	%esi, %eax
 183 0043 5B       		popl	%ebx
 184              		.cfi_restore 3
 185              		.cfi_def_cfa_offset 8
 186 0044 5E       		popl	%esi
 187              		.cfi_restore 6
 188              		.cfi_def_cfa_offset 4
 189              	.LVL5:
 190              		.loc 1 180 1 view .LVU59
 191 0045 C3       		ret
 192              	.LVL6:
 193 0046 8DB42600 		.p2align 4,,10
 193      0000008D 
 193      7600
 194              		.p2align 3
 195              	.L5:
 196              		.cfi_def_cfa_offset 16
 197              		.cfi_offset 3, -12
 198              		.cfi_offset 6, -8
 199              		.loc 1 166 9 view .LVU60
 200 0050 31F6     		xorl	%esi, %esi
 201              	.LVL7:
 202              		.loc 1 166 9 view .LVU61
 203 0052 EBDB     		jmp	.L4
 204              		.cfi_endproc
 205              	.LFE150:
 206              		.size	chRegNextThread, .-chRegNextThread
 207              		.section	.text.chRegFindThreadByName,"ax",@progbits
 208              		.p2align 4,,15
 209              		.globl	chRegFindThreadByName
 210              		.type	chRegFindThreadByName, @function
 211              	chRegFindThreadByName:
 212              	.LVL8:
 213              	.LFB151:
 214              		.loc 1 194 51 is_stmt 1 view -0
GAS LISTING /tmp/ccNQps33.s 			page 5


 215              		.cfi_startproc
 216              		.loc 1 195 3 view .LVU63
 217              		.loc 1 198 3 view .LVU64
 218              	.LBB98:
 219              	.LBI98:
 220              		.loc 1 134 11 view .LVU65
 221              	.LBB99:
 222              		.loc 1 135 3 view .LVU66
 223              		.loc 1 137 3 view .LVU67
 224              	.LBE99:
 225              	.LBE98:
 226              		.loc 2 355 3 view .LVU68
 227              		.loc 3 364 3 view .LVU69
 228              		.loc 2 356 34 view .LVU70
 229              		.loc 2 357 20 view .LVU71
 230              	.LBB114:
 231              	.LBB112:
 232              		.loc 1 138 3 view .LVU72
 233              	.LBE112:
 234              	.LBE114:
 235              		.loc 1 194 51 is_stmt 0 view .LVU73
 236 0000 55       		pushl	%ebp
 237              		.cfi_def_cfa_offset 8
 238              		.cfi_offset 5, -8
 239 0001 57       		pushl	%edi
 240              		.cfi_def_cfa_offset 12
 241              		.cfi_offset 7, -12
 242 0002 56       		pushl	%esi
 243              		.cfi_def_cfa_offset 16
 244              		.cfi_offset 6, -16
 245 0003 53       		pushl	%ebx
 246              		.cfi_def_cfa_offset 20
 247              		.cfi_offset 3, -20
 248 0004 E8FCFFFF 		call	__x86.get_pc_thunk.bx
 248      FF
 249 0009 81C30200 		addl	$_GLOBAL_OFFSET_TABLE_, %ebx
 249      0000
 250 000f 83EC1C   		subl	$28, %esp
 251              		.cfi_def_cfa_offset 48
 252              	.LBB115:
 253              	.LBB113:
 254              		.loc 1 138 6 view .LVU74
 255 0012 8B830000 		movl	ch@GOT(%ebx), %eax
 255      0000
 256              	.LBB100:
 257              	.LBB101:
 258              	.LBB102:
 259              	.LBB103:
 260              		.loc 3 373 16 view .LVU75
 261 0018 8BB30000 		movl	port_irq_sts@GOT(%ebx), %esi
 261      0000
 262              	.LBE103:
 263              	.LBE102:
 264              	.LBE101:
 265              	.LBE100:
 266              		.loc 1 138 6 view .LVU76
 267 001e 8B6810   		movl	16(%eax), %ebp
GAS LISTING /tmp/ccNQps33.s 			page 6


 268              	.LVL9:
 269              		.loc 1 140 3 is_stmt 1 view .LVU77
 270              		.loc 1 138 6 is_stmt 0 view .LVU78
 271 0021 8944240C 		movl	%eax, 12(%esp)
 272              	.LBB110:
 273              	.LBB108:
 274              	.LBB106:
 275              	.LBB104:
 276              		.loc 3 373 16 view .LVU79
 277 0025 C7060000 		movl	$0, (%esi)
 277      0000
 278              	.LBE104:
 279              	.LBE106:
 280              	.LBE108:
 281              	.LBE110:
 282              		.loc 1 140 11 view .LVU80
 283 002b 80452201 		addb	$1, 34(%ebp)
 284              		.loc 1 142 3 is_stmt 1 view .LVU81
 285              	.LBB111:
 286              	.LBI100:
 287              		.loc 2 365 20 view .LVU82
 288              	.LBB109:
 289              		.loc 2 367 22 view .LVU83
 290              		.loc 2 368 33 view .LVU84
 291              		.loc 2 374 3 view .LVU85
 292              		.loc 2 374 3 view .LVU86
 293              		.loc 2 378 3 view .LVU87
 294              	.LBB107:
 295              	.LBI102:
 296              		.loc 3 371 20 view .LVU88
 297              	.LBB105:
 298              		.loc 3 373 3 view .LVU89
 299              	.LBE105:
 300              	.LBE107:
 301              	.LBE109:
 302              	.LBE111:
 303              		.loc 1 144 3 view .LVU90
 304              	.LVL10:
 305              		.loc 1 144 3 is_stmt 0 view .LVU91
 306 002f EB1F     		jmp	.L10
 307              	.LVL11:
 308              		.p2align 4,,10
 309 0031 8DB42600 		.p2align 3
 309      000000
 310              	.L9:
 311              		.loc 1 144 3 view .LVU92
 312              	.LBE113:
 313              	.LBE115:
 314              	.LBB116:
 315              	.LBB117:
 316              		.loc 1 170 5 is_stmt 1 view .LVU93
 317              		.loc 1 170 5 view .LVU94
 318              		.loc 1 171 5 view .LVU95
 319              		.loc 1 176 3 is_stmt 0 view .LVU96
 320 0038 83EC0C   		subl	$12, %esp
 321              		.cfi_def_cfa_offset 60
 322              		.loc 1 171 14 view .LVU97
GAS LISTING /tmp/ccNQps33.s 			page 7


 323 003b 80472201 		addb	$1, 34(%edi)
 324              		.loc 1 174 3 is_stmt 1 view .LVU98
 325              	.LBB118:
 326              	.LBI118:
 327              		.loc 2 365 20 view .LVU99
 328              	.LBB119:
 329              		.loc 2 367 22 view .LVU100
 330              		.loc 2 368 33 view .LVU101
 331              		.loc 2 374 3 view .LVU102
 332              		.loc 2 374 3 view .LVU103
 333              		.loc 2 378 3 view .LVU104
 334              	.LBB120:
 335              	.LBI120:
 336              		.loc 3 371 20 view .LVU105
 337              	.LBB121:
 338              		.loc 3 373 3 view .LVU106
 339              	.LBE121:
 340              	.LBE120:
 341              	.LBE119:
 342              	.LBE118:
 343              		.loc 1 176 3 is_stmt 0 view .LVU107
 344 003f 55       		pushl	%ebp
 345              		.cfi_def_cfa_offset 64
 346 0040 89FD     		movl	%edi, %ebp
 347              	.LVL12:
 348              	.LBB131:
 349              	.LBB128:
 350              	.LBB125:
 351              	.LBB122:
 352              		.loc 3 373 16 view .LVU108
 353 0042 C7060000 		movl	$0, (%esi)
 353      0000
 354              	.LBE122:
 355              	.LBE125:
 356              	.LBE128:
 357              	.LBE131:
 358              		.loc 1 176 3 is_stmt 1 view .LVU109
 359 0048 E8FCFFFF 		call	chThdRelease@PLT
 359      FF
 360              	.LVL13:
 361              		.loc 1 179 3 view .LVU110
 362              		.loc 1 179 3 is_stmt 0 view .LVU111
 363 004d 83C410   		addl	$16, %esp
 364              		.cfi_def_cfa_offset 48
 365              	.LVL14:
 366              	.L10:
 367              		.loc 1 179 3 view .LVU112
 368              	.LBE117:
 369              	.LBE116:
 370              		.loc 1 199 3 is_stmt 1 view .LVU113
 371              		.loc 1 200 5 view .LVU114
 372              		.file 4 "../../../os/rt/include/chregistry.h"
 373              		.loc 4 156 3 view .LVU115
 374              		.loc 1 200 9 is_stmt 0 view .LVU116
 375 0050 83EC08   		subl	$8, %esp
 376              		.cfi_def_cfa_offset 56
 377 0053 FF742438 		pushl	56(%esp)
GAS LISTING /tmp/ccNQps33.s 			page 8


 378              		.cfi_def_cfa_offset 60
 379 0057 FF7518   		pushl	24(%ebp)
 380              		.cfi_def_cfa_offset 64
 381 005a E8FCFFFF 		call	strcmp@PLT
 381      FF
 382              	.LVL15:
 383 005f 83C410   		addl	$16, %esp
 384              		.cfi_def_cfa_offset 48
 385              		.loc 1 200 8 view .LVU117
 386 0062 85C0     		testl	%eax, %eax
 387 0064 7423     		je	.L7
 388              		.loc 1 203 5 is_stmt 1 view .LVU118
 389              	.LVL16:
 390              	.LBB142:
 391              	.LBI116:
 392              		.loc 1 158 11 view .LVU119
 393              	.LBB138:
 394              		.loc 1 159 3 view .LVU120
 395              		.loc 1 161 3 view .LVU121
 396              	.LBB132:
 397              	.LBI132:
 398              		.loc 2 353 20 view .LVU122
 399              	.LBE132:
 400              	.LBE138:
 401              	.LBE142:
 402              		.loc 2 355 3 view .LVU123
 403              	.LBB143:
 404              	.LBB139:
 405              	.LBB135:
 406              	.LBB133:
 407              	.LBI133:
 408              		.loc 3 362 20 view .LVU124
 409              	.LBB134:
 410              		.loc 3 364 3 view .LVU125
 411              		.loc 3 364 16 is_stmt 0 view .LVU126
 412 0066 C7060100 		movl	$1, (%esi)
 412      0000
 413              	.LBE134:
 414              	.LBE133:
 415              	.LBE135:
 416              	.LBE139:
 417              	.LBE143:
 418              		.loc 2 356 34 is_stmt 1 view .LVU127
 419              		.loc 2 357 20 view .LVU128
 420              	.LBB144:
 421              	.LBB140:
 422              		.loc 1 162 3 view .LVU129
 423              		.loc 1 162 7 is_stmt 0 view .LVU130
 424 006c 8B7D10   		movl	16(%ebp), %edi
 425              	.LVL17:
 426              		.loc 1 164 3 is_stmt 1 view .LVU131
 427              		.loc 1 164 6 is_stmt 0 view .LVU132
 428 006f 3B7C240C 		cmpl	12(%esp), %edi
 429 0073 75C3     		jne	.L9
 430              	.LVL18:
 431              		.loc 1 174 3 is_stmt 1 view .LVU133
 432              	.LBB136:
GAS LISTING /tmp/ccNQps33.s 			page 9


 433              		.loc 2 365 20 view .LVU134
 434              	.LBB129:
 435              		.loc 2 367 22 view .LVU135
 436              		.loc 2 368 33 view .LVU136
 437              		.loc 2 374 3 view .LVU137
 438              		.loc 2 374 3 view .LVU138
 439              		.loc 2 378 3 view .LVU139
 440              	.LBB126:
 441              		.loc 3 371 20 view .LVU140
 442              	.LBB123:
 443              		.loc 3 373 3 view .LVU141
 444              	.LBE123:
 445              	.LBE126:
 446              	.LBE129:
 447              	.LBE136:
 448              		.loc 1 176 3 is_stmt 0 view .LVU142
 449 0075 83EC0C   		subl	$12, %esp
 450              		.cfi_def_cfa_offset 60
 451              	.LBB137:
 452              	.LBB130:
 453              	.LBB127:
 454              	.LBB124:
 455              		.loc 3 373 16 view .LVU143
 456 0078 C7060000 		movl	$0, (%esi)
 456      0000
 457              	.LBE124:
 458              	.LBE127:
 459              	.LBE130:
 460              	.LBE137:
 461              		.loc 1 176 3 is_stmt 1 view .LVU144
 462 007e 55       		pushl	%ebp
 463              		.cfi_def_cfa_offset 64
 464              	.LBE140:
 465              	.LBE144:
 466              		.loc 1 206 10 is_stmt 0 view .LVU145
 467 007f 31ED     		xorl	%ebp, %ebp
 468              	.LVL19:
 469              	.LBB145:
 470              	.LBB141:
 471              		.loc 1 176 3 view .LVU146
 472 0081 E8FCFFFF 		call	chThdRelease@PLT
 472      FF
 473              	.LVL20:
 474              		.loc 1 179 3 is_stmt 1 view .LVU147
 475              		.loc 1 176 3 is_stmt 0 view .LVU148
 476 0086 83C410   		addl	$16, %esp
 477              		.cfi_def_cfa_offset 48
 478              	.LVL21:
 479              	.L7:
 480              		.loc 1 176 3 view .LVU149
 481              	.LBE141:
 482              	.LBE145:
 483              		.loc 1 207 1 view .LVU150
 484 0089 83C41C   		addl	$28, %esp
 485              		.cfi_def_cfa_offset 20
 486 008c 89E8     		movl	%ebp, %eax
 487 008e 5B       		popl	%ebx
GAS LISTING /tmp/ccNQps33.s 			page 10


 488              		.cfi_restore 3
 489              		.cfi_def_cfa_offset 16
 490 008f 5E       		popl	%esi
 491              		.cfi_restore 6
 492              		.cfi_def_cfa_offset 12
 493 0090 5F       		popl	%edi
 494              		.cfi_restore 7
 495              		.cfi_def_cfa_offset 8
 496 0091 5D       		popl	%ebp
 497              		.cfi_restore 5
 498              		.cfi_def_cfa_offset 4
 499 0092 C3       		ret
 500              		.cfi_endproc
 501              	.LFE151:
 502              		.size	chRegFindThreadByName, .-chRegFindThreadByName
 503              		.section	.text.chRegFindThreadByPointer,"ax",@progbits
 504              		.p2align 4,,15
 505              		.globl	chRegFindThreadByPointer
 506              		.type	chRegFindThreadByPointer, @function
 507              	chRegFindThreadByPointer:
 508              	.LVL22:
 509              	.LFB152:
 510              		.loc 1 221 50 is_stmt 1 view -0
 511              		.cfi_startproc
 512              		.loc 1 222 3 view .LVU152
 513              		.loc 1 225 3 view .LVU153
 514              	.LBB146:
 515              	.LBI146:
 516              		.loc 1 134 11 view .LVU154
 517              	.LBB147:
 518              		.loc 1 135 3 view .LVU155
 519              		.loc 1 137 3 view .LVU156
 520              	.LBE147:
 521              	.LBE146:
 522              		.loc 2 355 3 view .LVU157
 523              		.loc 3 364 3 view .LVU158
 524              		.loc 2 356 34 view .LVU159
 525              		.loc 2 357 20 view .LVU160
 526              	.LBB159:
 527              	.LBB156:
 528              		.loc 1 138 3 view .LVU161
 529              	.LBE156:
 530              	.LBE159:
 531              		.loc 1 221 50 is_stmt 0 view .LVU162
 532 0000 55       		pushl	%ebp
 533              		.cfi_def_cfa_offset 8
 534              		.cfi_offset 5, -8
 535 0001 57       		pushl	%edi
 536              		.cfi_def_cfa_offset 12
 537              		.cfi_offset 7, -12
 538 0002 56       		pushl	%esi
 539              		.cfi_def_cfa_offset 16
 540              		.cfi_offset 6, -16
 541 0003 53       		pushl	%ebx
 542              		.cfi_def_cfa_offset 20
 543              		.cfi_offset 3, -20
 544 0004 E8FCFFFF 		call	__x86.get_pc_thunk.bx
GAS LISTING /tmp/ccNQps33.s 			page 11


 544      FF
 545 0009 81C30200 		addl	$_GLOBAL_OFFSET_TABLE_, %ebx
 545      0000
 546 000f 83EC0C   		subl	$12, %esp
 547              		.cfi_def_cfa_offset 32
 548              	.LBB160:
 549              	.LBB157:
 550              		.loc 1 138 6 view .LVU163
 551 0012 8BBB0000 		movl	ch@GOT(%ebx), %edi
 551      0000
 552 0018 8B4F10   		movl	16(%edi), %ecx
 553              	.LVL23:
 554              		.loc 1 140 3 is_stmt 1 view .LVU164
 555              		.loc 1 140 11 is_stmt 0 view .LVU165
 556 001b 80412201 		addb	$1, 34(%ecx)
 557              		.loc 1 142 3 is_stmt 1 view .LVU166
 558              	.LBB148:
 559              	.LBI148:
 560              		.loc 2 365 20 view .LVU167
 561              	.LBB149:
 562              		.loc 2 367 22 view .LVU168
 563              		.loc 2 368 33 view .LVU169
 564              		.loc 2 374 3 view .LVU170
 565              		.loc 2 374 3 view .LVU171
 566              		.loc 2 378 3 view .LVU172
 567              	.LBB150:
 568              	.LBI150:
 569              		.loc 3 371 20 view .LVU173
 570              	.LBB151:
 571              		.loc 3 373 3 view .LVU174
 572              	.LBE151:
 573              	.LBE150:
 574              	.LBE149:
 575              	.LBE148:
 576              		.loc 1 144 3 view .LVU175
 577              	.LVL24:
 578              		.loc 1 144 3 is_stmt 0 view .LVU176
 579              	.LBE157:
 580              	.LBE160:
 581              		.loc 1 226 3 is_stmt 1 view .LVU177
 582              		.loc 1 227 5 view .LVU178
 583              		.loc 1 227 8 is_stmt 0 view .LVU179
 584 001f 394C2420 		cmpl	%ecx, 32(%esp)
 585 0023 746F     		je	.L24
 586              		.loc 1 230 5 is_stmt 1 view .LVU180
 587              	.LVL25:
 588              	.LBB161:
 589              	.LBI161:
 590              		.loc 1 158 11 view .LVU181
 591              	.LBB162:
 592              		.loc 1 159 3 view .LVU182
 593              		.loc 1 161 3 view .LVU183
 594              	.LBB163:
 595              	.LBI163:
 596              		.loc 2 353 20 view .LVU184
 597              	.LBE163:
 598              	.LBE162:
GAS LISTING /tmp/ccNQps33.s 			page 12


 599              	.LBE161:
 600              		.loc 2 355 3 view .LVU185
 601              	.LBB200:
 602              	.LBB193:
 603              	.LBB172:
 604              	.LBB164:
 605              	.LBI164:
 606              		.loc 3 362 20 view .LVU186
 607              	.LBB165:
 608              		.loc 3 364 3 view .LVU187
 609              		.loc 3 364 16 is_stmt 0 view .LVU188
 610 0025 8BAB0000 		movl	port_irq_sts@GOT(%ebx), %ebp
 610      0000
 611              	.LBE165:
 612              	.LBE164:
 613              	.LBE172:
 614              		.loc 1 162 7 view .LVU189
 615 002b 8B7110   		movl	16(%ecx), %esi
 616              	.LBB173:
 617              	.LBB169:
 618              	.LBB166:
 619              		.loc 3 364 16 view .LVU190
 620 002e C7450001 		movl	$1, 0(%ebp)
 620      000000
 621              	.LBE166:
 622              	.LBE169:
 623              	.LBE173:
 624              	.LBE193:
 625              	.LBE200:
 626              		.loc 2 356 34 is_stmt 1 view .LVU191
 627              		.loc 2 357 20 view .LVU192
 628              	.LBB201:
 629              	.LBB194:
 630              		.loc 1 162 3 view .LVU193
 631              	.LVL26:
 632              		.loc 1 164 3 view .LVU194
 633              		.loc 1 164 6 is_stmt 0 view .LVU195
 634 0035 39FE     		cmpl	%edi, %esi
 635 0037 7509     		jne	.L19
 636 0039 EB55     		jmp	.L25
 637              	.LVL27:
 638 003b 8D742600 		.p2align 4,,10
 638      90
 639              		.p2align 3
 640              	.L22:
 641              		.loc 1 164 6 view .LVU196
 642 0040 89C6     		movl	%eax, %esi
 643              	.LVL28:
 644              	.L19:
 645              		.loc 1 170 5 is_stmt 1 view .LVU197
 646              		.loc 1 170 5 view .LVU198
 647              		.loc 1 171 5 view .LVU199
 648              		.loc 1 176 3 is_stmt 0 view .LVU200
 649 0042 83EC0C   		subl	$12, %esp
 650              		.cfi_def_cfa_offset 44
 651              		.loc 1 171 14 view .LVU201
 652 0045 80462201 		addb	$1, 34(%esi)
GAS LISTING /tmp/ccNQps33.s 			page 13


 653              		.loc 1 174 3 is_stmt 1 view .LVU202
 654              	.LBB174:
 655              	.LBI174:
 656              		.loc 2 365 20 view .LVU203
 657              	.LBB175:
 658              		.loc 2 367 22 view .LVU204
 659              		.loc 2 368 33 view .LVU205
 660              		.loc 2 374 3 view .LVU206
 661              		.loc 2 374 3 view .LVU207
 662              		.loc 2 378 3 view .LVU208
 663              	.LBB176:
 664              	.LBI176:
 665              		.loc 3 371 20 view .LVU209
 666              	.LBB177:
 667              		.loc 3 373 3 view .LVU210
 668              	.LBE177:
 669              	.LBE176:
 670              	.LBE175:
 671              	.LBE174:
 672              		.loc 1 176 3 is_stmt 0 view .LVU211
 673 0049 51       		pushl	%ecx
 674              		.cfi_def_cfa_offset 48
 675              	.LBB187:
 676              	.LBB184:
 677              	.LBB181:
 678              	.LBB178:
 679              		.loc 3 373 16 view .LVU212
 680 004a C7450000 		movl	$0, 0(%ebp)
 680      000000
 681              	.LBE178:
 682              	.LBE181:
 683              	.LBE184:
 684              	.LBE187:
 685              		.loc 1 176 3 is_stmt 1 view .LVU213
 686 0051 E8FCFFFF 		call	chThdRelease@PLT
 686      FF
 687              	.LVL29:
 688              		.loc 1 179 3 view .LVU214
 689              		.loc 1 179 3 is_stmt 0 view .LVU215
 690              	.LBE194:
 691              	.LBE201:
 692              		.loc 1 226 3 is_stmt 1 view .LVU216
 693              		.loc 1 227 5 view .LVU217
 694              		.loc 1 227 8 is_stmt 0 view .LVU218
 695 0056 83C410   		addl	$16, %esp
 696              		.cfi_def_cfa_offset 32
 697 0059 39742420 		cmpl	%esi, 32(%esp)
 698 005d 7425     		je	.L15
 699              		.loc 1 230 5 is_stmt 1 view .LVU219
 700              	.LVL30:
 701              	.LBB202:
 702              		.loc 1 158 11 view .LVU220
 703              	.LBB195:
 704              		.loc 1 159 3 view .LVU221
 705              		.loc 1 161 3 view .LVU222
 706              	.LBB188:
 707              		.loc 2 353 20 view .LVU223
GAS LISTING /tmp/ccNQps33.s 			page 14


 708              	.LBE188:
 709              	.LBE195:
 710              	.LBE202:
 711              		.loc 2 355 3 view .LVU224
 712              	.LBB203:
 713              	.LBB196:
 714              	.LBB189:
 715              	.LBB170:
 716              		.loc 3 362 20 view .LVU225
 717              	.LBB167:
 718              		.loc 3 364 3 view .LVU226
 719              	.LBE167:
 720              	.LBE170:
 721              	.LBE189:
 722              		.loc 1 162 7 is_stmt 0 view .LVU227
 723 005f 8B4610   		movl	16(%esi), %eax
 724              	.LBB190:
 725              	.LBB171:
 726              	.LBB168:
 727              		.loc 3 364 16 view .LVU228
 728 0062 C7450001 		movl	$1, 0(%ebp)
 728      000000
 729              	.LBE168:
 730              	.LBE171:
 731              	.LBE190:
 732              	.LBE196:
 733              	.LBE203:
 734              		.loc 2 356 34 is_stmt 1 view .LVU229
 735              		.loc 2 357 20 view .LVU230
 736              	.LBB204:
 737              	.LBB197:
 738              		.loc 1 162 3 view .LVU231
 739              	.LVL31:
 740              		.loc 1 164 3 view .LVU232
 741 0069 89F1     		movl	%esi, %ecx
 742              		.loc 1 164 6 is_stmt 0 view .LVU233
 743 006b 39F8     		cmpl	%edi, %eax
 744 006d 75D1     		jne	.L22
 745              	.LVL32:
 746              	.L18:
 747              		.loc 1 174 3 is_stmt 1 view .LVU234
 748              	.LBB191:
 749              		.loc 2 365 20 view .LVU235
 750              	.LBB185:
 751              		.loc 2 367 22 view .LVU236
 752              		.loc 2 368 33 view .LVU237
 753              		.loc 2 374 3 view .LVU238
 754              		.loc 2 374 3 view .LVU239
 755              		.loc 2 378 3 view .LVU240
 756              	.LBB182:
 757              		.loc 3 371 20 view .LVU241
 758              	.LBB179:
 759              		.loc 3 373 3 view .LVU242
 760              	.LBE179:
 761              	.LBE182:
 762              	.LBE185:
 763              	.LBE191:
GAS LISTING /tmp/ccNQps33.s 			page 15


 764              		.loc 1 176 3 is_stmt 0 view .LVU243
 765 006f 83EC0C   		subl	$12, %esp
 766              		.cfi_def_cfa_offset 44
 767              	.LBB192:
 768              	.LBB186:
 769              	.LBB183:
 770              	.LBB180:
 771              		.loc 3 373 16 view .LVU244
 772 0072 C7450000 		movl	$0, 0(%ebp)
 772      000000
 773              	.LBE180:
 774              	.LBE183:
 775              	.LBE186:
 776              	.LBE192:
 777              		.loc 1 176 3 is_stmt 1 view .LVU245
 778 0079 56       		pushl	%esi
 779              		.cfi_def_cfa_offset 48
 780              	.LBE197:
 781              	.LBE204:
 782              		.loc 1 233 10 is_stmt 0 view .LVU246
 783 007a 31F6     		xorl	%esi, %esi
 784              	.LBB205:
 785              	.LBB198:
 786              		.loc 1 176 3 view .LVU247
 787 007c E8FCFFFF 		call	chThdRelease@PLT
 787      FF
 788              	.LVL33:
 789              		.loc 1 179 3 is_stmt 1 view .LVU248
 790              		.loc 1 176 3 is_stmt 0 view .LVU249
 791 0081 83C410   		addl	$16, %esp
 792              		.cfi_def_cfa_offset 32
 793              	.LVL34:
 794              	.L15:
 795              		.loc 1 176 3 view .LVU250
 796              	.LBE198:
 797              	.LBE205:
 798              		.loc 1 234 1 view .LVU251
 799 0084 83C40C   		addl	$12, %esp
 800              		.cfi_remember_state
 801              		.cfi_def_cfa_offset 20
 802 0087 89F0     		movl	%esi, %eax
 803 0089 5B       		popl	%ebx
 804              		.cfi_restore 3
 805              		.cfi_def_cfa_offset 16
 806 008a 5E       		popl	%esi
 807              		.cfi_restore 6
 808              		.cfi_def_cfa_offset 12
 809 008b 5F       		popl	%edi
 810              		.cfi_restore 7
 811              		.cfi_def_cfa_offset 8
 812 008c 5D       		popl	%ebp
 813              		.cfi_restore 5
 814              		.cfi_def_cfa_offset 4
 815 008d C3       		ret
 816              	.LVL35:
 817 008e 6690     		.p2align 4,,10
 818              		.p2align 3
GAS LISTING /tmp/ccNQps33.s 			page 16


 819              	.L25:
 820              		.cfi_restore_state
 821              	.LBB206:
 822              	.LBB199:
 823              		.loc 1 164 6 view .LVU252
 824 0090 89CE     		movl	%ecx, %esi
 825              	.LVL36:
 826              		.loc 1 164 6 view .LVU253
 827 0092 EBDB     		jmp	.L18
 828              	.LVL37:
 829              	.L24:
 830              		.loc 1 164 6 view .LVU254
 831              	.LBE199:
 832              	.LBE206:
 833              	.LBB207:
 834              	.LBB158:
 835              	.LBB155:
 836              	.LBB154:
 837              	.LBB153:
 838              	.LBB152:
 839              		.loc 3 373 16 view .LVU255
 840 0094 8B830000 		movl	port_irq_sts@GOT(%ebx), %eax
 840      0000
 841 009a 8B742420 		movl	32(%esp), %esi
 842 009e C7000000 		movl	$0, (%eax)
 842      0000
 843 00a4 EBDE     		jmp	.L15
 844              	.LBE152:
 845              	.LBE153:
 846              	.LBE154:
 847              	.LBE155:
 848              	.LBE158:
 849              	.LBE207:
 850              		.cfi_endproc
 851              	.LFE152:
 852              		.size	chRegFindThreadByPointer, .-chRegFindThreadByPointer
 853              		.section	.text.chRegFindThreadByWorkingArea,"ax",@progbits
 854              		.p2align 4,,15
 855              		.globl	chRegFindThreadByWorkingArea
 856              		.type	chRegFindThreadByWorkingArea, @function
 857              	chRegFindThreadByWorkingArea:
 858              	.LVL38:
 859              	.LFB153:
 860              		.loc 1 250 56 is_stmt 1 view -0
 861              		.cfi_startproc
 862              		.loc 1 251 3 view .LVU257
 863              		.loc 1 254 3 view .LVU258
 864              	.LBB208:
 865              	.LBI208:
 866              		.loc 1 134 11 view .LVU259
 867              	.LBB209:
 868              		.loc 1 135 3 view .LVU260
 869              		.loc 1 137 3 view .LVU261
 870              	.LBE209:
 871              	.LBE208:
 872              		.loc 2 355 3 view .LVU262
 873              		.loc 3 364 3 view .LVU263
GAS LISTING /tmp/ccNQps33.s 			page 17


 874              		.loc 2 356 34 view .LVU264
 875              		.loc 2 357 20 view .LVU265
 876              	.LBB224:
 877              	.LBB222:
 878              		.loc 1 138 3 view .LVU266
 879              	.LBE222:
 880              	.LBE224:
 881              		.loc 1 250 56 is_stmt 0 view .LVU267
 882 0000 55       		pushl	%ebp
 883              		.cfi_def_cfa_offset 8
 884              		.cfi_offset 5, -8
 885 0001 57       		pushl	%edi
 886              		.cfi_def_cfa_offset 12
 887              		.cfi_offset 7, -12
 888 0002 56       		pushl	%esi
 889              		.cfi_def_cfa_offset 16
 890              		.cfi_offset 6, -16
 891 0003 53       		pushl	%ebx
 892              		.cfi_def_cfa_offset 20
 893              		.cfi_offset 3, -20
 894 0004 E8FCFFFF 		call	__x86.get_pc_thunk.bx
 894      FF
 895 0009 81C30200 		addl	$_GLOBAL_OFFSET_TABLE_, %ebx
 895      0000
 896 000f 83EC0C   		subl	$12, %esp
 897              		.cfi_def_cfa_offset 32
 898              	.LBB225:
 899              	.LBB223:
 900              		.loc 1 138 6 view .LVU268
 901 0012 8BBB0000 		movl	ch@GOT(%ebx), %edi
 901      0000
 902              	.LBB210:
 903              	.LBB211:
 904              	.LBB212:
 905              	.LBB213:
 906              		.loc 3 373 16 view .LVU269
 907 0018 8BAB0000 		movl	port_irq_sts@GOT(%ebx), %ebp
 907      0000
 908              	.LBE213:
 909              	.LBE212:
 910              	.LBE211:
 911              	.LBE210:
 912              		.loc 1 138 6 view .LVU270
 913 001e 8B4F10   		movl	16(%edi), %ecx
 914              	.LVL39:
 915              		.loc 1 140 3 is_stmt 1 view .LVU271
 916              	.LBB220:
 917              	.LBB218:
 918              	.LBB216:
 919              	.LBB214:
 920              		.loc 3 373 16 is_stmt 0 view .LVU272
 921 0021 C7450000 		movl	$0, 0(%ebp)
 921      000000
 922              	.LBE214:
 923              	.LBE216:
 924              	.LBE218:
 925              	.LBE220:
GAS LISTING /tmp/ccNQps33.s 			page 18


 926              		.loc 1 140 11 view .LVU273
 927 0028 80412201 		addb	$1, 34(%ecx)
 928              		.loc 1 142 3 is_stmt 1 view .LVU274
 929              	.LBB221:
 930              	.LBI210:
 931              		.loc 2 365 20 view .LVU275
 932              	.LBB219:
 933              		.loc 2 367 22 view .LVU276
 934              		.loc 2 368 33 view .LVU277
 935              		.loc 2 374 3 view .LVU278
 936              		.loc 2 374 3 view .LVU279
 937              		.loc 2 378 3 view .LVU280
 938              	.LBB217:
 939              	.LBI212:
 940              		.loc 3 371 20 view .LVU281
 941              	.LBB215:
 942              		.loc 3 373 3 view .LVU282
 943              	.LBE215:
 944              	.LBE217:
 945              	.LBE219:
 946              	.LBE221:
 947              		.loc 1 144 3 view .LVU283
 948              	.LVL40:
 949              		.loc 1 144 3 is_stmt 0 view .LVU284
 950              	.LBE223:
 951              	.LBE225:
 952              		.loc 1 255 3 is_stmt 1 view .LVU285
 953              		.loc 1 256 5 view .LVU286
 954              		.file 5 "../../../os/rt/include/chthreads.h"
 955              		.loc 5 319 3 view .LVU287
 956              		.loc 1 256 8 is_stmt 0 view .LVU288
 957 002c 8B411C   		movl	28(%ecx), %eax
 958 002f 39442420 		cmpl	%eax, 32(%esp)
 959 0033 746F     		je	.L31
 960              		.loc 1 259 5 is_stmt 1 view .LVU289
 961              	.LVL41:
 962              	.LBB226:
 963              	.LBI226:
 964              		.loc 1 158 11 view .LVU290
 965              	.LBB227:
 966              		.loc 1 159 3 view .LVU291
 967              		.loc 1 161 3 view .LVU292
 968              	.LBB228:
 969              	.LBI228:
 970              		.loc 2 353 20 view .LVU293
 971              	.LBE228:
 972              	.LBE227:
 973              	.LBE226:
 974              		.loc 2 355 3 view .LVU294
 975              	.LBB265:
 976              	.LBB258:
 977              	.LBB237:
 978              	.LBB229:
 979              	.LBI229:
 980              		.loc 3 362 20 view .LVU295
 981              	.LBB230:
 982              		.loc 3 364 3 view .LVU296
GAS LISTING /tmp/ccNQps33.s 			page 19


 983              	.LBE230:
 984              	.LBE229:
 985              	.LBE237:
 986              		.loc 1 162 7 is_stmt 0 view .LVU297
 987 0035 8B7110   		movl	16(%ecx), %esi
 988              	.LBB238:
 989              	.LBB234:
 990              	.LBB231:
 991              		.loc 3 364 16 view .LVU298
 992 0038 C7450001 		movl	$1, 0(%ebp)
 992      000000
 993              	.LBE231:
 994              	.LBE234:
 995              	.LBE238:
 996              	.LBE258:
 997              	.LBE265:
 998              		.loc 2 356 34 is_stmt 1 view .LVU299
 999              		.loc 2 357 20 view .LVU300
 1000              	.LBB266:
 1001              	.LBB259:
 1002              		.loc 1 162 3 view .LVU301
 1003              	.LVL42:
 1004              		.loc 1 164 3 view .LVU302
 1005              		.loc 1 164 6 is_stmt 0 view .LVU303
 1006 003f 39FE     		cmpl	%edi, %esi
 1007 0041 7507     		jne	.L29
 1008 0043 EB5B     		jmp	.L35
 1009              	.LVL43:
 1010              		.p2align 4,,10
 1011 0045 8D7600   		.p2align 3
 1012              	.L33:
 1013              		.loc 1 164 6 view .LVU304
 1014 0048 89C6     		movl	%eax, %esi
 1015              	.LVL44:
 1016              	.L29:
 1017              		.loc 1 170 5 is_stmt 1 view .LVU305
 1018              		.loc 1 170 5 view .LVU306
 1019              		.loc 1 171 5 view .LVU307
 1020              		.loc 1 176 3 is_stmt 0 view .LVU308
 1021 004a 83EC0C   		subl	$12, %esp
 1022              		.cfi_def_cfa_offset 44
 1023              		.loc 1 171 14 view .LVU309
 1024 004d 80462201 		addb	$1, 34(%esi)
 1025              		.loc 1 174 3 is_stmt 1 view .LVU310
 1026              	.LBB239:
 1027              	.LBI239:
 1028              		.loc 2 365 20 view .LVU311
 1029              	.LBB240:
 1030              		.loc 2 367 22 view .LVU312
 1031              		.loc 2 368 33 view .LVU313
 1032              		.loc 2 374 3 view .LVU314
 1033              		.loc 2 374 3 view .LVU315
 1034              		.loc 2 378 3 view .LVU316
 1035              	.LBB241:
 1036              	.LBI241:
 1037              		.loc 3 371 20 view .LVU317
 1038              	.LBB242:
GAS LISTING /tmp/ccNQps33.s 			page 20


 1039              		.loc 3 373 3 view .LVU318
 1040              	.LBE242:
 1041              	.LBE241:
 1042              	.LBE240:
 1043              	.LBE239:
 1044              		.loc 1 176 3 is_stmt 0 view .LVU319
 1045 0051 51       		pushl	%ecx
 1046              		.cfi_def_cfa_offset 48
 1047              	.LBB252:
 1048              	.LBB249:
 1049              	.LBB246:
 1050              	.LBB243:
 1051              		.loc 3 373 16 view .LVU320
 1052 0052 C7450000 		movl	$0, 0(%ebp)
 1052      000000
 1053              	.LBE243:
 1054              	.LBE246:
 1055              	.LBE249:
 1056              	.LBE252:
 1057              		.loc 1 176 3 is_stmt 1 view .LVU321
 1058 0059 E8FCFFFF 		call	chThdRelease@PLT
 1058      FF
 1059              	.LVL45:
 1060              		.loc 1 179 3 view .LVU322
 1061              		.loc 1 179 3 is_stmt 0 view .LVU323
 1062              	.LBE259:
 1063              	.LBE266:
 1064              		.loc 1 255 3 is_stmt 1 view .LVU324
 1065              		.loc 1 256 5 view .LVU325
 1066              		.loc 5 319 3 view .LVU326
 1067              		.loc 1 256 8 is_stmt 0 view .LVU327
 1068 005e 83C410   		addl	$16, %esp
 1069              		.cfi_def_cfa_offset 32
 1070 0061 8B461C   		movl	28(%esi), %eax
 1071 0064 39442420 		cmpl	%eax, 32(%esp)
 1072 0068 7425     		je	.L26
 1073              		.loc 1 259 5 is_stmt 1 view .LVU328
 1074              	.LVL46:
 1075              	.LBB267:
 1076              		.loc 1 158 11 view .LVU329
 1077              	.LBB260:
 1078              		.loc 1 159 3 view .LVU330
 1079              		.loc 1 161 3 view .LVU331
 1080              	.LBB253:
 1081              		.loc 2 353 20 view .LVU332
 1082              	.LBE253:
 1083              	.LBE260:
 1084              	.LBE267:
 1085              		.loc 2 355 3 view .LVU333
 1086              	.LBB268:
 1087              	.LBB261:
 1088              	.LBB254:
 1089              	.LBB235:
 1090              		.loc 3 362 20 view .LVU334
 1091              	.LBB232:
 1092              		.loc 3 364 3 view .LVU335
 1093              	.LBE232:
GAS LISTING /tmp/ccNQps33.s 			page 21


 1094              	.LBE235:
 1095              	.LBE254:
 1096              		.loc 1 162 7 is_stmt 0 view .LVU336
 1097 006a 8B4610   		movl	16(%esi), %eax
 1098              	.LBB255:
 1099              	.LBB236:
 1100              	.LBB233:
 1101              		.loc 3 364 16 view .LVU337
 1102 006d C7450001 		movl	$1, 0(%ebp)
 1102      000000
 1103              	.LBE233:
 1104              	.LBE236:
 1105              	.LBE255:
 1106              	.LBE261:
 1107              	.LBE268:
 1108              		.loc 2 356 34 is_stmt 1 view .LVU338
 1109              		.loc 2 357 20 view .LVU339
 1110              	.LBB269:
 1111              	.LBB262:
 1112              		.loc 1 162 3 view .LVU340
 1113              	.LVL47:
 1114              		.loc 1 164 3 view .LVU341
 1115 0074 89F1     		movl	%esi, %ecx
 1116              		.loc 1 164 6 is_stmt 0 view .LVU342
 1117 0076 39F8     		cmpl	%edi, %eax
 1118 0078 75CE     		jne	.L33
 1119              	.LVL48:
 1120              	.L28:
 1121              		.loc 1 174 3 is_stmt 1 view .LVU343
 1122              	.LBB256:
 1123              		.loc 2 365 20 view .LVU344
 1124              	.LBB250:
 1125              		.loc 2 367 22 view .LVU345
 1126              		.loc 2 368 33 view .LVU346
 1127              		.loc 2 374 3 view .LVU347
 1128              		.loc 2 374 3 view .LVU348
 1129              		.loc 2 378 3 view .LVU349
 1130              	.LBB247:
 1131              		.loc 3 371 20 view .LVU350
 1132              	.LBB244:
 1133              		.loc 3 373 3 view .LVU351
 1134              	.LBE244:
 1135              	.LBE247:
 1136              	.LBE250:
 1137              	.LBE256:
 1138              		.loc 1 176 3 is_stmt 0 view .LVU352
 1139 007a 83EC0C   		subl	$12, %esp
 1140              		.cfi_def_cfa_offset 44
 1141              	.LBB257:
 1142              	.LBB251:
 1143              	.LBB248:
 1144              	.LBB245:
 1145              		.loc 3 373 16 view .LVU353
 1146 007d C7450000 		movl	$0, 0(%ebp)
 1146      000000
 1147              	.LBE245:
 1148              	.LBE248:
GAS LISTING /tmp/ccNQps33.s 			page 22


 1149              	.LBE251:
 1150              	.LBE257:
 1151              		.loc 1 176 3 is_stmt 1 view .LVU354
 1152 0084 56       		pushl	%esi
 1153              		.cfi_def_cfa_offset 48
 1154              	.LBE262:
 1155              	.LBE269:
 1156              		.loc 1 262 10 is_stmt 0 view .LVU355
 1157 0085 31F6     		xorl	%esi, %esi
 1158              	.LBB270:
 1159              	.LBB263:
 1160              		.loc 1 176 3 view .LVU356
 1161 0087 E8FCFFFF 		call	chThdRelease@PLT
 1161      FF
 1162              	.LVL49:
 1163              		.loc 1 179 3 is_stmt 1 view .LVU357
 1164              		.loc 1 176 3 is_stmt 0 view .LVU358
 1165 008c 83C410   		addl	$16, %esp
 1166              		.cfi_def_cfa_offset 32
 1167              	.LVL50:
 1168              	.L26:
 1169              		.loc 1 176 3 view .LVU359
 1170              	.LBE263:
 1171              	.LBE270:
 1172              		.loc 1 263 1 view .LVU360
 1173 008f 83C40C   		addl	$12, %esp
 1174              		.cfi_remember_state
 1175              		.cfi_def_cfa_offset 20
 1176 0092 89F0     		movl	%esi, %eax
 1177 0094 5B       		popl	%ebx
 1178              		.cfi_restore 3
 1179              		.cfi_def_cfa_offset 16
 1180 0095 5E       		popl	%esi
 1181              		.cfi_restore 6
 1182              		.cfi_def_cfa_offset 12
 1183 0096 5F       		popl	%edi
 1184              		.cfi_restore 7
 1185              		.cfi_def_cfa_offset 8
 1186 0097 5D       		popl	%ebp
 1187              		.cfi_restore 5
 1188              		.cfi_def_cfa_offset 4
 1189 0098 C3       		ret
 1190              	.LVL51:
 1191 0099 8DB42600 		.p2align 4,,10
 1191      000000
 1192              		.p2align 3
 1193              	.L35:
 1194              		.cfi_restore_state
 1195              	.LBB271:
 1196              	.LBB264:
 1197              		.loc 1 164 6 view .LVU361
 1198 00a0 89CE     		movl	%ecx, %esi
 1199              	.LVL52:
 1200              		.loc 1 164 6 view .LVU362
 1201 00a2 EBD6     		jmp	.L28
 1202              	.LVL53:
 1203              	.L31:
GAS LISTING /tmp/ccNQps33.s 			page 23


 1204              		.loc 1 164 6 view .LVU363
 1205              	.LBE264:
 1206              	.LBE271:
 1207              		.loc 1 256 8 view .LVU364
 1208 00a4 89CE     		movl	%ecx, %esi
 1209 00a6 EBE7     		jmp	.L26
 1210              		.cfi_endproc
 1211              	.LFE153:
 1212              		.size	chRegFindThreadByWorkingArea, .-chRegFindThreadByWorkingArea
 1213              		.globl	ch_debug
 1214              		.section	.rodata.ch_debug,"a"
 1215              		.align 4
 1216              		.type	ch_debug, @object
 1217              		.size	ch_debug, 22
 1218              	ch_debug:
 1219 0000 6D       		.byte	109
 1220 0001 61       		.byte	97
 1221 0002 69       		.byte	105
 1222 0003 6E       		.byte	110
 1223 0004 00       		.byte	0
 1224 0005 16       		.byte	22
 1225 0006 0028     		.value	10240
 1226 0008 04       		.byte	4
 1227 0009 02       		.byte	2
 1228 000a 44       		.byte	68
 1229 000b 08       		.byte	8
 1230 000c 0C       		.byte	12
 1231 000d 10       		.byte	16
 1232 000e 14       		.byte	20
 1233 000f 18       		.byte	24
 1234 0010 1C       		.byte	28
 1235 0011 20       		.byte	32
 1236 0012 21       		.byte	33
 1237 0013 22       		.byte	34
 1238 0014 00       		.byte	0
 1239 0015 00       		.byte	0
 1240              		.section	.text.__x86.get_pc_thunk.dx,"axG",@progbits,__x86.get_pc_thunk.dx,comdat
 1241              		.globl	__x86.get_pc_thunk.dx
 1242              		.hidden	__x86.get_pc_thunk.dx
 1243              		.type	__x86.get_pc_thunk.dx, @function
 1244              	__x86.get_pc_thunk.dx:
 1245              	.LFB156:
 1246              		.cfi_startproc
 1247 0000 8B1424   		movl	(%esp), %edx
 1248 0003 C3       		ret
 1249              		.cfi_endproc
 1250              	.LFE156:
 1251              		.section	.text.__x86.get_pc_thunk.bx,"axG",@progbits,__x86.get_pc_thunk.bx,comdat
 1252              		.globl	__x86.get_pc_thunk.bx
 1253              		.hidden	__x86.get_pc_thunk.bx
 1254              		.type	__x86.get_pc_thunk.bx, @function
 1255              	__x86.get_pc_thunk.bx:
 1256              	.LFB157:
 1257              		.cfi_startproc
 1258 0000 8B1C24   		movl	(%esp), %ebx
 1259 0003 C3       		ret
 1260              		.cfi_endproc
GAS LISTING /tmp/ccNQps33.s 			page 24


 1261              	.LFE157:
 1262              		.text
 1263              	.Letext0:
 1264              		.file 6 "/usr/lib/gcc/x86_64-linux-gnu/8/include/stddef.h"
 1265              		.file 7 "/usr/include/i386-linux-gnu/bits/types.h"
 1266              		.file 8 "/usr/include/i386-linux-gnu/bits/stdint-intn.h"
 1267              		.file 9 "/usr/include/i386-linux-gnu/bits/stdint-uintn.h"
 1268              		.file 10 "../../../os/common/ports/SIMIA32/compilers/GCC/chtypes.h"
 1269              		.file 11 "../../../os/rt/include/chsystypes.h"
 1270              		.file 12 "../../../os/rt/include/chschd.h"
 1271              		.file 13 "../../../os/rt/include/chtime.h"
 1272              		.file 14 "../../../os/rt/include/chtm.h"
 1273              		.file 15 "../../../os/rt/include/chsem.h"
 1274              		.file 16 "../../../os/rt/include/chmtx.h"
 1275              		.file 17 "../../../os/common/oslib/include/chmemcore.h"
 1276              		.file 18 "../../../os/common/oslib/include/chmempools.h"
 1277              		.file 19 "../../../os/common/oslib/include/chfactory.h"
 1278              		.file 20 "/usr/include/string.h"
 5004              		.section	.note.GNU-stack,"",@progbits
GAS LISTING /tmp/ccNQps33.s 			page 96

