GAS LISTING /tmp/ccaWtcpU.s 			page 1


   1              		.file	"chschd.c"
   2              		.text
   3              	.Ltext0:
   4              		.section	.text.wakeup,"ax",@progbits
   5              		.p2align 4,,15
   6              		.type	wakeup, @function
   7              	wakeup:
   8              	.LVL0:
   9              	.LFB142:
  10              		.file 1 "../../../os/rt/src/chschd.c"
  11              		.loc 1 319 29 view -0
  12              		.cfi_startproc
  13              		.loc 1 320 3 view .LVU1
  14 0000 E8FCFFFF 		call	__x86.get_pc_thunk.ax
  14      FF
  15 0005 05010000 		addl	$_GLOBAL_OFFSET_TABLE_, %eax
  15      00
  16              		.loc 1 319 29 is_stmt 0 view .LVU2
  17 000a 56       		pushl	%esi
  18              		.cfi_def_cfa_offset 8
  19              		.cfi_offset 6, -8
  20 000b 53       		pushl	%ebx
  21              		.cfi_def_cfa_offset 12
  22              		.cfi_offset 3, -12
  23              		.loc 1 319 29 view .LVU3
  24 000c 8B54240C 		movl	12(%esp), %edx
  25              	.LVL1:
  26              		.loc 1 322 3 is_stmt 1 view .LVU4
  27              	.LBB93:
  28              	.LBI93:
  29              		.file 2 "../../../os/rt/include/chsys.h"
  30              		.loc 2 393 20 view .LVU5
  31              	.LBE93:
  32              		.loc 2 395 3 view .LVU6
  33              	.LBB98:
  34              	.LBB94:
  35              	.LBI94:
  36              		.file 3 "../../../os/common/ports/SIMIA32/chcore.h"
  37              		.loc 3 381 20 view .LVU7
  38              	.LBB95:
  39              		.loc 3 383 3 view .LVU8
  40              	.LBE95:
  41              	.LBE94:
  42              	.LBE98:
  43              		.loc 1 323 3 is_stmt 0 view .LVU9
  44 0010 807A2007 		cmpb	$7, 32(%edx)
  45              	.LBB99:
  46              	.LBB97:
  47              	.LBB96:
  48              		.loc 3 383 16 view .LVU10
  49 0014 8B980000 		movl	port_irq_sts@GOT(%eax), %ebx
  49      0000
  50 001a C7030100 		movl	$1, (%ebx)
  50      0000
  51              	.LBE96:
  52              	.LBE97:
  53              	.LBE99:
GAS LISTING /tmp/ccaWtcpU.s 			page 2


  54              		.loc 2 396 34 is_stmt 1 view .LVU11
  55              		.loc 2 397 29 view .LVU12
  56              		.loc 1 323 3 view .LVU13
  57 0020 7727     		ja	.L2
  58 0022 0FB64A20 		movzbl	32(%edx), %ecx
  59 0026 8BB48800 		movl	.L4@GOTOFF(%eax,%ecx,4), %esi
  59      000000
  60 002d 01C6     		addl	%eax, %esi
  61 002f FFE6     		jmp	*%esi
  62              		.section	.rodata.wakeup,"a",@progbits
  63              		.align 4
  64              		.align 4
  65              	.L4:
  66 0000 00000000 		.long	.L12@GOTOFF
  67 0004 00000000 		.long	.L2@GOTOFF
  68 0008 00000000 		.long	.L2@GOTOFF
  69 000c 00000000 		.long	.L6@GOTOFF
  70 0010 00000000 		.long	.L3@GOTOFF
  71 0014 00000000 		.long	.L5@GOTOFF
  72 0018 00000000 		.long	.L2@GOTOFF
  73 001c 00000000 		.long	.L3@GOTOFF
  74              		.section	.text.wakeup
  75              		.p2align 4,,10
  76 0031 8DB42600 		.p2align 3
  76      000000
  77              	.L5:
  78              		.loc 1 334 5 view .LVU14
  79              		.loc 1 334 27 is_stmt 0 view .LVU15
  80 0038 8B4A24   		movl	36(%edx), %ecx
  81              	.LBB100:
  82              	.LBI100:
  83              		.file 4 "../../../os/rt/include/chsem.h"
  84              		.loc 4 134 20 is_stmt 1 view .LVU16
  85              	.LVL2:
  86              	.LBB101:
  87              		.loc 4 136 21 view .LVU17
  88              		.loc 4 138 3 view .LVU18
  89              		.loc 4 138 10 is_stmt 0 view .LVU19
  90 003b 83410801 		addl	$1, 8(%ecx)
  91              	.LVL3:
  92              	.L3:
  93              		.loc 4 138 10 view .LVU20
  94              	.LBE101:
  95              	.LBE100:
  96              		.loc 1 343 5 is_stmt 1 view .LVU21
  97              	.LBB102:
  98              	.LBI102:
  99              		.file 5 "../../../os/rt/include/chschd.h"
 100              		.loc 5 624 25 view .LVU22
 101              	.LBB103:
 102              		.loc 5 626 3 view .LVU23
 103              		.loc 5 626 12 is_stmt 0 view .LVU24
 104 003f 8B7204   		movl	4(%edx), %esi
 105              		.loc 5 626 41 view .LVU25
 106 0042 8B0A     		movl	(%edx), %ecx
 107              		.loc 5 626 30 view .LVU26
 108 0044 890E     		movl	%ecx, (%esi)
GAS LISTING /tmp/ccaWtcpU.s 			page 3


 109              		.loc 5 627 3 is_stmt 1 view .LVU27
 110              		.loc 5 627 30 is_stmt 0 view .LVU28
 111 0046 897104   		movl	%esi, 4(%ecx)
 112              		.loc 5 629 3 is_stmt 1 view .LVU29
 113              	.LVL4:
 114              	.L2:
 115              		.loc 5 629 3 is_stmt 0 view .LVU30
 116              	.LBE103:
 117              	.LBE102:
 118              		.loc 1 349 3 is_stmt 1 view .LVU31
 119              		.loc 1 349 16 is_stmt 0 view .LVU32
 120 0049 C74224FF 		movl	$-1, 36(%edx)
 120      FFFFFF
 121              		.loc 1 350 3 is_stmt 1 view .LVU33
 122              	.LVL5:
 123              	.LBB104:
 124              	.LBI104:
 125              		.loc 1 218 11 view .LVU34
 126              	.LBB105:
 127              		.loc 1 219 3 view .LVU35
 128              		.loc 1 221 21 view .LVU36
 129              		.loc 1 222 3 view .LVU37
 130              		.loc 1 222 3 view .LVU38
 131              		.loc 1 223 3 view .LVU39
 132              		.loc 1 223 3 view .LVU40
 133              		.loc 1 227 3 view .LVU41
 134              	.LBE105:
 135              	.LBE104:
 136              	.LBB107:
 137              	.LBB108:
 138              	.LBB109:
 139              	.LBB110:
 140              		.loc 1 231 26 is_stmt 0 view .LVU42
 141 0050 8B4A08   		movl	8(%edx), %ecx
 142              		.loc 1 228 6 view .LVU43
 143 0053 8D800000 		leal	ch@GOTOFF(%eax), %eax
 143      0000
 144              	.LBE110:
 145              	.LBE109:
 146              	.LBE108:
 147              	.LBE107:
 148              	.LBB119:
 149              	.LBB106:
 150              		.loc 1 227 13 view .LVU44
 151 0059 C6422000 		movb	$0, 32(%edx)
 152              		.loc 1 228 3 is_stmt 1 view .LVU45
 153              	.LVL6:
 154              		.loc 1 228 3 is_stmt 0 view .LVU46
 155              	.LBE106:
 156              	.LBE119:
 157              	.LBB120:
 158              	.LBI107:
 159              		.loc 1 319 13 is_stmt 1 view .LVU47
 160 005d 8D7600   		.p2align 4,,10
 161              		.p2align 3
 162              	.L9:
 163              	.LBB117:
GAS LISTING /tmp/ccaWtcpU.s 			page 4


 164              	.LBB112:
 165              	.LBB111:
 166              		.loc 1 229 3 view .LVU48
 167              		.loc 1 230 5 view .LVU49
 168              		.loc 1 230 8 is_stmt 0 view .LVU50
 169 0060 8B00     		movl	(%eax), %eax
 170              	.LVL7:
 171              		.loc 1 231 3 view .LVU51
 172 0062 394808   		cmpl	%ecx, 8(%eax)
 173 0065 73F9     		jnb	.L9
 174              		.loc 1 233 3 is_stmt 1 view .LVU52
 175              		.loc 1 234 41 is_stmt 0 view .LVU53
 176 0067 8B4804   		movl	4(%eax), %ecx
 177              		.loc 1 233 30 view .LVU54
 178 006a 8902     		movl	%eax, (%edx)
 179              		.loc 1 234 3 is_stmt 1 view .LVU55
 180              		.loc 1 234 30 is_stmt 0 view .LVU56
 181 006c 894A04   		movl	%ecx, 4(%edx)
 182              		.loc 1 235 3 is_stmt 1 view .LVU57
 183              		.loc 1 235 30 is_stmt 0 view .LVU58
 184 006f 8911     		movl	%edx, (%ecx)
 185              		.loc 1 236 3 is_stmt 1 view .LVU59
 186              		.loc 1 236 30 is_stmt 0 view .LVU60
 187 0071 895004   		movl	%edx, 4(%eax)
 188              	.LVL8:
 189              	.L12:
 190              		.loc 1 238 3 is_stmt 1 view .LVU61
 191              	.LBE111:
 192              	.LBE112:
 193              		.loc 1 351 3 view .LVU62
 194              	.LBB113:
 195              	.LBI113:
 196              		.loc 2 413 20 view .LVU63
 197              	.LBE113:
 198              	.LBE117:
 199              	.LBE120:
 200              		.loc 2 415 31 view .LVU64
 201              		.loc 2 416 33 view .LVU65
 202              		.loc 2 417 3 view .LVU66
 203              	.LBB121:
 204              	.LBB118:
 205              	.LBB116:
 206              	.LBB114:
 207              	.LBI114:
 208              		.loc 3 391 20 view .LVU67
 209              	.LBB115:
 210              		.loc 3 393 3 view .LVU68
 211              		.loc 3 393 16 is_stmt 0 view .LVU69
 212 0074 C7030000 		movl	$0, (%ebx)
 212      0000
 213              	.LBE115:
 214              	.LBE114:
 215              	.LBE116:
 216              	.LBE118:
 217              	.LBE121:
 218              		.loc 1 352 1 view .LVU70
 219 007a 5B       		popl	%ebx
GAS LISTING /tmp/ccaWtcpU.s 			page 5


 220              		.cfi_remember_state
 221              		.cfi_restore 3
 222              		.cfi_def_cfa_offset 8
 223 007b 5E       		popl	%esi
 224              		.cfi_restore 6
 225              		.cfi_def_cfa_offset 4
 226 007c C3       		ret
 227 007d 8D7600   		.p2align 4,,10
 228              		.p2align 3
 229              	.L6:
 230              		.cfi_restore_state
 231              		.loc 1 330 5 is_stmt 1 view .LVU71
 232              		.loc 1 330 11 is_stmt 0 view .LVU72
 233 0080 8B4A24   		movl	36(%edx), %ecx
 234              		.loc 1 330 18 view .LVU73
 235 0083 C7010000 		movl	$0, (%ecx)
 235      0000
 236              		.loc 1 331 5 is_stmt 1 view .LVU74
 237 0089 EBBE     		jmp	.L2
 238              		.cfi_endproc
 239              	.LFE142:
 240              		.size	wakeup, .-wakeup
 241              		.section	.text._scheduler_init,"ax",@progbits
 242              		.p2align 4,,15
 243              		.globl	_scheduler_init
 244              		.type	_scheduler_init, @function
 245              	_scheduler_init:
 246              	.LFB138:
 247              		.loc 1 65 28 view -0
 248              		.cfi_startproc
 249              		.loc 1 67 3 view .LVU76
 250              	.LVL9:
 251              	.LBB122:
 252              	.LBI122:
 253              		.loc 5 537 20 view .LVU77
 254              	.LBB123:
 255              		.loc 5 539 3 view .LVU78
 256 0000 E8FCFFFF 		call	__x86.get_pc_thunk.ax
 256      FF
 257 0005 05010000 		addl	$_GLOBAL_OFFSET_TABLE_, %eax
 257      00
 258              	.LBE123:
 259              	.LBE122:
 260              		.loc 1 68 17 is_stmt 0 view .LVU79
 261 000a C7800800 		movl	$0, 8+ch@GOTOFF(%eax)
 261      00000000 
 261      0000
 262              	.LBB125:
 263              	.LBB124:
 264              		.loc 5 539 13 view .LVU80
 265 0014 8D900000 		leal	ch@GOTOFF(%eax), %edx
 265      0000
 266 001a 89900000 		movl	%edx, ch@GOTOFF(%eax)
 266      0000
 267              		.loc 5 540 3 is_stmt 1 view .LVU81
 268              		.loc 5 540 13 is_stmt 0 view .LVU82
 269 0020 89900400 		movl	%edx, 4+ch@GOTOFF(%eax)
GAS LISTING /tmp/ccaWtcpU.s 			page 6


 269      0000
 270              	.LVL10:
 271              		.loc 5 540 13 view .LVU83
 272              	.LBE124:
 273              	.LBE125:
 274              		.loc 1 68 3 is_stmt 1 view .LVU84
 275              		.loc 1 70 3 view .LVU85
 276              		.loc 1 70 18 is_stmt 0 view .LVU86
 277 0026 89901000 		movl	%edx, 16+ch@GOTOFF(%eax)
 277      0000
 278              		.loc 1 71 3 is_stmt 1 view .LVU87
 279              		.loc 1 71 18 is_stmt 0 view .LVU88
 280 002c 89901400 		movl	%edx, 20+ch@GOTOFF(%eax)
 280      0000
 281              		.loc 1 73 1 view .LVU89
 282 0032 C3       		ret
 283              		.cfi_endproc
 284              	.LFE138:
 285              		.size	_scheduler_init, .-_scheduler_init
 286              		.section	.text.chSchReadyI,"ax",@progbits
 287              		.p2align 4,,15
 288              		.globl	chSchReadyI
 289              		.type	chSchReadyI, @function
 290              	chSchReadyI:
 291              	.LVL11:
 292              	.LFB139:
 293              		.loc 1 218 37 is_stmt 1 view -0
 294              		.cfi_startproc
 295              		.loc 1 219 3 view .LVU91
 296              		.loc 1 221 21 view .LVU92
 297              		.loc 1 222 3 view .LVU93
 298              		.loc 1 222 3 view .LVU94
 299              		.loc 1 223 3 view .LVU95
 300              		.loc 1 223 3 view .LVU96
 301              		.loc 1 227 3 view .LVU97
 302 0000 E8FCFFFF 		call	__x86.get_pc_thunk.dx
 302      FF
 303 0005 81C20200 		addl	$_GLOBAL_OFFSET_TABLE_, %edx
 303      0000
 304              		.loc 1 218 37 is_stmt 0 view .LVU98
 305 000b 8B442404 		movl	4(%esp), %eax
 306              		.loc 1 227 13 view .LVU99
 307 000f C6402000 		movb	$0, 32(%eax)
 308              		.loc 1 228 3 is_stmt 1 view .LVU100
 309              	.LVL12:
 310              		.loc 1 231 26 is_stmt 0 view .LVU101
 311 0013 8B4808   		movl	8(%eax), %ecx
 312              		.loc 1 228 6 view .LVU102
 313 0016 8D920000 		leal	ch@GOTOFF(%edx), %edx
 313      0000
 314              	.LVL13:
 315 001c 8D742600 		.p2align 4,,10
 316              		.p2align 3
 317              	.L16:
 318              		.loc 1 229 3 is_stmt 1 discriminator 1 view .LVU103
 319              		.loc 1 230 5 discriminator 1 view .LVU104
 320              		.loc 1 230 8 is_stmt 0 discriminator 1 view .LVU105
GAS LISTING /tmp/ccaWtcpU.s 			page 7


 321 0020 8B12     		movl	(%edx), %edx
 322              	.LVL14:
 323              		.loc 1 231 3 discriminator 1 view .LVU106
 324 0022 394A08   		cmpl	%ecx, 8(%edx)
 325 0025 73F9     		jnb	.L16
 326              		.loc 1 233 3 is_stmt 1 view .LVU107
 327              		.loc 1 234 41 is_stmt 0 view .LVU108
 328 0027 8B4A04   		movl	4(%edx), %ecx
 329              		.loc 1 233 30 view .LVU109
 330 002a 8910     		movl	%edx, (%eax)
 331              		.loc 1 234 3 is_stmt 1 view .LVU110
 332              		.loc 1 234 30 is_stmt 0 view .LVU111
 333 002c 894804   		movl	%ecx, 4(%eax)
 334              		.loc 1 235 3 is_stmt 1 view .LVU112
 335              		.loc 1 235 30 is_stmt 0 view .LVU113
 336 002f 8901     		movl	%eax, (%ecx)
 337              		.loc 1 236 3 is_stmt 1 view .LVU114
 338              		.loc 1 236 30 is_stmt 0 view .LVU115
 339 0031 894204   		movl	%eax, 4(%edx)
 340              		.loc 1 238 3 is_stmt 1 view .LVU116
 341              		.loc 1 239 1 is_stmt 0 view .LVU117
 342 0034 C3       		ret
 343              		.cfi_endproc
 344              	.LFE139:
 345              		.size	chSchReadyI, .-chSchReadyI
 346              		.section	.text.chSchReadyAheadI,"ax",@progbits
 347              		.p2align 4,,15
 348              		.globl	chSchReadyAheadI
 349              		.type	chSchReadyAheadI, @function
 350              	chSchReadyAheadI:
 351              	.LVL15:
 352              	.LFB140:
 353              		.loc 1 257 42 is_stmt 1 view -0
 354              		.cfi_startproc
 355              		.loc 1 258 3 view .LVU119
 356              		.loc 1 260 21 view .LVU120
 357              		.loc 1 261 3 view .LVU121
 358              		.loc 1 261 3 view .LVU122
 359              		.loc 1 262 3 view .LVU123
 360              		.loc 1 262 3 view .LVU124
 361              		.loc 1 266 3 view .LVU125
 362 0000 E8FCFFFF 		call	__x86.get_pc_thunk.dx
 362      FF
 363 0005 81C20200 		addl	$_GLOBAL_OFFSET_TABLE_, %edx
 363      0000
 364              		.loc 1 257 42 is_stmt 0 view .LVU126
 365 000b 8B442404 		movl	4(%esp), %eax
 366              		.loc 1 266 13 view .LVU127
 367 000f C6402000 		movb	$0, 32(%eax)
 368              		.loc 1 267 3 is_stmt 1 view .LVU128
 369              	.LVL16:
 370              		.loc 1 270 25 is_stmt 0 view .LVU129
 371 0013 8B4808   		movl	8(%eax), %ecx
 372              		.loc 1 267 6 view .LVU130
 373 0016 8D920000 		leal	ch@GOTOFF(%edx), %edx
 373      0000
 374              	.LVL17:
GAS LISTING /tmp/ccaWtcpU.s 			page 8


 375 001c 8D742600 		.p2align 4,,10
 376              		.p2align 3
 377              	.L19:
 378              		.loc 1 268 3 is_stmt 1 discriminator 1 view .LVU131
 379              		.loc 1 269 5 discriminator 1 view .LVU132
 380              		.loc 1 269 8 is_stmt 0 discriminator 1 view .LVU133
 381 0020 8B12     		movl	(%edx), %edx
 382              	.LVL18:
 383              		.loc 1 270 3 discriminator 1 view .LVU134
 384 0022 394A08   		cmpl	%ecx, 8(%edx)
 385 0025 77F9     		ja	.L19
 386              		.loc 1 272 3 is_stmt 1 view .LVU135
 387              		.loc 1 273 41 is_stmt 0 view .LVU136
 388 0027 8B4A04   		movl	4(%edx), %ecx
 389              		.loc 1 272 30 view .LVU137
 390 002a 8910     		movl	%edx, (%eax)
 391              		.loc 1 273 3 is_stmt 1 view .LVU138
 392              		.loc 1 273 30 is_stmt 0 view .LVU139
 393 002c 894804   		movl	%ecx, 4(%eax)
 394              		.loc 1 274 3 is_stmt 1 view .LVU140
 395              		.loc 1 274 30 is_stmt 0 view .LVU141
 396 002f 8901     		movl	%eax, (%ecx)
 397              		.loc 1 275 3 is_stmt 1 view .LVU142
 398              		.loc 1 275 30 is_stmt 0 view .LVU143
 399 0031 894204   		movl	%eax, 4(%edx)
 400              		.loc 1 277 3 is_stmt 1 view .LVU144
 401              		.loc 1 278 1 is_stmt 0 view .LVU145
 402 0034 C3       		ret
 403              		.cfi_endproc
 404              	.LFE140:
 405              		.size	chSchReadyAheadI, .-chSchReadyAheadI
 406              		.section	.text.chSchGoSleepS,"ax",@progbits
 407              		.p2align 4,,15
 408              		.globl	chSchGoSleepS
 409              		.type	chSchGoSleepS, @function
 410              	chSchGoSleepS:
 411              	.LVL19:
 412              	.LFB141:
 413              		.loc 1 289 39 is_stmt 1 view -0
 414              		.cfi_startproc
 415              		.loc 1 290 3 view .LVU147
 416              		.loc 1 289 39 is_stmt 0 view .LVU148
 417 0000 56       		pushl	%esi
 418              		.cfi_def_cfa_offset 8
 419              		.cfi_offset 6, -8
 420 0001 53       		pushl	%ebx
 421              		.cfi_def_cfa_offset 12
 422              		.cfi_offset 3, -12
 423 0002 E8FCFFFF 		call	__x86.get_pc_thunk.bx
 423      FF
 424 0007 81C30200 		addl	$_GLOBAL_OFFSET_TABLE_, %ebx
 424      0000
 425 000d 83EC04   		subl	$4, %esp
 426              		.cfi_def_cfa_offset 16
 427              		.loc 1 295 14 view .LVU149
 428 0010 8B442410 		movl	16(%esp), %eax
 429              	.LBB126:
GAS LISTING /tmp/ccaWtcpU.s 			page 9


 430              	.LBB127:
 431              		.loc 5 607 13 view .LVU150
 432 0014 8B8B0000 		movl	ch@GOTOFF(%ebx), %ecx
 432      0000
 433              	.LBE127:
 434              	.LBE126:
 435              		.loc 1 290 13 view .LVU151
 436 001a 8B931800 		movl	24+ch@GOTOFF(%ebx), %edx
 436      0000
 437              	.LVL20:
 438              		.loc 1 292 21 is_stmt 1 view .LVU152
 439              		.loc 1 295 3 view .LVU153
 440              	.LBB131:
 441              	.LBB128:
 442              		.loc 5 610 25 is_stmt 0 view .LVU154
 443 0020 8DB30000 		leal	ch@GOTOFF(%ebx), %esi
 443      0000
 444              	.LBE128:
 445              	.LBE131:
 446              		.loc 1 295 14 view .LVU155
 447 0026 884220   		movb	%al, 32(%edx)
 448              		.loc 1 304 3 is_stmt 1 view .LVU156
 449              	.LVL21:
 450              	.LBB132:
 451              	.LBI126:
 452              		.loc 5 606 25 view .LVU157
 453              	.LBB129:
 454              		.loc 5 607 3 view .LVU158
 455              		.loc 5 609 3 view .LVU159
 456              		.loc 5 609 36 is_stmt 0 view .LVU160
 457 0029 8B01     		movl	(%ecx), %eax
 458              		.loc 5 610 25 view .LVU161
 459 002b 897004   		movl	%esi, 4(%eax)
 460              	.LBE129:
 461              	.LBE132:
 462              		.loc 1 305 16 view .LVU162
 463 002e C6412001 		movb	$1, 32(%ecx)
 464              	.LBB133:
 465              	.LBB130:
 466              		.loc 5 609 25 view .LVU163
 467 0032 89830000 		movl	%eax, ch@GOTOFF(%ebx)
 467      0000
 468              		.loc 5 610 3 is_stmt 1 view .LVU164
 469              		.loc 5 612 3 view .LVU165
 470              	.LVL22:
 471              		.loc 5 612 3 is_stmt 0 view .LVU166
 472              	.LBE130:
 473              	.LBE133:
 474              		.loc 1 304 9 view .LVU167
 475 0038 898B1800 		movl	%ecx, 24+ch@GOTOFF(%ebx)
 475      0000
 476              		.loc 1 305 3 is_stmt 1 view .LVU168
 477              		.loc 1 308 3 view .LVU169
 478              		.loc 1 309 5 view .LVU170
 479              		.loc 1 309 29 view .LVU171
 480              		.loc 1 313 3 view .LVU172
 481              		.loc 1 313 3 view .LVU173
GAS LISTING /tmp/ccaWtcpU.s 			page 10


 482              		.loc 1 313 3 view .LVU174
 483              		.loc 1 313 3 view .LVU175
 484              		.loc 1 313 3 view .LVU176
 485 003e E8FCFFFF 		call	port_switch@PLT
 485      FF
 486              	.LVL23:
 487              		.loc 1 313 26 view .LVU177
 488              		.loc 1 314 1 is_stmt 0 view .LVU178
 489 0043 83C404   		addl	$4, %esp
 490              		.cfi_def_cfa_offset 12
 491 0046 5B       		popl	%ebx
 492              		.cfi_restore 3
 493              		.cfi_def_cfa_offset 8
 494 0047 5E       		popl	%esi
 495              		.cfi_restore 6
 496              		.cfi_def_cfa_offset 4
 497 0048 C3       		ret
 498              		.cfi_endproc
 499              	.LFE141:
 500              		.size	chSchGoSleepS, .-chSchGoSleepS
 501              		.section	.text.chSchGoSleepTimeoutS,"ax",@progbits
 502              		.p2align 4,,15
 503              		.globl	chSchGoSleepTimeoutS
 504              		.type	chSchGoSleepTimeoutS, @function
 505              	chSchGoSleepTimeoutS:
 506              	.LVL24:
 507              	.LFB143:
 508              		.loc 1 375 70 is_stmt 1 view -0
 509              		.cfi_startproc
 510              		.loc 1 375 70 is_stmt 0 view .LVU180
 511 0000 57       		pushl	%edi
 512              		.cfi_def_cfa_offset 8
 513              		.cfi_offset 7, -8
 514 0001 56       		pushl	%esi
 515              		.cfi_def_cfa_offset 12
 516              		.cfi_offset 6, -12
 517 0002 53       		pushl	%ebx
 518              		.cfi_def_cfa_offset 16
 519              		.cfi_offset 3, -16
 520 0003 E8FCFFFF 		call	__x86.get_pc_thunk.bx
 520      FF
 521 0008 81C30200 		addl	$_GLOBAL_OFFSET_TABLE_, %ebx
 521      0000
 522 000e 83EC20   		subl	$32, %esp
 523              		.cfi_def_cfa_offset 48
 524              		.loc 1 375 70 view .LVU181
 525 0011 658B0D14 		movl	%gs:20, %ecx
 525      000000
 526 0018 894C241C 		movl	%ecx, 28(%esp)
 527 001c 31C9     		xorl	%ecx, %ecx
 528              		.loc 1 377 21 is_stmt 1 view .LVU182
 529              		.loc 1 379 3 view .LVU183
 530              		.loc 1 375 70 is_stmt 0 view .LVU184
 531 001e 8B442434 		movl	52(%esp), %eax
 532 0022 0FB67424 		movzbl	48(%esp), %esi
 532      30
 533              		.loc 1 379 6 view .LVU185
GAS LISTING /tmp/ccaWtcpU.s 			page 11


 534 0027 83F8FF   		cmpl	$-1, %eax
 535 002a 7454     		je	.L24
 536              	.LBB134:
 537              		.loc 1 380 5 is_stmt 1 view .LVU186
 538              		.loc 1 382 5 view .LVU187
 539 002c 8D930000 		leal	wakeup@GOTOFF(%ebx), %edx
 539      0000
 540 0032 FFB31800 		pushl	24+ch@GOTOFF(%ebx)
 540      0000
 541              		.cfi_def_cfa_offset 52
 542 0038 52       		pushl	%edx
 543              		.cfi_def_cfa_offset 56
 544 0039 50       		pushl	%eax
 545              		.cfi_def_cfa_offset 60
 546 003a 8D7C2414 		leal	20(%esp), %edi
 547 003e 57       		pushl	%edi
 548              		.cfi_def_cfa_offset 64
 549 003f E8FCFFFF 		call	chVTDoSetI@PLT
 549      FF
 550              	.LVL25:
 551              		.loc 1 383 5 view .LVU188
 552 0044 893424   		movl	%esi, (%esp)
 553 0047 E8FCFFFF 		call	chSchGoSleepS
 553      FF
 554              	.LVL26:
 555              		.loc 1 384 5 view .LVU189
 556              		.loc 1 384 5 is_stmt 0 view .LVU190
 557              	.LBE134:
 558              		.file 6 "../../../os/rt/include/chvt.h"
 559              		.loc 6 243 21 is_stmt 1 view .LVU191
 560              		.loc 6 245 3 view .LVU192
 561              	.LBB135:
 562              		.loc 1 384 8 is_stmt 0 view .LVU193
 563 004c 83C410   		addl	$16, %esp
 564              		.cfi_def_cfa_offset 48
 565 004f 8B442414 		movl	20(%esp), %eax
 566 0053 85C0     		testl	%eax, %eax
 567 0055 740C     		je	.L26
 568              		.loc 1 385 7 is_stmt 1 view .LVU194
 569 0057 83EC0C   		subl	$12, %esp
 570              		.cfi_def_cfa_offset 60
 571 005a 57       		pushl	%edi
 572              		.cfi_def_cfa_offset 64
 573 005b E8FCFFFF 		call	chVTDoResetI@PLT
 573      FF
 574              	.LVL27:
 575 0060 83C410   		addl	$16, %esp
 576              		.cfi_def_cfa_offset 48
 577              	.LVL28:
 578              	.L26:
 579              		.loc 1 385 7 is_stmt 0 view .LVU195
 580              	.LBE135:
 581              		.loc 1 392 3 is_stmt 1 view .LVU196
 582              		.loc 1 393 1 is_stmt 0 view .LVU197
 583 0063 8B4C241C 		movl	28(%esp), %ecx
 584 0067 65330D14 		xorl	%gs:20, %ecx
 584      000000
GAS LISTING /tmp/ccaWtcpU.s 			page 12


 585              		.loc 1 392 18 view .LVU198
 586 006e 8B831800 		movl	24+ch@GOTOFF(%ebx), %eax
 586      0000
 587 0074 8B4024   		movl	36(%eax), %eax
 588              		.loc 1 393 1 view .LVU199
 589 0077 7515     		jne	.L29
 590 0079 83C420   		addl	$32, %esp
 591              		.cfi_remember_state
 592              		.cfi_def_cfa_offset 16
 593 007c 5B       		popl	%ebx
 594              		.cfi_restore 3
 595              		.cfi_def_cfa_offset 12
 596 007d 5E       		popl	%esi
 597              		.cfi_restore 6
 598              		.cfi_def_cfa_offset 8
 599 007e 5F       		popl	%edi
 600              		.cfi_restore 7
 601              		.cfi_def_cfa_offset 4
 602 007f C3       		ret
 603              		.p2align 4,,10
 604              		.p2align 3
 605              	.L24:
 606              		.cfi_restore_state
 607              		.loc 1 389 5 is_stmt 1 view .LVU200
 608 0080 83EC0C   		subl	$12, %esp
 609              		.cfi_def_cfa_offset 60
 610 0083 56       		pushl	%esi
 611              		.cfi_def_cfa_offset 64
 612 0084 E8FCFFFF 		call	chSchGoSleepS
 612      FF
 613              	.LVL29:
 614 0089 83C410   		addl	$16, %esp
 615              		.cfi_def_cfa_offset 48
 616 008c EBD5     		jmp	.L26
 617              	.L29:
 618              		.loc 1 393 1 is_stmt 0 view .LVU201
 619 008e E8FCFFFF 		call	__stack_chk_fail_local
 619      FF
 620              	.LVL30:
 621              		.cfi_endproc
 622              	.LFE143:
 623              		.size	chSchGoSleepTimeoutS, .-chSchGoSleepTimeoutS
 624              		.section	.text.chSchWakeupS,"ax",@progbits
 625              		.p2align 4,,15
 626              		.globl	chSchWakeupS
 627              		.type	chSchWakeupS, @function
 628              	chSchWakeupS:
 629              	.LVL31:
 630              	.LFB144:
 631              		.loc 1 412 45 is_stmt 1 view -0
 632              		.cfi_startproc
 633              		.loc 1 413 3 view .LVU203
 634              		.loc 1 412 45 is_stmt 0 view .LVU204
 635 0000 57       		pushl	%edi
 636              		.cfi_def_cfa_offset 8
 637              		.cfi_offset 7, -8
 638 0001 56       		pushl	%esi
GAS LISTING /tmp/ccaWtcpU.s 			page 13


 639              		.cfi_def_cfa_offset 12
 640              		.cfi_offset 6, -12
 641 0002 53       		pushl	%ebx
 642              		.cfi_def_cfa_offset 16
 643              		.cfi_offset 3, -16
 644              		.loc 1 412 45 view .LVU205
 645 0003 8B4C2410 		movl	16(%esp), %ecx
 646 0007 E8FCFFFF 		call	__x86.get_pc_thunk.bx
 646      FF
 647 000c 81C30200 		addl	$_GLOBAL_OFFSET_TABLE_, %ebx
 647      0000
 648              		.loc 1 423 17 view .LVU206
 649 0012 8B442414 		movl	20(%esp), %eax
 650              		.loc 1 429 10 view .LVU207
 651 0016 8B7908   		movl	8(%ecx), %edi
 652              		.loc 1 423 17 view .LVU208
 653 0019 894124   		movl	%eax, 36(%ecx)
 654              		.loc 1 413 13 view .LVU209
 655 001c 8B931800 		movl	24+ch@GOTOFF(%ebx), %edx
 655      0000
 656              	.LVL32:
 657              		.loc 1 415 21 is_stmt 1 view .LVU210
 658              		.loc 1 417 3 view .LVU211
 659              		.loc 1 417 3 view .LVU212
 660              		.loc 1 423 3 view .LVU213
 661              		.loc 1 429 3 view .LVU214
 662              		.loc 1 429 23 is_stmt 0 view .LVU215
 663 0022 8B7208   		movl	8(%edx), %esi
 664              		.loc 1 429 6 view .LVU216
 665 0025 39F7     		cmpl	%esi, %edi
 666 0027 7727     		ja	.L31
 667              		.loc 1 430 5 is_stmt 1 view .LVU217
 668              	.LVL33:
 669              	.LBB136:
 670              	.LBI136:
 671              		.loc 1 218 11 view .LVU218
 672              	.LBB137:
 673              		.loc 1 219 3 view .LVU219
 674              		.loc 1 221 21 view .LVU220
 675              		.loc 1 222 3 view .LVU221
 676              		.loc 1 222 3 view .LVU222
 677              		.loc 1 223 3 view .LVU223
 678              		.loc 1 223 3 view .LVU224
 679              		.loc 1 227 3 view .LVU225
 680              		.loc 1 227 13 is_stmt 0 view .LVU226
 681 0029 C6412000 		movb	$0, 32(%ecx)
 682              		.loc 1 228 3 is_stmt 1 view .LVU227
 683              	.LVL34:
 684              		.loc 1 228 6 is_stmt 0 view .LVU228
 685 002d 8D830000 		leal	ch@GOTOFF(%ebx), %eax
 685      0000
 686              	.LVL35:
 687              		.p2align 4,,10
 688 0033 8D742600 		.p2align 3
 688      90
 689              	.L32:
 690              		.loc 1 229 3 is_stmt 1 view .LVU229
GAS LISTING /tmp/ccaWtcpU.s 			page 14


 691              		.loc 1 230 5 view .LVU230
 692              		.loc 1 230 8 is_stmt 0 view .LVU231
 693 0038 8B00     		movl	(%eax), %eax
 694              	.LVL36:
 695              		.loc 1 231 3 view .LVU232
 696 003a 3B7808   		cmpl	8(%eax), %edi
 697 003d 76F9     		jbe	.L32
 698              		.loc 1 233 3 is_stmt 1 view .LVU233
 699              		.loc 1 234 41 is_stmt 0 view .LVU234
 700 003f 8B5004   		movl	4(%eax), %edx
 701              	.LVL37:
 702              		.loc 1 233 30 view .LVU235
 703 0042 8901     		movl	%eax, (%ecx)
 704              		.loc 1 234 3 is_stmt 1 view .LVU236
 705              		.loc 1 234 30 is_stmt 0 view .LVU237
 706 0044 895104   		movl	%edx, 4(%ecx)
 707              		.loc 1 235 3 is_stmt 1 view .LVU238
 708              		.loc 1 235 30 is_stmt 0 view .LVU239
 709 0047 890A     		movl	%ecx, (%edx)
 710              		.loc 1 236 3 is_stmt 1 view .LVU240
 711              		.loc 1 236 30 is_stmt 0 view .LVU241
 712 0049 894804   		movl	%ecx, 4(%eax)
 713              		.loc 1 238 3 is_stmt 1 view .LVU242
 714              	.LBE137:
 715              	.LBE136:
 716              		.loc 1 447 1 is_stmt 0 view .LVU243
 717 004c 5B       		popl	%ebx
 718              		.cfi_remember_state
 719              		.cfi_restore 3
 720              		.cfi_def_cfa_offset 12
 721 004d 5E       		popl	%esi
 722              		.cfi_restore 6
 723              		.cfi_def_cfa_offset 8
 724 004e 5F       		popl	%edi
 725              		.cfi_restore 7
 726              		.cfi_def_cfa_offset 4
 727 004f C3       		ret
 728              	.LVL38:
 729              		.p2align 4,,10
 730              		.p2align 3
 731              	.L31:
 732              		.cfi_restore_state
 733              		.loc 1 433 5 is_stmt 1 view .LVU244
 734              	.LBB138:
 735              	.LBI138:
 736              		.loc 1 218 11 view .LVU245
 737              	.LBB139:
 738              		.loc 1 219 3 view .LVU246
 739              		.loc 1 221 21 view .LVU247
 740              		.loc 1 222 3 view .LVU248
 741              		.loc 1 222 3 view .LVU249
 742              		.loc 1 223 3 view .LVU250
 743              		.loc 1 223 3 view .LVU251
 744              		.loc 1 227 3 view .LVU252
 745              		.loc 1 227 13 is_stmt 0 view .LVU253
 746 0050 C6422000 		movb	$0, 32(%edx)
 747              		.loc 1 228 3 is_stmt 1 view .LVU254
GAS LISTING /tmp/ccaWtcpU.s 			page 15


 748              	.LVL39:
 749              		.loc 1 228 6 is_stmt 0 view .LVU255
 750 0054 8D830000 		leal	ch@GOTOFF(%ebx), %eax
 750      0000
 751              	.LVL40:
 752 005a 8DB60000 		.p2align 4,,10
 752      0000
 753              		.p2align 3
 754              	.L34:
 755              		.loc 1 229 3 is_stmt 1 view .LVU256
 756              		.loc 1 230 5 view .LVU257
 757              		.loc 1 230 8 is_stmt 0 view .LVU258
 758 0060 8B00     		movl	(%eax), %eax
 759              	.LVL41:
 760              		.loc 1 231 3 view .LVU259
 761 0062 3B7008   		cmpl	8(%eax), %esi
 762 0065 76F9     		jbe	.L34
 763              		.loc 1 233 3 is_stmt 1 view .LVU260
 764              		.loc 1 234 41 is_stmt 0 view .LVU261
 765 0067 8B7004   		movl	4(%eax), %esi
 766              		.loc 1 233 30 view .LVU262
 767 006a 8902     		movl	%eax, (%edx)
 768              		.loc 1 234 3 is_stmt 1 view .LVU263
 769              		.loc 1 234 30 is_stmt 0 view .LVU264
 770 006c 897204   		movl	%esi, 4(%edx)
 771              		.loc 1 235 3 is_stmt 1 view .LVU265
 772              		.loc 1 235 30 is_stmt 0 view .LVU266
 773 006f 8916     		movl	%edx, (%esi)
 774              		.loc 1 236 3 is_stmt 1 view .LVU267
 775              		.loc 1 236 30 is_stmt 0 view .LVU268
 776 0071 895004   		movl	%edx, 4(%eax)
 777              		.loc 1 238 3 is_stmt 1 view .LVU269
 778              	.LVL42:
 779              		.loc 1 238 3 is_stmt 0 view .LVU270
 780              	.LBE139:
 781              	.LBE138:
 782              		.loc 1 436 5 is_stmt 1 view .LVU271
 783              		.loc 1 437 7 view .LVU272
 784              		.loc 1 437 31 view .LVU273
 785              		.loc 1 441 5 view .LVU274
 786              		.loc 1 442 16 is_stmt 0 view .LVU275
 787 0074 C6412001 		movb	$1, 32(%ecx)
 788              	.LVL43:
 789              		.loc 1 441 11 view .LVU276
 790 0078 898B1800 		movl	%ecx, 24+ch@GOTOFF(%ebx)
 790      0000
 791              		.loc 1 442 5 is_stmt 1 view .LVU277
 792              		.loc 1 445 5 view .LVU278
 793              		.loc 1 445 5 view .LVU279
 794              		.loc 1 445 5 view .LVU280
 795              		.loc 1 445 5 view .LVU281
 796              		.loc 1 445 5 view .LVU282
 797 007e E8FCFFFF 		call	port_switch@PLT
 797      FF
 798              	.LVL44:
 799              		.loc 1 445 26 view .LVU283
 800              		.loc 1 447 1 is_stmt 0 view .LVU284
GAS LISTING /tmp/ccaWtcpU.s 			page 16


 801 0083 5B       		popl	%ebx
 802              		.cfi_restore 3
 803              		.cfi_def_cfa_offset 12
 804 0084 5E       		popl	%esi
 805              		.cfi_restore 6
 806              		.cfi_def_cfa_offset 8
 807 0085 5F       		popl	%edi
 808              		.cfi_restore 7
 809              		.cfi_def_cfa_offset 4
 810 0086 C3       		ret
 811              		.cfi_endproc
 812              	.LFE144:
 813              		.size	chSchWakeupS, .-chSchWakeupS
 814              		.section	.text.chSchIsPreemptionRequired,"ax",@progbits
 815              		.p2align 4,,15
 816              		.globl	chSchIsPreemptionRequired
 817              		.type	chSchIsPreemptionRequired, @function
 818              	chSchIsPreemptionRequired:
 819              	.LFB146:
 820              		.loc 1 479 38 is_stmt 1 view -0
 821              		.cfi_startproc
 822              		.loc 1 480 3 view .LVU286
 823              	.LVL45:
 824              		.loc 1 481 3 view .LVU287
 825              		.loc 1 492 3 view .LVU288
 826 0000 E8FCFFFF 		call	__x86.get_pc_thunk.ax
 826      FF
 827 0005 05010000 		addl	$_GLOBAL_OFFSET_TABLE_, %eax
 827      00
 828              		.loc 1 480 11 is_stmt 0 view .LVU289
 829 000a 8B900000 		movl	ch@GOTOFF(%eax), %edx
 829      0000
 830              		.loc 1 481 11 view .LVU290
 831 0010 8B801800 		movl	24+ch@GOTOFF(%eax), %eax
 831      0000
 832              		.loc 1 492 13 view .LVU291
 833 0016 8B4008   		movl	8(%eax), %eax
 834 0019 394208   		cmpl	%eax, 8(%edx)
 835 001c 0F97C0   		seta	%al
 836              		.loc 1 494 1 view .LVU292
 837 001f C3       		ret
 838              		.cfi_endproc
 839              	.LFE146:
 840              		.size	chSchIsPreemptionRequired, .-chSchIsPreemptionRequired
 841              		.section	.text.chSchDoRescheduleBehind,"ax",@progbits
 842              		.p2align 4,,15
 843              		.globl	chSchDoRescheduleBehind
 844              		.type	chSchDoRescheduleBehind, @function
 845              	chSchDoRescheduleBehind:
 846              	.LFB147:
 847              		.loc 1 507 36 is_stmt 1 view -0
 848              		.cfi_startproc
 849              		.loc 1 508 3 view .LVU294
 850              		.loc 1 507 36 is_stmt 0 view .LVU295
 851 0000 56       		pushl	%esi
 852              		.cfi_def_cfa_offset 8
 853              		.cfi_offset 6, -8
GAS LISTING /tmp/ccaWtcpU.s 			page 17


 854 0001 53       		pushl	%ebx
 855              		.cfi_def_cfa_offset 12
 856              		.cfi_offset 3, -12
 857 0002 E8FCFFFF 		call	__x86.get_pc_thunk.bx
 857      FF
 858 0007 81C30200 		addl	$_GLOBAL_OFFSET_TABLE_, %ebx
 858      0000
 859 000d 83EC04   		subl	$4, %esp
 860              		.cfi_def_cfa_offset 16
 861              	.LBB140:
 862              	.LBB141:
 863              		.loc 5 607 13 view .LVU296
 864 0010 8B8B0000 		movl	ch@GOTOFF(%ebx), %ecx
 864      0000
 865              	.LBE141:
 866              	.LBE140:
 867              		.loc 1 508 13 view .LVU297
 868 0016 8B931800 		movl	24+ch@GOTOFF(%ebx), %edx
 868      0000
 869              	.LVL46:
 870              		.loc 1 511 3 is_stmt 1 view .LVU298
 871              	.LBB144:
 872              	.LBI140:
 873              		.loc 5 606 25 view .LVU299
 874              	.LBB142:
 875              		.loc 5 607 3 view .LVU300
 876              		.loc 5 609 3 view .LVU301
 877              		.loc 5 610 25 is_stmt 0 view .LVU302
 878 001c 8D830000 		leal	ch@GOTOFF(%ebx), %eax
 878      0000
 879              		.loc 5 609 36 view .LVU303
 880 0022 8B31     		movl	(%ecx), %esi
 881              		.loc 5 610 25 view .LVU304
 882 0024 894604   		movl	%eax, 4(%esi)
 883              	.LBE142:
 884              	.LBE144:
 885              		.loc 1 512 16 view .LVU305
 886 0027 C6412001 		movb	$1, 32(%ecx)
 887              		.loc 1 511 9 view .LVU306
 888 002b 898B1800 		movl	%ecx, 24+ch@GOTOFF(%ebx)
 888      0000
 889              	.LBB145:
 890              	.LBB146:
 891              		.loc 1 227 13 view .LVU307
 892 0031 C6422000 		movb	$0, 32(%edx)
 893              	.LBE146:
 894              	.LBE145:
 895              	.LBB148:
 896              	.LBB143:
 897              		.loc 5 609 25 view .LVU308
 898 0035 89B30000 		movl	%esi, ch@GOTOFF(%ebx)
 898      0000
 899              		.loc 5 610 3 is_stmt 1 view .LVU309
 900              		.loc 5 612 3 view .LVU310
 901              	.LVL47:
 902              		.loc 5 612 3 is_stmt 0 view .LVU311
 903              	.LBE143:
GAS LISTING /tmp/ccaWtcpU.s 			page 18


 904              	.LBE148:
 905              		.loc 1 512 3 is_stmt 1 view .LVU312
 906              		.loc 1 515 3 view .LVU313
 907              		.loc 1 515 10 is_stmt 0 view .LVU314
 908 003b 8B7208   		movl	8(%edx), %esi
 909              		.loc 1 516 5 is_stmt 1 view .LVU315
 910              		.loc 1 516 29 view .LVU316
 911              		.loc 1 525 3 view .LVU317
 912              	.LVL48:
 913              	.LBB149:
 914              	.LBI145:
 915              		.loc 1 218 11 view .LVU318
 916              	.LBB147:
 917              		.loc 1 219 3 view .LVU319
 918              		.loc 1 221 21 view .LVU320
 919              		.loc 1 222 3 view .LVU321
 920              		.loc 1 222 3 view .LVU322
 921              		.loc 1 223 3 view .LVU323
 922              		.loc 1 223 3 view .LVU324
 923              		.loc 1 227 3 view .LVU325
 924              		.loc 1 228 3 view .LVU326
 925 003e 6690     		.p2align 4,,10
 926              		.p2align 3
 927              	.L40:
 928              		.loc 1 229 3 view .LVU327
 929              		.loc 1 230 5 view .LVU328
 930              		.loc 1 230 8 is_stmt 0 view .LVU329
 931 0040 8B00     		movl	(%eax), %eax
 932              	.LVL49:
 933              		.loc 1 231 3 view .LVU330
 934 0042 3B7008   		cmpl	8(%eax), %esi
 935 0045 76F9     		jbe	.L40
 936              		.loc 1 233 3 is_stmt 1 view .LVU331
 937              		.loc 1 234 41 is_stmt 0 view .LVU332
 938 0047 8B7004   		movl	4(%eax), %esi
 939              		.loc 1 233 30 view .LVU333
 940 004a 8902     		movl	%eax, (%edx)
 941              		.loc 1 234 3 is_stmt 1 view .LVU334
 942              		.loc 1 234 30 is_stmt 0 view .LVU335
 943 004c 897204   		movl	%esi, 4(%edx)
 944              		.loc 1 235 3 is_stmt 1 view .LVU336
 945              		.loc 1 235 30 is_stmt 0 view .LVU337
 946 004f 8916     		movl	%edx, (%esi)
 947              		.loc 1 236 3 is_stmt 1 view .LVU338
 948              		.loc 1 236 30 is_stmt 0 view .LVU339
 949 0051 895004   		movl	%edx, 4(%eax)
 950              		.loc 1 238 3 is_stmt 1 view .LVU340
 951              	.LVL50:
 952              		.loc 1 238 3 is_stmt 0 view .LVU341
 953              	.LBE147:
 954              	.LBE149:
 955              		.loc 1 528 3 is_stmt 1 view .LVU342
 956              		.loc 1 528 3 view .LVU343
 957              		.loc 1 528 3 view .LVU344
 958              		.loc 1 528 3 view .LVU345
 959              		.loc 1 528 3 view .LVU346
 960 0054 E8FCFFFF 		call	port_switch@PLT
GAS LISTING /tmp/ccaWtcpU.s 			page 19


 960      FF
 961              	.LVL51:
 962              		.loc 1 528 26 view .LVU347
 963              		.loc 1 529 1 is_stmt 0 view .LVU348
 964 0059 83C404   		addl	$4, %esp
 965              		.cfi_def_cfa_offset 12
 966 005c 5B       		popl	%ebx
 967              		.cfi_restore 3
 968              		.cfi_def_cfa_offset 8
 969 005d 5E       		popl	%esi
 970              		.cfi_restore 6
 971              		.cfi_def_cfa_offset 4
 972 005e C3       		ret
 973              		.cfi_endproc
 974              	.LFE147:
 975              		.size	chSchDoRescheduleBehind, .-chSchDoRescheduleBehind
 976              		.section	.text.chSchDoRescheduleAhead,"ax",@progbits
 977              		.p2align 4,,15
 978              		.globl	chSchDoRescheduleAhead
 979              		.type	chSchDoRescheduleAhead, @function
 980              	chSchDoRescheduleAhead:
 981              	.LFB148:
 982              		.loc 1 540 35 is_stmt 1 view -0
 983              		.cfi_startproc
 984              		.loc 1 541 3 view .LVU350
 985              		.loc 1 540 35 is_stmt 0 view .LVU351
 986 0000 56       		pushl	%esi
 987              		.cfi_def_cfa_offset 8
 988              		.cfi_offset 6, -8
 989 0001 53       		pushl	%ebx
 990              		.cfi_def_cfa_offset 12
 991              		.cfi_offset 3, -12
 992 0002 E8FCFFFF 		call	__x86.get_pc_thunk.bx
 992      FF
 993 0007 81C30200 		addl	$_GLOBAL_OFFSET_TABLE_, %ebx
 993      0000
 994 000d 83EC04   		subl	$4, %esp
 995              		.cfi_def_cfa_offset 16
 996              	.LBB150:
 997              	.LBB151:
 998              		.loc 5 607 13 view .LVU352
 999 0010 8B8B0000 		movl	ch@GOTOFF(%ebx), %ecx
 999      0000
 1000              	.LBE151:
 1001              	.LBE150:
 1002              		.loc 1 541 13 view .LVU353
 1003 0016 8B931800 		movl	24+ch@GOTOFF(%ebx), %edx
 1003      0000
 1004              	.LVL52:
 1005              		.loc 1 544 3 is_stmt 1 view .LVU354
 1006              	.LBB154:
 1007              	.LBI150:
 1008              		.loc 5 606 25 view .LVU355
 1009              	.LBB152:
 1010              		.loc 5 607 3 view .LVU356
 1011              		.loc 5 609 3 view .LVU357
 1012              		.loc 5 610 25 is_stmt 0 view .LVU358
GAS LISTING /tmp/ccaWtcpU.s 			page 20


 1013 001c 8D830000 		leal	ch@GOTOFF(%ebx), %eax
 1013      0000
 1014              		.loc 5 609 36 view .LVU359
 1015 0022 8B31     		movl	(%ecx), %esi
 1016              		.loc 5 610 25 view .LVU360
 1017 0024 894604   		movl	%eax, 4(%esi)
 1018              	.LBE152:
 1019              	.LBE154:
 1020              		.loc 1 545 16 view .LVU361
 1021 0027 C6412001 		movb	$1, 32(%ecx)
 1022              		.loc 1 544 9 view .LVU362
 1023 002b 898B1800 		movl	%ecx, 24+ch@GOTOFF(%ebx)
 1023      0000
 1024              	.LBB155:
 1025              	.LBB156:
 1026              		.loc 1 266 13 view .LVU363
 1027 0031 C6422000 		movb	$0, 32(%edx)
 1028              	.LBE156:
 1029              	.LBE155:
 1030              	.LBB158:
 1031              	.LBB153:
 1032              		.loc 5 609 25 view .LVU364
 1033 0035 89B30000 		movl	%esi, ch@GOTOFF(%ebx)
 1033      0000
 1034              		.loc 5 610 3 is_stmt 1 view .LVU365
 1035              		.loc 5 612 3 view .LVU366
 1036              	.LVL53:
 1037              		.loc 5 612 3 is_stmt 0 view .LVU367
 1038              	.LBE153:
 1039              	.LBE158:
 1040              		.loc 1 545 3 is_stmt 1 view .LVU368
 1041              		.loc 1 548 3 view .LVU369
 1042              		.loc 1 548 10 is_stmt 0 view .LVU370
 1043 003b 8B7208   		movl	8(%edx), %esi
 1044              		.loc 1 549 5 is_stmt 1 view .LVU371
 1045              		.loc 1 549 29 view .LVU372
 1046              		.loc 1 553 3 view .LVU373
 1047              	.LVL54:
 1048              	.LBB159:
 1049              	.LBI155:
 1050              		.loc 1 257 11 view .LVU374
 1051              	.LBB157:
 1052              		.loc 1 258 3 view .LVU375
 1053              		.loc 1 260 21 view .LVU376
 1054              		.loc 1 261 3 view .LVU377
 1055              		.loc 1 261 3 view .LVU378
 1056              		.loc 1 262 3 view .LVU379
 1057              		.loc 1 262 3 view .LVU380
 1058              		.loc 1 266 3 view .LVU381
 1059              		.loc 1 267 3 view .LVU382
 1060 003e 6690     		.p2align 4,,10
 1061              		.p2align 3
 1062              	.L44:
 1063              		.loc 1 268 3 view .LVU383
 1064              		.loc 1 269 5 view .LVU384
 1065              		.loc 1 269 8 is_stmt 0 view .LVU385
 1066 0040 8B00     		movl	(%eax), %eax
GAS LISTING /tmp/ccaWtcpU.s 			page 21


 1067              	.LVL55:
 1068              		.loc 1 270 3 view .LVU386
 1069 0042 3B7008   		cmpl	8(%eax), %esi
 1070 0045 72F9     		jb	.L44
 1071              		.loc 1 272 3 is_stmt 1 view .LVU387
 1072              		.loc 1 273 41 is_stmt 0 view .LVU388
 1073 0047 8B7004   		movl	4(%eax), %esi
 1074              		.loc 1 272 30 view .LVU389
 1075 004a 8902     		movl	%eax, (%edx)
 1076              		.loc 1 273 3 is_stmt 1 view .LVU390
 1077              		.loc 1 273 30 is_stmt 0 view .LVU391
 1078 004c 897204   		movl	%esi, 4(%edx)
 1079              		.loc 1 274 3 is_stmt 1 view .LVU392
 1080              		.loc 1 274 30 is_stmt 0 view .LVU393
 1081 004f 8916     		movl	%edx, (%esi)
 1082              		.loc 1 275 3 is_stmt 1 view .LVU394
 1083              		.loc 1 275 30 is_stmt 0 view .LVU395
 1084 0051 895004   		movl	%edx, 4(%eax)
 1085              		.loc 1 277 3 is_stmt 1 view .LVU396
 1086              	.LVL56:
 1087              		.loc 1 277 3 is_stmt 0 view .LVU397
 1088              	.LBE157:
 1089              	.LBE159:
 1090              		.loc 1 556 3 is_stmt 1 view .LVU398
 1091              		.loc 1 556 3 view .LVU399
 1092              		.loc 1 556 3 view .LVU400
 1093              		.loc 1 556 3 view .LVU401
 1094              		.loc 1 556 3 view .LVU402
 1095 0054 E8FCFFFF 		call	port_switch@PLT
 1095      FF
 1096              	.LVL57:
 1097              		.loc 1 556 26 view .LVU403
 1098              		.loc 1 557 1 is_stmt 0 view .LVU404
 1099 0059 83C404   		addl	$4, %esp
 1100              		.cfi_def_cfa_offset 12
 1101 005c 5B       		popl	%ebx
 1102              		.cfi_restore 3
 1103              		.cfi_def_cfa_offset 8
 1104 005d 5E       		popl	%esi
 1105              		.cfi_restore 6
 1106              		.cfi_def_cfa_offset 4
 1107 005e C3       		ret
 1108              		.cfi_endproc
 1109              	.LFE148:
 1110              		.size	chSchDoRescheduleAhead, .-chSchDoRescheduleAhead
 1111              		.section	.text.chSchRescheduleS,"ax",@progbits
 1112              		.p2align 4,,15
 1113              		.globl	chSchRescheduleS
 1114              		.type	chSchRescheduleS, @function
 1115              	chSchRescheduleS:
 1116              	.LFB145:
 1117              		.loc 1 456 29 is_stmt 1 view -0
 1118              		.cfi_startproc
 1119              		.loc 1 458 21 view .LVU406
 1120              		.loc 1 460 3 view .LVU407
 1121              	.LBB160:
 1122              	.LBI160:
GAS LISTING /tmp/ccaWtcpU.s 			page 22


 1123              		.loc 5 644 20 view .LVU408
 1124              	.LBB161:
 1125              		.loc 5 646 21 view .LVU409
 1126              		.loc 5 648 3 view .LVU410
 1127 0000 E8FCFFFF 		call	__x86.get_pc_thunk.ax
 1127      FF
 1128 0005 05010000 		addl	$_GLOBAL_OFFSET_TABLE_, %eax
 1128      00
 1129              		.loc 5 648 10 is_stmt 0 view .LVU411
 1130 000a 8B900000 		movl	ch@GOTOFF(%eax), %edx
 1130      0000
 1131              		.loc 5 648 44 view .LVU412
 1132 0010 8B801800 		movl	24+ch@GOTOFF(%eax), %eax
 1132      0000
 1133              	.LBE161:
 1134              	.LBE160:
 1135              		.loc 1 460 6 view .LVU413
 1136 0016 8B4008   		movl	8(%eax), %eax
 1137 0019 394208   		cmpl	%eax, 8(%edx)
 1138 001c 7702     		ja	.L49
 1139              		.loc 1 463 1 view .LVU414
 1140 001e C3       		ret
 1141 001f 90       		.p2align 4,,10
 1142              		.p2align 3
 1143              	.L49:
 1144              		.loc 1 461 5 is_stmt 1 view .LVU415
 1145 0020 E9FCFFFF 		jmp	chSchDoRescheduleAhead
 1145      FF
 1146              	.LVL58:
 1147              		.cfi_endproc
 1148              	.LFE145:
 1149              		.size	chSchRescheduleS, .-chSchRescheduleS
 1150              		.section	.text.chSchDoReschedule,"ax",@progbits
 1151              		.p2align 4,,15
 1152              		.globl	chSchDoReschedule
 1153              		.type	chSchDoReschedule, @function
 1154              	chSchDoReschedule:
 1155              	.LFB154:
 1156              		.cfi_startproc
 1157 0000 E9FCFFFF 		jmp	chSchDoRescheduleAhead
 1157      FF
 1158              		.cfi_endproc
 1159              	.LFE154:
 1160              		.size	chSchDoReschedule, .-chSchDoReschedule
 1161              		.globl	ch
 1162              		.section	.bss.ch,"aw",@nobits
 1163              		.align 32
 1164              		.type	ch, @object
 1165              		.size	ch, 120
 1166              	ch:
 1167 0000 00000000 		.zero	120
 1167      00000000 
 1167      00000000 
 1167      00000000 
 1167      00000000 
 1168              		.section	.text.__x86.get_pc_thunk.ax,"axG",@progbits,__x86.get_pc_thunk.ax,comdat
 1169              		.globl	__x86.get_pc_thunk.ax
GAS LISTING /tmp/ccaWtcpU.s 			page 23


 1170              		.hidden	__x86.get_pc_thunk.ax
 1171              		.type	__x86.get_pc_thunk.ax, @function
 1172              	__x86.get_pc_thunk.ax:
 1173              	.LFB155:
 1174              		.cfi_startproc
 1175 0000 8B0424   		movl	(%esp), %eax
 1176 0003 C3       		ret
 1177              		.cfi_endproc
 1178              	.LFE155:
 1179              		.section	.text.__x86.get_pc_thunk.dx,"axG",@progbits,__x86.get_pc_thunk.dx,comdat
 1180              		.globl	__x86.get_pc_thunk.dx
 1181              		.hidden	__x86.get_pc_thunk.dx
 1182              		.type	__x86.get_pc_thunk.dx, @function
 1183              	__x86.get_pc_thunk.dx:
 1184              	.LFB156:
 1185              		.cfi_startproc
 1186 0000 8B1424   		movl	(%esp), %edx
 1187 0003 C3       		ret
 1188              		.cfi_endproc
 1189              	.LFE156:
 1190              		.section	.text.__x86.get_pc_thunk.bx,"axG",@progbits,__x86.get_pc_thunk.bx,comdat
 1191              		.globl	__x86.get_pc_thunk.bx
 1192              		.hidden	__x86.get_pc_thunk.bx
 1193              		.type	__x86.get_pc_thunk.bx, @function
 1194              	__x86.get_pc_thunk.bx:
 1195              	.LFB157:
 1196              		.cfi_startproc
 1197 0000 8B1C24   		movl	(%esp), %ebx
 1198 0003 C3       		ret
 1199              		.cfi_endproc
 1200              	.LFE157:
 1201              		.text
 1202              	.Letext0:
 1203              		.file 7 "/usr/lib/gcc/x86_64-linux-gnu/8/include/stddef.h"
 1204              		.file 8 "/usr/include/i386-linux-gnu/bits/types.h"
 1205              		.file 9 "/usr/include/i386-linux-gnu/bits/stdint-intn.h"
 1206              		.file 10 "/usr/include/i386-linux-gnu/bits/stdint-uintn.h"
 1207              		.file 11 "../../../os/common/ports/SIMIA32/compilers/GCC/chtypes.h"
 1208              		.file 12 "../../../os/rt/include/chsystypes.h"
 1209              		.file 13 "../../../os/rt/include/chtime.h"
 1210              		.file 14 "../../../os/rt/include/chtm.h"
 1211              		.file 15 "../../../os/rt/include/chmtx.h"
 1212              		.file 16 "../../../os/rt/include/chregistry.h"
 1213              		.file 17 "../../../os/common/oslib/include/chmemcore.h"
 1214              		.file 18 "../../../os/common/oslib/include/chmempools.h"
 1215              		.file 19 "../../../os/common/oslib/include/chfactory.h"
 5477              		.section	.note.GNU-stack,"",@progbits
GAS LISTING /tmp/ccaWtcpU.s 			page 106

