GAS LISTING /tmp/ccUzXom3.s 			page 1


   1              		.file	"chsem.c"
   2              		.text
   3              	.Ltext0:
   4              		.section	.text.chSemObjectInit,"ax",@progbits
   5              		.p2align 4,,15
   6              		.globl	chSemObjectInit
   7              		.type	chSemObjectInit, @function
   8              	chSemObjectInit:
   9              	.LVL0:
  10              	.LFB138:
  11              		.file 1 "../../../os/rt/src/chsem.c"
  12              		.loc 1 97 48 view -0
  13              		.cfi_startproc
  14              		.loc 1 99 3 view .LVU1
  15              		.loc 1 99 3 view .LVU2
  16              		.loc 1 101 3 view .LVU3
  17              		.loc 1 97 48 is_stmt 0 view .LVU4
  18 0000 8B442404 		movl	4(%esp), %eax
  19              	.LVL1:
  20              	.LBB74:
  21              	.LBI74:
  22              		.file 2 "../../../os/rt/include/chschd.h"
  23              		.loc 2 537 20 is_stmt 1 view .LVU5
  24              	.LBB75:
  25              		.loc 2 539 3 view .LVU6
  26              	.LBE75:
  27              	.LBE74:
  28              		.loc 1 102 11 is_stmt 0 view .LVU7
  29 0004 8B542408 		movl	8(%esp), %edx
  30              	.LBB77:
  31              	.LBB76:
  32              		.loc 2 539 13 view .LVU8
  33 0008 8900     		movl	%eax, (%eax)
  34              		.loc 2 540 3 is_stmt 1 view .LVU9
  35              		.loc 2 540 13 is_stmt 0 view .LVU10
  36 000a 894004   		movl	%eax, 4(%eax)
  37              	.LVL2:
  38              		.loc 2 540 13 view .LVU11
  39              	.LBE76:
  40              	.LBE77:
  41              		.loc 1 102 3 is_stmt 1 view .LVU12
  42              		.loc 1 102 11 is_stmt 0 view .LVU13
  43 000d 895008   		movl	%edx, 8(%eax)
  44              		.loc 1 103 1 view .LVU14
  45 0010 C3       		ret
  46              		.cfi_endproc
  47              	.LFE138:
  48              		.size	chSemObjectInit, .-chSemObjectInit
  49              		.section	.text.chSemResetI,"ax",@progbits
  50              		.p2align 4,,15
  51              		.globl	chSemResetI
  52              		.type	chSemResetI, @function
  53              	chSemResetI:
  54              	.LVL3:
  55              	.LFB140:
  56              		.loc 1 147 44 is_stmt 1 view -0
  57              		.cfi_startproc
GAS LISTING /tmp/ccUzXom3.s 			page 2


  58              		.loc 1 148 3 view .LVU16
  59              		.loc 1 150 21 view .LVU17
  60              		.loc 1 151 3 view .LVU18
  61              		.loc 1 151 3 view .LVU19
  62              		.loc 1 152 3 view .LVU20
  63              		.loc 1 152 3 view .LVU21
  64              		.loc 1 156 3 view .LVU22
  65              		.loc 1 147 44 is_stmt 0 view .LVU23
  66 0000 57       		pushl	%edi
  67              		.cfi_def_cfa_offset 8
  68              		.cfi_offset 7, -8
  69 0001 56       		pushl	%esi
  70              		.cfi_def_cfa_offset 12
  71              		.cfi_offset 6, -12
  72 0002 53       		pushl	%ebx
  73              		.cfi_def_cfa_offset 16
  74              		.cfi_offset 3, -16
  75              		.loc 1 147 44 view .LVU24
  76 0003 8B7C2410 		movl	16(%esp), %edi
  77 0007 E8FCFFFF 		call	__x86.get_pc_thunk.bx
  77      FF
  78 000c 81C30200 		addl	$_GLOBAL_OFFSET_TABLE_, %ebx
  78      0000
  79              		.loc 1 157 11 view .LVU25
  80 0012 8B442414 		movl	20(%esp), %eax
  81              		.loc 1 156 7 view .LVU26
  82 0016 8B7708   		movl	8(%edi), %esi
  83              	.LVL4:
  84              		.loc 1 157 3 is_stmt 1 view .LVU27
  85              		.loc 1 157 11 is_stmt 0 view .LVU28
  86 0019 894708   		movl	%eax, 8(%edi)
  87              		.loc 1 158 3 is_stmt 1 view .LVU29
  88              		.loc 1 158 9 is_stmt 0 view .LVU30
  89 001c 83C601   		addl	$1, %esi
  90              	.LVL5:
  91              		.loc 1 158 9 view .LVU31
  92 001f 85F6     		testl	%esi, %esi
  93 0021 7F2B     		jg	.L3
  94              		.p2align 4,,10
  95 0023 8D742600 		.p2align 3
  95      90
  96              	.L5:
  97              		.loc 1 159 5 is_stmt 1 view .LVU32
  98              	.LVL6:
  99              	.LBB78:
 100              	.LBI78:
 101              		.loc 2 615 25 view .LVU33
 102              	.LBB79:
 103              		.loc 2 616 3 view .LVU34
 104              		.loc 2 616 13 is_stmt 0 view .LVU35
 105 0028 8B4704   		movl	4(%edi), %eax
 106              	.LVL7:
 107              		.loc 2 618 3 is_stmt 1 view .LVU36
 108              	.LBE79:
 109              	.LBE78:
 110              		.loc 1 159 5 is_stmt 0 view .LVU37
 111 002b 83EC0C   		subl	$12, %esp
GAS LISTING /tmp/ccUzXom3.s 			page 3


 112              		.cfi_def_cfa_offset 28
 113              		.loc 1 158 9 view .LVU38
 114 002e 83C601   		addl	$1, %esi
 115              	.LVL8:
 116              	.LBB81:
 117              	.LBB80:
 118              		.loc 2 618 36 view .LVU39
 119 0031 8B5004   		movl	4(%eax), %edx
 120              		.loc 2 618 25 view .LVU40
 121 0034 895704   		movl	%edx, 4(%edi)
 122              		.loc 2 619 3 is_stmt 1 view .LVU41
 123              		.loc 2 619 25 is_stmt 0 view .LVU42
 124 0037 893A     		movl	%edi, (%edx)
 125              		.loc 2 621 3 is_stmt 1 view .LVU43
 126              	.LVL9:
 127              		.loc 2 621 3 is_stmt 0 view .LVU44
 128              	.LBE80:
 129              	.LBE81:
 130              		.loc 1 159 5 view .LVU45
 131 0039 50       		pushl	%eax
 132              		.cfi_def_cfa_offset 32
 133 003a E8FCFFFF 		call	chSchReadyI@PLT
 133      FF
 134              	.LVL10:
 135              		.loc 1 158 9 view .LVU46
 136 003f 83C410   		addl	$16, %esp
 137              		.cfi_def_cfa_offset 16
 138              		.loc 1 159 58 view .LVU47
 139 0042 C74024FE 		movl	$-2, 36(%eax)
 139      FFFFFF
 140              	.LVL11:
 141              		.loc 1 158 9 view .LVU48
 142 0049 83FE01   		cmpl	$1, %esi
 143 004c 75DA     		jne	.L5
 144              	.L3:
 145              		.loc 1 161 1 view .LVU49
 146 004e 5B       		popl	%ebx
 147              		.cfi_restore 3
 148              		.cfi_def_cfa_offset 12
 149 004f 5E       		popl	%esi
 150              		.cfi_restore 6
 151              		.cfi_def_cfa_offset 8
 152              	.LVL12:
 153              		.loc 1 161 1 view .LVU50
 154 0050 5F       		popl	%edi
 155              		.cfi_restore 7
 156              		.cfi_def_cfa_offset 4
 157 0051 C3       		ret
 158              		.cfi_endproc
 159              	.LFE140:
 160              		.size	chSemResetI, .-chSemResetI
 161              		.section	.text.chSemReset,"ax",@progbits
 162              		.p2align 4,,15
 163              		.globl	chSemReset
 164              		.type	chSemReset, @function
 165              	chSemReset:
 166              	.LVL13:
GAS LISTING /tmp/ccUzXom3.s 			page 4


 167              	.LFB139:
 168              		.loc 1 120 43 is_stmt 1 view -0
 169              		.cfi_startproc
 170              		.loc 1 122 3 view .LVU52
 171              	.LBB82:
 172              	.LBI82:
 173              		.file 3 "../../../os/rt/include/chsys.h"
 174              		.loc 3 353 20 view .LVU53
 175              	.LBE82:
 176              		.loc 3 355 3 view .LVU54
 177              	.LBB87:
 178              	.LBB83:
 179              	.LBI83:
 180              		.file 4 "../../../os/common/ports/SIMIA32/chcore.h"
 181              		.loc 4 362 20 view .LVU55
 182              	.LBB84:
 183              		.loc 4 364 3 view .LVU56
 184              	.LBE84:
 185              	.LBE83:
 186              	.LBE87:
 187              		.loc 1 120 43 is_stmt 0 view .LVU57
 188 0000 56       		pushl	%esi
 189              		.cfi_def_cfa_offset 8
 190              		.cfi_offset 6, -8
 191 0001 53       		pushl	%ebx
 192              		.cfi_def_cfa_offset 12
 193              		.cfi_offset 3, -12
 194 0002 E8FCFFFF 		call	__x86.get_pc_thunk.bx
 194      FF
 195 0007 81C30200 		addl	$_GLOBAL_OFFSET_TABLE_, %ebx
 195      0000
 196 000d 83EC0C   		subl	$12, %esp
 197              		.cfi_def_cfa_offset 24
 198              		.loc 1 123 3 view .LVU58
 199 0010 FF74241C 		pushl	28(%esp)
 200              		.cfi_def_cfa_offset 28
 201 0014 FF74241C 		pushl	28(%esp)
 202              		.cfi_def_cfa_offset 32
 203              	.LBB88:
 204              	.LBB86:
 205              	.LBB85:
 206              		.loc 4 364 16 view .LVU59
 207 0018 8BB30000 		movl	port_irq_sts@GOT(%ebx), %esi
 207      0000
 208 001e C7060100 		movl	$1, (%esi)
 208      0000
 209              	.LBE85:
 210              	.LBE86:
 211              	.LBE88:
 212              		.loc 3 356 34 is_stmt 1 view .LVU60
 213              		.loc 3 357 20 view .LVU61
 214              		.loc 1 123 3 view .LVU62
 215 0024 E8FCFFFF 		call	chSemResetI
 215      FF
 216              	.LVL14:
 217              		.loc 1 124 3 view .LVU63
 218 0029 E8FCFFFF 		call	chSchRescheduleS@PLT
GAS LISTING /tmp/ccUzXom3.s 			page 5


 218      FF
 219              	.LVL15:
 220              		.loc 1 125 3 view .LVU64
 221              	.LBB89:
 222              	.LBI89:
 223              		.loc 3 365 20 view .LVU65
 224              	.LBB90:
 225              		.loc 3 367 22 view .LVU66
 226              		.loc 3 368 33 view .LVU67
 227              		.loc 3 374 3 view .LVU68
 228              		.loc 3 374 3 view .LVU69
 229              		.loc 3 378 3 view .LVU70
 230              	.LBB91:
 231              	.LBI91:
 232              		.loc 4 371 20 view .LVU71
 233              	.LBB92:
 234              		.loc 4 373 3 view .LVU72
 235              		.loc 4 373 16 is_stmt 0 view .LVU73
 236 002e C7060000 		movl	$0, (%esi)
 236      0000
 237              	.LBE92:
 238              	.LBE91:
 239              	.LBE90:
 240              	.LBE89:
 241              		.loc 1 126 1 view .LVU74
 242 0034 83C414   		addl	$20, %esp
 243              		.cfi_def_cfa_offset 12
 244 0037 5B       		popl	%ebx
 245              		.cfi_restore 3
 246              		.cfi_def_cfa_offset 8
 247 0038 5E       		popl	%esi
 248              		.cfi_restore 6
 249              		.cfi_def_cfa_offset 4
 250 0039 C3       		ret
 251              		.cfi_endproc
 252              	.LFE139:
 253              		.size	chSemReset, .-chSemReset
 254              		.section	.text.chSemWait,"ax",@progbits
 255              		.p2align 4,,15
 256              		.globl	chSemWait
 257              		.type	chSemWait, @function
 258              	chSemWait:
 259              	.LVL16:
 260              	.LFB141:
 261              		.loc 1 175 34 is_stmt 1 view -0
 262              		.cfi_startproc
 263              		.loc 1 176 3 view .LVU76
 264              		.loc 1 178 3 view .LVU77
 265              	.LBB106:
 266              	.LBI106:
 267              		.loc 3 353 20 view .LVU78
 268              	.LBE106:
 269              		.loc 3 355 3 view .LVU79
 270              	.LBB111:
 271              	.LBB107:
 272              	.LBI107:
 273              		.loc 4 362 20 view .LVU80
GAS LISTING /tmp/ccUzXom3.s 			page 6


 274              	.LBB108:
 275              		.loc 4 364 3 view .LVU81
 276              	.LBE108:
 277              	.LBE107:
 278              	.LBE111:
 279              		.loc 1 175 34 is_stmt 0 view .LVU82
 280 0000 57       		pushl	%edi
 281              		.cfi_def_cfa_offset 8
 282              		.cfi_offset 7, -8
 283 0001 56       		pushl	%esi
 284              		.cfi_def_cfa_offset 12
 285              		.cfi_offset 6, -12
 286 0002 53       		pushl	%ebx
 287              		.cfi_def_cfa_offset 16
 288              		.cfi_offset 3, -16
 289              		.loc 1 175 34 view .LVU83
 290 0003 8B4C2410 		movl	16(%esp), %ecx
 291 0007 E8FCFFFF 		call	__x86.get_pc_thunk.bx
 291      FF
 292 000c 81C30200 		addl	$_GLOBAL_OFFSET_TABLE_, %ebx
 292      0000
 293              	.LBB112:
 294              	.LBB113:
 295              		.loc 1 205 6 view .LVU84
 296 0012 83690801 		subl	$1, 8(%ecx)
 297              	.LBE113:
 298              	.LBE112:
 299              	.LBB125:
 300              	.LBB110:
 301              	.LBB109:
 302              		.loc 4 364 16 view .LVU85
 303 0016 8BB30000 		movl	port_irq_sts@GOT(%ebx), %esi
 303      0000
 304 001c C7060100 		movl	$1, (%esi)
 304      0000
 305              	.LBE109:
 306              	.LBE110:
 307              	.LBE125:
 308              		.loc 3 356 34 is_stmt 1 view .LVU86
 309              		.loc 3 357 20 view .LVU87
 310              		.loc 1 179 3 view .LVU88
 311              	.LVL17:
 312              	.LBB126:
 313              	.LBI112:
 314              		.loc 1 197 7 view .LVU89
 315              	.LBB122:
 316              		.loc 1 199 21 view .LVU90
 317              		.loc 1 200 3 view .LVU91
 318              		.loc 1 200 3 view .LVU92
 319              		.loc 1 201 3 view .LVU93
 320              		.loc 1 201 3 view .LVU94
 321              		.loc 1 205 3 view .LVU95
 322              		.loc 1 205 6 is_stmt 0 view .LVU96
 323 0022 780C     		js	.L17
 324              	.LBE122:
 325              	.LBE126:
 326              		.loc 1 183 1 view .LVU97
GAS LISTING /tmp/ccUzXom3.s 			page 7


 327 0024 5B       		popl	%ebx
 328              		.cfi_remember_state
 329              		.cfi_restore 3
 330              		.cfi_def_cfa_offset 12
 331 0025 31C0     		xorl	%eax, %eax
 332              	.LVL18:
 333              		.loc 1 180 3 is_stmt 1 view .LVU98
 334              	.LBB127:
 335              	.LBI127:
 336              		.loc 3 365 20 view .LVU99
 337              	.LBB128:
 338              		.loc 3 367 22 view .LVU100
 339              		.loc 3 368 33 view .LVU101
 340              		.loc 3 374 3 view .LVU102
 341              		.loc 3 374 3 view .LVU103
 342              		.loc 3 378 3 view .LVU104
 343              	.LBB129:
 344              	.LBI129:
 345              		.loc 4 371 20 view .LVU105
 346              	.LBB130:
 347              		.loc 4 373 3 view .LVU106
 348              		.loc 4 373 16 is_stmt 0 view .LVU107
 349 0027 C7060000 		movl	$0, (%esi)
 349      0000
 350              	.LBE130:
 351              	.LBE129:
 352              	.LBE128:
 353              	.LBE127:
 354              		.loc 1 182 3 is_stmt 1 view .LVU108
 355              		.loc 1 183 1 is_stmt 0 view .LVU109
 356 002d 5E       		popl	%esi
 357              		.cfi_restore 6
 358              		.cfi_def_cfa_offset 8
 359 002e 5F       		popl	%edi
 360              		.cfi_restore 7
 361              		.cfi_def_cfa_offset 4
 362 002f C3       		ret
 363              	.LVL19:
 364              		.p2align 4,,10
 365              		.p2align 3
 366              	.L17:
 367              		.cfi_restore_state
 368              	.LBB137:
 369              	.LBB123:
 370              	.LBB114:
 371              	.LBI114:
 372              		.loc 1 197 7 is_stmt 1 view .LVU110
 373              	.LBB115:
 374              		.loc 1 206 5 view .LVU111
 375 0030 8BBB0000 		movl	ch@GOT(%ebx), %edi
 375      0000
 376              	.LBB116:
 377              	.LBB117:
 378              		.loc 2 601 35 is_stmt 0 view .LVU112
 379 0036 8B5104   		movl	4(%ecx), %edx
 380              	.LBE117:
 381              	.LBE116:
GAS LISTING /tmp/ccUzXom3.s 			page 8


 382              		.loc 1 208 5 view .LVU113
 383 0039 83EC0C   		subl	$12, %esp
 384              		.cfi_def_cfa_offset 28
 385              		.loc 1 206 5 view .LVU114
 386 003c 8B4718   		movl	24(%edi), %eax
 387              		.loc 1 206 21 view .LVU115
 388 003f 894824   		movl	%ecx, 36(%eax)
 389              		.loc 1 207 5 is_stmt 1 view .LVU116
 390              	.LVL20:
 391              	.LBB119:
 392              	.LBI116:
 393              		.loc 2 598 20 view .LVU117
 394              	.LBB118:
 395              		.loc 2 600 3 view .LVU118
 396              		.loc 2 600 30 is_stmt 0 view .LVU119
 397 0042 8908     		movl	%ecx, (%eax)
 398              		.loc 2 601 3 is_stmt 1 view .LVU120
 399              		.loc 2 601 30 is_stmt 0 view .LVU121
 400 0044 895004   		movl	%edx, 4(%eax)
 401              		.loc 2 602 3 is_stmt 1 view .LVU122
 402              		.loc 2 602 30 is_stmt 0 view .LVU123
 403 0047 8902     		movl	%eax, (%edx)
 404              		.loc 2 603 3 is_stmt 1 view .LVU124
 405              		.loc 2 603 30 is_stmt 0 view .LVU125
 406 0049 894104   		movl	%eax, 4(%ecx)
 407              	.LVL21:
 408              		.loc 2 603 30 view .LVU126
 409              	.LBE118:
 410              	.LBE119:
 411              		.loc 1 208 5 is_stmt 1 view .LVU127
 412 004c 6A05     		pushl	$5
 413              		.cfi_def_cfa_offset 32
 414 004e E8FCFFFF 		call	chSchGoSleepS@PLT
 414      FF
 415              	.LVL22:
 416              		.loc 1 210 5 view .LVU128
 417              		.loc 1 210 20 is_stmt 0 view .LVU129
 418 0053 8B4718   		movl	24(%edi), %eax
 419 0056 83C410   		addl	$16, %esp
 420              		.cfi_def_cfa_offset 16
 421              	.LBE115:
 422              	.LBE114:
 423              	.LBE123:
 424              	.LBE137:
 425              	.LBB138:
 426              	.LBB135:
 427              	.LBB133:
 428              	.LBB131:
 429              		.loc 4 373 16 view .LVU130
 430 0059 C7060000 		movl	$0, (%esi)
 430      0000
 431              	.LBE131:
 432              	.LBE133:
 433              	.LBE135:
 434              	.LBE138:
 435              		.loc 1 183 1 view .LVU131
 436 005f 5B       		popl	%ebx
GAS LISTING /tmp/ccUzXom3.s 			page 9


 437              		.cfi_restore 3
 438              		.cfi_def_cfa_offset 12
 439 0060 5E       		popl	%esi
 440              		.cfi_restore 6
 441              		.cfi_def_cfa_offset 8
 442              	.LBB139:
 443              	.LBB124:
 444              	.LBB121:
 445              	.LBB120:
 446              		.loc 1 210 20 view .LVU132
 447 0061 8B4024   		movl	36(%eax), %eax
 448              	.LVL23:
 449              		.loc 1 210 20 view .LVU133
 450              	.LBE120:
 451              	.LBE121:
 452              	.LBE124:
 453              	.LBE139:
 454              		.loc 1 180 3 is_stmt 1 view .LVU134
 455              	.LBB140:
 456              		.loc 3 365 20 view .LVU135
 457              	.LBB136:
 458              		.loc 3 367 22 view .LVU136
 459              		.loc 3 368 33 view .LVU137
 460              		.loc 3 374 3 view .LVU138
 461              		.loc 3 374 3 view .LVU139
 462              		.loc 3 378 3 view .LVU140
 463              	.LBB134:
 464              		.loc 4 371 20 view .LVU141
 465              	.LBB132:
 466              		.loc 4 373 3 view .LVU142
 467              	.LBE132:
 468              	.LBE134:
 469              	.LBE136:
 470              	.LBE140:
 471              		.loc 1 182 3 view .LVU143
 472              		.loc 1 183 1 is_stmt 0 view .LVU144
 473 0064 5F       		popl	%edi
 474              		.cfi_restore 7
 475              		.cfi_def_cfa_offset 4
 476 0065 C3       		ret
 477              		.cfi_endproc
 478              	.LFE141:
 479              		.size	chSemWait, .-chSemWait
 480              		.section	.text.chSemWaitS,"ax",@progbits
 481              		.p2align 4,,15
 482              		.globl	chSemWaitS
 483              		.type	chSemWaitS, @function
 484              	chSemWaitS:
 485              	.LVL24:
 486              	.LFB142:
 487              		.loc 1 197 35 is_stmt 1 view -0
 488              		.cfi_startproc
 489              		.loc 1 199 21 view .LVU146
 490              		.loc 1 200 3 view .LVU147
 491              		.loc 1 200 3 view .LVU148
 492              		.loc 1 201 3 view .LVU149
 493              		.loc 1 201 3 view .LVU150
GAS LISTING /tmp/ccUzXom3.s 			page 10


 494              		.loc 1 205 3 view .LVU151
 495              		.loc 1 197 35 is_stmt 0 view .LVU152
 496 0000 56       		pushl	%esi
 497              		.cfi_def_cfa_offset 8
 498              		.cfi_offset 6, -8
 499 0001 53       		pushl	%ebx
 500              		.cfi_def_cfa_offset 12
 501              		.cfi_offset 3, -12
 502 0002 E8FCFFFF 		call	__x86.get_pc_thunk.bx
 502      FF
 503 0007 81C30200 		addl	$_GLOBAL_OFFSET_TABLE_, %ebx
 503      0000
 504 000d 83EC04   		subl	$4, %esp
 505              		.cfi_def_cfa_offset 16
 506              		.loc 1 197 35 view .LVU153
 507 0010 8B4C2410 		movl	16(%esp), %ecx
 508              		.loc 1 205 6 view .LVU154
 509 0014 83690801 		subl	$1, 8(%ecx)
 510 0018 780E     		js	.L23
 511              		.loc 1 214 1 view .LVU155
 512 001a 83C404   		addl	$4, %esp
 513              		.cfi_remember_state
 514              		.cfi_def_cfa_offset 12
 515 001d 31C0     		xorl	%eax, %eax
 516 001f 5B       		popl	%ebx
 517              		.cfi_restore 3
 518              		.cfi_def_cfa_offset 8
 519 0020 5E       		popl	%esi
 520              		.cfi_restore 6
 521              		.cfi_def_cfa_offset 4
 522 0021 C3       		ret
 523              		.p2align 4,,10
 524 0022 8DB60000 		.p2align 3
 524      0000
 525              	.L23:
 526              		.cfi_restore_state
 527              	.LVL25:
 528              	.LBB145:
 529              	.LBI145:
 530              		.loc 1 197 7 is_stmt 1 view .LVU156
 531              	.LBB146:
 532              		.loc 1 206 5 view .LVU157
 533 0028 8BB30000 		movl	ch@GOT(%ebx), %esi
 533      0000
 534              	.LBB147:
 535              	.LBB148:
 536              		.loc 2 601 35 is_stmt 0 view .LVU158
 537 002e 8B5104   		movl	4(%ecx), %edx
 538              	.LBE148:
 539              	.LBE147:
 540              		.loc 1 208 5 view .LVU159
 541 0031 83EC0C   		subl	$12, %esp
 542              		.cfi_def_cfa_offset 28
 543              		.loc 1 206 5 view .LVU160
 544 0034 8B4618   		movl	24(%esi), %eax
 545              		.loc 1 206 21 view .LVU161
 546 0037 894824   		movl	%ecx, 36(%eax)
GAS LISTING /tmp/ccUzXom3.s 			page 11


 547              		.loc 1 207 5 is_stmt 1 view .LVU162
 548              	.LVL26:
 549              	.LBB150:
 550              	.LBI147:
 551              		.loc 2 598 20 view .LVU163
 552              	.LBB149:
 553              		.loc 2 600 3 view .LVU164
 554              		.loc 2 600 30 is_stmt 0 view .LVU165
 555 003a 8908     		movl	%ecx, (%eax)
 556              		.loc 2 601 3 is_stmt 1 view .LVU166
 557              		.loc 2 601 30 is_stmt 0 view .LVU167
 558 003c 895004   		movl	%edx, 4(%eax)
 559              		.loc 2 602 3 is_stmt 1 view .LVU168
 560              		.loc 2 602 30 is_stmt 0 view .LVU169
 561 003f 8902     		movl	%eax, (%edx)
 562              		.loc 2 603 3 is_stmt 1 view .LVU170
 563              		.loc 2 603 30 is_stmt 0 view .LVU171
 564 0041 894104   		movl	%eax, 4(%ecx)
 565              	.LVL27:
 566              		.loc 2 603 30 view .LVU172
 567              	.LBE149:
 568              	.LBE150:
 569              		.loc 1 208 5 is_stmt 1 view .LVU173
 570 0044 6A05     		pushl	$5
 571              		.cfi_def_cfa_offset 32
 572 0046 E8FCFFFF 		call	chSchGoSleepS@PLT
 572      FF
 573              	.LVL28:
 574              		.loc 1 210 5 view .LVU174
 575              		.loc 1 210 20 is_stmt 0 view .LVU175
 576 004b 8B4618   		movl	24(%esi), %eax
 577 004e 83C410   		addl	$16, %esp
 578              		.cfi_def_cfa_offset 16
 579 0051 8B4024   		movl	36(%eax), %eax
 580              	.LVL29:
 581              		.loc 1 210 20 view .LVU176
 582              	.LBE146:
 583              	.LBE145:
 584              		.loc 1 214 1 view .LVU177
 585 0054 83C404   		addl	$4, %esp
 586              		.cfi_def_cfa_offset 12
 587 0057 5B       		popl	%ebx
 588              		.cfi_restore 3
 589              		.cfi_def_cfa_offset 8
 590 0058 5E       		popl	%esi
 591              		.cfi_restore 6
 592              		.cfi_def_cfa_offset 4
 593 0059 C3       		ret
 594              		.cfi_endproc
 595              	.LFE142:
 596              		.size	chSemWaitS, .-chSemWaitS
 597              		.section	.text.chSemWaitTimeout,"ax",@progbits
 598              		.p2align 4,,15
 599              		.globl	chSemWaitTimeout
 600              		.type	chSemWaitTimeout, @function
 601              	chSemWaitTimeout:
 602              	.LVL30:
GAS LISTING /tmp/ccUzXom3.s 			page 12


 603              	.LFB143:
 604              		.loc 1 235 64 is_stmt 1 view -0
 605              		.cfi_startproc
 606              		.loc 1 236 3 view .LVU179
 607              		.loc 1 238 3 view .LVU180
 608              	.LBB164:
 609              	.LBI164:
 610              		.loc 3 353 20 view .LVU181
 611              	.LBE164:
 612              		.loc 3 355 3 view .LVU182
 613              	.LBB169:
 614              	.LBB165:
 615              	.LBI165:
 616              		.loc 4 362 20 view .LVU183
 617              	.LBB166:
 618              		.loc 4 364 3 view .LVU184
 619              	.LBE166:
 620              	.LBE165:
 621              	.LBE169:
 622              		.loc 1 235 64 is_stmt 0 view .LVU185
 623 0000 57       		pushl	%edi
 624              		.cfi_def_cfa_offset 8
 625              		.cfi_offset 7, -8
 626              	.LBB170:
 627              	.LBB171:
 628              		.loc 1 284 10 view .LVU186
 629 0001 31C0     		xorl	%eax, %eax
 630              	.LBE171:
 631              	.LBE170:
 632              		.loc 1 235 64 view .LVU187
 633 0003 56       		pushl	%esi
 634              		.cfi_def_cfa_offset 12
 635              		.cfi_offset 6, -12
 636 0004 53       		pushl	%ebx
 637              		.cfi_def_cfa_offset 16
 638              		.cfi_offset 3, -16
 639              		.loc 1 235 64 view .LVU188
 640 0005 8B542410 		movl	16(%esp), %edx
 641 0009 E8FCFFFF 		call	__x86.get_pc_thunk.bx
 641      FF
 642 000e 81C30200 		addl	$_GLOBAL_OFFSET_TABLE_, %ebx
 642      0000
 643              	.LBB182:
 644              	.LBB178:
 645              		.loc 1 272 11 view .LVU189
 646 0014 8B7A08   		movl	8(%edx), %edi
 647              		.loc 1 272 7 view .LVU190
 648 0017 8D4FFF   		leal	-1(%edi), %ecx
 649              		.loc 1 272 6 view .LVU191
 650 001a 894A08   		movl	%ecx, 8(%edx)
 651              	.LBE178:
 652              	.LBE182:
 653              	.LBB183:
 654              	.LBB168:
 655              	.LBB167:
 656              		.loc 4 364 16 view .LVU192
 657 001d 8BB30000 		movl	port_irq_sts@GOT(%ebx), %esi
GAS LISTING /tmp/ccUzXom3.s 			page 13


 657      0000
 658 0023 C7060100 		movl	$1, (%esi)
 658      0000
 659              	.LBE167:
 660              	.LBE168:
 661              	.LBE183:
 662              		.loc 3 356 34 is_stmt 1 view .LVU193
 663              		.loc 3 357 20 view .LVU194
 664              		.loc 1 239 3 view .LVU195
 665              	.LVL31:
 666              	.LBB184:
 667              	.LBI170:
 668              		.loc 1 264 7 view .LVU196
 669              	.LBB179:
 670              		.loc 1 266 21 view .LVU197
 671              		.loc 1 267 3 view .LVU198
 672              		.loc 1 267 3 view .LVU199
 673              		.loc 1 268 3 view .LVU200
 674              		.loc 1 268 3 view .LVU201
 675              		.loc 1 272 3 view .LVU202
 676              		.loc 1 272 6 is_stmt 0 view .LVU203
 677 0029 85C9     		testl	%ecx, %ecx
 678 002b 7813     		js	.L29
 679              	.L25:
 680              	.LVL32:
 681              		.loc 1 272 6 view .LVU204
 682              	.LBE179:
 683              	.LBE184:
 684              		.loc 1 240 3 is_stmt 1 view .LVU205
 685              	.LBB185:
 686              	.LBI185:
 687              		.loc 3 365 20 view .LVU206
 688              	.LBB186:
 689              		.loc 3 367 22 view .LVU207
 690              		.loc 3 368 33 view .LVU208
 691              		.loc 3 374 3 view .LVU209
 692              		.loc 3 374 3 view .LVU210
 693              		.loc 3 378 3 view .LVU211
 694              	.LBB187:
 695              	.LBI187:
 696              		.loc 4 371 20 view .LVU212
 697              	.LBB188:
 698              		.loc 4 373 3 view .LVU213
 699              	.LBE188:
 700              	.LBE187:
 701              	.LBE186:
 702              	.LBE185:
 703              		.loc 1 243 1 is_stmt 0 view .LVU214
 704 002d 5B       		popl	%ebx
 705              		.cfi_remember_state
 706              		.cfi_restore 3
 707              		.cfi_def_cfa_offset 12
 708              	.LBB195:
 709              	.LBB193:
 710              	.LBB191:
 711              	.LBB189:
 712              		.loc 4 373 16 view .LVU215
GAS LISTING /tmp/ccUzXom3.s 			page 14


 713 002e C7060000 		movl	$0, (%esi)
 713      0000
 714              	.LBE189:
 715              	.LBE191:
 716              	.LBE193:
 717              	.LBE195:
 718              		.loc 1 242 3 is_stmt 1 view .LVU216
 719              		.loc 1 243 1 is_stmt 0 view .LVU217
 720 0034 5E       		popl	%esi
 721              		.cfi_restore 6
 722              		.cfi_def_cfa_offset 8
 723 0035 5F       		popl	%edi
 724              		.cfi_restore 7
 725              		.cfi_def_cfa_offset 4
 726 0036 C3       		ret
 727              	.LVL33:
 728 0037 8DB42600 		.p2align 4,,10
 728      00000066 
 728      90
 729              		.p2align 3
 730              	.L29:
 731              		.cfi_restore_state
 732              	.LBB196:
 733              	.LBB180:
 734              		.loc 1 273 5 is_stmt 1 view .LVU218
 735              		.loc 1 273 8 is_stmt 0 view .LVU219
 736 0040 8B442414 		movl	20(%esp), %eax
 737 0044 85C0     		testl	%eax, %eax
 738 0046 7438     		je	.L30
 739              	.LVL34:
 740              	.LBB172:
 741              	.LBI172:
 742              		.loc 1 264 7 is_stmt 1 view .LVU220
 743              	.LBB173:
 744              		.loc 1 278 5 view .LVU221
 745 0048 8B830000 		movl	ch@GOT(%ebx), %eax
 745      0000
 746              	.LVL35:
 747              	.LBB174:
 748              	.LBB175:
 749              		.loc 2 601 35 is_stmt 0 view .LVU222
 750 004e 8B4A04   		movl	4(%edx), %ecx
 751              	.LBE175:
 752              	.LBE174:
 753              		.loc 1 281 12 view .LVU223
 754 0051 83EC08   		subl	$8, %esp
 755              		.cfi_def_cfa_offset 24
 756              		.loc 1 278 5 view .LVU224
 757 0054 8B4018   		movl	24(%eax), %eax
 758              		.loc 1 278 21 view .LVU225
 759 0057 895024   		movl	%edx, 36(%eax)
 760              		.loc 1 279 5 is_stmt 1 view .LVU226
 761              	.LVL36:
 762              	.LBB177:
 763              	.LBI174:
 764              		.loc 2 598 20 view .LVU227
 765              	.LBB176:
GAS LISTING /tmp/ccUzXom3.s 			page 15


 766              		.loc 2 600 3 view .LVU228
 767              		.loc 2 600 30 is_stmt 0 view .LVU229
 768 005a 8910     		movl	%edx, (%eax)
 769              		.loc 2 601 3 is_stmt 1 view .LVU230
 770              		.loc 2 601 30 is_stmt 0 view .LVU231
 771 005c 894804   		movl	%ecx, 4(%eax)
 772              		.loc 2 602 3 is_stmt 1 view .LVU232
 773              		.loc 2 602 30 is_stmt 0 view .LVU233
 774 005f 8901     		movl	%eax, (%ecx)
 775              		.loc 2 603 3 is_stmt 1 view .LVU234
 776              		.loc 2 603 30 is_stmt 0 view .LVU235
 777 0061 894204   		movl	%eax, 4(%edx)
 778              	.LVL37:
 779              		.loc 2 603 30 view .LVU236
 780              	.LBE176:
 781              	.LBE177:
 782              		.loc 1 281 5 is_stmt 1 view .LVU237
 783              		.loc 1 281 12 is_stmt 0 view .LVU238
 784 0064 FF74241C 		pushl	28(%esp)
 785              		.cfi_def_cfa_offset 28
 786 0068 6A05     		pushl	$5
 787              		.cfi_def_cfa_offset 32
 788 006a E8FCFFFF 		call	chSchGoSleepTimeoutS@PLT
 788      FF
 789              	.LVL38:
 790              		.loc 1 281 12 view .LVU239
 791 006f 83C410   		addl	$16, %esp
 792              		.cfi_def_cfa_offset 16
 793              	.LVL39:
 794              		.loc 1 281 12 view .LVU240
 795              	.LBE173:
 796              	.LBE172:
 797              	.LBE180:
 798              	.LBE196:
 799              		.loc 1 240 3 is_stmt 1 view .LVU241
 800              	.LBB197:
 801              		.loc 3 365 20 view .LVU242
 802              	.LBB194:
 803              		.loc 3 367 22 view .LVU243
 804              		.loc 3 368 33 view .LVU244
 805              		.loc 3 374 3 view .LVU245
 806              		.loc 3 374 3 view .LVU246
 807              		.loc 3 378 3 view .LVU247
 808              	.LBB192:
 809              		.loc 4 371 20 view .LVU248
 810              	.LBB190:
 811              		.loc 4 373 3 view .LVU249
 812              		.loc 4 373 16 is_stmt 0 view .LVU250
 813 0072 C7060000 		movl	$0, (%esi)
 813      0000
 814              	.LBE190:
 815              	.LBE192:
 816              	.LBE194:
 817              	.LBE197:
 818              		.loc 1 242 3 is_stmt 1 view .LVU251
 819              		.loc 1 243 1 is_stmt 0 view .LVU252
 820 0078 5B       		popl	%ebx
GAS LISTING /tmp/ccUzXom3.s 			page 16


 821              		.cfi_remember_state
 822              		.cfi_restore 3
 823              		.cfi_def_cfa_offset 12
 824 0079 5E       		popl	%esi
 825              		.cfi_restore 6
 826              		.cfi_def_cfa_offset 8
 827 007a 5F       		popl	%edi
 828              		.cfi_restore 7
 829              		.cfi_def_cfa_offset 4
 830 007b C3       		ret
 831              	.LVL40:
 832 007c 8D742600 		.p2align 4,,10
 833              		.p2align 3
 834              	.L30:
 835              		.cfi_restore_state
 836              	.LBB198:
 837              	.LBB181:
 838              		.loc 1 274 7 is_stmt 1 view .LVU253
 839              		.loc 1 274 14 is_stmt 0 view .LVU254
 840 0080 897A08   		movl	%edi, 8(%edx)
 841              		.loc 1 276 7 is_stmt 1 view .LVU255
 842              		.loc 1 276 14 is_stmt 0 view .LVU256
 843 0083 B8FFFFFF 		movl	$-1, %eax
 843      FF
 844 0088 EBA3     		jmp	.L25
 845              	.LBE181:
 846              	.LBE198:
 847              		.cfi_endproc
 848              	.LFE143:
 849              		.size	chSemWaitTimeout, .-chSemWaitTimeout
 850              		.section	.text.chSemWaitTimeoutS,"ax",@progbits
 851              		.p2align 4,,15
 852              		.globl	chSemWaitTimeoutS
 853              		.type	chSemWaitTimeoutS, @function
 854              	chSemWaitTimeoutS:
 855              	.LVL41:
 856              	.LFB144:
 857              		.loc 1 264 65 is_stmt 1 view -0
 858              		.cfi_startproc
 859              		.loc 1 266 21 view .LVU258
 860              		.loc 1 267 3 view .LVU259
 861              		.loc 1 267 3 view .LVU260
 862              		.loc 1 268 3 view .LVU261
 863              		.loc 1 268 3 view .LVU262
 864              		.loc 1 272 3 view .LVU263
 865              		.loc 1 264 65 is_stmt 0 view .LVU264
 866 0000 56       		pushl	%esi
 867              		.cfi_def_cfa_offset 8
 868              		.cfi_offset 6, -8
 869              		.loc 1 284 10 view .LVU265
 870 0001 31C0     		xorl	%eax, %eax
 871              		.loc 1 264 65 view .LVU266
 872 0003 53       		pushl	%ebx
 873              		.cfi_def_cfa_offset 12
 874              		.cfi_offset 3, -12
 875 0004 E8FCFFFF 		call	__x86.get_pc_thunk.bx
 875      FF
GAS LISTING /tmp/ccUzXom3.s 			page 17


 876 0009 81C30200 		addl	$_GLOBAL_OFFSET_TABLE_, %ebx
 876      0000
 877 000f 83EC04   		subl	$4, %esp
 878              		.cfi_def_cfa_offset 16
 879              		.loc 1 264 65 view .LVU267
 880 0012 8B542410 		movl	16(%esp), %edx
 881              		.loc 1 272 11 view .LVU268
 882 0016 8B7208   		movl	8(%edx), %esi
 883              		.loc 1 272 7 view .LVU269
 884 0019 8D4EFF   		leal	-1(%esi), %ecx
 885              		.loc 1 272 6 view .LVU270
 886 001c 894A08   		movl	%ecx, 8(%edx)
 887 001f 85C9     		testl	%ecx, %ecx
 888 0021 780D     		js	.L36
 889              	.L31:
 890              		.loc 1 285 1 view .LVU271
 891 0023 83C404   		addl	$4, %esp
 892              		.cfi_remember_state
 893              		.cfi_def_cfa_offset 12
 894 0026 5B       		popl	%ebx
 895              		.cfi_restore 3
 896              		.cfi_def_cfa_offset 8
 897 0027 5E       		popl	%esi
 898              		.cfi_restore 6
 899              		.cfi_def_cfa_offset 4
 900 0028 C3       		ret
 901 0029 8DB42600 		.p2align 4,,10
 901      000000
 902              		.p2align 3
 903              	.L36:
 904              		.cfi_restore_state
 905              		.loc 1 273 5 is_stmt 1 view .LVU272
 906              		.loc 1 273 8 is_stmt 0 view .LVU273
 907 0030 8B442414 		movl	20(%esp), %eax
 908 0034 85C0     		testl	%eax, %eax
 909 0036 7438     		je	.L37
 910              	.LVL42:
 911              	.LBB203:
 912              	.LBI203:
 913              		.loc 1 264 7 is_stmt 1 view .LVU274
 914              	.LBB204:
 915              		.loc 1 278 5 view .LVU275
 916 0038 8B830000 		movl	ch@GOT(%ebx), %eax
 916      0000
 917              	.LVL43:
 918              	.LBB205:
 919              	.LBB206:
 920              		.loc 2 601 35 is_stmt 0 view .LVU276
 921 003e 8B4A04   		movl	4(%edx), %ecx
 922              	.LBE206:
 923              	.LBE205:
 924              		.loc 1 281 12 view .LVU277
 925 0041 83EC08   		subl	$8, %esp
 926              		.cfi_def_cfa_offset 24
 927              		.loc 1 278 5 view .LVU278
 928 0044 8B4018   		movl	24(%eax), %eax
 929              		.loc 1 278 21 view .LVU279
GAS LISTING /tmp/ccUzXom3.s 			page 18


 930 0047 895024   		movl	%edx, 36(%eax)
 931              		.loc 1 279 5 is_stmt 1 view .LVU280
 932              	.LVL44:
 933              	.LBB208:
 934              	.LBI205:
 935              		.loc 2 598 20 view .LVU281
 936              	.LBB207:
 937              		.loc 2 600 3 view .LVU282
 938              		.loc 2 600 30 is_stmt 0 view .LVU283
 939 004a 8910     		movl	%edx, (%eax)
 940              		.loc 2 601 3 is_stmt 1 view .LVU284
 941              		.loc 2 601 30 is_stmt 0 view .LVU285
 942 004c 894804   		movl	%ecx, 4(%eax)
 943              		.loc 2 602 3 is_stmt 1 view .LVU286
 944              		.loc 2 602 30 is_stmt 0 view .LVU287
 945 004f 8901     		movl	%eax, (%ecx)
 946              		.loc 2 603 3 is_stmt 1 view .LVU288
 947              		.loc 2 603 30 is_stmt 0 view .LVU289
 948 0051 894204   		movl	%eax, 4(%edx)
 949              	.LVL45:
 950              		.loc 2 603 30 view .LVU290
 951              	.LBE207:
 952              	.LBE208:
 953              		.loc 1 281 5 is_stmt 1 view .LVU291
 954              		.loc 1 281 12 is_stmt 0 view .LVU292
 955 0054 FF74241C 		pushl	28(%esp)
 956              		.cfi_def_cfa_offset 28
 957 0058 6A05     		pushl	$5
 958              		.cfi_def_cfa_offset 32
 959 005a E8FCFFFF 		call	chSchGoSleepTimeoutS@PLT
 959      FF
 960              	.LVL46:
 961              		.loc 1 281 12 view .LVU293
 962 005f 83C410   		addl	$16, %esp
 963              		.cfi_def_cfa_offset 16
 964              	.LBE204:
 965              	.LBE203:
 966              		.loc 1 285 1 view .LVU294
 967 0062 83C404   		addl	$4, %esp
 968              		.cfi_remember_state
 969              		.cfi_def_cfa_offset 12
 970 0065 5B       		popl	%ebx
 971              		.cfi_restore 3
 972              		.cfi_def_cfa_offset 8
 973 0066 5E       		popl	%esi
 974              		.cfi_restore 6
 975              		.cfi_def_cfa_offset 4
 976 0067 C3       		ret
 977 0068 8DB42600 		.p2align 4,,10
 977      00000090 
 978              		.p2align 3
 979              	.L37:
 980              		.cfi_restore_state
 981              		.loc 1 274 7 is_stmt 1 view .LVU295
 982              		.loc 1 274 14 is_stmt 0 view .LVU296
 983 0070 897208   		movl	%esi, 8(%edx)
 984              		.loc 1 276 7 is_stmt 1 view .LVU297
GAS LISTING /tmp/ccUzXom3.s 			page 19


 985              		.loc 1 276 14 is_stmt 0 view .LVU298
 986 0073 B8FFFFFF 		movl	$-1, %eax
 986      FF
 987 0078 EBA9     		jmp	.L31
 988              		.cfi_endproc
 989              	.LFE144:
 990              		.size	chSemWaitTimeoutS, .-chSemWaitTimeoutS
 991              		.section	.text.chSemSignal,"ax",@progbits
 992              		.p2align 4,,15
 993              		.globl	chSemSignal
 994              		.type	chSemSignal, @function
 995              	chSemSignal:
 996              	.LVL47:
 997              	.LFB145:
 998              		.loc 1 294 35 is_stmt 1 view -0
 999              		.cfi_startproc
 1000              		.loc 1 296 3 view .LVU300
 1001              		.loc 1 296 3 view .LVU301
 1002              		.loc 1 298 3 view .LVU302
 1003              	.LBB209:
 1004              	.LBI209:
 1005              		.loc 3 353 20 view .LVU303
 1006              	.LBE209:
 1007              		.loc 3 355 3 view .LVU304
 1008              	.LBB216:
 1009              	.LBB210:
 1010              	.LBI210:
 1011              		.loc 4 362 20 view .LVU305
 1012              	.LBB211:
 1013              		.loc 4 364 3 view .LVU306
 1014              	.LBE211:
 1015              	.LBE210:
 1016              	.LBE216:
 1017              		.loc 1 294 35 is_stmt 0 view .LVU307
 1018 0000 56       		pushl	%esi
 1019              		.cfi_def_cfa_offset 8
 1020              		.cfi_offset 6, -8
 1021 0001 53       		pushl	%ebx
 1022              		.cfi_def_cfa_offset 12
 1023              		.cfi_offset 3, -12
 1024 0002 E8FCFFFF 		call	__x86.get_pc_thunk.bx
 1024      FF
 1025 0007 81C30200 		addl	$_GLOBAL_OFFSET_TABLE_, %ebx
 1025      0000
 1026 000d 83EC04   		subl	$4, %esp
 1027              		.cfi_def_cfa_offset 16
 1028              		.loc 1 294 35 view .LVU308
 1029 0010 8B542410 		movl	16(%esp), %edx
 1030              		.loc 1 302 7 view .LVU309
 1031 0014 8B4208   		movl	8(%edx), %eax
 1032              	.LBB217:
 1033              	.LBB214:
 1034              	.LBB212:
 1035              		.loc 4 364 16 view .LVU310
 1036 0017 8BB30000 		movl	port_irq_sts@GOT(%ebx), %esi
 1036      0000
 1037              	.LBE212:
GAS LISTING /tmp/ccUzXom3.s 			page 20


 1038              	.LBE214:
 1039              	.LBE217:
 1040              		.loc 1 302 7 view .LVU311
 1041 001d 83C001   		addl	$1, %eax
 1042              	.LBB218:
 1043              	.LBB215:
 1044              	.LBB213:
 1045              		.loc 4 364 16 view .LVU312
 1046 0020 C7060100 		movl	$1, (%esi)
 1046      0000
 1047              	.LBE213:
 1048              	.LBE215:
 1049              	.LBE218:
 1050              		.loc 3 356 34 is_stmt 1 view .LVU313
 1051              		.loc 3 357 20 view .LVU314
 1052              		.loc 1 299 3 view .LVU315
 1053              		.loc 1 299 3 view .LVU316
 1054              		.loc 1 302 3 view .LVU317
 1055              		.loc 1 302 6 is_stmt 0 view .LVU318
 1056 0026 894208   		movl	%eax, 8(%edx)
 1057 0029 85C0     		testl	%eax, %eax
 1058 002b 7E13     		jle	.L41
 1059              		.loc 1 305 3 is_stmt 1 view .LVU319
 1060              	.LBB219:
 1061              	.LBI219:
 1062              		.loc 3 365 20 view .LVU320
 1063              	.LBB220:
 1064              		.loc 3 367 22 view .LVU321
 1065              		.loc 3 368 33 view .LVU322
 1066              		.loc 3 374 3 view .LVU323
 1067              		.loc 3 374 3 view .LVU324
 1068              		.loc 3 378 3 view .LVU325
 1069              	.LBB221:
 1070              	.LBI221:
 1071              		.loc 4 371 20 view .LVU326
 1072              	.LBB222:
 1073              		.loc 4 373 3 view .LVU327
 1074              		.loc 4 373 16 is_stmt 0 view .LVU328
 1075 002d C7060000 		movl	$0, (%esi)
 1075      0000
 1076              	.LBE222:
 1077              	.LBE221:
 1078              	.LBE220:
 1079              	.LBE219:
 1080              		.loc 1 306 1 view .LVU329
 1081 0033 83C404   		addl	$4, %esp
 1082              		.cfi_remember_state
 1083              		.cfi_def_cfa_offset 12
 1084 0036 5B       		popl	%ebx
 1085              		.cfi_restore 3
 1086              		.cfi_def_cfa_offset 8
 1087 0037 5E       		popl	%esi
 1088              		.cfi_restore 6
 1089              		.cfi_def_cfa_offset 4
 1090 0038 C3       		ret
 1091 0039 8DB42600 		.p2align 4,,10
 1091      000000
GAS LISTING /tmp/ccUzXom3.s 			page 21


 1092              		.p2align 3
 1093              	.L41:
 1094              		.cfi_restore_state
 1095              		.loc 1 303 5 is_stmt 1 view .LVU330
 1096              	.LVL48:
 1097              	.LBB226:
 1098              	.LBI226:
 1099              		.loc 2 606 25 view .LVU331
 1100              	.LBB227:
 1101              		.loc 2 607 3 view .LVU332
 1102              		.loc 2 607 13 is_stmt 0 view .LVU333
 1103 0040 8B02     		movl	(%edx), %eax
 1104              	.LVL49:
 1105              		.loc 2 609 3 is_stmt 1 view .LVU334
 1106              	.LBE227:
 1107              	.LBE226:
 1108              		.loc 1 303 5 is_stmt 0 view .LVU335
 1109 0042 83EC08   		subl	$8, %esp
 1110              		.cfi_def_cfa_offset 24
 1111              	.LBB229:
 1112              	.LBB228:
 1113              		.loc 2 609 36 view .LVU336
 1114 0045 8B08     		movl	(%eax), %ecx
 1115              		.loc 2 609 25 view .LVU337
 1116 0047 890A     		movl	%ecx, (%edx)
 1117              		.loc 2 610 3 is_stmt 1 view .LVU338
 1118              		.loc 2 610 25 is_stmt 0 view .LVU339
 1119 0049 895104   		movl	%edx, 4(%ecx)
 1120              		.loc 2 612 3 is_stmt 1 view .LVU340
 1121              	.LVL50:
 1122              		.loc 2 612 3 is_stmt 0 view .LVU341
 1123              	.LBE228:
 1124              	.LBE229:
 1125              		.loc 1 303 5 view .LVU342
 1126 004c 6A00     		pushl	$0
 1127              		.cfi_def_cfa_offset 28
 1128 004e 50       		pushl	%eax
 1129              		.cfi_def_cfa_offset 32
 1130 004f E8FCFFFF 		call	chSchWakeupS@PLT
 1130      FF
 1131              	.LVL51:
 1132 0054 83C410   		addl	$16, %esp
 1133              		.cfi_def_cfa_offset 16
 1134              		.loc 1 305 3 is_stmt 1 view .LVU343
 1135              	.LBB230:
 1136              		.loc 3 365 20 view .LVU344
 1137              	.LBB225:
 1138              		.loc 3 367 22 view .LVU345
 1139              		.loc 3 368 33 view .LVU346
 1140              		.loc 3 374 3 view .LVU347
 1141              		.loc 3 374 3 view .LVU348
 1142              		.loc 3 378 3 view .LVU349
 1143              	.LBB224:
 1144              		.loc 4 371 20 view .LVU350
 1145              	.LBB223:
 1146              		.loc 4 373 3 view .LVU351
 1147              		.loc 4 373 16 is_stmt 0 view .LVU352
GAS LISTING /tmp/ccUzXom3.s 			page 22


 1148 0057 C7060000 		movl	$0, (%esi)
 1148      0000
 1149              	.LBE223:
 1150              	.LBE224:
 1151              	.LBE225:
 1152              	.LBE230:
 1153              		.loc 1 306 1 view .LVU353
 1154 005d 83C404   		addl	$4, %esp
 1155              		.cfi_def_cfa_offset 12
 1156 0060 5B       		popl	%ebx
 1157              		.cfi_restore 3
 1158              		.cfi_def_cfa_offset 8
 1159 0061 5E       		popl	%esi
 1160              		.cfi_restore 6
 1161              		.cfi_def_cfa_offset 4
 1162 0062 C3       		ret
 1163              		.cfi_endproc
 1164              	.LFE145:
 1165              		.size	chSemSignal, .-chSemSignal
 1166              		.section	.text.chSemSignalI,"ax",@progbits
 1167              		.p2align 4,,15
 1168              		.globl	chSemSignalI
 1169              		.type	chSemSignalI, @function
 1170              	chSemSignalI:
 1171              	.LVL52:
 1172              	.LFB146:
 1173              		.loc 1 319 36 is_stmt 1 view -0
 1174              		.cfi_startproc
 1175              		.loc 1 321 21 view .LVU355
 1176              		.loc 1 322 3 view .LVU356
 1177              		.loc 1 322 3 view .LVU357
 1178              		.loc 1 323 3 view .LVU358
 1179              		.loc 1 323 3 view .LVU359
 1180              		.loc 1 327 3 view .LVU360
 1181              		.loc 1 319 36 is_stmt 0 view .LVU361
 1182 0000 53       		pushl	%ebx
 1183              		.cfi_def_cfa_offset 8
 1184              		.cfi_offset 3, -8
 1185 0001 E8FCFFFF 		call	__x86.get_pc_thunk.bx
 1185      FF
 1186 0006 81C30200 		addl	$_GLOBAL_OFFSET_TABLE_, %ebx
 1186      0000
 1187 000c 83EC08   		subl	$8, %esp
 1188              		.cfi_def_cfa_offset 16
 1189              		.loc 1 319 36 view .LVU362
 1190 000f 8B542410 		movl	16(%esp), %edx
 1191              		.loc 1 327 7 view .LVU363
 1192 0013 8B4208   		movl	8(%edx), %eax
 1193 0016 83C001   		addl	$1, %eax
 1194              		.loc 1 327 6 view .LVU364
 1195 0019 894208   		movl	%eax, 8(%edx)
 1196 001c 85C0     		testl	%eax, %eax
 1197 001e 7E08     		jle	.L45
 1198              		.loc 1 334 1 view .LVU365
 1199 0020 83C408   		addl	$8, %esp
 1200              		.cfi_remember_state
 1201              		.cfi_def_cfa_offset 8
GAS LISTING /tmp/ccUzXom3.s 			page 23


 1202 0023 5B       		popl	%ebx
 1203              		.cfi_restore 3
 1204              		.cfi_def_cfa_offset 4
 1205 0024 C3       		ret
 1206              		.p2align 4,,10
 1207 0025 8D7600   		.p2align 3
 1208              	.L45:
 1209              		.cfi_restore_state
 1210              	.LBB231:
 1211              		.loc 1 330 5 is_stmt 1 view .LVU366
 1212              	.LVL53:
 1213              	.LBB232:
 1214              	.LBI232:
 1215              		.loc 2 606 25 view .LVU367
 1216              	.LBB233:
 1217              		.loc 2 607 3 view .LVU368
 1218              		.loc 2 607 13 is_stmt 0 view .LVU369
 1219 0028 8B02     		movl	(%edx), %eax
 1220              	.LVL54:
 1221              		.loc 2 609 3 is_stmt 1 view .LVU370
 1222              	.LBE233:
 1223              	.LBE232:
 1224              		.loc 1 332 12 is_stmt 0 view .LVU371
 1225 002a 83EC0C   		subl	$12, %esp
 1226              		.cfi_def_cfa_offset 28
 1227              	.LBB235:
 1228              	.LBB234:
 1229              		.loc 2 609 36 view .LVU372
 1230 002d 8B08     		movl	(%eax), %ecx
 1231              		.loc 2 609 25 view .LVU373
 1232 002f 890A     		movl	%ecx, (%edx)
 1233              		.loc 2 610 3 is_stmt 1 view .LVU374
 1234              		.loc 2 610 25 is_stmt 0 view .LVU375
 1235 0031 895104   		movl	%edx, 4(%ecx)
 1236              		.loc 2 612 3 is_stmt 1 view .LVU376
 1237              	.LVL55:
 1238              		.loc 2 612 3 is_stmt 0 view .LVU377
 1239              	.LBE234:
 1240              	.LBE235:
 1241              		.loc 1 331 5 is_stmt 1 view .LVU378
 1242              		.loc 1 331 18 is_stmt 0 view .LVU379
 1243 0034 C7402400 		movl	$0, 36(%eax)
 1243      000000
 1244              		.loc 1 332 5 is_stmt 1 view .LVU380
 1245              		.loc 1 332 12 is_stmt 0 view .LVU381
 1246 003b 50       		pushl	%eax
 1247              		.cfi_def_cfa_offset 32
 1248 003c E8FCFFFF 		call	chSchReadyI@PLT
 1248      FF
 1249              	.LVL56:
 1250              		.loc 1 332 12 view .LVU382
 1251 0041 83C410   		addl	$16, %esp
 1252              		.cfi_def_cfa_offset 16
 1253              	.LBE231:
 1254              		.loc 1 334 1 view .LVU383
 1255 0044 83C408   		addl	$8, %esp
 1256              		.cfi_def_cfa_offset 8
GAS LISTING /tmp/ccUzXom3.s 			page 24


 1257 0047 5B       		popl	%ebx
 1258              		.cfi_restore 3
 1259              		.cfi_def_cfa_offset 4
 1260 0048 C3       		ret
 1261              		.cfi_endproc
 1262              	.LFE146:
 1263              		.size	chSemSignalI, .-chSemSignalI
 1264              		.section	.text.chSemAddCounterI,"ax",@progbits
 1265              		.p2align 4,,15
 1266              		.globl	chSemAddCounterI
 1267              		.type	chSemAddCounterI, @function
 1268              	chSemAddCounterI:
 1269              	.LVL57:
 1270              	.LFB147:
 1271              		.loc 1 349 49 is_stmt 1 view -0
 1272              		.cfi_startproc
 1273              		.loc 1 351 21 view .LVU385
 1274              		.loc 1 352 3 view .LVU386
 1275              		.loc 1 352 3 view .LVU387
 1276              		.loc 1 353 3 view .LVU388
 1277              		.loc 1 353 3 view .LVU389
 1278              		.loc 1 349 49 is_stmt 0 view .LVU390
 1279 0000 57       		pushl	%edi
 1280              		.cfi_def_cfa_offset 8
 1281              		.cfi_offset 7, -8
 1282 0001 56       		pushl	%esi
 1283              		.cfi_def_cfa_offset 12
 1284              		.cfi_offset 6, -12
 1285 0002 53       		pushl	%ebx
 1286              		.cfi_def_cfa_offset 16
 1287              		.cfi_offset 3, -16
 1288              		.loc 1 349 49 view .LVU391
 1289 0003 8B742414 		movl	20(%esp), %esi
 1290              		.loc 1 349 49 view .LVU392
 1291 0007 E8FCFFFF 		call	__x86.get_pc_thunk.bx
 1291      FF
 1292 000c 81C30200 		addl	$_GLOBAL_OFFSET_TABLE_, %ebx
 1292      0000
 1293 0012 8B7C2410 		movl	16(%esp), %edi
 1294              		.loc 1 357 9 view .LVU393
 1295 0016 85F6     		testl	%esi, %esi
 1296 0018 7F0B     		jg	.L49
 1297 001a EB37     		jmp	.L46
 1298              	.LVL58:
 1299 001c 8D742600 		.p2align 4,,10
 1300              		.p2align 3
 1301              	.L48:
 1302              		.loc 1 361 5 is_stmt 1 view .LVU394
 1303              		.loc 1 357 9 is_stmt 0 view .LVU395
 1304 0020 83EE01   		subl	$1, %esi
 1305              	.LVL59:
 1306              		.loc 1 357 9 view .LVU396
 1307 0023 742E     		je	.L46
 1308              	.L49:
 1309              		.loc 1 358 5 is_stmt 1 view .LVU397
 1310              		.loc 1 358 9 is_stmt 0 view .LVU398
 1311 0025 8B4708   		movl	8(%edi), %eax
GAS LISTING /tmp/ccUzXom3.s 			page 25


 1312 0028 83C001   		addl	$1, %eax
 1313              		.loc 1 358 8 view .LVU399
 1314 002b 894708   		movl	%eax, 8(%edi)
 1315 002e 85C0     		testl	%eax, %eax
 1316 0030 7FEE     		jg	.L48
 1317              		.loc 1 359 7 is_stmt 1 view .LVU400
 1318              	.LVL60:
 1319              	.LBB236:
 1320              	.LBI236:
 1321              		.loc 2 606 25 view .LVU401
 1322              	.LBB237:
 1323              		.loc 2 607 3 view .LVU402
 1324              		.loc 2 607 13 is_stmt 0 view .LVU403
 1325 0032 8B07     		movl	(%edi), %eax
 1326              	.LVL61:
 1327              		.loc 2 609 3 is_stmt 1 view .LVU404
 1328              	.LBE237:
 1329              	.LBE236:
 1330              		.loc 1 359 7 is_stmt 0 view .LVU405
 1331 0034 83EC0C   		subl	$12, %esp
 1332              		.cfi_def_cfa_offset 28
 1333              	.LBB239:
 1334              	.LBB238:
 1335              		.loc 2 609 36 view .LVU406
 1336 0037 8B10     		movl	(%eax), %edx
 1337              		.loc 2 609 25 view .LVU407
 1338 0039 8917     		movl	%edx, (%edi)
 1339              		.loc 2 610 3 is_stmt 1 view .LVU408
 1340              		.loc 2 610 25 is_stmt 0 view .LVU409
 1341 003b 897A04   		movl	%edi, 4(%edx)
 1342              		.loc 2 612 3 is_stmt 1 view .LVU410
 1343              	.LVL62:
 1344              		.loc 2 612 3 is_stmt 0 view .LVU411
 1345              	.LBE238:
 1346              	.LBE239:
 1347              		.loc 1 359 7 view .LVU412
 1348 003e 50       		pushl	%eax
 1349              		.cfi_def_cfa_offset 32
 1350 003f E8FCFFFF 		call	chSchReadyI@PLT
 1350      FF
 1351              	.LVL63:
 1352              		.loc 1 359 60 view .LVU413
 1353 0044 83C410   		addl	$16, %esp
 1354              		.cfi_def_cfa_offset 16
 1355              		.loc 1 361 5 is_stmt 1 view .LVU414
 1356              	.LVL64:
 1357              		.loc 1 359 60 is_stmt 0 view .LVU415
 1358 0047 C7402400 		movl	$0, 36(%eax)
 1358      000000
 1359              		.loc 1 357 9 view .LVU416
 1360 004e 83EE01   		subl	$1, %esi
 1361              	.LVL65:
 1362              		.loc 1 357 9 view .LVU417
 1363 0051 75D2     		jne	.L49
 1364              	.L46:
 1365              		.loc 1 363 1 view .LVU418
 1366 0053 5B       		popl	%ebx
GAS LISTING /tmp/ccUzXom3.s 			page 26


 1367              		.cfi_restore 3
 1368              		.cfi_def_cfa_offset 12
 1369 0054 5E       		popl	%esi
 1370              		.cfi_restore 6
 1371              		.cfi_def_cfa_offset 8
 1372              	.LVL66:
 1373              		.loc 1 363 1 view .LVU419
 1374 0055 5F       		popl	%edi
 1375              		.cfi_restore 7
 1376              		.cfi_def_cfa_offset 4
 1377 0056 C3       		ret
 1378              		.cfi_endproc
 1379              	.LFE147:
 1380              		.size	chSemAddCounterI, .-chSemAddCounterI
 1381              		.section	.text.chSemSignalWait,"ax",@progbits
 1382              		.p2align 4,,15
 1383              		.globl	chSemSignalWait
 1384              		.type	chSemSignalWait, @function
 1385              	chSemSignalWait:
 1386              	.LVL67:
 1387              	.LFB148:
 1388              		.loc 1 378 59 is_stmt 1 view -0
 1389              		.cfi_startproc
 1390              		.loc 1 379 3 view .LVU421
 1391              		.loc 1 381 3 view .LVU422
 1392              		.loc 1 381 3 view .LVU423
 1393              		.loc 1 383 3 view .LVU424
 1394              	.LBB240:
 1395              	.LBI240:
 1396              		.loc 3 353 20 view .LVU425
 1397              	.LBE240:
 1398              		.loc 3 355 3 view .LVU426
 1399              	.LBB247:
 1400              	.LBB241:
 1401              	.LBI241:
 1402              		.loc 4 362 20 view .LVU427
 1403              	.LBB242:
 1404              		.loc 4 364 3 view .LVU428
 1405              	.LBE242:
 1406              	.LBE241:
 1407              	.LBE247:
 1408              		.loc 1 378 59 is_stmt 0 view .LVU429
 1409 0000 55       		pushl	%ebp
 1410              		.cfi_def_cfa_offset 8
 1411              		.cfi_offset 5, -8
 1412 0001 57       		pushl	%edi
 1413              		.cfi_def_cfa_offset 12
 1414              		.cfi_offset 7, -12
 1415 0002 56       		pushl	%esi
 1416              		.cfi_def_cfa_offset 16
 1417              		.cfi_offset 6, -16
 1418 0003 53       		pushl	%ebx
 1419              		.cfi_def_cfa_offset 20
 1420              		.cfi_offset 3, -20
 1421 0004 E8FCFFFF 		call	__x86.get_pc_thunk.bx
 1421      FF
 1422 0009 81C30200 		addl	$_GLOBAL_OFFSET_TABLE_, %ebx
GAS LISTING /tmp/ccUzXom3.s 			page 27


 1422      0000
 1423 000f 83EC0C   		subl	$12, %esp
 1424              		.cfi_def_cfa_offset 32
 1425              		.loc 1 378 59 view .LVU430
 1426 0012 8B542420 		movl	32(%esp), %edx
 1427 0016 8B742424 		movl	36(%esp), %esi
 1428              		.loc 1 390 7 view .LVU431
 1429 001a 8B4208   		movl	8(%edx), %eax
 1430              	.LBB248:
 1431              	.LBB245:
 1432              	.LBB243:
 1433              		.loc 4 364 16 view .LVU432
 1434 001d 8BBB0000 		movl	port_irq_sts@GOT(%ebx), %edi
 1434      0000
 1435              	.LBE243:
 1436              	.LBE245:
 1437              	.LBE248:
 1438              		.loc 1 390 7 view .LVU433
 1439 0023 83C001   		addl	$1, %eax
 1440              	.LBB249:
 1441              	.LBB246:
 1442              	.LBB244:
 1443              		.loc 4 364 16 view .LVU434
 1444 0026 C7070100 		movl	$1, (%edi)
 1444      0000
 1445              	.LBE244:
 1446              	.LBE246:
 1447              	.LBE249:
 1448              		.loc 3 356 34 is_stmt 1 view .LVU435
 1449              		.loc 3 357 20 view .LVU436
 1450              		.loc 1 384 3 view .LVU437
 1451              		.loc 1 384 3 view .LVU438
 1452              		.loc 1 387 3 view .LVU439
 1453              		.loc 1 387 3 view .LVU440
 1454              		.loc 1 390 3 view .LVU441
 1455              		.loc 1 390 6 is_stmt 0 view .LVU442
 1456 002c 894208   		movl	%eax, 8(%edx)
 1457 002f 85C0     		testl	%eax, %eax
 1458 0031 7E5D     		jle	.L57
 1459              	.L53:
 1460              		.loc 1 393 3 is_stmt 1 view .LVU443
 1461              		.loc 1 393 6 is_stmt 0 view .LVU444
 1462 0033 836E0801 		subl	$1, 8(%esi)
 1463 0037 7817     		js	.L58
 1464              		.loc 1 401 5 is_stmt 1 view .LVU445
 1465 0039 E8FCFFFF 		call	chSchRescheduleS@PLT
 1465      FF
 1466              	.LVL68:
 1467              		.loc 1 402 5 view .LVU446
 1468              	.LBB250:
 1469              	.LBB251:
 1470              	.LBB252:
 1471              	.LBB253:
 1472              		.loc 4 373 16 is_stmt 0 view .LVU447
 1473 003e C7070000 		movl	$0, (%edi)
 1473      0000
 1474              	.LBE253:
GAS LISTING /tmp/ccUzXom3.s 			page 28


 1475              	.LBE252:
 1476              	.LBE251:
 1477              	.LBE250:
 1478              		.loc 1 407 1 view .LVU448
 1479 0044 83C40C   		addl	$12, %esp
 1480              		.cfi_remember_state
 1481              		.cfi_def_cfa_offset 20
 1482              		.loc 1 402 9 view .LVU449
 1483 0047 31C0     		xorl	%eax, %eax
 1484              	.LVL69:
 1485              		.loc 1 404 3 is_stmt 1 view .LVU450
 1486              	.LBB260:
 1487              	.LBI250:
 1488              		.loc 3 365 20 view .LVU451
 1489              	.LBB258:
 1490              		.loc 3 367 22 view .LVU452
 1491              		.loc 3 368 33 view .LVU453
 1492              		.loc 3 374 3 view .LVU454
 1493              		.loc 3 374 3 view .LVU455
 1494              		.loc 3 378 3 view .LVU456
 1495              	.LBB256:
 1496              	.LBI252:
 1497              		.loc 4 371 20 view .LVU457
 1498              	.LBB254:
 1499              		.loc 4 373 3 view .LVU458
 1500              	.LBE254:
 1501              	.LBE256:
 1502              	.LBE258:
 1503              	.LBE260:
 1504              		.loc 1 406 3 view .LVU459
 1505              		.loc 1 407 1 is_stmt 0 view .LVU460
 1506 0049 5B       		popl	%ebx
 1507              		.cfi_restore 3
 1508              		.cfi_def_cfa_offset 16
 1509 004a 5E       		popl	%esi
 1510              		.cfi_restore 6
 1511              		.cfi_def_cfa_offset 12
 1512 004b 5F       		popl	%edi
 1513              		.cfi_restore 7
 1514              		.cfi_def_cfa_offset 8
 1515 004c 5D       		popl	%ebp
 1516              		.cfi_restore 5
 1517              		.cfi_def_cfa_offset 4
 1518 004d C3       		ret
 1519              	.LVL70:
 1520 004e 6690     		.p2align 4,,10
 1521              		.p2align 3
 1522              	.L58:
 1523              		.cfi_restore_state
 1524              	.LBB261:
 1525              		.loc 1 394 5 is_stmt 1 view .LVU461
 1526              		.loc 1 394 15 is_stmt 0 view .LVU462
 1527 0050 8B830000 		movl	ch@GOT(%ebx), %eax
 1527      0000
 1528              		.loc 1 397 5 view .LVU463
 1529 0056 83EC0C   		subl	$12, %esp
 1530              		.cfi_def_cfa_offset 44
GAS LISTING /tmp/ccUzXom3.s 			page 29


 1531              		.loc 1 394 15 view .LVU464
 1532 0059 8B6818   		movl	24(%eax), %ebp
 1533              	.LVL71:
 1534              		.loc 1 395 5 is_stmt 1 view .LVU465
 1535              	.LBB262:
 1536              	.LBI262:
 1537              		.loc 2 598 20 view .LVU466
 1538              	.LBB263:
 1539              		.loc 2 600 3 view .LVU467
 1540              		.loc 2 601 35 is_stmt 0 view .LVU468
 1541 005c 8B4604   		movl	4(%esi), %eax
 1542              		.loc 2 600 30 view .LVU469
 1543 005f 897500   		movl	%esi, 0(%ebp)
 1544              		.loc 2 601 3 is_stmt 1 view .LVU470
 1545              		.loc 2 601 30 is_stmt 0 view .LVU471
 1546 0062 894504   		movl	%eax, 4(%ebp)
 1547              		.loc 2 602 3 is_stmt 1 view .LVU472
 1548              		.loc 2 602 30 is_stmt 0 view .LVU473
 1549 0065 8928     		movl	%ebp, (%eax)
 1550              		.loc 2 603 3 is_stmt 1 view .LVU474
 1551              		.loc 2 603 30 is_stmt 0 view .LVU475
 1552 0067 896E04   		movl	%ebp, 4(%esi)
 1553              	.LVL72:
 1554              		.loc 2 603 30 view .LVU476
 1555              	.LBE263:
 1556              	.LBE262:
 1557              		.loc 1 396 5 is_stmt 1 view .LVU477
 1558              		.loc 1 396 19 is_stmt 0 view .LVU478
 1559 006a 897524   		movl	%esi, 36(%ebp)
 1560              		.loc 1 397 5 is_stmt 1 view .LVU479
 1561 006d 6A05     		pushl	$5
 1562              		.cfi_def_cfa_offset 48
 1563 006f E8FCFFFF 		call	chSchGoSleepS@PLT
 1563      FF
 1564              	.LVL73:
 1565              		.loc 1 398 5 view .LVU480
 1566              	.LBE261:
 1567 0074 83C410   		addl	$16, %esp
 1568              		.cfi_def_cfa_offset 32
 1569              	.LBB264:
 1570              		.loc 1 398 9 is_stmt 0 view .LVU481
 1571 0077 8B4524   		movl	36(%ebp), %eax
 1572              	.LVL74:
 1573              		.loc 1 398 9 view .LVU482
 1574              	.LBE264:
 1575              		.loc 1 404 3 is_stmt 1 view .LVU483
 1576              	.LBB265:
 1577              		.loc 3 365 20 view .LVU484
 1578              	.LBB259:
 1579              		.loc 3 367 22 view .LVU485
 1580              		.loc 3 368 33 view .LVU486
 1581              		.loc 3 374 3 view .LVU487
 1582              		.loc 3 374 3 view .LVU488
 1583              		.loc 3 378 3 view .LVU489
 1584              	.LBB257:
 1585              		.loc 4 371 20 view .LVU490
 1586              	.LBB255:
GAS LISTING /tmp/ccUzXom3.s 			page 30


 1587              		.loc 4 373 3 view .LVU491
 1588              		.loc 4 373 16 is_stmt 0 view .LVU492
 1589 007a C7070000 		movl	$0, (%edi)
 1589      0000
 1590              	.LBE255:
 1591              	.LBE257:
 1592              	.LBE259:
 1593              	.LBE265:
 1594              		.loc 1 406 3 is_stmt 1 view .LVU493
 1595              		.loc 1 407 1 is_stmt 0 view .LVU494
 1596 0080 83C40C   		addl	$12, %esp
 1597              		.cfi_remember_state
 1598              		.cfi_def_cfa_offset 20
 1599 0083 5B       		popl	%ebx
 1600              		.cfi_restore 3
 1601              		.cfi_def_cfa_offset 16
 1602 0084 5E       		popl	%esi
 1603              		.cfi_restore 6
 1604              		.cfi_def_cfa_offset 12
 1605 0085 5F       		popl	%edi
 1606              		.cfi_restore 7
 1607              		.cfi_def_cfa_offset 8
 1608 0086 5D       		popl	%ebp
 1609              		.cfi_restore 5
 1610              		.cfi_def_cfa_offset 4
 1611              	.LVL75:
 1612              		.loc 1 407 1 view .LVU495
 1613 0087 C3       		ret
 1614              	.LVL76:
 1615 0088 8DB42600 		.p2align 4,,10
 1615      00000090 
 1616              		.p2align 3
 1617              	.L57:
 1618              		.cfi_restore_state
 1619              		.loc 1 391 5 is_stmt 1 view .LVU496
 1620              	.LBB266:
 1621              	.LBI266:
 1622              		.loc 2 606 25 view .LVU497
 1623              	.LBB267:
 1624              		.loc 2 607 3 view .LVU498
 1625              		.loc 2 607 13 is_stmt 0 view .LVU499
 1626 0090 8B02     		movl	(%edx), %eax
 1627              	.LVL77:
 1628              		.loc 2 609 3 is_stmt 1 view .LVU500
 1629              	.LBE267:
 1630              	.LBE266:
 1631              		.loc 1 391 5 is_stmt 0 view .LVU501
 1632 0092 83EC0C   		subl	$12, %esp
 1633              		.cfi_def_cfa_offset 44
 1634              	.LBB269:
 1635              	.LBB268:
 1636              		.loc 2 609 36 view .LVU502
 1637 0095 8B08     		movl	(%eax), %ecx
 1638              		.loc 2 609 25 view .LVU503
 1639 0097 890A     		movl	%ecx, (%edx)
 1640              		.loc 2 610 3 is_stmt 1 view .LVU504
 1641              		.loc 2 610 25 is_stmt 0 view .LVU505
GAS LISTING /tmp/ccUzXom3.s 			page 31


 1642 0099 895104   		movl	%edx, 4(%ecx)
 1643              		.loc 2 612 3 is_stmt 1 view .LVU506
 1644              	.LVL78:
 1645              		.loc 2 612 3 is_stmt 0 view .LVU507
 1646              	.LBE268:
 1647              	.LBE269:
 1648              		.loc 1 391 5 view .LVU508
 1649 009c 50       		pushl	%eax
 1650              		.cfi_def_cfa_offset 48
 1651 009d E8FCFFFF 		call	chSchReadyI@PLT
 1651      FF
 1652              	.LVL79:
 1653              		.loc 1 391 59 view .LVU509
 1654 00a2 83C410   		addl	$16, %esp
 1655              		.cfi_def_cfa_offset 32
 1656 00a5 C7402400 		movl	$0, 36(%eax)
 1656      000000
 1657 00ac EB85     		jmp	.L53
 1658              		.cfi_endproc
 1659              	.LFE148:
 1660              		.size	chSemSignalWait, .-chSemSignalWait
 1661              		.section	.text.__x86.get_pc_thunk.bx,"axG",@progbits,__x86.get_pc_thunk.bx,comdat
 1662              		.globl	__x86.get_pc_thunk.bx
 1663              		.hidden	__x86.get_pc_thunk.bx
 1664              		.type	__x86.get_pc_thunk.bx, @function
 1665              	__x86.get_pc_thunk.bx:
 1666              	.LFB151:
 1667              		.cfi_startproc
 1668 0000 8B1C24   		movl	(%esp), %ebx
 1669 0003 C3       		ret
 1670              		.cfi_endproc
 1671              	.LFE151:
 1672              		.text
 1673              	.Letext0:
 1674              		.file 5 "/usr/lib/gcc/x86_64-linux-gnu/8/include/stddef.h"
 1675              		.file 6 "/usr/include/i386-linux-gnu/bits/types.h"
 1676              		.file 7 "/usr/include/i386-linux-gnu/bits/stdint-intn.h"
 1677              		.file 8 "/usr/include/i386-linux-gnu/bits/stdint-uintn.h"
 1678              		.file 9 "../../../os/common/ports/SIMIA32/compilers/GCC/chtypes.h"
 1679              		.file 10 "../../../os/rt/include/chsystypes.h"
 1680              		.file 11 "../../../os/rt/include/chtime.h"
 1681              		.file 12 "../../../os/rt/include/chtm.h"
 1682              		.file 13 "../../../os/rt/include/chsem.h"
 1683              		.file 14 "../../../os/rt/include/chmtx.h"
 1684              		.file 15 "../../../os/rt/include/chregistry.h"
 1685              		.file 16 "../../../os/common/oslib/include/chmemcore.h"
 1686              		.file 17 "../../../os/common/oslib/include/chmempools.h"
 1687              		.file 18 "../../../os/common/oslib/include/chfactory.h"
 6353              		.section	.note.GNU-stack,"",@progbits
GAS LISTING /tmp/ccUzXom3.s 			page 121

