GAS LISTING /tmp/ccOro4nK.s 			page 1


   1              		.file	"chsys.c"
   2              		.text
   3              	.Ltext0:
   4              		.section	.text._idle_thread,"ax",@progbits
   5              		.p2align 4,,15
   6              		.type	_idle_thread, @function
   7              	_idle_thread:
   8              	.LVL0:
   9              	.LFB138:
  10              		.file 1 "../../../os/rt/src/chsys.c"
  11              		.loc 1 72 35 view -0
  12              		.cfi_startproc
  13              		.loc 1 72 35 is_stmt 0 view .LVU1
  14 0000 53       		pushl	%ebx
  15              		.cfi_def_cfa_offset 8
  16              		.cfi_offset 3, -8
  17 0001 E8FCFFFF 		call	__x86.get_pc_thunk.bx
  17      FF
  18 0006 81C30200 		addl	$_GLOBAL_OFFSET_TABLE_, %ebx
  18      0000
  19 000c 83EC08   		subl	$8, %esp
  20              		.cfi_def_cfa_offset 16
  21 000f 90       		.p2align 4,,10
  22              		.p2align 3
  23              	.L2:
  24              		.loc 1 74 3 is_stmt 1 discriminator 1 view .LVU2
  25              		.loc 1 76 3 discriminator 1 view .LVU3
  26              		.loc 1 79 5 discriminator 1 view .LVU4
  27              	.LBB60:
  28              	.LBI60:
  29              		.file 2 "../../../os/common/ports/SIMIA32/chcore.h"
  30              		.loc 2 428 20 discriminator 1 view .LVU5
  31              	.LBB61:
  32              		.loc 2 430 3 discriminator 1 view .LVU6
  33 0010 E8FCFFFF 		call	_sim_check_for_interrupts@PLT
  33      FF
  34              	.LVL1:
  35 0015 EBF9     		jmp	.L2
  36              	.LBE61:
  37              	.LBE60:
  38              		.cfi_endproc
  39              	.LFE138:
  40              		.size	_idle_thread, .-_idle_thread
  41              		.section	.text.chSysInit,"ax",@progbits
  42              		.p2align 4,,15
  43              		.globl	chSysInit
  44              		.type	chSysInit, @function
  45              	chSysInit:
  46              	.LFB139:
  47              		.loc 1 100 22 view -0
  48              		.cfi_startproc
  49              		.loc 1 102 3 view .LVU8
  50              		.loc 1 100 22 is_stmt 0 view .LVU9
  51 0000 56       		pushl	%esi
  52              		.cfi_def_cfa_offset 8
  53              		.cfi_offset 6, -8
  54 0001 53       		pushl	%ebx
GAS LISTING /tmp/ccOro4nK.s 			page 2


  55              		.cfi_def_cfa_offset 12
  56              		.cfi_offset 3, -12
  57 0002 E8FCFFFF 		call	__x86.get_pc_thunk.bx
  57      FF
  58 0007 81C30200 		addl	$_GLOBAL_OFFSET_TABLE_, %ebx
  58      0000
  59 000d 83EC04   		subl	$4, %esp
  60              		.cfi_def_cfa_offset 16
  61              		.loc 1 102 3 view .LVU10
  62 0010 E8FCFFFF 		call	_scheduler_init@PLT
  62      FF
  63              	.LVL2:
  64              		.loc 1 103 3 is_stmt 1 view .LVU11
  65 0015 E8FCFFFF 		call	_vt_init@PLT
  65      FF
  66              	.LVL3:
  67              		.loc 1 104 16 view .LVU12
  68              		.loc 1 111 3 view .LVU13
  69 001a E8FCFFFF 		call	_tm_init@PLT
  69      FF
  70              	.LVL4:
  71              		.loc 1 114 3 view .LVU14
  72 001f E8FCFFFF 		call	_core_init@PLT
  72      FF
  73              	.LVL5:
  74              		.loc 1 117 3 view .LVU15
  75 0024 E8FCFFFF 		call	_heap_init@PLT
  75      FF
  76              	.LVL6:
  77              		.loc 1 120 3 view .LVU16
  78 0029 E8FCFFFF 		call	_factory_init@PLT
  78      FF
  79              	.LVL7:
  80              		.loc 1 129 3 view .LVU17
  81              		.loc 1 129 11 is_stmt 0 view .LVU18
  82 002e 8BB30000 		movl	ch@GOT(%ebx), %esi
  82      0000
  83 0034 83EC04   		subl	$4, %esp
  84              		.cfi_def_cfa_offset 20
  85 0037 68800000 		pushl	$128
  85      00
  86              		.cfi_def_cfa_offset 24
  87 003c 8D4630   		leal	48(%esi), %eax
  88 003f FFB30000 		pushl	ch_debug@GOT(%ebx)
  88      0000
  89              		.cfi_def_cfa_offset 28
  90 0045 50       		pushl	%eax
  91              		.cfi_def_cfa_offset 32
  92 0046 E8FCFFFF 		call	_thread_init@PLT
  92      FF
  93              	.LVL8:
  94              		.loc 1 129 9 view .LVU19
  95 004b 894618   		movl	%eax, 24(%esi)
  96              		.loc 1 146 3 is_stmt 1 view .LVU20
  97              		.loc 1 146 17 is_stmt 0 view .LVU21
  98 004e C7401C00 		movl	$0, 28(%eax)
  98      000000
GAS LISTING /tmp/ccOro4nK.s 			page 3


  99              		.loc 1 150 3 is_stmt 1 view .LVU22
 100              		.loc 1 150 16 is_stmt 0 view .LVU23
 101 0055 C6402001 		movb	$1, 32(%eax)
 102              		.loc 1 154 3 is_stmt 1 view .LVU24
 103              	.LBB62:
 104              	.LBI62:
 105              		.loc 2 316 20 view .LVU25
 106              	.LBB63:
 107              		.loc 2 318 3 view .LVU26
 108              		.loc 2 318 16 is_stmt 0 view .LVU27
 109 0059 8B830000 		movl	port_irq_sts@GOT(%ebx), %eax
 109      0000
 110 005f C7000000 		movl	$0, (%eax)
 110      0000
 111              		.loc 2 319 3 is_stmt 1 view .LVU28
 112              		.loc 2 319 25 is_stmt 0 view .LVU29
 113 0065 8B830000 		movl	port_isr_context_flag@GOT(%ebx), %eax
 113      0000
 114 006b C60000   		movb	$0, (%eax)
 115              	.LBE63:
 116              	.LBE62:
 117              		.loc 1 162 3 is_stmt 1 view .LVU30
 118              		.loc 1 162 28 view .LVU31
 119              		.loc 1 165 3 view .LVU32
 120              		.file 3 "../../../os/rt/include/chsys.h"
 121              		.loc 3 344 22 view .LVU33
 122              		.loc 3 345 3 view .LVU34
 123              		.loc 2 417 3 view .LVU35
 124              	.LBB64:
 125              		.loc 1 169 5 view .LVU36
 126              		.loc 1 181 5 view .LVU37
 127              		.loc 1 181 12 is_stmt 0 view .LVU38
 128 006e 8D830000 		leal	idle_descriptor.2876@GOTOFF(%ebx), %eax
 128      0000
 129 0074 890424   		movl	%eax, (%esp)
 130 0077 E8FCFFFF 		call	chThdCreate@PLT
 130      FF
 131              	.LVL9:
 132              	.LBE64:
 133              		.loc 1 184 1 view .LVU39
 134 007c 83C414   		addl	$20, %esp
 135              		.cfi_def_cfa_offset 12
 136 007f 5B       		popl	%ebx
 137              		.cfi_restore 3
 138              		.cfi_def_cfa_offset 8
 139 0080 5E       		popl	%esi
 140              		.cfi_restore 6
 141              		.cfi_def_cfa_offset 4
 142 0081 C3       		ret
 143              		.cfi_endproc
 144              	.LFE139:
 145              		.size	chSysInit, .-chSysInit
 146              		.section	.text.chSysHalt,"ax",@progbits
 147              		.p2align 4,,15
 148              		.globl	chSysHalt
 149              		.type	chSysHalt, @function
 150              	chSysHalt:
GAS LISTING /tmp/ccOro4nK.s 			page 4


 151              	.LVL10:
 152              	.LFB140:
 153              		.loc 1 198 36 is_stmt 1 view -0
 154              		.cfi_startproc
 155              		.loc 1 200 3 view .LVU41
 156              	.LBB65:
 157              	.LBI65:
 158              		.loc 2 399 20 view .LVU42
 159              	.LBB66:
 160              		.loc 2 401 3 view .LVU43
 161 0000 E8FCFFFF 		call	__x86.get_pc_thunk.ax
 161      FF
 162 0005 05010000 		addl	$_GLOBAL_OFFSET_TABLE_, %eax
 162      00
 163              		.loc 2 401 16 is_stmt 0 view .LVU44
 164 000a 8B900000 		movl	port_irq_sts@GOT(%eax), %edx
 164      0000
 165              	.LBE66:
 166              	.LBE65:
 167              		.loc 1 206 20 view .LVU45
 168 0010 8B800000 		movl	ch@GOT(%eax), %eax
 168      0000
 169              	.LBB68:
 170              	.LBB67:
 171              		.loc 2 401 16 view .LVU46
 172 0016 C7020100 		movl	$1, (%edx)
 172      0000
 173              	.LBE67:
 174              	.LBE68:
 175              		.loc 1 203 22 is_stmt 1 view .LVU47
 176              		.loc 1 206 3 view .LVU48
 177              		.loc 1 206 20 is_stmt 0 view .LVU49
 178 001c 8B542404 		movl	4(%esp), %edx
 179 0020 89502C   		movl	%edx, 44(%eax)
 180              	.L8:
 181              		.loc 1 209 3 is_stmt 1 discriminator 1 view .LVU50
 182              		.loc 1 209 34 discriminator 1 view .LVU51
 183              		.loc 1 212 3 discriminator 1 view .LVU52
 184              		.loc 1 213 3 discriminator 1 view .LVU53
 185              		.loc 1 209 3 discriminator 1 view .LVU54
 186              		.loc 1 209 34 discriminator 1 view .LVU55
 187              		.loc 1 212 3 discriminator 1 view .LVU56
 188              		.loc 1 213 3 discriminator 1 view .LVU57
 189 0023 EBFE     		jmp	.L8
 190              		.cfi_endproc
 191              	.LFE140:
 192              		.size	chSysHalt, .-chSysHalt
 193              		.section	.text.chSysIntegrityCheckI,"ax",@progbits
 194              		.p2align 4,,15
 195              		.globl	chSysIntegrityCheckI
 196              		.type	chSysIntegrityCheckI, @function
 197              	chSysIntegrityCheckI:
 198              	.LVL11:
 199              	.LFB141:
 200              		.loc 1 240 46 view -0
 201              		.cfi_startproc
 202              		.loc 1 241 3 view .LVU59
GAS LISTING /tmp/ccOro4nK.s 			page 5


 203              		.loc 1 243 21 view .LVU60
 204              		.loc 1 246 3 view .LVU61
 205              		.loc 1 240 46 is_stmt 0 view .LVU62
 206 0000 55       		pushl	%ebp
 207              		.cfi_def_cfa_offset 8
 208              		.cfi_offset 5, -8
 209 0001 57       		pushl	%edi
 210              		.cfi_def_cfa_offset 12
 211              		.cfi_offset 7, -12
 212 0002 E8FCFFFF 		call	__x86.get_pc_thunk.di
 212      FF
 213 0007 81C70200 		addl	$_GLOBAL_OFFSET_TABLE_, %edi
 213      0000
 214 000d 56       		pushl	%esi
 215              		.cfi_def_cfa_offset 16
 216              		.cfi_offset 6, -16
 217 000e 53       		pushl	%ebx
 218              		.cfi_def_cfa_offset 20
 219              		.cfi_offset 3, -20
 220              		.loc 1 240 46 view .LVU63
 221 000f 8B742414 		movl	20(%esp), %esi
 222              		.loc 1 246 6 view .LVU64
 223 0013 F7C60100 		testl	$1, %esi
 223      0000
 224 0019 7444     		je	.L10
 225              	.LBB69:
 226              		.loc 1 247 5 is_stmt 1 view .LVU65
 227              		.loc 1 250 5 view .LVU66
 228              	.LVL12:
 229              		.loc 1 251 5 view .LVU67
 230              		.loc 1 251 8 is_stmt 0 view .LVU68
 231 001b 8B870000 		movl	ch@GOT(%edi), %eax
 231      0000
 232              		.loc 1 250 7 view .LVU69
 233 0021 31D2     		xorl	%edx, %edx
 234              		.loc 1 251 8 view .LVU70
 235 0023 8B08     		movl	(%eax), %ecx
 236              	.LVL13:
 237              		.loc 1 252 5 is_stmt 1 view .LVU71
 238              		.loc 1 252 5 is_stmt 0 view .LVU72
 239 0025 8B5804   		movl	4(%eax), %ebx
 240              		.loc 1 252 11 view .LVU73
 241 0028 39C1     		cmpl	%eax, %ecx
 242 002a 0F84C000 		je	.L11
 242      0000
 243              	.LVL14:
 244              		.p2align 4,,10
 245              		.p2align 3
 246              	.L12:
 247              		.loc 1 253 7 is_stmt 1 view .LVU74
 248              		.loc 1 254 10 is_stmt 0 view .LVU75
 249 0030 8B09     		movl	(%ecx), %ecx
 250              	.LVL15:
 251              		.loc 1 253 8 view .LVU76
 252 0032 83C201   		addl	$1, %edx
 253              	.LVL16:
 254              		.loc 1 254 7 is_stmt 1 view .LVU77
GAS LISTING /tmp/ccOro4nK.s 			page 6


 255              		.loc 1 252 11 is_stmt 0 view .LVU78
 256 0035 39C1     		cmpl	%eax, %ecx
 257 0037 75F7     		jne	.L12
 258              		.loc 1 258 5 is_stmt 1 view .LVU79
 259              	.LVL17:
 260              		.loc 1 259 5 view .LVU80
 261              		.loc 1 259 11 is_stmt 0 view .LVU81
 262 0039 39CB     		cmpl	%ecx, %ebx
 263 003b 0F84BF00 		je	.L31
 263      0000
 264              	.LVL18:
 265              		.p2align 4,,10
 266 0041 8DB42600 		.p2align 3
 266      000000
 267              	.L16:
 268              		.loc 1 260 7 is_stmt 1 view .LVU82
 269              		.loc 1 261 10 is_stmt 0 view .LVU83
 270 0048 8B5B04   		movl	4(%ebx), %ebx
 271              	.LVL19:
 272              		.loc 1 260 8 view .LVU84
 273 004b 83EA01   		subl	$1, %edx
 274              	.LVL20:
 275              		.loc 1 261 7 is_stmt 1 view .LVU85
 276              		.loc 1 259 11 is_stmt 0 view .LVU86
 277 004e 39C3     		cmpl	%eax, %ebx
 278 0050 75F6     		jne	.L16
 279              		.loc 1 265 5 is_stmt 1 view .LVU87
 280              		.loc 1 266 14 is_stmt 0 view .LVU88
 281 0052 B8010000 		movl	$1, %eax
 281      00
 282              		.loc 1 265 8 view .LVU89
 283 0057 85D2     		testl	%edx, %edx
 284 0059 0F858800 		jne	.L9
 284      0000
 285              	.LVL21:
 286              	.L10:
 287              		.loc 1 265 8 view .LVU90
 288              	.LBE69:
 289              		.loc 1 271 3 is_stmt 1 view .LVU91
 290              		.loc 1 271 6 is_stmt 0 view .LVU92
 291 005f F7C60200 		testl	$2, %esi
 291      0000
 292 0065 743C     		je	.L17
 293              	.LBB70:
 294              		.loc 1 272 5 is_stmt 1 view .LVU93
 295              		.loc 1 275 5 view .LVU94
 296              	.LVL22:
 297              		.loc 1 276 5 view .LVU95
 298              		.loc 1 276 9 is_stmt 0 view .LVU96
 299 0067 8B870000 		movl	ch@GOT(%edi), %eax
 299      0000
 300              		.loc 1 275 7 view .LVU97
 301 006d 31D2     		xorl	%edx, %edx
 302              		.loc 1 276 9 view .LVU98
 303 006f 8B481C   		movl	28(%eax), %ecx
 304              	.LVL23:
 305              		.loc 1 277 5 is_stmt 1 view .LVU99
GAS LISTING /tmp/ccOro4nK.s 			page 7


 306              		.loc 1 277 11 is_stmt 0 view .LVU100
 307 0072 8D681C   		leal	28(%eax), %ebp
 308 0075 8B5820   		movl	32(%eax), %ebx
 309 0078 39E9     		cmpl	%ebp, %ecx
 310 007a 0F849000 		je	.L18
 310      0000
 311              	.LVL24:
 312              		.p2align 4,,10
 313              		.p2align 3
 314              	.L19:
 315              		.loc 1 278 7 is_stmt 1 view .LVU101
 316              		.loc 1 279 11 is_stmt 0 view .LVU102
 317 0080 8B09     		movl	(%ecx), %ecx
 318              	.LVL25:
 319              		.loc 1 278 8 view .LVU103
 320 0082 83C201   		addl	$1, %edx
 321              	.LVL26:
 322              		.loc 1 279 7 is_stmt 1 view .LVU104
 323              		.loc 1 277 11 is_stmt 0 view .LVU105
 324 0085 39E9     		cmpl	%ebp, %ecx
 325 0087 75F7     		jne	.L19
 326              		.loc 1 283 5 is_stmt 1 view .LVU106
 327              	.LVL27:
 328              		.loc 1 284 5 view .LVU107
 329              		.loc 1 284 11 is_stmt 0 view .LVU108
 330 0089 39CB     		cmpl	%ecx, %ebx
 331 008b 7473     		je	.L31
 332              	.LVL28:
 333              	.L21:
 334              		.loc 1 284 11 view .LVU109
 335 008d 83C01C   		addl	$28, %eax
 336              		.p2align 4,,10
 337              		.p2align 3
 338              	.L22:
 339              	.LVL29:
 340              		.loc 1 285 7 is_stmt 1 view .LVU110
 341              		.loc 1 286 11 is_stmt 0 view .LVU111
 342 0090 8B5B04   		movl	4(%ebx), %ebx
 343              	.LVL30:
 344              		.loc 1 285 8 view .LVU112
 345 0093 83EA01   		subl	$1, %edx
 346              	.LVL31:
 347              		.loc 1 286 7 is_stmt 1 view .LVU113
 348              		.loc 1 284 11 is_stmt 0 view .LVU114
 349 0096 39C3     		cmpl	%eax, %ebx
 350 0098 75F6     		jne	.L22
 351              		.loc 1 290 5 is_stmt 1 view .LVU115
 352              	.LBE70:
 353              	.LBB71:
 354              		.loc 1 266 14 is_stmt 0 view .LVU116
 355 009a B8010000 		movl	$1, %eax
 355      00
 356              	.LBE71:
 357              	.LBB72:
 358              		.loc 1 290 8 view .LVU117
 359 009f 85D2     		testl	%edx, %edx
 360 00a1 7544     		jne	.L9
GAS LISTING /tmp/ccOro4nK.s 			page 8


 361              	.LVL32:
 362              	.L17:
 363              		.loc 1 290 8 view .LVU118
 364              	.LBE72:
 365              		.loc 1 296 3 is_stmt 1 view .LVU119
 366              		.loc 1 327 10 is_stmt 0 view .LVU120
 367 00a3 31C0     		xorl	%eax, %eax
 368              		.loc 1 296 6 view .LVU121
 369 00a5 83E604   		andl	$4, %esi
 370 00a8 743D     		je	.L9
 371              	.LBB73:
 372              		.loc 1 297 5 is_stmt 1 view .LVU122
 373              		.loc 1 300 5 view .LVU123
 374              	.LVL33:
 375              		.loc 1 301 5 view .LVU124
 376              		.loc 1 301 8 is_stmt 0 view .LVU125
 377 00aa 8B870000 		movl	ch@GOT(%edi), %eax
 377      0000
 378              		.loc 1 300 7 view .LVU126
 379 00b0 31D2     		xorl	%edx, %edx
 380              		.loc 1 301 8 view .LVU127
 381 00b2 8B4810   		movl	16(%eax), %ecx
 382              	.LVL34:
 383              		.loc 1 302 5 is_stmt 1 view .LVU128
 384              		.loc 1 302 11 is_stmt 0 view .LVU129
 385 00b5 39C1     		cmpl	%eax, %ecx
 386 00b7 7411     		je	.L23
 387              	.LVL35:
 388 00b9 8DB42600 		.p2align 4,,10
 388      000000
 389              		.p2align 3
 390              	.L24:
 391              		.loc 1 303 7 is_stmt 1 view .LVU130
 392              		.loc 1 304 10 is_stmt 0 view .LVU131
 393 00c0 8B4910   		movl	16(%ecx), %ecx
 394              	.LVL36:
 395              		.loc 1 303 8 view .LVU132
 396 00c3 83C201   		addl	$1, %edx
 397              	.LVL37:
 398              		.loc 1 304 7 is_stmt 1 view .LVU133
 399              		.loc 1 302 11 is_stmt 0 view .LVU134
 400 00c6 39C1     		cmpl	%eax, %ecx
 401 00c8 75F6     		jne	.L24
 402              	.LVL38:
 403              	.L23:
 404              		.loc 1 308 5 is_stmt 1 view .LVU135
 405              		.loc 1 308 8 is_stmt 0 view .LVU136
 406 00ca 8B4814   		movl	20(%eax), %ecx
 407              	.LVL39:
 408              		.loc 1 309 5 is_stmt 1 view .LVU137
 409              		.loc 1 309 11 is_stmt 0 view .LVU138
 410 00cd 39C1     		cmpl	%eax, %ecx
 411 00cf 7411     		je	.L25
 412              		.p2align 4,,10
 413 00d1 8DB42600 		.p2align 3
 413      000000
 414              	.L26:
GAS LISTING /tmp/ccOro4nK.s 			page 9


 415              		.loc 1 310 7 is_stmt 1 view .LVU139
 416              		.loc 1 311 10 is_stmt 0 view .LVU140
 417 00d8 8B4914   		movl	20(%ecx), %ecx
 418              	.LVL40:
 419              		.loc 1 310 8 view .LVU141
 420 00db 83EA01   		subl	$1, %edx
 421              	.LVL41:
 422              		.loc 1 311 7 is_stmt 1 view .LVU142
 423              		.loc 1 309 11 is_stmt 0 view .LVU143
 424 00de 39C1     		cmpl	%eax, %ecx
 425 00e0 75F6     		jne	.L26
 426              	.L25:
 427              		.loc 1 315 5 is_stmt 1 view .LVU144
 428              		.loc 1 315 8 is_stmt 0 view .LVU145
 429 00e2 85D2     		testl	%edx, %edx
 430 00e4 0F95C0   		setne	%al
 431              	.LVL42:
 432              	.L9:
 433              		.loc 1 315 8 view .LVU146
 434              	.LBE73:
 435              		.loc 1 328 1 view .LVU147
 436 00e7 5B       		popl	%ebx
 437              		.cfi_remember_state
 438              		.cfi_restore 3
 439              		.cfi_def_cfa_offset 16
 440 00e8 5E       		popl	%esi
 441              		.cfi_restore 6
 442              		.cfi_def_cfa_offset 12
 443 00e9 5F       		popl	%edi
 444              		.cfi_restore 7
 445              		.cfi_def_cfa_offset 8
 446 00ea 5D       		popl	%ebp
 447              		.cfi_restore 5
 448              		.cfi_def_cfa_offset 4
 449 00eb C3       		ret
 450              	.LVL43:
 451 00ec 8D742600 		.p2align 4,,10
 452              		.p2align 3
 453              	.L11:
 454              		.cfi_restore_state
 455              	.LBB74:
 456              		.loc 1 258 5 is_stmt 1 view .LVU148
 457              		.loc 1 259 5 view .LVU149
 458              		.loc 1 259 11 is_stmt 0 view .LVU150
 459 00f0 39C3     		cmpl	%eax, %ebx
 460 00f2 0F8550FF 		jne	.L16
 460      FFFF
 461 00f8 E962FFFF 		jmp	.L10
 461      FF
 462              	.LVL44:
 463 00fd 8D7600   		.p2align 4,,10
 464              		.p2align 3
 465              	.L31:
 466              		.loc 1 266 14 view .LVU151
 467 0100 B8010000 		movl	$1, %eax
 467      00
 468 0105 EBE0     		jmp	.L9
GAS LISTING /tmp/ccOro4nK.s 			page 10


 469              	.LVL45:
 470 0107 8DB42600 		.p2align 4,,10
 470      00000066 
 470      90
 471              		.p2align 3
 472              	.L18:
 473              		.loc 1 266 14 view .LVU152
 474              	.LBE74:
 475              	.LBB75:
 476              		.loc 1 283 5 is_stmt 1 view .LVU153
 477              		.loc 1 284 5 view .LVU154
 478              		.loc 1 284 11 is_stmt 0 view .LVU155
 479 0110 39CB     		cmpl	%ecx, %ebx
 480 0112 0F8575FF 		jne	.L21
 480      FFFF
 481 0118 EB89     		jmp	.L17
 482              	.LBE75:
 483              		.cfi_endproc
 484              	.LFE141:
 485              		.size	chSysIntegrityCheckI, .-chSysIntegrityCheckI
 486              		.section	.text.chSysTimerHandlerI,"ax",@progbits
 487              		.p2align 4,,15
 488              		.globl	chSysTimerHandlerI
 489              		.type	chSysTimerHandlerI, @function
 490              	chSysTimerHandlerI:
 491              	.LFB142:
 492              		.loc 1 341 31 is_stmt 1 view -0
 493              		.cfi_startproc
 494              		.loc 1 343 21 view .LVU157
 495              		.loc 1 355 3 view .LVU158
 496              	.LBB85:
 497              	.LBI85:
 498              		.file 4 "../../../os/rt/include/chvt.h"
 499              		.loc 4 370 20 view .LVU159
 500              	.LBB86:
 501              		.loc 4 372 21 view .LVU160
 502              		.loc 4 375 3 view .LVU161
 503              	.LBE86:
 504              	.LBE85:
 505              		.loc 1 341 31 is_stmt 0 view .LVU162
 506 0000 57       		pushl	%edi
 507              		.cfi_def_cfa_offset 8
 508              		.cfi_offset 7, -8
 509 0001 56       		pushl	%esi
 510              		.cfi_def_cfa_offset 12
 511              		.cfi_offset 6, -12
 512 0002 E8FCFFFF 		call	__x86.get_pc_thunk.si
 512      FF
 513 0007 81C60200 		addl	$_GLOBAL_OFFSET_TABLE_, %esi
 513      0000
 514 000d 53       		pushl	%ebx
 515              		.cfi_def_cfa_offset 16
 516              		.cfi_offset 3, -16
 517              	.LBB109:
 518              	.LBB105:
 519              		.loc 4 375 12 view .LVU163
 520 000e 8B9E0000 		movl	ch@GOT(%esi), %ebx
GAS LISTING /tmp/ccOro4nK.s 			page 11


 520      0000
 521 0014 0FB74328 		movzwl	40(%ebx), %eax
 522              		.loc 4 376 6 view .LVU164
 523 0018 8D4B1C   		leal	28(%ebx), %ecx
 524              		.loc 4 375 20 view .LVU165
 525 001b 83C001   		addl	$1, %eax
 526 001e 66894328 		movw	%ax, 40(%ebx)
 527              		.loc 4 376 3 is_stmt 1 view .LVU166
 528              		.loc 4 376 55 is_stmt 0 view .LVU167
 529 0022 8B431C   		movl	28(%ebx), %eax
 530              		.loc 4 376 6 view .LVU168
 531 0025 39C8     		cmpl	%ecx, %eax
 532 0027 744A     		je	.L51
 533              		.loc 4 378 5 is_stmt 1 view .LVU169
 534              		.loc 4 379 11 is_stmt 0 view .LVU170
 535 0029 83680801 		subl	$1, 8(%eax)
 536 002d 7544     		jne	.L51
 537 002f 8BBE0000 		movl	port_irq_sts@GOT(%esi), %edi
 537      0000
 538              	.LBB87:
 539              		.loc 4 386 23 view .LVU171
 540 0035 89CE     		movl	%ecx, %esi
 541 0037 8DB42600 		.p2align 4,,10
 541      00000066 
 541      90
 542              		.p2align 3
 543              	.L53:
 544              		.loc 4 380 7 is_stmt 1 view .LVU172
 545              		.loc 4 381 7 view .LVU173
 546              		.loc 4 383 7 view .LVU174
 547              	.LVL46:
 548              		.loc 4 384 7 view .LVU175
 549              		.loc 4 386 10 is_stmt 0 view .LVU176
 550 0040 8B10     		movl	(%eax), %edx
 551              		.loc 4 384 10 view .LVU177
 552 0042 8B480C   		movl	12(%eax), %ecx
 553              	.LVL47:
 554              		.loc 4 385 7 is_stmt 1 view .LVU178
 555              		.loc 4 389 7 is_stmt 0 view .LVU179
 556 0045 83EC0C   		subl	$12, %esp
 557              		.cfi_def_cfa_offset 28
 558              		.loc 4 385 17 view .LVU180
 559 0048 C7400C00 		movl	$0, 12(%eax)
 559      000000
 560              		.loc 4 386 7 is_stmt 1 view .LVU181
 561              	.LBB88:
 562              	.LBB89:
 563              	.LBB90:
 564              		.loc 2 393 16 is_stmt 0 view .LVU182
 565 004f C7070000 		movl	$0, (%edi)
 565      0000
 566              	.LBE90:
 567              	.LBE89:
 568              	.LBE88:
 569              		.loc 4 386 23 view .LVU183
 570 0055 897204   		movl	%esi, 4(%edx)
 571              		.loc 4 387 7 is_stmt 1 view .LVU184
GAS LISTING /tmp/ccOro4nK.s 			page 12


 572              		.loc 4 389 7 is_stmt 0 view .LVU185
 573 0058 FF7010   		pushl	16(%eax)
 574              		.cfi_def_cfa_offset 32
 575              		.loc 4 387 22 view .LVU186
 576 005b 89531C   		movl	%edx, 28(%ebx)
 577              		.loc 4 388 7 is_stmt 1 view .LVU187
 578              	.LBB93:
 579              	.LBI88:
 580              		.loc 3 413 20 view .LVU188
 581              	.LBE93:
 582              	.LBE87:
 583              	.LBE105:
 584              	.LBE109:
 585              		.loc 3 415 31 view .LVU189
 586              		.loc 3 416 33 view .LVU190
 587              		.loc 3 417 3 view .LVU191
 588              	.LBB110:
 589              	.LBB106:
 590              	.LBB102:
 591              	.LBB94:
 592              	.LBB92:
 593              	.LBI89:
 594              		.loc 2 391 20 view .LVU192
 595              	.LBB91:
 596              		.loc 2 393 3 view .LVU193
 597              	.LBE91:
 598              	.LBE92:
 599              	.LBE94:
 600              		.loc 4 389 7 view .LVU194
 601 005e FFD1     		call	*%ecx
 602              	.LVL48:
 603              		.loc 4 390 7 view .LVU195
 604              	.LBB95:
 605              	.LBI95:
 606              		.loc 3 393 20 view .LVU196
 607              	.LBE95:
 608              	.LBE102:
 609              	.LBE106:
 610              	.LBE110:
 611              		.loc 3 395 3 view .LVU197
 612              	.LBB111:
 613              	.LBB107:
 614              	.LBB103:
 615              	.LBB100:
 616              	.LBB96:
 617              	.LBI96:
 618              		.loc 2 381 20 view .LVU198
 619              	.LBB97:
 620              		.loc 2 383 3 view .LVU199
 621              	.LBE97:
 622              	.LBE96:
 623              	.LBE100:
 624              	.LBE103:
 625              		.loc 4 379 21 is_stmt 0 view .LVU200
 626 0060 8B431C   		movl	28(%ebx), %eax
 627              	.LBB104:
 628              	.LBB101:
GAS LISTING /tmp/ccOro4nK.s 			page 13


 629              	.LBB99:
 630              	.LBB98:
 631              		.loc 2 383 16 view .LVU201
 632 0063 C7070100 		movl	$1, (%edi)
 632      0000
 633              	.LBE98:
 634              	.LBE99:
 635              	.LBE101:
 636              	.LBE104:
 637              	.LBE107:
 638              	.LBE111:
 639              		.loc 3 396 34 is_stmt 1 view .LVU202
 640              		.loc 3 397 29 view .LVU203
 641              	.LBB112:
 642              	.LBB108:
 643              		.loc 4 379 11 is_stmt 0 view .LVU204
 644 0069 83C410   		addl	$16, %esp
 645              		.cfi_def_cfa_offset 16
 646 006c 8B5008   		movl	8(%eax), %edx
 647 006f 85D2     		testl	%edx, %edx
 648 0071 74CD     		je	.L53
 649              	.L51:
 650              		.loc 4 379 11 view .LVU205
 651              	.LBE108:
 652              	.LBE112:
 653              		.loc 1 357 1 view .LVU206
 654 0073 5B       		popl	%ebx
 655              		.cfi_restore 3
 656              		.cfi_def_cfa_offset 12
 657 0074 5E       		popl	%esi
 658              		.cfi_restore 6
 659              		.cfi_def_cfa_offset 8
 660 0075 5F       		popl	%edi
 661              		.cfi_restore 7
 662              		.cfi_def_cfa_offset 4
 663 0076 C3       		ret
 664              		.cfi_endproc
 665              	.LFE142:
 666              		.size	chSysTimerHandlerI, .-chSysTimerHandlerI
 667              		.section	.text.chSysGetStatusAndLockX,"ax",@progbits
 668              		.p2align 4,,15
 669              		.globl	chSysGetStatusAndLockX
 670              		.type	chSysGetStatusAndLockX, @function
 671              	chSysGetStatusAndLockX:
 672              	.LFB143:
 673              		.loc 1 372 39 is_stmt 1 view -0
 674              		.cfi_startproc
 675              		.loc 1 374 3 view .LVU208
 676              	.LBB113:
 677              	.LBI113:
 678              		.loc 2 327 24 view .LVU209
 679              	.LBB114:
 680              		.loc 2 329 3 view .LVU210
 681 0000 E8FCFFFF 		call	__x86.get_pc_thunk.ax
 681      FF
 682 0005 05010000 		addl	$_GLOBAL_OFFSET_TABLE_, %eax
 682      00
GAS LISTING /tmp/ccOro4nK.s 			page 14


 683              		.loc 2 329 10 is_stmt 0 view .LVU211
 684 000a 8B900000 		movl	port_irq_sts@GOT(%eax), %edx
 684      0000
 685 0010 8B02     		movl	(%edx), %eax
 686              	.LVL49:
 687              		.loc 2 329 10 view .LVU212
 688              	.LBE114:
 689              	.LBE113:
 690              		.loc 1 375 3 is_stmt 1 view .LVU213
 691              		.loc 2 343 3 view .LVU214
 692              		.loc 1 375 6 is_stmt 0 view .LVU215
 693 0012 85C0     		testl	%eax, %eax
 694 0014 7506     		jne	.L56
 695              		.loc 1 376 5 is_stmt 1 view .LVU216
 696              		.loc 2 355 3 view .LVU217
 697              		.loc 1 377 7 view .LVU218
 698              	.LBB115:
 699              	.LBI115:
 700              		.loc 3 393 20 view .LVU219
 701              	.LBE115:
 702              		.loc 3 395 3 view .LVU220
 703              	.LBB118:
 704              	.LBB116:
 705              	.LBI116:
 706              		.loc 2 381 20 view .LVU221
 707              	.LBB117:
 708              		.loc 2 383 3 view .LVU222
 709              		.loc 2 383 16 is_stmt 0 view .LVU223
 710 0016 C7020100 		movl	$1, (%edx)
 710      0000
 711              	.LBE117:
 712              	.LBE116:
 713              	.LBE118:
 714              		.loc 3 396 34 is_stmt 1 view .LVU224
 715              		.loc 3 397 29 view .LVU225
 716              		.loc 1 383 3 view .LVU226
 717              	.L56:
 718              		.loc 1 384 1 is_stmt 0 view .LVU227
 719 001c C3       		ret
 720              		.cfi_endproc
 721              	.LFE143:
 722              		.size	chSysGetStatusAndLockX, .-chSysGetStatusAndLockX
 723              		.section	.text.chSysRestoreStatusX,"ax",@progbits
 724              		.p2align 4,,15
 725              		.globl	chSysRestoreStatusX
 726              		.type	chSysRestoreStatusX, @function
 727              	chSysRestoreStatusX:
 728              	.LVL50:
 729              	.LFB144:
 730              		.loc 1 395 40 is_stmt 1 view -0
 731              		.cfi_startproc
 732              		.loc 1 397 3 view .LVU229
 733              		.loc 1 395 40 is_stmt 0 view .LVU230
 734 0000 53       		pushl	%ebx
 735              		.cfi_def_cfa_offset 8
 736              		.cfi_offset 3, -8
 737 0001 E8FCFFFF 		call	__x86.get_pc_thunk.bx
GAS LISTING /tmp/ccOro4nK.s 			page 15


 737      FF
 738 0006 81C30200 		addl	$_GLOBAL_OFFSET_TABLE_, %ebx
 738      0000
 739 000c 83EC08   		subl	$8, %esp
 740              		.cfi_def_cfa_offset 16
 741              	.LVL51:
 742              		.loc 2 343 3 is_stmt 1 view .LVU231
 743              		.loc 1 397 6 is_stmt 0 view .LVU232
 744 000f 8B442410 		movl	16(%esp), %eax
 745 0013 85C0     		testl	%eax, %eax
 746 0015 7517     		jne	.L58
 747              		.loc 1 398 5 is_stmt 1 view .LVU233
 748              	.LBB119:
 749              	.LBI119:
 750              		.loc 2 353 20 view .LVU234
 751              	.LBB120:
 752              		.loc 2 355 3 view .LVU235
 753              		.loc 2 355 10 is_stmt 0 view .LVU236
 754 0017 8B830000 		movl	port_isr_context_flag@GOT(%ebx), %eax
 754      0000
 755              	.LBE120:
 756              	.LBE119:
 757              		.loc 1 398 8 view .LVU237
 758 001d 803800   		cmpb	$0, (%eax)
 759 0020 7416     		je	.L60
 760              		.loc 1 403 7 is_stmt 1 view .LVU238
 761              	.LBB121:
 762              	.LBI121:
 763              		.loc 3 365 20 view .LVU239
 764              	.LBB122:
 765              		.loc 3 367 22 view .LVU240
 766              		.loc 3 368 33 view .LVU241
 767              		.loc 3 374 3 view .LVU242
 768              		.loc 3 374 3 view .LVU243
 769              		.loc 3 378 3 view .LVU244
 770              	.LBB123:
 771              	.LBI123:
 772              		.loc 2 371 20 view .LVU245
 773              	.LBB124:
 774              		.loc 2 373 3 view .LVU246
 775              		.loc 2 373 16 is_stmt 0 view .LVU247
 776 0022 8B830000 		movl	port_irq_sts@GOT(%ebx), %eax
 776      0000
 777 0028 C7000000 		movl	$0, (%eax)
 777      0000
 778              	.L58:
 779              		.loc 2 373 16 view .LVU248
 780              	.LBE124:
 781              	.LBE123:
 782              	.LBE122:
 783              	.LBE121:
 784              		.loc 1 406 1 view .LVU249
 785 002e 83C408   		addl	$8, %esp
 786              		.cfi_remember_state
 787              		.cfi_def_cfa_offset 8
 788 0031 5B       		popl	%ebx
 789              		.cfi_restore 3
GAS LISTING /tmp/ccOro4nK.s 			page 16


 790              		.cfi_def_cfa_offset 4
 791 0032 C3       		ret
 792              		.p2align 4,,10
 793 0033 8D742600 		.p2align 3
 793      90
 794              	.L60:
 795              		.cfi_restore_state
 796              		.loc 1 402 7 is_stmt 1 view .LVU250
 797 0038 E8FCFFFF 		call	chSchRescheduleS@PLT
 797      FF
 798              	.LVL52:
 799              		.loc 1 403 7 view .LVU251
 800              	.LBB128:
 801              		.loc 3 365 20 view .LVU252
 802              	.LBB127:
 803              		.loc 3 367 22 view .LVU253
 804              		.loc 3 368 33 view .LVU254
 805              		.loc 3 374 3 view .LVU255
 806              		.loc 3 374 3 view .LVU256
 807              		.loc 3 378 3 view .LVU257
 808              	.LBB126:
 809              		.loc 2 371 20 view .LVU258
 810              	.LBB125:
 811              		.loc 2 373 3 view .LVU259
 812              		.loc 2 373 16 is_stmt 0 view .LVU260
 813 003d 8B830000 		movl	port_irq_sts@GOT(%ebx), %eax
 813      0000
 814 0043 C7000000 		movl	$0, (%eax)
 814      0000
 815 0049 EBE3     		jmp	.L58
 816              	.LBE125:
 817              	.LBE126:
 818              	.LBE127:
 819              	.LBE128:
 820              		.cfi_endproc
 821              	.LFE144:
 822              		.size	chSysRestoreStatusX, .-chSysRestoreStatusX
 823              		.section	.text.chSysIsCounterWithinX,"ax",@progbits
 824              		.p2align 4,,15
 825              		.globl	chSysIsCounterWithinX
 826              		.type	chSysIsCounterWithinX, @function
 827              	chSysIsCounterWithinX:
 828              	.LVL53:
 829              	.LFB145:
 830              		.loc 1 427 69 is_stmt 1 view -0
 831              		.cfi_startproc
 832              		.loc 1 429 3 view .LVU262
 833              		.loc 1 427 69 is_stmt 0 view .LVU263
 834 0000 8B442408 		movl	8(%esp), %eax
 835              		.loc 1 429 22 view .LVU264
 836 0004 8B542404 		movl	4(%esp), %edx
 837              		.loc 1 429 38 view .LVU265
 838 0008 8B4C240C 		movl	12(%esp), %ecx
 839              		.loc 1 429 22 view .LVU266
 840 000c 29C2     		subl	%eax, %edx
 841              		.loc 1 429 38 view .LVU267
 842 000e 29C1     		subl	%eax, %ecx
GAS LISTING /tmp/ccOro4nK.s 			page 17


 843              		.loc 1 429 10 view .LVU268
 844 0010 39CA     		cmpl	%ecx, %edx
 845 0012 0F92C0   		setb	%al
 846              		.loc 1 430 1 view .LVU269
 847 0015 C3       		ret
 848              		.cfi_endproc
 849              	.LFE145:
 850              		.size	chSysIsCounterWithinX, .-chSysIsCounterWithinX
 851              		.section	.text.chSysPolledDelayX,"ax",@progbits
 852              		.p2align 4,,15
 853              		.globl	chSysPolledDelayX
 854              		.type	chSysPolledDelayX, @function
 855              	chSysPolledDelayX:
 856              	.LVL54:
 857              	.LFB146:
 858              		.loc 1 443 40 is_stmt 1 view -0
 859              		.cfi_startproc
 860              		.loc 1 444 3 view .LVU271
 861              		.loc 1 443 40 is_stmt 0 view .LVU272
 862 0000 57       		pushl	%edi
 863              		.cfi_def_cfa_offset 8
 864              		.cfi_offset 7, -8
 865 0001 56       		pushl	%esi
 866              		.cfi_def_cfa_offset 12
 867              		.cfi_offset 6, -12
 868 0002 53       		pushl	%ebx
 869              		.cfi_def_cfa_offset 16
 870              		.cfi_offset 3, -16
 871              		.loc 1 443 40 view .LVU273
 872 0003 8B7C2410 		movl	16(%esp), %edi
 873 0007 E8FCFFFF 		call	__x86.get_pc_thunk.bx
 873      FF
 874 000c 81C30200 		addl	$_GLOBAL_OFFSET_TABLE_, %ebx
 874      0000
 875              		.loc 1 444 19 view .LVU274
 876 0012 E8FCFFFF 		call	port_rt_get_counter_value@PLT
 876      FF
 877              	.LVL55:
 878 0017 89C6     		movl	%eax, %esi
 879              	.LVL56:
 880              		.loc 1 445 3 is_stmt 1 view .LVU275
 881              		.loc 1 447 3 view .LVU276
 882 0019 8DB42600 		.p2align 4,,10
 882      000000
 883              		.p2align 3
 884              	.L65:
 885              		.loc 1 448 3 discriminator 1 view .LVU277
 886              		.loc 1 447 32 is_stmt 0 discriminator 1 view .LVU278
 887 0020 E8FCFFFF 		call	port_rt_get_counter_value@PLT
 887      FF
 888              	.LVL57:
 889              	.LBB129:
 890              	.LBI129:
 891              		.loc 1 427 6 is_stmt 1 discriminator 1 view .LVU279
 892              	.LBB130:
 893              		.loc 1 429 3 discriminator 1 view .LVU280
 894              		.loc 1 429 22 is_stmt 0 discriminator 1 view .LVU281
GAS LISTING /tmp/ccOro4nK.s 			page 18


 895 0025 29F0     		subl	%esi, %eax
 896              	.LBE130:
 897              	.LBE129:
 898              		.loc 1 447 9 discriminator 1 view .LVU282
 899 0027 39C7     		cmpl	%eax, %edi
 900 0029 77F5     		ja	.L65
 901              		.loc 1 449 1 view .LVU283
 902 002b 5B       		popl	%ebx
 903              		.cfi_restore 3
 904              		.cfi_def_cfa_offset 12
 905 002c 5E       		popl	%esi
 906              		.cfi_restore 6
 907              		.cfi_def_cfa_offset 8
 908              	.LVL58:
 909              		.loc 1 449 1 view .LVU284
 910 002d 5F       		popl	%edi
 911              		.cfi_restore 7
 912              		.cfi_def_cfa_offset 4
 913 002e C3       		ret
 914              		.cfi_endproc
 915              	.LFE146:
 916              		.size	chSysPolledDelayX, .-chSysPolledDelayX
 917              		.section	.rodata.str1.1,"aMS",@progbits,1
 918              	.LC0:
 919 0000 69646C65 		.string	"idle"
 919      00
 920              		.section	.data.rel.ro.local.idle_descriptor.2876,"aw"
 921              		.align 4
 922              		.type	idle_descriptor.2876, @object
 923              		.size	idle_descriptor.2876, 24
 924              	idle_descriptor.2876:
 925 0000 00000000 		.long	.LC0
 926 0004 00000000 		.long	ch_idle_thread_wa
 927 0008 70410000 		.long	ch_idle_thread_wa+16752
 928 000c 01000000 		.long	1
 929 0010 00000000 		.long	_idle_thread
 930 0014 00000000 		.long	0
 931              		.globl	ch_idle_thread_wa
 932              		.section	.bss.ch_idle_thread_wa,"aw",@nobits
 933              		.align 32
 934              		.type	ch_idle_thread_wa, @object
 935              		.size	ch_idle_thread_wa, 16752
 936              	ch_idle_thread_wa:
 937 0000 00000000 		.zero	16752
 937      00000000 
 937      00000000 
 937      00000000 
 937      00000000 
 938              		.section	.text.__x86.get_pc_thunk.ax,"axG",@progbits,__x86.get_pc_thunk.ax,comdat
 939              		.globl	__x86.get_pc_thunk.ax
 940              		.hidden	__x86.get_pc_thunk.ax
 941              		.type	__x86.get_pc_thunk.ax, @function
 942              	__x86.get_pc_thunk.ax:
 943              	.LFB147:
 944              		.cfi_startproc
 945 0000 8B0424   		movl	(%esp), %eax
 946 0003 C3       		ret
GAS LISTING /tmp/ccOro4nK.s 			page 19


 947              		.cfi_endproc
 948              	.LFE147:
 949              		.section	.text.__x86.get_pc_thunk.bx,"axG",@progbits,__x86.get_pc_thunk.bx,comdat
 950              		.globl	__x86.get_pc_thunk.bx
 951              		.hidden	__x86.get_pc_thunk.bx
 952              		.type	__x86.get_pc_thunk.bx, @function
 953              	__x86.get_pc_thunk.bx:
 954              	.LFB148:
 955              		.cfi_startproc
 956 0000 8B1C24   		movl	(%esp), %ebx
 957 0003 C3       		ret
 958              		.cfi_endproc
 959              	.LFE148:
 960              		.section	.text.__x86.get_pc_thunk.si,"axG",@progbits,__x86.get_pc_thunk.si,comdat
 961              		.globl	__x86.get_pc_thunk.si
 962              		.hidden	__x86.get_pc_thunk.si
 963              		.type	__x86.get_pc_thunk.si, @function
 964              	__x86.get_pc_thunk.si:
 965              	.LFB149:
 966              		.cfi_startproc
 967 0000 8B3424   		movl	(%esp), %esi
 968 0003 C3       		ret
 969              		.cfi_endproc
 970              	.LFE149:
 971              		.section	.text.__x86.get_pc_thunk.di,"axG",@progbits,__x86.get_pc_thunk.di,comdat
 972              		.globl	__x86.get_pc_thunk.di
 973              		.hidden	__x86.get_pc_thunk.di
 974              		.type	__x86.get_pc_thunk.di, @function
 975              	__x86.get_pc_thunk.di:
 976              	.LFB150:
 977              		.cfi_startproc
 978 0000 8B3C24   		movl	(%esp), %edi
 979 0003 C3       		ret
 980              		.cfi_endproc
 981              	.LFE150:
 982              		.text
 983              	.Letext0:
 984              		.file 5 "/usr/lib/gcc/x86_64-linux-gnu/8/include/stddef.h"
 985              		.file 6 "/usr/include/i386-linux-gnu/bits/types.h"
 986              		.file 7 "/usr/include/i386-linux-gnu/bits/stdint-intn.h"
 987              		.file 8 "/usr/include/i386-linux-gnu/bits/stdint-uintn.h"
 988              		.file 9 "../../../os/common/ports/SIMIA32/compilers/GCC/chtypes.h"
 989              		.file 10 "../../../os/rt/include/chsystypes.h"
 990              		.file 11 "../../../os/rt/include/chschd.h"
 991              		.file 12 "../../../os/rt/include/chtime.h"
 992              		.file 13 "../../../os/rt/include/chtm.h"
 993              		.file 14 "../../../os/rt/include/chsem.h"
 994              		.file 15 "../../../os/rt/include/chmtx.h"
 995              		.file 16 "../../../os/rt/include/chthreads.h"
 996              		.file 17 "../../../os/rt/include/chregistry.h"
 997              		.file 18 "../../../os/common/oslib/include/chmemcore.h"
 998              		.file 19 "../../../os/common/oslib/include/chmempools.h"
 999              		.file 20 "../../../os/common/oslib/include/chfactory.h"
 1000              		.file 21 "../../../os/common/oslib/include/chheap.h"
 1001              		.section	.debug_info,"",@progbits
 1002              	.Ldebug_info0:
 1003 0000 30100000 		.long	0x1030
GAS LISTING /tmp/ccOro4nK.s 			page 20


 1004 0004 0400     		.value	0x4
 1005 0006 00000000 		.long	.Ldebug_abbrev0
 1006 000a 04       		.byte	0x4
 1007 000b 01       		.uleb128 0x1
 1008 000c 47080000 		.long	.LASF183
 1009 0010 0C       		.byte	0xc
 1010 0011 F8070000 		.long	.LASF184
 1011 0015 F2010000 		.long	.LASF185
 1012 0019 38010000 		.long	.Ldebug_ranges0+0x138
 1013 001d 00000000 		.long	0
 1014 0021 00000000 		.long	.Ldebug_line0
 1015 0025 02       		.uleb128 0x2
 1016 0026 04       		.byte	0x4
 1017 0027 05       		.byte	0x5
 1018 0028 696E7400 		.string	"int"
 1019 002c 03       		.uleb128 0x3
 1020 002d 41000000 		.long	.LASF9
 1021 0031 05       		.byte	0x5
 1022 0032 D8       		.byte	0xd8
 1023 0033 17       		.byte	0x17
 1024 0034 38000000 		.long	0x38
 1025 0038 04       		.uleb128 0x4
 1026 0039 04       		.byte	0x4
 1027 003a 07       		.byte	0x7
 1028 003b E9020000 		.long	.LASF0
 1029 003f 04       		.uleb128 0x4
 1030 0040 04       		.byte	0x4
 1031 0041 05       		.byte	0x5
 1032 0042 B7010000 		.long	.LASF1
 1033 0046 04       		.uleb128 0x4
 1034 0047 08       		.byte	0x8
 1035 0048 05       		.byte	0x5
 1036 0049 58010000 		.long	.LASF2
 1037 004d 04       		.uleb128 0x4
 1038 004e 0C       		.byte	0xc
 1039 004f 04       		.byte	0x4
 1040 0050 CE040000 		.long	.LASF3
 1041 0054 04       		.uleb128 0x4
 1042 0055 10       		.byte	0x10
 1043 0056 04       		.byte	0x4
 1044 0057 94010000 		.long	.LASF4
 1045 005b 04       		.uleb128 0x4
 1046 005c 01       		.byte	0x1
 1047 005d 08       		.byte	0x8
 1048 005e C7050000 		.long	.LASF5
 1049 0062 04       		.uleb128 0x4
 1050 0063 02       		.byte	0x2
 1051 0064 07       		.byte	0x7
 1052 0065 AF030000 		.long	.LASF6
 1053 0069 04       		.uleb128 0x4
 1054 006a 04       		.byte	0x4
 1055 006b 07       		.byte	0x7
 1056 006c 4C030000 		.long	.LASF7
 1057 0070 04       		.uleb128 0x4
 1058 0071 01       		.byte	0x1
 1059 0072 06       		.byte	0x6
 1060 0073 66010000 		.long	.LASF8
GAS LISTING /tmp/ccOro4nK.s 			page 21


 1061 0077 03       		.uleb128 0x3
 1062 0078 6B000000 		.long	.LASF10
 1063 007c 06       		.byte	0x6
 1064 007d 26       		.byte	0x26
 1065 007e 17       		.byte	0x17
 1066 007f 5B000000 		.long	0x5b
 1067 0083 04       		.uleb128 0x4
 1068 0084 02       		.byte	0x2
 1069 0085 05       		.byte	0x5
 1070 0086 00060000 		.long	.LASF11
 1071 008a 03       		.uleb128 0x3
 1072 008b 05070000 		.long	.LASF12
 1073 008f 06       		.byte	0x6
 1074 0090 28       		.byte	0x28
 1075 0091 1C       		.byte	0x1c
 1076 0092 62000000 		.long	0x62
 1077 0096 03       		.uleb128 0x3
 1078 0097 5A070000 		.long	.LASF13
 1079 009b 06       		.byte	0x6
 1080 009c 29       		.byte	0x29
 1081 009d 14       		.byte	0x14
 1082 009e 25000000 		.long	0x25
 1083 00a2 03       		.uleb128 0x3
 1084 00a3 7E020000 		.long	.LASF14
 1085 00a7 06       		.byte	0x6
 1086 00a8 2A       		.byte	0x2a
 1087 00a9 16       		.byte	0x16
 1088 00aa 38000000 		.long	0x38
 1089 00ae 04       		.uleb128 0x4
 1090 00af 08       		.byte	0x8
 1091 00b0 07       		.byte	0x7
 1092 00b1 D7000000 		.long	.LASF15
 1093 00b5 05       		.uleb128 0x5
 1094 00b6 04       		.byte	0x4
 1095 00b7 04       		.uleb128 0x4
 1096 00b8 01       		.byte	0x1
 1097 00b9 06       		.byte	0x6
 1098 00ba F1060000 		.long	.LASF16
 1099 00be 06       		.uleb128 0x6
 1100 00bf B7000000 		.long	0xb7
 1101 00c3 03       		.uleb128 0x3
 1102 00c4 BF050000 		.long	.LASF17
 1103 00c8 07       		.byte	0x7
 1104 00c9 1A       		.byte	0x1a
 1105 00ca 13       		.byte	0x13
 1106 00cb 96000000 		.long	0x96
 1107 00cf 03       		.uleb128 0x3
 1108 00d0 28060000 		.long	.LASF18
 1109 00d4 08       		.byte	0x8
 1110 00d5 18       		.byte	0x18
 1111 00d6 13       		.byte	0x13
 1112 00d7 77000000 		.long	0x77
 1113 00db 03       		.uleb128 0x3
 1114 00dc 03030000 		.long	.LASF19
 1115 00e0 08       		.byte	0x8
 1116 00e1 19       		.byte	0x19
 1117 00e2 14       		.byte	0x14
GAS LISTING /tmp/ccOro4nK.s 			page 22


 1118 00e3 8A000000 		.long	0x8a
 1119 00e7 03       		.uleb128 0x3
 1120 00e8 B7060000 		.long	.LASF20
 1121 00ec 08       		.byte	0x8
 1122 00ed 1A       		.byte	0x1a
 1123 00ee 14       		.byte	0x14
 1124 00ef A2000000 		.long	0xa2
 1125 00f3 03       		.uleb128 0x3
 1126 00f4 9C040000 		.long	.LASF21
 1127 00f8 09       		.byte	0x9
 1128 00f9 45       		.byte	0x45
 1129 00fa 1D       		.byte	0x1d
 1130 00fb E7000000 		.long	0xe7
 1131 00ff 03       		.uleb128 0x3
 1132 0100 64020000 		.long	.LASF22
 1133 0104 09       		.byte	0x9
 1134 0105 47       		.byte	0x47
 1135 0106 1D       		.byte	0x1d
 1136 0107 E7000000 		.long	0xe7
 1137 010b 03       		.uleb128 0x3
 1138 010c 14040000 		.long	.LASF23
 1139 0110 09       		.byte	0x9
 1140 0111 48       		.byte	0x48
 1141 0112 1D       		.byte	0x1d
 1142 0113 CF000000 		.long	0xcf
 1143 0117 03       		.uleb128 0x3
 1144 0118 CD010000 		.long	.LASF24
 1145 011c 09       		.byte	0x9
 1146 011d 49       		.byte	0x49
 1147 011e 1D       		.byte	0x1d
 1148 011f CF000000 		.long	0xcf
 1149 0123 03       		.uleb128 0x3
 1150 0124 5B050000 		.long	.LASF25
 1151 0128 09       		.byte	0x9
 1152 0129 4A       		.byte	0x4a
 1153 012a 1D       		.byte	0x1d
 1154 012b CF000000 		.long	0xcf
 1155 012f 03       		.uleb128 0x3
 1156 0130 98050000 		.long	.LASF26
 1157 0134 09       		.byte	0x9
 1158 0135 4C       		.byte	0x4c
 1159 0136 1D       		.byte	0x1d
 1160 0137 E7000000 		.long	0xe7
 1161 013b 03       		.uleb128 0x3
 1162 013c DF030000 		.long	.LASF27
 1163 0140 09       		.byte	0x9
 1164 0141 4D       		.byte	0x4d
 1165 0142 1D       		.byte	0x1d
 1166 0143 C3000000 		.long	0xc3
 1167 0147 03       		.uleb128 0x3
 1168 0148 32040000 		.long	.LASF28
 1169 014c 09       		.byte	0x9
 1170 014d 4F       		.byte	0x4f
 1171 014e 1D       		.byte	0x1d
 1172 014f E7000000 		.long	0xe7
 1173 0153 03       		.uleb128 0x3
 1174 0154 E3020000 		.long	.LASF29
GAS LISTING /tmp/ccOro4nK.s 			page 23


 1175 0158 09       		.byte	0x9
 1176 0159 51       		.byte	0x51
 1177 015a 1D       		.byte	0x1d
 1178 015b C3000000 		.long	0xc3
 1179 015f 03       		.uleb128 0x3
 1180 0160 E5030000 		.long	.LASF30
 1181 0164 09       		.byte	0x9
 1182 0165 52       		.byte	0x52
 1183 0166 1D       		.byte	0x1d
 1184 0167 E7000000 		.long	0xe7
 1185 016b 03       		.uleb128 0x3
 1186 016c 26070000 		.long	.LASF31
 1187 0170 0A       		.byte	0xa
 1188 0171 34       		.byte	0x34
 1189 0172 1A       		.byte	0x1a
 1190 0173 77010000 		.long	0x177
 1191 0177 07       		.uleb128 0x7
 1192 0178 D5030000 		.long	.LASF49
 1193 017c 44       		.byte	0x44
 1194 017d 0B       		.byte	0xb
 1195 017e 8E       		.byte	0x8e
 1196 017f 08       		.byte	0x8
 1197 0180 67020000 		.long	0x267
 1198 0184 08       		.uleb128 0x8
 1199 0185 A3030000 		.long	.LASF32
 1200 0189 0B       		.byte	0xb
 1201 018a 8F       		.byte	0x8f
 1202 018b 19       		.byte	0x19
 1203 018c A0020000 		.long	0x2a0
 1204 0190 00       		.byte	0
 1205 0191 08       		.uleb128 0x8
 1206 0192 23050000 		.long	.LASF33
 1207 0196 0B       		.byte	0xb
 1208 0197 90       		.byte	0x90
 1209 0198 19       		.byte	0x19
 1210 0199 2F010000 		.long	0x12f
 1211 019d 08       		.byte	0x8
 1212 019e 09       		.uleb128 0x9
 1213 019f 63747800 		.string	"ctx"
 1214 01a3 0B       		.byte	0xb
 1215 01a4 91       		.byte	0x91
 1216 01a5 19       		.byte	0x19
 1217 01a6 47050000 		.long	0x547
 1218 01aa 0C       		.byte	0xc
 1219 01ab 08       		.uleb128 0x8
 1220 01ac 7B040000 		.long	.LASF34
 1221 01b0 0B       		.byte	0xb
 1222 01b1 93       		.byte	0x93
 1223 01b2 1A       		.byte	0x1a
 1224 01b3 73020000 		.long	0x273
 1225 01b7 10       		.byte	0x10
 1226 01b8 08       		.uleb128 0x8
 1227 01b9 F6060000 		.long	.LASF35
 1228 01bd 0B       		.byte	0xb
 1229 01be 94       		.byte	0x94
 1230 01bf 1A       		.byte	0x1a
 1231 01c0 73020000 		.long	0x273
GAS LISTING /tmp/ccOro4nK.s 			page 24


 1232 01c4 14       		.byte	0x14
 1233 01c5 08       		.uleb128 0x8
 1234 01c6 9E030000 		.long	.LASF36
 1235 01ca 0B       		.byte	0xb
 1236 01cb 9B       		.byte	0x9b
 1237 01cc 1A       		.byte	0x1a
 1238 01cd 85060000 		.long	0x685
 1239 01d1 18       		.byte	0x18
 1240 01d2 08       		.uleb128 0x8
 1241 01d3 EA060000 		.long	.LASF37
 1242 01d7 0B       		.byte	0xb
 1243 01d8 A4       		.byte	0xa4
 1244 01d9 1A       		.byte	0x1a
 1245 01da 90060000 		.long	0x690
 1246 01de 1C       		.byte	0x1c
 1247 01df 08       		.uleb128 0x8
 1248 01e0 B1010000 		.long	.LASF38
 1249 01e4 0B       		.byte	0xb
 1250 01e5 A9       		.byte	0xa9
 1251 01e6 19       		.byte	0x19
 1252 01e7 17010000 		.long	0x117
 1253 01eb 20       		.byte	0x20
 1254 01ec 08       		.uleb128 0x8
 1255 01ed 1F080000 		.long	.LASF39
 1256 01f1 0B       		.byte	0xb
 1257 01f2 AD       		.byte	0xad
 1258 01f3 19       		.byte	0x19
 1259 01f4 0B010000 		.long	0x10b
 1260 01f8 21       		.byte	0x21
 1261 01f9 08       		.uleb128 0x8
 1262 01fa 6E050000 		.long	.LASF40
 1263 01fe 0B       		.byte	0xb
 1264 01ff B2       		.byte	0xb2
 1265 0200 19       		.byte	0x19
 1266 0201 23010000 		.long	0x123
 1267 0205 22       		.byte	0x22
 1268 0206 0A       		.uleb128 0xa
 1269 0207 7500     		.string	"u"
 1270 0209 0B       		.byte	0xb
 1271 020a 0301     		.value	0x103
 1272 020c 19       		.byte	0x19
 1273 020d AB050000 		.long	0x5ab
 1274 0211 24       		.byte	0x24
 1275 0212 0B       		.uleb128 0xb
 1276 0213 A8020000 		.long	.LASF41
 1277 0217 0B       		.byte	0xb
 1278 0218 0801     		.value	0x108
 1279 021a 19       		.byte	0x19
 1280 021b 79020000 		.long	0x279
 1281 021f 28       		.byte	0x28
 1282 0220 0B       		.uleb128 0xb
 1283 0221 62000000 		.long	.LASF42
 1284 0225 0B       		.byte	0xb
 1285 0226 0E01     		.value	0x10e
 1286 0228 19       		.byte	0x19
 1287 0229 A0020000 		.long	0x2a0
 1288 022d 2C       		.byte	0x2c
GAS LISTING /tmp/ccOro4nK.s 			page 25


 1289 022e 0B       		.uleb128 0xb
 1290 022f EC030000 		.long	.LASF43
 1291 0233 0B       		.byte	0xb
 1292 0234 1401     		.value	0x114
 1293 0236 19       		.byte	0x19
 1294 0237 47010000 		.long	0x147
 1295 023b 34       		.byte	0x34
 1296 023c 0B       		.uleb128 0xb
 1297 023d 12090000 		.long	.LASF44
 1298 0241 0B       		.byte	0xb
 1299 0242 1B01     		.value	0x11b
 1300 0244 1A       		.byte	0x1a
 1301 0245 7F060000 		.long	0x67f
 1302 0249 38       		.byte	0x38
 1303 024a 0B       		.uleb128 0xb
 1304 024b 81040000 		.long	.LASF45
 1305 024f 0B       		.byte	0xb
 1306 0250 1F01     		.value	0x11f
 1307 0252 19       		.byte	0x19
 1308 0253 2F010000 		.long	0x12f
 1309 0257 3C       		.byte	0x3c
 1310 0258 0B       		.uleb128 0xb
 1311 0259 A9030000 		.long	.LASF46
 1312 025d 0B       		.byte	0xb
 1313 025e 2601     		.value	0x126
 1314 0260 1A       		.byte	0x1a
 1315 0261 B5000000 		.long	0xb5
 1316 0265 40       		.byte	0x40
 1317 0266 00       		.byte	0
 1318 0267 03       		.uleb128 0x3
 1319 0268 A4040000 		.long	.LASF47
 1320 026c 0A       		.byte	0xa
 1321 026d 39       		.byte	0x39
 1322 026e 14       		.byte	0x14
 1323 026f 73020000 		.long	0x273
 1324 0273 0C       		.uleb128 0xc
 1325 0274 04       		.byte	0x4
 1326 0275 6B010000 		.long	0x16b
 1327 0279 03       		.uleb128 0x3
 1328 027a C8080000 		.long	.LASF48
 1329 027e 0A       		.byte	0xa
 1330 027f 3E       		.byte	0x3e
 1331 0280 20       		.byte	0x20
 1332 0281 85020000 		.long	0x285
 1333 0285 07       		.uleb128 0x7
 1334 0286 C7060000 		.long	.LASF50
 1335 028a 04       		.byte	0x4
 1336 028b 0B       		.byte	0xb
 1337 028c 7C       		.byte	0x7c
 1338 028d 08       		.byte	0x8
 1339 028e A0020000 		.long	0x2a0
 1340 0292 08       		.uleb128 0x8
 1341 0293 27010000 		.long	.LASF51
 1342 0297 0B       		.byte	0xb
 1343 0298 7D       		.byte	0x7d
 1344 0299 1A       		.byte	0x1a
 1345 029a 73020000 		.long	0x273
GAS LISTING /tmp/ccOro4nK.s 			page 26


 1346 029e 00       		.byte	0
 1347 029f 00       		.byte	0
 1348 02a0 03       		.uleb128 0x3
 1349 02a1 D9070000 		.long	.LASF52
 1350 02a5 0A       		.byte	0xa
 1351 02a6 45       		.byte	0x45
 1352 02a7 21       		.byte	0x21
 1353 02a8 AC020000 		.long	0x2ac
 1354 02ac 07       		.uleb128 0x7
 1355 02ad 2C010000 		.long	.LASF53
 1356 02b1 08       		.byte	0x8
 1357 02b2 0B       		.byte	0xb
 1358 02b3 83       		.byte	0x83
 1359 02b4 08       		.byte	0x8
 1360 02b5 D4020000 		.long	0x2d4
 1361 02b9 08       		.uleb128 0x8
 1362 02ba 27010000 		.long	.LASF51
 1363 02be 0B       		.byte	0xb
 1364 02bf 84       		.byte	0x84
 1365 02c0 1A       		.byte	0x1a
 1366 02c1 73020000 		.long	0x273
 1367 02c5 00       		.byte	0
 1368 02c6 08       		.uleb128 0x8
 1369 02c7 75000000 		.long	.LASF54
 1370 02cb 0B       		.byte	0xb
 1371 02cc 85       		.byte	0x85
 1372 02cd 1A       		.byte	0x1a
 1373 02ce 73020000 		.long	0x273
 1374 02d2 04       		.byte	0x4
 1375 02d3 00       		.byte	0
 1376 02d4 03       		.uleb128 0x3
 1377 02d5 34000000 		.long	.LASF55
 1378 02d9 0A       		.byte	0xa
 1379 02da 4C       		.byte	0x4c
 1380 02db 1E       		.byte	0x1e
 1381 02dc E0020000 		.long	0x2e0
 1382 02e0 0D       		.uleb128 0xd
 1383 02e1 24040000 		.long	.LASF56
 1384 02e5 1C       		.byte	0x1c
 1385 02e6 0B       		.byte	0xb
 1386 02e7 5E01     		.value	0x15e
 1387 02e9 08       		.byte	0x8
 1388 02ea 43030000 		.long	0x343
 1389 02ee 0B       		.uleb128 0xb
 1390 02ef A3030000 		.long	.LASF32
 1391 02f3 0B       		.byte	0xb
 1392 02f4 5F01     		.value	0x15f
 1393 02f6 19       		.byte	0x19
 1394 02f7 A0020000 		.long	0x2a0
 1395 02fb 00       		.byte	0
 1396 02fc 0B       		.uleb128 0xb
 1397 02fd 23050000 		.long	.LASF33
 1398 0301 0B       		.byte	0xb
 1399 0302 6001     		.value	0x160
 1400 0304 19       		.byte	0x19
 1401 0305 2F010000 		.long	0x12f
 1402 0309 08       		.byte	0x8
GAS LISTING /tmp/ccOro4nK.s 			page 27


 1403 030a 0A       		.uleb128 0xa
 1404 030b 63747800 		.string	"ctx"
 1405 030f 0B       		.byte	0xb
 1406 0310 6201     		.value	0x162
 1407 0312 19       		.byte	0x19
 1408 0313 47050000 		.long	0x547
 1409 0317 0C       		.byte	0xc
 1410 0318 0B       		.uleb128 0xb
 1411 0319 7B040000 		.long	.LASF34
 1412 031d 0B       		.byte	0xb
 1413 031e 6501     		.value	0x165
 1414 0320 1A       		.byte	0x1a
 1415 0321 73020000 		.long	0x273
 1416 0325 10       		.byte	0x10
 1417 0326 0B       		.uleb128 0xb
 1418 0327 F6060000 		.long	.LASF35
 1419 032b 0B       		.byte	0xb
 1420 032c 6601     		.value	0x166
 1421 032e 1A       		.byte	0x1a
 1422 032f 73020000 		.long	0x273
 1423 0333 14       		.byte	0x14
 1424 0334 0B       		.uleb128 0xb
 1425 0335 31050000 		.long	.LASF57
 1426 0339 0B       		.byte	0xb
 1427 033a 6901     		.value	0x169
 1428 033c 1A       		.byte	0x1a
 1429 033d 73020000 		.long	0x273
 1430 0341 18       		.byte	0x18
 1431 0342 00       		.byte	0
 1432 0343 03       		.uleb128 0x3
 1433 0344 D7080000 		.long	.LASF58
 1434 0348 0A       		.byte	0xa
 1435 0349 51       		.byte	0x51
 1436 034a 10       		.byte	0x10
 1437 034b 4F030000 		.long	0x34f
 1438 034f 0C       		.uleb128 0xc
 1439 0350 04       		.byte	0x4
 1440 0351 55030000 		.long	0x355
 1441 0355 0E       		.uleb128 0xe
 1442 0356 60030000 		.long	0x360
 1443 035a 0F       		.uleb128 0xf
 1444 035b B5000000 		.long	0xb5
 1445 035f 00       		.byte	0
 1446 0360 03       		.uleb128 0x3
 1447 0361 73050000 		.long	.LASF59
 1448 0365 0A       		.byte	0xa
 1449 0366 56       		.byte	0x56
 1450 0367 21       		.byte	0x21
 1451 0368 6C030000 		.long	0x36c
 1452 036c 0D       		.uleb128 0xd
 1453 036d 5B060000 		.long	.LASF60
 1454 0371 14       		.byte	0x14
 1455 0372 0B       		.byte	0xb
 1456 0373 3901     		.value	0x139
 1457 0375 08       		.byte	0x8
 1458 0376 C1030000 		.long	0x3c1
 1459 037a 0B       		.uleb128 0xb
GAS LISTING /tmp/ccOro4nK.s 			page 28


 1460 037b 27010000 		.long	.LASF51
 1461 037f 0B       		.byte	0xb
 1462 0380 3A01     		.value	0x13a
 1463 0382 1A       		.byte	0x1a
 1464 0383 96060000 		.long	0x696
 1465 0387 00       		.byte	0
 1466 0388 0B       		.uleb128 0xb
 1467 0389 75000000 		.long	.LASF54
 1468 038d 0B       		.byte	0xb
 1469 038e 3B01     		.value	0x13b
 1470 0390 1A       		.byte	0x1a
 1471 0391 96060000 		.long	0x696
 1472 0395 04       		.byte	0x4
 1473 0396 0B       		.uleb128 0xb
 1474 0397 0A010000 		.long	.LASF61
 1475 039b 0B       		.byte	0xb
 1476 039c 3C01     		.value	0x13c
 1477 039e 19       		.byte	0x19
 1478 039f AE040000 		.long	0x4ae
 1479 03a3 08       		.byte	0x8
 1480 03a4 0B       		.uleb128 0xb
 1481 03a5 D6010000 		.long	.LASF62
 1482 03a9 0B       		.byte	0xb
 1483 03aa 3D01     		.value	0x13d
 1484 03ac 19       		.byte	0x19
 1485 03ad 43030000 		.long	0x343
 1486 03b1 0C       		.byte	0xc
 1487 03b2 0A       		.uleb128 0xa
 1488 03b3 70617200 		.string	"par"
 1489 03b7 0B       		.byte	0xb
 1490 03b8 3F01     		.value	0x13f
 1491 03ba 1A       		.byte	0x1a
 1492 03bb B5000000 		.long	0xb5
 1493 03bf 10       		.byte	0x10
 1494 03c0 00       		.byte	0
 1495 03c1 03       		.uleb128 0x3
 1496 03c2 5A040000 		.long	.LASF63
 1497 03c6 0A       		.byte	0xa
 1498 03c7 5B       		.byte	0x5b
 1499 03c8 28       		.byte	0x28
 1500 03c9 CD030000 		.long	0x3cd
 1501 03cd 0D       		.uleb128 0xd
 1502 03ce B7040000 		.long	.LASF64
 1503 03d2 10       		.byte	0x10
 1504 03d3 0B       		.byte	0xb
 1505 03d4 4901     		.value	0x149
 1506 03d6 08       		.byte	0x8
 1507 03d7 14040000 		.long	0x414
 1508 03db 0B       		.uleb128 0xb
 1509 03dc 27010000 		.long	.LASF51
 1510 03e0 0B       		.byte	0xb
 1511 03e1 4A01     		.value	0x14a
 1512 03e3 1A       		.byte	0x1a
 1513 03e4 96060000 		.long	0x696
 1514 03e8 00       		.byte	0
 1515 03e9 0B       		.uleb128 0xb
 1516 03ea 75000000 		.long	.LASF54
GAS LISTING /tmp/ccOro4nK.s 			page 29


 1517 03ee 0B       		.byte	0xb
 1518 03ef 4C01     		.value	0x14c
 1519 03f1 1A       		.byte	0x1a
 1520 03f2 96060000 		.long	0x696
 1521 03f6 04       		.byte	0x4
 1522 03f7 0B       		.uleb128 0xb
 1523 03f8 0A010000 		.long	.LASF61
 1524 03fc 0B       		.byte	0xb
 1525 03fd 4E01     		.value	0x14e
 1526 03ff 19       		.byte	0x19
 1527 0400 AE040000 		.long	0x4ae
 1528 0404 08       		.byte	0x8
 1529 0405 0B       		.uleb128 0xb
 1530 0406 1C040000 		.long	.LASF65
 1531 040a 0B       		.byte	0xb
 1532 040b 5001     		.value	0x150
 1533 040d 19       		.byte	0x19
 1534 040e A9040000 		.long	0x4a9
 1535 0412 0C       		.byte	0xc
 1536 0413 00       		.byte	0
 1537 0414 03       		.uleb128 0x3
 1538 0415 86000000 		.long	.LASF66
 1539 0419 0A       		.byte	0xa
 1540 041a 60       		.byte	0x60
 1541 041b 20       		.byte	0x20
 1542 041c 20040000 		.long	0x420
 1543 0420 0D       		.uleb128 0xd
 1544 0421 A9050000 		.long	.LASF67
 1545 0425 04       		.byte	0x4
 1546 0426 0B       		.byte	0xb
 1547 0427 7001     		.value	0x170
 1548 0429 08       		.byte	0x8
 1549 042a 3D040000 		.long	0x43d
 1550 042e 0B       		.uleb128 0xb
 1551 042f 6F070000 		.long	.LASF68
 1552 0433 0B       		.byte	0xb
 1553 0434 7801     		.value	0x178
 1554 0436 24       		.byte	0x24
 1555 0437 8B060000 		.long	0x68b
 1556 043b 00       		.byte	0
 1557 043c 00       		.byte	0
 1558 043d 03       		.uleb128 0x3
 1559 043e 00040000 		.long	.LASF69
 1560 0442 0A       		.byte	0xa
 1561 0443 65       		.byte	0x65
 1562 0444 1A       		.byte	0x1a
 1563 0445 49040000 		.long	0x449
 1564 0449 0D       		.uleb128 0xd
 1565 044a 1E060000 		.long	.LASF70
 1566 044e 78       		.byte	0x78
 1567 044f 0B       		.byte	0xb
 1568 0450 9001     		.value	0x190
 1569 0452 08       		.byte	0x8
 1570 0453 9D040000 		.long	0x49d
 1571 0457 0B       		.uleb128 0xb
 1572 0458 F2070000 		.long	.LASF71
 1573 045c 0B       		.byte	0xb
GAS LISTING /tmp/ccOro4nK.s 			page 30


 1574 045d 9401     		.value	0x194
 1575 045f 19       		.byte	0x19
 1576 0460 D4020000 		.long	0x2d4
 1577 0464 00       		.byte	0
 1578 0465 0B       		.uleb128 0xb
 1579 0466 9E010000 		.long	.LASF72
 1580 046a 0B       		.byte	0xb
 1581 046b 9801     		.value	0x198
 1582 046d 19       		.byte	0x19
 1583 046e C1030000 		.long	0x3c1
 1584 0472 1C       		.byte	0x1c
 1585 0473 0A       		.uleb128 0xa
 1586 0474 64626700 		.string	"dbg"
 1587 0478 0B       		.byte	0xb
 1588 0479 9C01     		.value	0x19c
 1589 047b 19       		.byte	0x19
 1590 047c 14040000 		.long	0x414
 1591 0480 2C       		.byte	0x2c
 1592 0481 0B       		.uleb128 0xb
 1593 0482 F7000000 		.long	.LASF73
 1594 0486 0B       		.byte	0xb
 1595 0487 A001     		.value	0x1a0
 1596 0489 19       		.byte	0x19
 1597 048a 6B010000 		.long	0x16b
 1598 048e 30       		.byte	0x30
 1599 048f 0A       		.uleb128 0xa
 1600 0490 746D00   		.string	"tm"
 1601 0493 0B       		.byte	0xb
 1602 0494 A501     		.value	0x1a5
 1603 0496 19       		.byte	0x19
 1604 0497 9F050000 		.long	0x59f
 1605 049b 74       		.byte	0x74
 1606 049c 00       		.byte	0
 1607 049d 03       		.uleb128 0x3
 1608 049e 49070000 		.long	.LASF74
 1609 04a2 0C       		.byte	0xc
 1610 04a3 8E       		.byte	0x8e
 1611 04a4 12       		.byte	0x12
 1612 04a5 DB000000 		.long	0xdb
 1613 04a9 10       		.uleb128 0x10
 1614 04aa 9D040000 		.long	0x49d
 1615 04ae 03       		.uleb128 0x3
 1616 04af D5020000 		.long	.LASF75
 1617 04b3 0C       		.byte	0xc
 1618 04b4 98       		.byte	0x98
 1619 04b5 12       		.byte	0x12
 1620 04b6 E7000000 		.long	0xe7
 1621 04ba 11       		.uleb128 0x11
 1622 04bb 10       		.byte	0x10
 1623 04bc 02       		.byte	0x2
 1624 04bd 91       		.byte	0x91
 1625 04be 09       		.byte	0x9
 1626 04bf CF040000 		.long	0x4cf
 1627 04c3 09       		.uleb128 0x9
 1628 04c4 6100     		.string	"a"
 1629 04c6 02       		.byte	0x2
 1630 04c7 92       		.byte	0x92
GAS LISTING /tmp/ccOro4nK.s 			page 31


 1631 04c8 0B       		.byte	0xb
 1632 04c9 CF040000 		.long	0x4cf
 1633 04cd 00       		.byte	0
 1634 04ce 00       		.byte	0
 1635 04cf 12       		.uleb128 0x12
 1636 04d0 CF000000 		.long	0xcf
 1637 04d4 DF040000 		.long	0x4df
 1638 04d8 13       		.uleb128 0x13
 1639 04d9 38000000 		.long	0x38
 1640 04dd 0F       		.byte	0xf
 1641 04de 00       		.byte	0
 1642 04df 14       		.uleb128 0x14
 1643 04e0 70040000 		.long	.LASF186
 1644 04e4 02       		.byte	0x2
 1645 04e5 93       		.byte	0x93
 1646 04e6 03       		.byte	0x3
 1647 04e7 BA040000 		.long	0x4ba
 1648 04eb 10       		.byte	0x10
 1649 04ec 03       		.uleb128 0x3
 1650 04ed 53070000 		.long	.LASF76
 1651 04f1 02       		.byte	0x2
 1652 04f2 98       		.byte	0x98
 1653 04f3 0F       		.byte	0xf
 1654 04f4 B5000000 		.long	0xb5
 1655 04f8 07       		.uleb128 0x7
 1656 04f9 7A000000 		.long	.LASF77
 1657 04fd 14       		.byte	0x14
 1658 04fe 02       		.byte	0x2
 1659 04ff A7       		.byte	0xa7
 1660 0500 08       		.byte	0x8
 1661 0501 47050000 		.long	0x547
 1662 0505 09       		.uleb128 0x9
 1663 0506 65627800 		.string	"ebx"
 1664 050a 02       		.byte	0x2
 1665 050b A8       		.byte	0xa8
 1666 050c 0B       		.byte	0xb
 1667 050d EC040000 		.long	0x4ec
 1668 0511 00       		.byte	0
 1669 0512 09       		.uleb128 0x9
 1670 0513 65646900 		.string	"edi"
 1671 0517 02       		.byte	0x2
 1672 0518 A9       		.byte	0xa9
 1673 0519 0B       		.byte	0xb
 1674 051a EC040000 		.long	0x4ec
 1675 051e 04       		.byte	0x4
 1676 051f 09       		.uleb128 0x9
 1677 0520 65736900 		.string	"esi"
 1678 0524 02       		.byte	0x2
 1679 0525 AA       		.byte	0xaa
 1680 0526 0B       		.byte	0xb
 1681 0527 EC040000 		.long	0x4ec
 1682 052b 08       		.byte	0x8
 1683 052c 09       		.uleb128 0x9
 1684 052d 65627000 		.string	"ebp"
 1685 0531 02       		.byte	0x2
 1686 0532 AB       		.byte	0xab
 1687 0533 0B       		.byte	0xb
GAS LISTING /tmp/ccOro4nK.s 			page 32


 1688 0534 EC040000 		.long	0x4ec
 1689 0538 0C       		.byte	0xc
 1690 0539 09       		.uleb128 0x9
 1691 053a 65697000 		.string	"eip"
 1692 053e 02       		.byte	0x2
 1693 053f AC       		.byte	0xac
 1694 0540 0B       		.byte	0xb
 1695 0541 EC040000 		.long	0x4ec
 1696 0545 10       		.byte	0x10
 1697 0546 00       		.byte	0
 1698 0547 07       		.uleb128 0x7
 1699 0548 F5040000 		.long	.LASF78
 1700 054c 04       		.byte	0x4
 1701 054d 02       		.byte	0x2
 1702 054e B4       		.byte	0xb4
 1703 054f 08       		.byte	0x8
 1704 0550 61050000 		.long	0x561
 1705 0554 09       		.uleb128 0x9
 1706 0555 737000   		.string	"sp"
 1707 0558 02       		.byte	0x2
 1708 0559 B5       		.byte	0xb5
 1709 055a 17       		.byte	0x17
 1710 055b 61050000 		.long	0x561
 1711 055f 00       		.byte	0
 1712 0560 00       		.byte	0
 1713 0561 0C       		.uleb128 0xc
 1714 0562 04       		.byte	0x4
 1715 0563 F8040000 		.long	0x4f8
 1716 0567 15       		.uleb128 0x15
 1717 0568 10070000 		.long	.LASF80
 1718 056c 02       		.byte	0x2
 1719 056d 1E01     		.value	0x11e
 1720 056f 0D       		.byte	0xd
 1721 0570 74050000 		.long	0x574
 1722 0574 04       		.uleb128 0x4
 1723 0575 01       		.byte	0x1
 1724 0576 02       		.byte	0x2
 1725 0577 B9050000 		.long	.LASF79
 1726 057b 15       		.uleb128 0x15
 1727 057c DD060000 		.long	.LASF81
 1728 0580 02       		.byte	0x2
 1729 0581 1F01     		.value	0x11f
 1730 0583 11       		.byte	0x11
 1731 0584 FF000000 		.long	0xff
 1732 0588 11       		.uleb128 0x11
 1733 0589 04       		.byte	0x4
 1734 058a 0D       		.byte	0xd
 1735 058b 38       		.byte	0x38
 1736 058c 09       		.byte	0x9
 1737 058d 9F050000 		.long	0x59f
 1738 0591 08       		.uleb128 0x8
 1739 0592 82070000 		.long	.LASF82
 1740 0596 0D       		.byte	0xd
 1741 0597 3C       		.byte	0x3c
 1742 0598 19       		.byte	0x19
 1743 0599 F3000000 		.long	0xf3
 1744 059d 00       		.byte	0
GAS LISTING /tmp/ccOro4nK.s 			page 33


 1745 059e 00       		.byte	0
 1746 059f 03       		.uleb128 0x3
 1747 05a0 02050000 		.long	.LASF83
 1748 05a4 0D       		.byte	0xd
 1749 05a5 3D       		.byte	0x3d
 1750 05a6 03       		.byte	0x3
 1751 05a7 88050000 		.long	0x588
 1752 05ab 16       		.uleb128 0x16
 1753 05ac 04       		.byte	0x4
 1754 05ad 0B       		.byte	0xb
 1755 05ae C6       		.byte	0xc6
 1756 05af 03       		.byte	0x3
 1757 05b0 16060000 		.long	0x616
 1758 05b4 17       		.uleb128 0x17
 1759 05b5 48000000 		.long	.LASF84
 1760 05b9 0B       		.byte	0xb
 1761 05ba CD       		.byte	0xcd
 1762 05bb 19       		.byte	0x19
 1763 05bc 3B010000 		.long	0x13b
 1764 05c0 17       		.uleb128 0x17
 1765 05c1 EE000000 		.long	.LASF85
 1766 05c5 0B       		.byte	0xb
 1767 05c6 D4       		.byte	0xd4
 1768 05c7 19       		.byte	0x19
 1769 05c8 3B010000 		.long	0x13b
 1770 05cc 17       		.uleb128 0x17
 1771 05cd 2F080000 		.long	.LASF86
 1772 05d1 0B       		.byte	0xb
 1773 05d2 DB       		.byte	0xdb
 1774 05d3 1A       		.byte	0x1a
 1775 05d4 B5000000 		.long	0xb5
 1776 05d8 17       		.uleb128 0x17
 1777 05d9 0A060000 		.long	.LASF87
 1778 05dd 0B       		.byte	0xb
 1779 05de E2       		.byte	0xe2
 1780 05df 1A       		.byte	0x1a
 1781 05e0 16060000 		.long	0x616
 1782 05e4 17       		.uleb128 0x17
 1783 05e5 02010000 		.long	.LASF88
 1784 05e9 0B       		.byte	0xb
 1785 05ea E7       		.byte	0xe7
 1786 05eb 19       		.byte	0x19
 1787 05ec 3B010000 		.long	0x13b
 1788 05f0 17       		.uleb128 0x17
 1789 05f1 0C030000 		.long	.LASF89
 1790 05f5 0B       		.byte	0xb
 1791 05f6 F0       		.byte	0xf0
 1792 05f7 1A       		.byte	0x1a
 1793 05f8 44060000 		.long	0x644
 1794 05fc 17       		.uleb128 0x17
 1795 05fd C0060000 		.long	.LASF90
 1796 0601 0B       		.byte	0xb
 1797 0602 F9       		.byte	0xf9
 1798 0603 1A       		.byte	0x1a
 1799 0604 7F060000 		.long	0x67f
 1800 0608 18       		.uleb128 0x18
 1801 0609 17060000 		.long	.LASF91
GAS LISTING /tmp/ccOro4nK.s 			page 34


 1802 060d 0B       		.byte	0xb
 1803 060e 0101     		.value	0x101
 1804 0610 19       		.byte	0x19
 1805 0611 47010000 		.long	0x147
 1806 0615 00       		.byte	0
 1807 0616 0C       		.uleb128 0xc
 1808 0617 04       		.byte	0x4
 1809 0618 67020000 		.long	0x267
 1810 061c 07       		.uleb128 0x7
 1811 061d 6C060000 		.long	.LASF92
 1812 0621 0C       		.byte	0xc
 1813 0622 0E       		.byte	0xe
 1814 0623 34       		.byte	0x34
 1815 0624 10       		.byte	0x10
 1816 0625 44060000 		.long	0x644
 1817 0629 08       		.uleb128 0x8
 1818 062a A3030000 		.long	.LASF32
 1819 062e 0E       		.byte	0xe
 1820 062f 35       		.byte	0x35
 1821 0630 19       		.byte	0x19
 1822 0631 A0020000 		.long	0x2a0
 1823 0635 00       		.byte	0
 1824 0636 09       		.uleb128 0x9
 1825 0637 636E7400 		.string	"cnt"
 1826 063b 0E       		.byte	0xe
 1827 063c 37       		.byte	0x37
 1828 063d 19       		.byte	0x19
 1829 063e 53010000 		.long	0x153
 1830 0642 08       		.byte	0x8
 1831 0643 00       		.byte	0
 1832 0644 0C       		.uleb128 0xc
 1833 0645 04       		.byte	0x4
 1834 0646 1C060000 		.long	0x61c
 1835 064a 07       		.uleb128 0x7
 1836 064b E9070000 		.long	.LASF93
 1837 064f 10       		.byte	0x10
 1838 0650 0F       		.byte	0xf
 1839 0651 39       		.byte	0x39
 1840 0652 08       		.byte	0x8
 1841 0653 7F060000 		.long	0x67f
 1842 0657 08       		.uleb128 0x8
 1843 0658 A3030000 		.long	.LASF32
 1844 065c 0F       		.byte	0xf
 1845 065d 3A       		.byte	0x3a
 1846 065e 19       		.byte	0x19
 1847 065f A0020000 		.long	0x2a0
 1848 0663 00       		.byte	0
 1849 0664 08       		.uleb128 0x8
 1850 0665 D7060000 		.long	.LASF94
 1851 0669 0F       		.byte	0xf
 1852 066a 3C       		.byte	0x3c
 1853 066b 1A       		.byte	0x1a
 1854 066c 73020000 		.long	0x273
 1855 0670 08       		.byte	0x8
 1856 0671 08       		.uleb128 0x8
 1857 0672 27010000 		.long	.LASF51
 1858 0676 0F       		.byte	0xf
GAS LISTING /tmp/ccOro4nK.s 			page 35


 1859 0677 3E       		.byte	0x3e
 1860 0678 1A       		.byte	0x1a
 1861 0679 63080000 		.long	0x863
 1862 067d 0C       		.byte	0xc
 1863 067e 00       		.byte	0
 1864 067f 0C       		.uleb128 0xc
 1865 0680 04       		.byte	0x4
 1866 0681 4A060000 		.long	0x64a
 1867 0685 0C       		.uleb128 0xc
 1868 0686 04       		.byte	0x4
 1869 0687 BE000000 		.long	0xbe
 1870 068b 10       		.uleb128 0x10
 1871 068c 85060000 		.long	0x685
 1872 0690 0C       		.uleb128 0xc
 1873 0691 04       		.byte	0x4
 1874 0692 DF040000 		.long	0x4df
 1875 0696 0C       		.uleb128 0xc
 1876 0697 04       		.byte	0x4
 1877 0698 60030000 		.long	0x360
 1878 069c 19       		.uleb128 0x19
 1879 069d 636800   		.string	"ch"
 1880 06a0 0B       		.byte	0xb
 1881 06a1 C701     		.value	0x1c7
 1882 06a3 14       		.byte	0x14
 1883 06a4 3D040000 		.long	0x43d
 1884 06a8 1A       		.uleb128 0x1a
 1885 06a9 DF040000 		.long	0x4df
 1886 06ad 10       		.byte	0x10
 1887 06ae B4060000 		.long	0x6b4
 1888 06b2 1B       		.uleb128 0x1b
 1889 06b3 00       		.byte	0
 1890 06b4 15       		.uleb128 0x15
 1891 06b5 82060000 		.long	.LASF95
 1892 06b9 03       		.byte	0x3
 1893 06ba 1701     		.value	0x117
 1894 06bc 13       		.byte	0x13
 1895 06bd A8060000 		.long	0x6a8
 1896 06c1 03       		.uleb128 0x3
 1897 06c2 00000000 		.long	.LASF96
 1898 06c6 10       		.byte	0x10
 1899 06c7 34       		.byte	0x34
 1900 06c8 10       		.byte	0x10
 1901 06c9 4F030000 		.long	0x34f
 1902 06cd 11       		.uleb128 0x11
 1903 06ce 18       		.byte	0x18
 1904 06cf 10       		.byte	0x10
 1905 06d0 39       		.byte	0x39
 1906 06d1 09       		.byte	0x9
 1907 06d2 25070000 		.long	0x725
 1908 06d6 08       		.uleb128 0x8
 1909 06d7 9E030000 		.long	.LASF36
 1910 06db 10       		.byte	0x10
 1911 06dc 3D       		.byte	0x3d
 1912 06dd 16       		.byte	0x16
 1913 06de 85060000 		.long	0x685
 1914 06e2 00       		.byte	0
 1915 06e3 08       		.uleb128 0x8
GAS LISTING /tmp/ccOro4nK.s 			page 36


 1916 06e4 92050000 		.long	.LASF97
 1917 06e8 10       		.byte	0x10
 1918 06e9 41       		.byte	0x41
 1919 06ea 16       		.byte	0x16
 1920 06eb 90060000 		.long	0x690
 1921 06ef 04       		.byte	0x4
 1922 06f0 08       		.uleb128 0x8
 1923 06f1 D2000000 		.long	.LASF98
 1924 06f5 10       		.byte	0x10
 1925 06f6 45       		.byte	0x45
 1926 06f7 16       		.byte	0x16
 1927 06f8 90060000 		.long	0x690
 1928 06fc 08       		.byte	0x8
 1929 06fd 08       		.uleb128 0x8
 1930 06fe 23050000 		.long	.LASF33
 1931 0702 10       		.byte	0x10
 1932 0703 49       		.byte	0x49
 1933 0704 15       		.byte	0x15
 1934 0705 2F010000 		.long	0x12f
 1935 0709 0C       		.byte	0xc
 1936 070a 08       		.uleb128 0x8
 1937 070b 4F000000 		.long	.LASF99
 1938 070f 10       		.byte	0x10
 1939 0710 4D       		.byte	0x4d
 1940 0711 15       		.byte	0x15
 1941 0712 C1060000 		.long	0x6c1
 1942 0716 10       		.byte	0x10
 1943 0717 09       		.uleb128 0x9
 1944 0718 61726700 		.string	"arg"
 1945 071c 10       		.byte	0x10
 1946 071d 51       		.byte	0x51
 1947 071e 16       		.byte	0x16
 1948 071f B5000000 		.long	0xb5
 1949 0723 14       		.byte	0x14
 1950 0724 00       		.byte	0
 1951 0725 03       		.uleb128 0x3
 1952 0726 9E000000 		.long	.LASF100
 1953 072a 10       		.byte	0x10
 1954 072b 52       		.byte	0x52
 1955 072c 03       		.byte	0x3
 1956 072d CD060000 		.long	0x6cd
 1957 0731 06       		.uleb128 0x6
 1958 0732 25070000 		.long	0x725
 1959 0736 11       		.uleb128 0x11
 1960 0737 16       		.byte	0x16
 1961 0738 11       		.byte	0x11
 1962 0739 34       		.byte	0x34
 1963 073a 09       		.byte	0x9
 1964 073b 2A080000 		.long	0x82a
 1965 073f 08       		.uleb128 0x8
 1966 0740 E7010000 		.long	.LASF101
 1967 0744 11       		.byte	0x11
 1968 0745 35       		.byte	0x35
 1969 0746 0D       		.byte	0xd
 1970 0747 2A080000 		.long	0x82a
 1971 074b 00       		.byte	0
 1972 074c 08       		.uleb128 0x8
GAS LISTING /tmp/ccOro4nK.s 			page 37


 1973 074d C2020000 		.long	.LASF102
 1974 0751 11       		.byte	0x11
 1975 0752 36       		.byte	0x36
 1976 0753 0D       		.byte	0xd
 1977 0754 CF000000 		.long	0xcf
 1978 0758 04       		.byte	0x4
 1979 0759 08       		.uleb128 0x8
 1980 075a 42080000 		.long	.LASF103
 1981 075e 11       		.byte	0x11
 1982 075f 37       		.byte	0x37
 1983 0760 0D       		.byte	0xd
 1984 0761 CF000000 		.long	0xcf
 1985 0765 05       		.byte	0x5
 1986 0766 08       		.uleb128 0x8
 1987 0767 8A040000 		.long	.LASF104
 1988 076b 11       		.byte	0x11
 1989 076c 38       		.byte	0x38
 1990 076d 0D       		.byte	0xd
 1991 076e DB000000 		.long	0xdb
 1992 0772 06       		.byte	0x6
 1993 0773 08       		.uleb128 0x8
 1994 0774 BE070000 		.long	.LASF105
 1995 0778 11       		.byte	0x11
 1996 0779 39       		.byte	0x39
 1997 077a 0D       		.byte	0xd
 1998 077b CF000000 		.long	0xcf
 1999 077f 08       		.byte	0x8
 2000 0780 08       		.uleb128 0x8
 2001 0781 94060000 		.long	.LASF106
 2002 0785 11       		.byte	0x11
 2003 0786 3A       		.byte	0x3a
 2004 0787 0D       		.byte	0xd
 2005 0788 CF000000 		.long	0xcf
 2006 078c 09       		.byte	0x9
 2007 078d 08       		.uleb128 0x8
 2008 078e 63050000 		.long	.LASF107
 2009 0792 11       		.byte	0x11
 2010 0793 3B       		.byte	0x3b
 2011 0794 0D       		.byte	0xd
 2012 0795 CF000000 		.long	0xcf
 2013 0799 0A       		.byte	0xa
 2014 079a 08       		.uleb128 0x8
 2015 079b D5050000 		.long	.LASF108
 2016 079f 11       		.byte	0x11
 2017 07a0 3C       		.byte	0x3c
 2018 07a1 0D       		.byte	0xd
 2019 07a2 CF000000 		.long	0xcf
 2020 07a6 0B       		.byte	0xb
 2021 07a7 08       		.uleb128 0x8
 2022 07a8 0C040000 		.long	.LASF109
 2023 07ac 11       		.byte	0x11
 2024 07ad 3D       		.byte	0x3d
 2025 07ae 0D       		.byte	0xd
 2026 07af CF000000 		.long	0xcf
 2027 07b3 0C       		.byte	0xc
 2028 07b4 08       		.uleb128 0x8
 2029 07b5 DA040000 		.long	.LASF110
GAS LISTING /tmp/ccOro4nK.s 			page 38


 2030 07b9 11       		.byte	0x11
 2031 07ba 3E       		.byte	0x3e
 2032 07bb 0D       		.byte	0xd
 2033 07bc CF000000 		.long	0xcf
 2034 07c0 0D       		.byte	0xd
 2035 07c1 08       		.uleb128 0x8
 2036 07c2 89070000 		.long	.LASF111
 2037 07c6 11       		.byte	0x11
 2038 07c7 3F       		.byte	0x3f
 2039 07c8 0D       		.byte	0xd
 2040 07c9 CF000000 		.long	0xcf
 2041 07cd 0E       		.byte	0xe
 2042 07ce 08       		.uleb128 0x8
 2043 07cf 3E040000 		.long	.LASF112
 2044 07d3 11       		.byte	0x11
 2045 07d4 40       		.byte	0x40
 2046 07d5 0D       		.byte	0xd
 2047 07d6 CF000000 		.long	0xcf
 2048 07da 0F       		.byte	0xf
 2049 07db 08       		.uleb128 0x8
 2050 07dc 27000000 		.long	.LASF113
 2051 07e0 11       		.byte	0x11
 2052 07e1 41       		.byte	0x41
 2053 07e2 0D       		.byte	0xd
 2054 07e3 CF000000 		.long	0xcf
 2055 07e7 10       		.byte	0x10
 2056 07e8 08       		.uleb128 0x8
 2057 07e9 E0080000 		.long	.LASF114
 2058 07ed 11       		.byte	0x11
 2059 07ee 42       		.byte	0x42
 2060 07ef 0D       		.byte	0xd
 2061 07f0 CF000000 		.long	0xcf
 2062 07f4 11       		.byte	0x11
 2063 07f5 08       		.uleb128 0x8
 2064 07f6 08090000 		.long	.LASF115
 2065 07fa 11       		.byte	0x11
 2066 07fb 43       		.byte	0x43
 2067 07fc 0D       		.byte	0xd
 2068 07fd CF000000 		.long	0xcf
 2069 0801 12       		.byte	0x12
 2070 0802 08       		.uleb128 0x8
 2071 0803 14000000 		.long	.LASF116
 2072 0807 11       		.byte	0x11
 2073 0808 44       		.byte	0x44
 2074 0809 0D       		.byte	0xd
 2075 080a CF000000 		.long	0xcf
 2076 080e 13       		.byte	0x13
 2077 080f 08       		.uleb128 0x8
 2078 0810 45020000 		.long	.LASF117
 2079 0814 11       		.byte	0x11
 2080 0815 45       		.byte	0x45
 2081 0816 0D       		.byte	0xd
 2082 0817 CF000000 		.long	0xcf
 2083 081b 14       		.byte	0x14
 2084 081c 08       		.uleb128 0x8
 2085 081d 79060000 		.long	.LASF118
 2086 0821 11       		.byte	0x11
GAS LISTING /tmp/ccOro4nK.s 			page 39


 2087 0822 46       		.byte	0x46
 2088 0823 0D       		.byte	0xd
 2089 0824 CF000000 		.long	0xcf
 2090 0828 15       		.byte	0x15
 2091 0829 00       		.byte	0
 2092 082a 12       		.uleb128 0x12
 2093 082b B7000000 		.long	0xb7
 2094 082f 3A080000 		.long	0x83a
 2095 0833 13       		.uleb128 0x13
 2096 0834 38000000 		.long	0x38
 2097 0838 03       		.byte	0x3
 2098 0839 00       		.byte	0
 2099 083a 03       		.uleb128 0x3
 2100 083b 3B020000 		.long	.LASF119
 2101 083f 11       		.byte	0x11
 2102 0840 47       		.byte	0x47
 2103 0841 03       		.byte	0x3
 2104 0842 36070000 		.long	0x736
 2105 0846 06       		.uleb128 0x6
 2106 0847 3A080000 		.long	0x83a
 2107 084b 1C       		.uleb128 0x1c
 2108 084c 72030000 		.long	.LASF120
 2109 0850 11       		.byte	0x11
 2110 0851 6C       		.byte	0x6c
 2111 0852 1D       		.byte	0x1d
 2112 0853 46080000 		.long	0x846
 2113 0857 03       		.uleb128 0x3
 2114 0858 C7020000 		.long	.LASF121
 2115 085c 0F       		.byte	0xf
 2116 085d 34       		.byte	0x34
 2117 085e 19       		.byte	0x19
 2118 085f 4A060000 		.long	0x64a
 2119 0863 0C       		.uleb128 0xc
 2120 0864 04       		.byte	0x4
 2121 0865 57080000 		.long	0x857
 2122 0869 03       		.uleb128 0x3
 2123 086a C5000000 		.long	.LASF122
 2124 086e 12       		.byte	0x12
 2125 086f 4B       		.byte	0x4b
 2126 0870 11       		.byte	0x11
 2127 0871 75080000 		.long	0x875
 2128 0875 0C       		.uleb128 0xc
 2129 0876 04       		.byte	0x4
 2130 0877 7B080000 		.long	0x87b
 2131 087b 1D       		.uleb128 0x1d
 2132 087c B5000000 		.long	0xb5
 2133 0880 8F080000 		.long	0x88f
 2134 0884 0F       		.uleb128 0xf
 2135 0885 2C000000 		.long	0x2c
 2136 0889 0F       		.uleb128 0xf
 2137 088a 38000000 		.long	0x38
 2138 088e 00       		.byte	0
 2139 088f 11       		.uleb128 0x11
 2140 0890 08       		.byte	0x8
 2141 0891 12       		.byte	0x12
 2142 0892 55       		.byte	0x55
 2143 0893 09       		.byte	0x9
GAS LISTING /tmp/ccOro4nK.s 			page 40


 2144 0894 B3080000 		.long	0x8b3
 2145 0898 08       		.uleb128 0x8
 2146 0899 2E090000 		.long	.LASF123
 2147 089d 12       		.byte	0x12
 2148 089e 59       		.byte	0x59
 2149 089f 0C       		.byte	0xc
 2150 08a0 B3080000 		.long	0x8b3
 2151 08a4 00       		.byte	0
 2152 08a5 08       		.uleb128 0x8
 2153 08a6 47040000 		.long	.LASF124
 2154 08aa 12       		.byte	0x12
 2155 08ab 5D       		.byte	0x5d
 2156 08ac 0C       		.byte	0xc
 2157 08ad B3080000 		.long	0x8b3
 2158 08b1 04       		.byte	0x4
 2159 08b2 00       		.byte	0
 2160 08b3 0C       		.uleb128 0xc
 2161 08b4 04       		.byte	0x4
 2162 08b5 CF000000 		.long	0xcf
 2163 08b9 03       		.uleb128 0x3
 2164 08ba 51050000 		.long	.LASF125
 2165 08be 12       		.byte	0x12
 2166 08bf 5E       		.byte	0x5e
 2167 08c0 03       		.byte	0x3
 2168 08c1 8F080000 		.long	0x88f
 2169 08c5 1C       		.uleb128 0x1c
 2170 08c6 DE050000 		.long	.LASF126
 2171 08ca 12       		.byte	0x12
 2172 08cb 69       		.byte	0x69
 2173 08cc 12       		.byte	0x12
 2174 08cd B9080000 		.long	0x8b9
 2175 08d1 07       		.uleb128 0x7
 2176 08d2 36080000 		.long	.LASF127
 2177 08d6 04       		.byte	0x4
 2178 08d7 13       		.byte	0x13
 2179 08d8 3C       		.byte	0x3c
 2180 08d9 08       		.byte	0x8
 2181 08da EC080000 		.long	0x8ec
 2182 08de 08       		.uleb128 0x8
 2183 08df 27010000 		.long	.LASF51
 2184 08e3 13       		.byte	0x13
 2185 08e4 3D       		.byte	0x3d
 2186 08e5 1A       		.byte	0x1a
 2187 08e6 EC080000 		.long	0x8ec
 2188 08ea 00       		.byte	0
 2189 08eb 00       		.byte	0
 2190 08ec 0C       		.uleb128 0xc
 2191 08ed 04       		.byte	0x4
 2192 08ee D1080000 		.long	0x8d1
 2193 08f2 11       		.uleb128 0x11
 2194 08f3 10       		.byte	0x10
 2195 08f4 13       		.byte	0x13
 2196 08f5 44       		.byte	0x44
 2197 08f6 09       		.byte	0x9
 2198 08f7 30090000 		.long	0x930
 2199 08fb 08       		.uleb128 0x8
 2200 08fc 27010000 		.long	.LASF51
GAS LISTING /tmp/ccOro4nK.s 			page 41


 2201 0900 13       		.byte	0x13
 2202 0901 45       		.byte	0x45
 2203 0902 1A       		.byte	0x1a
 2204 0903 EC080000 		.long	0x8ec
 2205 0907 00       		.byte	0
 2206 0908 08       		.uleb128 0x8
 2207 0909 B2070000 		.long	.LASF128
 2208 090d 13       		.byte	0x13
 2209 090e 46       		.byte	0x46
 2210 090f 19       		.byte	0x19
 2211 0910 2C000000 		.long	0x2c
 2212 0914 04       		.byte	0x4
 2213 0915 08       		.uleb128 0x8
 2214 0916 CF020000 		.long	.LASF129
 2215 091a 13       		.byte	0x13
 2216 091b 48       		.byte	0x48
 2217 091c 19       		.byte	0x19
 2218 091d 38000000 		.long	0x38
 2219 0921 08       		.byte	0x8
 2220 0922 08       		.uleb128 0x8
 2221 0923 95000000 		.long	.LASF130
 2222 0927 13       		.byte	0x13
 2223 0928 49       		.byte	0x49
 2224 0929 19       		.byte	0x19
 2225 092a 69080000 		.long	0x869
 2226 092e 0C       		.byte	0xc
 2227 092f 00       		.byte	0
 2228 0930 03       		.uleb128 0x3
 2229 0931 90030000 		.long	.LASF131
 2230 0935 13       		.byte	0x13
 2231 0936 4B       		.byte	0x4b
 2232 0937 03       		.byte	0x3
 2233 0938 F2080000 		.long	0x8f2
 2234 093c 07       		.uleb128 0x7
 2235 093d 83050000 		.long	.LASF132
 2236 0941 10       		.byte	0x10
 2237 0942 14       		.byte	0x14
 2238 0943 97       		.byte	0x97
 2239 0944 10       		.byte	0x10
 2240 0945 71090000 		.long	0x971
 2241 0949 08       		.uleb128 0x8
 2242 094a 27010000 		.long	.LASF51
 2243 094e 14       		.byte	0x14
 2244 094f 9B       		.byte	0x9b
 2245 0950 1A       		.byte	0x1a
 2246 0951 71090000 		.long	0x971
 2247 0955 00       		.byte	0
 2248 0956 08       		.uleb128 0x8
 2249 0957 6E050000 		.long	.LASF40
 2250 095b 14       		.byte	0x14
 2251 095c 9F       		.byte	0x9f
 2252 095d 19       		.byte	0x19
 2253 095e 5F010000 		.long	0x15f
 2254 0962 04       		.byte	0x4
 2255 0963 08       		.uleb128 0x8
 2256 0964 9E030000 		.long	.LASF36
 2257 0968 14       		.byte	0x14
GAS LISTING /tmp/ccOro4nK.s 			page 42


 2258 0969 A1       		.byte	0xa1
 2259 096a 19       		.byte	0x19
 2260 096b 77090000 		.long	0x977
 2261 096f 08       		.byte	0x8
 2262 0970 00       		.byte	0
 2263 0971 0C       		.uleb128 0xc
 2264 0972 04       		.byte	0x4
 2265 0973 3C090000 		.long	0x93c
 2266 0977 12       		.uleb128 0x12
 2267 0978 B7000000 		.long	0xb7
 2268 097c 87090000 		.long	0x987
 2269 0980 13       		.uleb128 0x13
 2270 0981 38000000 		.long	0x38
 2271 0985 07       		.byte	0x7
 2272 0986 00       		.byte	0
 2273 0987 03       		.uleb128 0x3
 2274 0988 19010000 		.long	.LASF133
 2275 098c 14       		.byte	0x14
 2276 098d A5       		.byte	0xa5
 2277 098e 03       		.byte	0x3
 2278 098f 3C090000 		.long	0x93c
 2279 0993 07       		.uleb128 0x7
 2280 0994 93070000 		.long	.LASF134
 2281 0998 04       		.byte	0x4
 2282 0999 14       		.byte	0x14
 2283 099a AA       		.byte	0xaa
 2284 099b 10       		.byte	0x10
 2285 099c AE090000 		.long	0x9ae
 2286 09a0 08       		.uleb128 0x8
 2287 09a1 27010000 		.long	.LASF51
 2288 09a5 14       		.byte	0x14
 2289 09a6 AB       		.byte	0xab
 2290 09a7 1A       		.byte	0x1a
 2291 09a8 AE090000 		.long	0x9ae
 2292 09ac 00       		.byte	0
 2293 09ad 00       		.byte	0
 2294 09ae 0C       		.uleb128 0xc
 2295 09af 04       		.byte	0x4
 2296 09b0 87090000 		.long	0x987
 2297 09b4 03       		.uleb128 0x3
 2298 09b5 F5030000 		.long	.LASF135
 2299 09b9 14       		.byte	0x14
 2300 09ba AC       		.byte	0xac
 2301 09bb 03       		.byte	0x3
 2302 09bc 93090000 		.long	0x993
 2303 09c0 0D       		.uleb128 0xd
 2304 09c1 C6070000 		.long	.LASF136
 2305 09c5 44       		.byte	0x44
 2306 09c6 14       		.byte	0x14
 2307 09c7 1501     		.value	0x115
 2308 09c9 10       		.byte	0x10
 2309 09ca 3F0A0000 		.long	0xa3f
 2310 09ce 0A       		.uleb128 0xa
 2311 09cf 6D747800 		.string	"mtx"
 2312 09d3 14       		.byte	0x14
 2313 09d4 1A01     		.value	0x11a
 2314 09d6 19       		.byte	0x19
GAS LISTING /tmp/ccOro4nK.s 			page 43


 2315 09d7 57080000 		.long	0x857
 2316 09db 00       		.byte	0
 2317 09dc 0B       		.uleb128 0xb
 2318 09dd FC060000 		.long	.LASF137
 2319 09e1 14       		.byte	0x14
 2320 09e2 2101     		.value	0x121
 2321 09e4 19       		.byte	0x19
 2322 09e5 B4090000 		.long	0x9b4
 2323 09e9 10       		.byte	0x10
 2324 09ea 0B       		.uleb128 0xb
 2325 09eb 4B060000 		.long	.LASF138
 2326 09ef 14       		.byte	0x14
 2327 09f0 2501     		.value	0x125
 2328 09f2 19       		.byte	0x19
 2329 09f3 30090000 		.long	0x930
 2330 09f7 14       		.byte	0x14
 2331 09f8 0B       		.uleb128 0xb
 2332 09f9 C2030000 		.long	.LASF139
 2333 09fd 14       		.byte	0x14
 2334 09fe 2A01     		.value	0x12a
 2335 0a00 19       		.byte	0x19
 2336 0a01 B4090000 		.long	0x9b4
 2337 0a05 24       		.byte	0x24
 2338 0a06 0B       		.uleb128 0xb
 2339 0a07 B2000000 		.long	.LASF140
 2340 0a0b 14       		.byte	0x14
 2341 0a0c 3001     		.value	0x130
 2342 0a0e 19       		.byte	0x19
 2343 0a0f B4090000 		.long	0x9b4
 2344 0a13 28       		.byte	0x28
 2345 0a14 0B       		.uleb128 0xb
 2346 0a15 28050000 		.long	.LASF141
 2347 0a19 14       		.byte	0x14
 2348 0a1a 3401     		.value	0x134
 2349 0a1c 19       		.byte	0x19
 2350 0a1d 30090000 		.long	0x930
 2351 0a21 2C       		.byte	0x2c
 2352 0a22 0B       		.uleb128 0xb
 2353 0a23 89020000 		.long	.LASF142
 2354 0a27 14       		.byte	0x14
 2355 0a28 3A01     		.value	0x13a
 2356 0a2a 19       		.byte	0x19
 2357 0a2b B4090000 		.long	0x9b4
 2358 0a2f 3C       		.byte	0x3c
 2359 0a30 0B       		.uleb128 0xb
 2360 0a31 25080000 		.long	.LASF143
 2361 0a35 14       		.byte	0x14
 2362 0a36 4001     		.value	0x140
 2363 0a38 19       		.byte	0x19
 2364 0a39 B4090000 		.long	0x9b4
 2365 0a3d 40       		.byte	0x40
 2366 0a3e 00       		.byte	0
 2367 0a3f 1E       		.uleb128 0x1e
 2368 0a40 F6080000 		.long	.LASF144
 2369 0a44 14       		.byte	0x14
 2370 0a45 4201     		.value	0x142
 2371 0a47 03       		.byte	0x3
GAS LISTING /tmp/ccOro4nK.s 			page 44


 2372 0a48 C0090000 		.long	0x9c0
 2373 0a4c 15       		.uleb128 0x15
 2374 0a4d 36060000 		.long	.LASF145
 2375 0a51 14       		.byte	0x14
 2376 0a52 4D01     		.value	0x14d
 2377 0a54 1A       		.byte	0x1a
 2378 0a55 3F0A0000 		.long	0xa3f
 2379 0a59 1F       		.uleb128 0x1f
 2380 0a5a B4060000 		.long	0x6b4
 2381 0a5e 01       		.byte	0x1
 2382 0a5f 2E       		.byte	0x2e
 2383 0a60 01       		.byte	0x1
 2384 0a61 05       		.uleb128 0x5
 2385 0a62 03       		.byte	0x3
 2386 0a63 00000000 		.long	ch_idle_thread_wa
 2387 0a67 20       		.uleb128 0x20
 2388 0a68 B0020000 		.long	.LASF147
 2389 0a6c 01       		.byte	0x1
 2390 0a6d BB01     		.value	0x1bb
 2391 0a6f 06       		.byte	0x6
 2392 0a70 00000000 		.long	.LFB146
 2393 0a74 2F000000 		.long	.LFE146-.LFB146
 2394 0a78 01       		.uleb128 0x1
 2395 0a79 9C       		.byte	0x9c
 2396 0a7a 0D0B0000 		.long	0xb0d
 2397 0a7e 21       		.uleb128 0x21
 2398 0a7f 10060000 		.long	.LASF149
 2399 0a83 01       		.byte	0x1
 2400 0a84 BB01     		.value	0x1bb
 2401 0a86 20       		.byte	0x20
 2402 0a87 F3000000 		.long	0xf3
 2403 0a8b 02       		.uleb128 0x2
 2404 0a8c 91       		.byte	0x91
 2405 0a8d 00       		.sleb128 0
 2406 0a8e 22       		.uleb128 0x22
 2407 0a8f 30060000 		.long	.LASF146
 2408 0a93 01       		.byte	0x1
 2409 0a94 BC01     		.value	0x1bc
 2410 0a96 0B       		.byte	0xb
 2411 0a97 F3000000 		.long	0xf3
 2412 0a9b 04000000 		.long	.LLST8
 2413 0a9f 00000000 		.long	.LVUS8
 2414 0aa3 23       		.uleb128 0x23
 2415 0aa4 656E6400 		.string	"end"
 2416 0aa8 01       		.byte	0x1
 2417 0aa9 BD01     		.value	0x1bd
 2418 0aab 0B       		.byte	0xb
 2419 0aac F3000000 		.long	0xf3
 2420 0ab0 26000000 		.long	.LLST9
 2421 0ab4 22000000 		.long	.LVUS9
 2422 0ab8 24       		.uleb128 0x24
 2423 0ab9 0D0B0000 		.long	0xb0d
 2424 0abd 25000000 		.long	.LBI129
 2425 0ac1 00       		.byte	.LVU279
 2426 0ac2 25000000 		.long	.LBB129
 2427 0ac6 02000000 		.long	.LBE129-.LBB129
 2428 0aca 01       		.byte	0x1
GAS LISTING /tmp/ccOro4nK.s 			page 45


 2429 0acb BF01     		.value	0x1bf
 2430 0acd 0A       		.byte	0xa
 2431 0ace FA0A0000 		.long	0xafa
 2432 0ad2 25       		.uleb128 0x25
 2433 0ad3 390B0000 		.long	0xb39
 2434 0ad7 52000000 		.long	.LLST10
 2435 0adb 50000000 		.long	.LVUS10
 2436 0adf 25       		.uleb128 0x25
 2437 0ae0 2C0B0000 		.long	0xb2c
 2438 0ae4 6D000000 		.long	.LLST11
 2439 0ae8 6B000000 		.long	.LVUS11
 2440 0aec 25       		.uleb128 0x25
 2441 0aed 1F0B0000 		.long	0xb1f
 2442 0af1 82000000 		.long	.LLST12
 2443 0af5 80000000 		.long	.LVUS12
 2444 0af9 00       		.byte	0
 2445 0afa 26       		.uleb128 0x26
 2446 0afb 17000000 		.long	.LVL55
 2447 0aff AA0F0000 		.long	0xfaa
 2448 0b03 26       		.uleb128 0x26
 2449 0b04 25000000 		.long	.LVL57
 2450 0b08 AA0F0000 		.long	0xfaa
 2451 0b0c 00       		.byte	0
 2452 0b0d 27       		.uleb128 0x27
 2453 0b0e 92020000 		.long	.LASF187
 2454 0b12 01       		.byte	0x1
 2455 0b13 AB01     		.value	0x1ab
 2456 0b15 06       		.byte	0x6
 2457 0b16 74050000 		.long	0x574
 2458 0b1a 01       		.byte	0x1
 2459 0b1b 470B0000 		.long	0xb47
 2460 0b1f 28       		.uleb128 0x28
 2461 0b20 636E7400 		.string	"cnt"
 2462 0b24 01       		.byte	0x1
 2463 0b25 AB01     		.value	0x1ab
 2464 0b27 24       		.byte	0x24
 2465 0b28 F3000000 		.long	0xf3
 2466 0b2c 29       		.uleb128 0x29
 2467 0b2d 30060000 		.long	.LASF146
 2468 0b31 01       		.byte	0x1
 2469 0b32 AB01     		.value	0x1ab
 2470 0b34 31       		.byte	0x31
 2471 0b35 F3000000 		.long	0xf3
 2472 0b39 28       		.uleb128 0x28
 2473 0b3a 656E6400 		.string	"end"
 2474 0b3e 01       		.byte	0x1
 2475 0b3f AB01     		.value	0x1ab
 2476 0b41 40       		.byte	0x40
 2477 0b42 F3000000 		.long	0xf3
 2478 0b46 00       		.byte	0
 2479 0b47 20       		.uleb128 0x20
 2480 0b48 1A090000 		.long	.LASF148
 2481 0b4c 01       		.byte	0x1
 2482 0b4d 8B01     		.value	0x18b
 2483 0b4f 06       		.byte	0x6
 2484 0b50 00000000 		.long	.LFB144
 2485 0b54 4B000000 		.long	.LFE144-.LFB144
GAS LISTING /tmp/ccOro4nK.s 			page 46


 2486 0b58 01       		.uleb128 0x1
 2487 0b59 9C       		.byte	0x9c
 2488 0b5a BD0B0000 		.long	0xbbd
 2489 0b5e 2A       		.uleb128 0x2a
 2490 0b5f 73747300 		.string	"sts"
 2491 0b63 01       		.byte	0x1
 2492 0b64 8B01     		.value	0x18b
 2493 0b66 23       		.byte	0x23
 2494 0b67 FF000000 		.long	0xff
 2495 0b6b 02       		.uleb128 0x2
 2496 0b6c 91       		.byte	0x91
 2497 0b6d 00       		.sleb128 0
 2498 0b6e 2B       		.uleb128 0x2b
 2499 0b6f 380F0000 		.long	0xf38
 2500 0b73 17000000 		.long	.LBI119
 2501 0b77 01       		.byte	.LVU234
 2502 0b78 17000000 		.long	.LBB119
 2503 0b7c 06000000 		.long	.LBE119-.LBB119
 2504 0b80 01       		.byte	0x1
 2505 0b81 8E01     		.value	0x18e
 2506 0b83 09       		.byte	0x9
 2507 0b84 2C       		.uleb128 0x2c
 2508 0b85 B10E0000 		.long	0xeb1
 2509 0b89 22000000 		.long	.LBI121
 2510 0b8d 01       		.byte	.LVU239
 2511 0b8e 20010000 		.long	.Ldebug_ranges0+0x120
 2512 0b92 01       		.byte	0x1
 2513 0b93 9301     		.value	0x193
 2514 0b95 07       		.byte	0x7
 2515 0b96 B30B0000 		.long	0xbb3
 2516 0b9a 2D       		.uleb128 0x2d
 2517 0b9b 20010000 		.long	.Ldebug_ranges0+0x120
 2518 0b9f 2E       		.uleb128 0x2e
 2519 0ba0 240F0000 		.long	0xf24
 2520 0ba4 22000000 		.long	.LBI123
 2521 0ba8 07       		.byte	.LVU245
 2522 0ba9 20010000 		.long	.Ldebug_ranges0+0x120
 2523 0bad 03       		.byte	0x3
 2524 0bae 7A01     		.value	0x17a
 2525 0bb0 03       		.byte	0x3
 2526 0bb1 00       		.byte	0
 2527 0bb2 00       		.byte	0
 2528 0bb3 26       		.uleb128 0x26
 2529 0bb4 3D000000 		.long	.LVL52
 2530 0bb8 B70F0000 		.long	0xfb7
 2531 0bbc 00       		.byte	0
 2532 0bbd 2F       		.uleb128 0x2f
 2533 0bbe E9050000 		.long	.LASF151
 2534 0bc2 01       		.byte	0x1
 2535 0bc3 7401     		.value	0x174
 2536 0bc5 0A       		.byte	0xa
 2537 0bc6 FF000000 		.long	0xff
 2538 0bca 00000000 		.long	.LFB143
 2539 0bce 1D000000 		.long	.LFE143-.LFB143
 2540 0bd2 01       		.uleb128 0x1
 2541 0bd3 9C       		.byte	0x9c
 2542 0bd4 2D0C0000 		.long	0xc2d
GAS LISTING /tmp/ccOro4nK.s 			page 47


 2543 0bd8 23       		.uleb128 0x23
 2544 0bd9 73747300 		.string	"sts"
 2545 0bdd 01       		.byte	0x1
 2546 0bde 7601     		.value	0x176
 2547 0be0 0C       		.byte	0xc
 2548 0be1 FF000000 		.long	0xff
 2549 0be5 97000000 		.long	.LLST7
 2550 0be9 95000000 		.long	.LVUS7
 2551 0bed 2B       		.uleb128 0x2b
 2552 0bee 660F0000 		.long	0xf66
 2553 0bf2 00000000 		.long	.LBI113
 2554 0bf6 02       		.byte	.LVU209
 2555 0bf7 00000000 		.long	.LBB113
 2556 0bfb 12000000 		.long	.LBE113-.LBB113
 2557 0bff 01       		.byte	0x1
 2558 0c00 7601     		.value	0x176
 2559 0c02 12       		.byte	0x12
 2560 0c03 30       		.uleb128 0x30
 2561 0c04 A70E0000 		.long	0xea7
 2562 0c08 16000000 		.long	.LBI115
 2563 0c0c 03       		.byte	.LVU219
 2564 0c0d 08010000 		.long	.Ldebug_ranges0+0x108
 2565 0c11 01       		.byte	0x1
 2566 0c12 7901     		.value	0x179
 2567 0c14 07       		.byte	0x7
 2568 0c15 2B       		.uleb128 0x2b
 2569 0c16 1A0F0000 		.long	0xf1a
 2570 0c1a 16000000 		.long	.LBI116
 2571 0c1e 05       		.byte	.LVU221
 2572 0c1f 16000000 		.long	.LBB116
 2573 0c23 06000000 		.long	.LBE116-.LBB116
 2574 0c27 03       		.byte	0x3
 2575 0c28 8B01     		.value	0x18b
 2576 0c2a 03       		.byte	0x3
 2577 0c2b 00       		.byte	0
 2578 0c2c 00       		.byte	0
 2579 0c2d 31       		.uleb128 0x31
 2580 0c2e 39030000 		.long	.LASF150
 2581 0c32 01       		.byte	0x1
 2582 0c33 5501     		.value	0x155
 2583 0c35 06       		.byte	0x6
 2584 0c36 00000000 		.long	.LFB142
 2585 0c3a 77000000 		.long	.LFE142-.LFB142
 2586 0c3e 01       		.uleb128 0x1
 2587 0c3f 9C       		.byte	0x9c
 2588 0c40 CA0C0000 		.long	0xcca
 2589 0c44 30       		.uleb128 0x30
 2590 0c45 730E0000 		.long	0xe73
 2591 0c49 00000000 		.long	.LBI85
 2592 0c4d 03       		.byte	.LVU159
 2593 0c4e 58000000 		.long	.Ldebug_ranges0+0x58
 2594 0c52 01       		.byte	0x1
 2595 0c53 6301     		.value	0x163
 2596 0c55 03       		.byte	0x3
 2597 0c56 32       		.uleb128 0x32
 2598 0c57 810E0000 		.long	0xe81
 2599 0c5b 88000000 		.long	.Ldebug_ranges0+0x88
GAS LISTING /tmp/ccOro4nK.s 			page 48


 2600 0c5f 33       		.uleb128 0x33
 2601 0c60 820E0000 		.long	0xe82
 2602 0c64 AC000000 		.long	.LLST5
 2603 0c68 AA000000 		.long	.LVUS5
 2604 0c6c 33       		.uleb128 0x33
 2605 0c6d 8F0E0000 		.long	0xe8f
 2606 0c71 C1000000 		.long	.LLST6
 2607 0c75 BF000000 		.long	.LVUS6
 2608 0c79 2C       		.uleb128 0x2c
 2609 0c7a 9D0E0000 		.long	0xe9d
 2610 0c7e 5E000000 		.long	.LBI88
 2611 0c82 01       		.byte	.LVU188
 2612 0c83 B0000000 		.long	.Ldebug_ranges0+0xb0
 2613 0c87 04       		.byte	0x4
 2614 0c88 8401     		.value	0x184
 2615 0c8a 07       		.byte	0x7
 2616 0c8b A20C0000 		.long	0xca2
 2617 0c8f 2E       		.uleb128 0x2e
 2618 0c90 100F0000 		.long	0xf10
 2619 0c94 5E000000 		.long	.LBI89
 2620 0c98 05       		.byte	.LVU192
 2621 0c99 D0000000 		.long	.Ldebug_ranges0+0xd0
 2622 0c9d 03       		.byte	0x3
 2623 0c9e A101     		.value	0x1a1
 2624 0ca0 03       		.byte	0x3
 2625 0ca1 00       		.byte	0
 2626 0ca2 30       		.uleb128 0x30
 2627 0ca3 A70E0000 		.long	0xea7
 2628 0ca7 60000000 		.long	.LBI95
 2629 0cab 01       		.byte	.LVU196
 2630 0cac E8000000 		.long	.Ldebug_ranges0+0xe8
 2631 0cb0 04       		.byte	0x4
 2632 0cb1 8601     		.value	0x186
 2633 0cb3 07       		.byte	0x7
 2634 0cb4 2E       		.uleb128 0x2e
 2635 0cb5 1A0F0000 		.long	0xf1a
 2636 0cb9 60000000 		.long	.LBI96
 2637 0cbd 03       		.byte	.LVU198
 2638 0cbe F0000000 		.long	.Ldebug_ranges0+0xf0
 2639 0cc2 03       		.byte	0x3
 2640 0cc3 8B01     		.value	0x18b
 2641 0cc5 03       		.byte	0x3
 2642 0cc6 00       		.byte	0
 2643 0cc7 00       		.byte	0
 2644 0cc8 00       		.byte	0
 2645 0cc9 00       		.byte	0
 2646 0cca 34       		.uleb128 0x34
 2647 0ccb 7B030000 		.long	.LASF152
 2648 0ccf 01       		.byte	0x1
 2649 0cd0 F0       		.byte	0xf0
 2650 0cd1 06       		.byte	0x6
 2651 0cd2 74050000 		.long	0x574
 2652 0cd6 00000000 		.long	.LFB141
 2653 0cda 1A010000 		.long	.LFE141-.LFB141
 2654 0cde 01       		.uleb128 0x1
 2655 0cdf 9C       		.byte	0x9c
 2656 0ce0 650D0000 		.long	0xd65
GAS LISTING /tmp/ccOro4nK.s 			page 49


 2657 0ce4 35       		.uleb128 0x35
 2658 0ce5 A0050000 		.long	.LASF188
 2659 0ce9 01       		.byte	0x1
 2660 0cea F0       		.byte	0xf0
 2661 0ceb 24       		.byte	0x24
 2662 0cec 38000000 		.long	0x38
 2663 0cf0 D8000000 		.long	.LLST0
 2664 0cf4 D4000000 		.long	.LVUS0
 2665 0cf8 36       		.uleb128 0x36
 2666 0cf9 6E00     		.string	"n"
 2667 0cfb 01       		.byte	0x1
 2668 0cfc F1       		.byte	0xf1
 2669 0cfd 09       		.byte	0x9
 2670 0cfe 53010000 		.long	0x153
 2671 0d02 0D010000 		.long	.LLST1
 2672 0d06 F7000000 		.long	.LVUS1
 2673 0d0a 37       		.uleb128 0x37
 2674 0d0b 18000000 		.long	.Ldebug_ranges0+0x18
 2675 0d0f 270D0000 		.long	0xd27
 2676 0d13 36       		.uleb128 0x36
 2677 0d14 747000   		.string	"tp"
 2678 0d17 01       		.byte	0x1
 2679 0d18 F7       		.byte	0xf7
 2680 0d19 0F       		.byte	0xf
 2681 0d1a 73020000 		.long	0x273
 2682 0d1e 9D010000 		.long	.LLST2
 2683 0d22 93010000 		.long	.LVUS2
 2684 0d26 00       		.byte	0
 2685 0d27 37       		.uleb128 0x37
 2686 0d28 38000000 		.long	.Ldebug_ranges0+0x38
 2687 0d2c 460D0000 		.long	0xd46
 2688 0d30 23       		.uleb128 0x23
 2689 0d31 76747000 		.string	"vtp"
 2690 0d35 01       		.byte	0x1
 2691 0d36 1001     		.value	0x110
 2692 0d38 17       		.byte	0x17
 2693 0d39 96060000 		.long	0x696
 2694 0d3d E6010000 		.long	.LLST3
 2695 0d41 DC010000 		.long	.LVUS3
 2696 0d45 00       		.byte	0
 2697 0d46 38       		.uleb128 0x38
 2698 0d47 AA000000 		.long	.LBB73
 2699 0d4b 3D000000 		.long	.LBE73-.LBB73
 2700 0d4f 23       		.uleb128 0x23
 2701 0d50 747000   		.string	"tp"
 2702 0d53 01       		.byte	0x1
 2703 0d54 2901     		.value	0x129
 2704 0d56 0F       		.byte	0xf
 2705 0d57 73020000 		.long	0x273
 2706 0d5b 2B020000 		.long	.LLST4
 2707 0d5f 25020000 		.long	.LVUS4
 2708 0d63 00       		.byte	0
 2709 0d64 00       		.byte	0
 2710 0d65 39       		.uleb128 0x39
 2711 0d66 92040000 		.long	.LASF153
 2712 0d6a 01       		.byte	0x1
 2713 0d6b C6       		.byte	0xc6
GAS LISTING /tmp/ccOro4nK.s 			page 50


 2714 0d6c 06       		.byte	0x6
 2715 0d6d 00000000 		.long	.LFB140
 2716 0d71 25000000 		.long	.LFE140-.LFB140
 2717 0d75 01       		.uleb128 0x1
 2718 0d76 9C       		.byte	0x9c
 2719 0d77 9C0D0000 		.long	0xd9c
 2720 0d7b 3A       		.uleb128 0x3a
 2721 0d7c 54060000 		.long	.LASF154
 2722 0d80 01       		.byte	0x1
 2723 0d81 C6       		.byte	0xc6
 2724 0d82 1C       		.byte	0x1c
 2725 0d83 85060000 		.long	0x685
 2726 0d87 02       		.uleb128 0x2
 2727 0d88 91       		.byte	0x91
 2728 0d89 00       		.sleb128 0
 2729 0d8a 3B       		.uleb128 0x3b
 2730 0d8b 060F0000 		.long	0xf06
 2731 0d8f 00000000 		.long	.LBI65
 2732 0d93 02       		.byte	.LVU42
 2733 0d94 00000000 		.long	.Ldebug_ranges0+0
 2734 0d98 01       		.byte	0x1
 2735 0d99 C8       		.byte	0xc8
 2736 0d9a 03       		.byte	0x3
 2737 0d9b 00       		.byte	0
 2738 0d9c 39       		.uleb128 0x39
 2739 0d9d 1D000000 		.long	.LASF155
 2740 0da1 01       		.byte	0x1
 2741 0da2 64       		.byte	0x64
 2742 0da3 06       		.byte	0x6
 2743 0da4 00000000 		.long	.LFB139
 2744 0da8 82000000 		.long	.LFE139-.LFB139
 2745 0dac 01       		.uleb128 0x1
 2746 0dad 9C       		.byte	0x9c
 2747 0dae 300E0000 		.long	0xe30
 2748 0db2 3C       		.uleb128 0x3c
 2749 0db3 6E000000 		.long	.LBB64
 2750 0db7 0E000000 		.long	.LBE64-.LBB64
 2751 0dbb DB0D0000 		.long	0xddb
 2752 0dbf 3D       		.uleb128 0x3d
 2753 0dc0 13050000 		.long	.LASF189
 2754 0dc4 01       		.byte	0x1
 2755 0dc5 A9       		.byte	0xa9
 2756 0dc6 26       		.byte	0x26
 2757 0dc7 31070000 		.long	0x731
 2758 0dcb 05       		.uleb128 0x5
 2759 0dcc 03       		.byte	0x3
 2760 0dcd 00000000 		.long	idle_descriptor.2876
 2761 0dd1 26       		.uleb128 0x26
 2762 0dd2 7C000000 		.long	.LVL9
 2763 0dd6 C40F0000 		.long	0xfc4
 2764 0dda 00       		.byte	0
 2765 0ddb 3E       		.uleb128 0x3e
 2766 0ddc 740F0000 		.long	0xf74
 2767 0de0 59000000 		.long	.LBI62
 2768 0de4 01       		.byte	.LVU25
 2769 0de5 59000000 		.long	.LBB62
 2770 0de9 15000000 		.long	.LBE62-.LBB62
GAS LISTING /tmp/ccOro4nK.s 			page 51


 2771 0ded 01       		.byte	0x1
 2772 0dee 9A       		.byte	0x9a
 2773 0def 03       		.byte	0x3
 2774 0df0 26       		.uleb128 0x26
 2775 0df1 15000000 		.long	.LVL2
 2776 0df5 D00F0000 		.long	0xfd0
 2777 0df9 26       		.uleb128 0x26
 2778 0dfa 1A000000 		.long	.LVL3
 2779 0dfe DD0F0000 		.long	0xfdd
 2780 0e02 26       		.uleb128 0x26
 2781 0e03 1F000000 		.long	.LVL4
 2782 0e07 E90F0000 		.long	0xfe9
 2783 0e0b 26       		.uleb128 0x26
 2784 0e0c 24000000 		.long	.LVL5
 2785 0e10 F50F0000 		.long	0xff5
 2786 0e14 26       		.uleb128 0x26
 2787 0e15 29000000 		.long	.LVL6
 2788 0e19 01100000 		.long	0x1001
 2789 0e1d 26       		.uleb128 0x26
 2790 0e1e 2E000000 		.long	.LVL7
 2791 0e22 0D100000 		.long	0x100d
 2792 0e26 26       		.uleb128 0x26
 2793 0e27 4B000000 		.long	.LVL8
 2794 0e2b 1A100000 		.long	0x101a
 2795 0e2f 00       		.byte	0
 2796 0e30 3F       		.uleb128 0x3f
 2797 0e31 55000000 		.long	.LASF190
 2798 0e35 01       		.byte	0x1
 2799 0e36 48       		.byte	0x48
 2800 0e37 0D       		.byte	0xd
 2801 0e38 00000000 		.long	.LFB138
 2802 0e3c 17000000 		.long	.LFE138-.LFB138
 2803 0e40 01       		.uleb128 0x1
 2804 0e41 9C       		.byte	0x9c
 2805 0e42 730E0000 		.long	0xe73
 2806 0e46 40       		.uleb128 0x40
 2807 0e47 7000     		.string	"p"
 2808 0e49 01       		.byte	0x1
 2809 0e4a 48       		.byte	0x48
 2810 0e4b 20       		.byte	0x20
 2811 0e4c B5000000 		.long	0xb5
 2812 0e50 02       		.uleb128 0x2
 2813 0e51 91       		.byte	0x91
 2814 0e52 00       		.sleb128 0
 2815 0e53 41       		.uleb128 0x41
 2816 0e54 F20E0000 		.long	0xef2
 2817 0e58 10000000 		.long	.LBI60
 2818 0e5c 03       		.byte	.LVU5
 2819 0e5d 10000000 		.long	.LBB60
 2820 0e61 07000000 		.long	.LBE60-.LBB60
 2821 0e65 01       		.byte	0x1
 2822 0e66 4F       		.byte	0x4f
 2823 0e67 05       		.byte	0x5
 2824 0e68 26       		.uleb128 0x26
 2825 0e69 15000000 		.long	.LVL1
 2826 0e6d 26100000 		.long	0x1026
 2827 0e71 00       		.byte	0
GAS LISTING /tmp/ccOro4nK.s 			page 52


 2828 0e72 00       		.byte	0
 2829 0e73 42       		.uleb128 0x42
 2830 0e74 08000000 		.long	.LASF158
 2831 0e78 04       		.byte	0x4
 2832 0e79 7201     		.value	0x172
 2833 0e7b 14       		.byte	0x14
 2834 0e7c 03       		.byte	0x3
 2835 0e7d 9D0E0000 		.long	0xe9d
 2836 0e81 43       		.uleb128 0x43
 2837 0e82 44       		.uleb128 0x44
 2838 0e83 76747000 		.string	"vtp"
 2839 0e87 04       		.byte	0x4
 2840 0e88 7C01     		.value	0x17c
 2841 0e8a 18       		.byte	0x18
 2842 0e8b 96060000 		.long	0x696
 2843 0e8f 44       		.uleb128 0x44
 2844 0e90 666E00   		.string	"fn"
 2845 0e93 04       		.byte	0x4
 2846 0e94 7D01     		.value	0x17d
 2847 0e96 10       		.byte	0x10
 2848 0e97 43030000 		.long	0x343
 2849 0e9b 00       		.byte	0
 2850 0e9c 00       		.byte	0
 2851 0e9d 45       		.uleb128 0x45
 2852 0e9e 51020000 		.long	.LASF156
 2853 0ea2 03       		.byte	0x3
 2854 0ea3 9D01     		.value	0x19d
 2855 0ea5 14       		.byte	0x14
 2856 0ea6 03       		.byte	0x3
 2857 0ea7 45       		.uleb128 0x45
 2858 0ea8 28030000 		.long	.LASF157
 2859 0eac 03       		.byte	0x3
 2860 0ead 8901     		.value	0x189
 2861 0eaf 14       		.byte	0x14
 2862 0eb0 03       		.byte	0x3
 2863 0eb1 42       		.uleb128 0x42
 2864 0eb2 EA080000 		.long	.LASF159
 2865 0eb6 03       		.byte	0x3
 2866 0eb7 6D01     		.value	0x16d
 2867 0eb9 14       		.byte	0x14
 2868 0eba 03       		.byte	0x3
 2869 0ebb C90E0000 		.long	0xec9
 2870 0ebf 46       		.uleb128 0x46
 2871 0ec0 10010000 		.long	.LASF191
 2872 0ec4 D90E0000 		.long	0xed9
 2873 0ec8 00       		.byte	0
 2874 0ec9 12       		.uleb128 0x12
 2875 0eca BE000000 		.long	0xbe
 2876 0ece D90E0000 		.long	0xed9
 2877 0ed2 13       		.uleb128 0x13
 2878 0ed3 38000000 		.long	0x38
 2879 0ed7 0B       		.byte	0xb
 2880 0ed8 00       		.byte	0
 2881 0ed9 06       		.uleb128 0x6
 2882 0eda C90E0000 		.long	0xec9
 2883 0ede 45       		.uleb128 0x45
 2884 0edf 41060000 		.long	.LASF160
GAS LISTING /tmp/ccOro4nK.s 			page 53


 2885 0ee3 03       		.byte	0x3
 2886 0ee4 6101     		.value	0x161
 2887 0ee6 14       		.byte	0x14
 2888 0ee7 03       		.byte	0x3
 2889 0ee8 45       		.uleb128 0x45
 2890 0ee9 DB010000 		.long	.LASF161
 2891 0eed 03       		.byte	0x3
 2892 0eee 5601     		.value	0x156
 2893 0ef0 14       		.byte	0x14
 2894 0ef1 03       		.byte	0x3
 2895 0ef2 45       		.uleb128 0x45
 2896 0ef3 39050000 		.long	.LASF162
 2897 0ef7 02       		.byte	0x2
 2898 0ef8 AC01     		.value	0x1ac
 2899 0efa 14       		.byte	0x14
 2900 0efb 03       		.byte	0x3
 2901 0efc 45       		.uleb128 0x45
 2902 0efd 4E040000 		.long	.LASF163
 2903 0f01 02       		.byte	0x2
 2904 0f02 9F01     		.value	0x19f
 2905 0f04 14       		.byte	0x14
 2906 0f05 03       		.byte	0x3
 2907 0f06 45       		.uleb128 0x45
 2908 0f07 C0010000 		.long	.LASF164
 2909 0f0b 02       		.byte	0x2
 2910 0f0c 8F01     		.value	0x18f
 2911 0f0e 14       		.byte	0x14
 2912 0f0f 03       		.byte	0x3
 2913 0f10 45       		.uleb128 0x45
 2914 0f11 13030000 		.long	.LASF165
 2915 0f15 02       		.byte	0x2
 2916 0f16 8701     		.value	0x187
 2917 0f18 14       		.byte	0x14
 2918 0f19 03       		.byte	0x3
 2919 0f1a 45       		.uleb128 0x45
 2920 0f1b 9F070000 		.long	.LASF166
 2921 0f1f 02       		.byte	0x2
 2922 0f20 7D01     		.value	0x17d
 2923 0f22 14       		.byte	0x14
 2924 0f23 03       		.byte	0x3
 2925 0f24 45       		.uleb128 0x45
 2926 0f25 A5010000 		.long	.LASF167
 2927 0f29 02       		.byte	0x2
 2928 0f2a 7301     		.value	0x173
 2929 0f2c 14       		.byte	0x14
 2930 0f2d 03       		.byte	0x3
 2931 0f2e 45       		.uleb128 0x45
 2932 0f2f BB000000 		.long	.LASF168
 2933 0f33 02       		.byte	0x2
 2934 0f34 6A01     		.value	0x16a
 2935 0f36 14       		.byte	0x14
 2936 0f37 03       		.byte	0x3
 2937 0f38 47       		.uleb128 0x47
 2938 0f39 72010000 		.long	.LASF169
 2939 0f3d 02       		.byte	0x2
 2940 0f3e 6101     		.value	0x161
 2941 0f40 14       		.byte	0x14
GAS LISTING /tmp/ccOro4nK.s 			page 54


 2942 0f41 74050000 		.long	0x574
 2943 0f45 03       		.byte	0x3
 2944 0f46 48       		.uleb128 0x48
 2945 0f47 E4040000 		.long	.LASF192
 2946 0f4b 02       		.byte	0x2
 2947 0f4c 5501     		.value	0x155
 2948 0f4e 14       		.byte	0x14
 2949 0f4f 74050000 		.long	0x574
 2950 0f53 03       		.byte	0x3
 2951 0f54 660F0000 		.long	0xf66
 2952 0f58 28       		.uleb128 0x28
 2953 0f59 73747300 		.string	"sts"
 2954 0f5d 02       		.byte	0x2
 2955 0f5e 5501     		.value	0x155
 2956 0f60 2E       		.byte	0x2e
 2957 0f61 FF000000 		.long	0xff
 2958 0f65 00       		.byte	0
 2959 0f66 47       		.uleb128 0x47
 2960 0f67 5E030000 		.long	.LASF170
 2961 0f6b 02       		.byte	0x2
 2962 0f6c 4701     		.value	0x147
 2963 0f6e 18       		.byte	0x18
 2964 0f6f FF000000 		.long	0xff
 2965 0f73 03       		.byte	0x3
 2966 0f74 45       		.uleb128 0x45
 2967 0f75 CB030000 		.long	.LASF171
 2968 0f79 02       		.byte	0x2
 2969 0f7a 3C01     		.value	0x13c
 2970 0f7c 14       		.byte	0x14
 2971 0f7d 03       		.byte	0x3
 2972 0f7e 49       		.uleb128 0x49
 2973 0f7f 0D0B0000 		.long	0xb0d
 2974 0f83 00000000 		.long	.LFB145
 2975 0f87 16000000 		.long	.LFE145-.LFB145
 2976 0f8b 01       		.uleb128 0x1
 2977 0f8c 9C       		.byte	0x9c
 2978 0f8d AA0F0000 		.long	0xfaa
 2979 0f91 4A       		.uleb128 0x4a
 2980 0f92 1F0B0000 		.long	0xb1f
 2981 0f96 02       		.uleb128 0x2
 2982 0f97 91       		.byte	0x91
 2983 0f98 00       		.sleb128 0
 2984 0f99 4A       		.uleb128 0x4a
 2985 0f9a 2C0B0000 		.long	0xb2c
 2986 0f9e 02       		.uleb128 0x2
 2987 0f9f 91       		.byte	0x91
 2988 0fa0 04       		.sleb128 4
 2989 0fa1 4A       		.uleb128 0x4a
 2990 0fa2 390B0000 		.long	0xb39
 2991 0fa6 02       		.uleb128 0x2
 2992 0fa7 91       		.byte	0x91
 2993 0fa8 08       		.sleb128 8
 2994 0fa9 00       		.byte	0
 2995 0faa 4B       		.uleb128 0x4b
 2996 0fab 2F070000 		.long	.LASF172
 2997 0faf 2F070000 		.long	.LASF172
 2998 0fb3 02       		.byte	0x2
GAS LISTING /tmp/ccOro4nK.s 			page 55


 2999 0fb4 2901     		.value	0x129
 3000 0fb6 0B       		.byte	0xb
 3001 0fb7 4B       		.uleb128 0x4b
 3002 0fb8 6D020000 		.long	.LASF173
 3003 0fbc 6D020000 		.long	.LASF173
 3004 0fc0 0B       		.byte	0xb
 3005 0fc1 D601     		.value	0x1d6
 3006 0fc3 08       		.byte	0x8
 3007 0fc4 4C       		.uleb128 0x4c
 3008 0fc5 13080000 		.long	.LASF174
 3009 0fc9 13080000 		.long	.LASF174
 3010 0fcd 10       		.byte	0x10
 3011 0fce E6       		.byte	0xe6
 3012 0fcf 0D       		.byte	0xd
 3013 0fd0 4B       		.uleb128 0x4b
 3014 0fd1 48010000 		.long	.LASF175
 3015 0fd5 48010000 		.long	.LASF175
 3016 0fd9 0B       		.byte	0xb
 3017 0fda D001     		.value	0x1d0
 3018 0fdc 08       		.byte	0x8
 3019 0fdd 4C       		.uleb128 0x4c
 3020 0fde 79070000 		.long	.LASF176
 3021 0fe2 79070000 		.long	.LASF176
 3022 0fe6 04       		.byte	0x4
 3023 0fe7 4A       		.byte	0x4a
 3024 0fe8 08       		.byte	0x8
 3025 0fe9 4C       		.uleb128 0x4c
 3026 0fea 36090000 		.long	.LASF177
 3027 0fee 36090000 		.long	.LASF177
 3028 0ff2 0D       		.byte	0xd
 3029 0ff3 5B       		.byte	0x5b
 3030 0ff4 08       		.byte	0x8
 3031 0ff5 4C       		.uleb128 0x4c
 3032 0ff6 64070000 		.long	.LASF178
 3033 0ffa 64070000 		.long	.LASF178
 3034 0ffe 12       		.byte	0x12
 3035 0fff 6F       		.byte	0x6f
 3036 1000 08       		.byte	0x8
 3037 1001 4C       		.uleb128 0x4c
 3038 1002 3D010000 		.long	.LASF179
 3039 1006 3D010000 		.long	.LASF179
 3040 100a 15       		.byte	0x15
 3041 100b 81       		.byte	0x81
 3042 100c 08       		.byte	0x8
 3043 100d 4B       		.uleb128 0x4b
 3044 100e 86010000 		.long	.LASF180
 3045 1012 86010000 		.long	.LASF180
 3046 1016 14       		.byte	0x14
 3047 1017 5301     		.value	0x153
 3048 1019 08       		.byte	0x8
 3049 101a 4C       		.uleb128 0x4c
 3050 101b F6020000 		.long	.LASF181
 3051 101f F6020000 		.long	.LASF181
 3052 1023 10       		.byte	0x10
 3053 1024 DF       		.byte	0xdf
 3054 1025 0E       		.byte	0xe
 3055 1026 4B       		.uleb128 0x4b
GAS LISTING /tmp/ccOro4nK.s 			page 56


 3056 1027 9D060000 		.long	.LASF182
 3057 102b 9D060000 		.long	.LASF182
 3058 102f 02       		.byte	0x2
 3059 1030 2A01     		.value	0x12a
 3060 1032 08       		.byte	0x8
 3061 1033 00       		.byte	0
 3062              		.section	.debug_abbrev,"",@progbits
 3063              	.Ldebug_abbrev0:
 3064 0000 01       		.uleb128 0x1
 3065 0001 11       		.uleb128 0x11
 3066 0002 01       		.byte	0x1
 3067 0003 25       		.uleb128 0x25
 3068 0004 0E       		.uleb128 0xe
 3069 0005 13       		.uleb128 0x13
 3070 0006 0B       		.uleb128 0xb
 3071 0007 03       		.uleb128 0x3
 3072 0008 0E       		.uleb128 0xe
 3073 0009 1B       		.uleb128 0x1b
 3074 000a 0E       		.uleb128 0xe
 3075 000b 55       		.uleb128 0x55
 3076 000c 17       		.uleb128 0x17
 3077 000d 11       		.uleb128 0x11
 3078 000e 01       		.uleb128 0x1
 3079 000f 10       		.uleb128 0x10
 3080 0010 17       		.uleb128 0x17
 3081 0011 00       		.byte	0
 3082 0012 00       		.byte	0
 3083 0013 02       		.uleb128 0x2
 3084 0014 24       		.uleb128 0x24
 3085 0015 00       		.byte	0
 3086 0016 0B       		.uleb128 0xb
 3087 0017 0B       		.uleb128 0xb
 3088 0018 3E       		.uleb128 0x3e
 3089 0019 0B       		.uleb128 0xb
 3090 001a 03       		.uleb128 0x3
 3091 001b 08       		.uleb128 0x8
 3092 001c 00       		.byte	0
 3093 001d 00       		.byte	0
 3094 001e 03       		.uleb128 0x3
 3095 001f 16       		.uleb128 0x16
 3096 0020 00       		.byte	0
 3097 0021 03       		.uleb128 0x3
 3098 0022 0E       		.uleb128 0xe
 3099 0023 3A       		.uleb128 0x3a
 3100 0024 0B       		.uleb128 0xb
 3101 0025 3B       		.uleb128 0x3b
 3102 0026 0B       		.uleb128 0xb
 3103 0027 39       		.uleb128 0x39
 3104 0028 0B       		.uleb128 0xb
 3105 0029 49       		.uleb128 0x49
 3106 002a 13       		.uleb128 0x13
 3107 002b 00       		.byte	0
 3108 002c 00       		.byte	0
 3109 002d 04       		.uleb128 0x4
 3110 002e 24       		.uleb128 0x24
 3111 002f 00       		.byte	0
 3112 0030 0B       		.uleb128 0xb
GAS LISTING /tmp/ccOro4nK.s 			page 57


 3113 0031 0B       		.uleb128 0xb
 3114 0032 3E       		.uleb128 0x3e
 3115 0033 0B       		.uleb128 0xb
 3116 0034 03       		.uleb128 0x3
 3117 0035 0E       		.uleb128 0xe
 3118 0036 00       		.byte	0
 3119 0037 00       		.byte	0
 3120 0038 05       		.uleb128 0x5
 3121 0039 0F       		.uleb128 0xf
 3122 003a 00       		.byte	0
 3123 003b 0B       		.uleb128 0xb
 3124 003c 0B       		.uleb128 0xb
 3125 003d 00       		.byte	0
 3126 003e 00       		.byte	0
 3127 003f 06       		.uleb128 0x6
 3128 0040 26       		.uleb128 0x26
 3129 0041 00       		.byte	0
 3130 0042 49       		.uleb128 0x49
 3131 0043 13       		.uleb128 0x13
 3132 0044 00       		.byte	0
 3133 0045 00       		.byte	0
 3134 0046 07       		.uleb128 0x7
 3135 0047 13       		.uleb128 0x13
 3136 0048 01       		.byte	0x1
 3137 0049 03       		.uleb128 0x3
 3138 004a 0E       		.uleb128 0xe
 3139 004b 0B       		.uleb128 0xb
 3140 004c 0B       		.uleb128 0xb
 3141 004d 3A       		.uleb128 0x3a
 3142 004e 0B       		.uleb128 0xb
 3143 004f 3B       		.uleb128 0x3b
 3144 0050 0B       		.uleb128 0xb
 3145 0051 39       		.uleb128 0x39
 3146 0052 0B       		.uleb128 0xb
 3147 0053 01       		.uleb128 0x1
 3148 0054 13       		.uleb128 0x13
 3149 0055 00       		.byte	0
 3150 0056 00       		.byte	0
 3151 0057 08       		.uleb128 0x8
 3152 0058 0D       		.uleb128 0xd
 3153 0059 00       		.byte	0
 3154 005a 03       		.uleb128 0x3
 3155 005b 0E       		.uleb128 0xe
 3156 005c 3A       		.uleb128 0x3a
 3157 005d 0B       		.uleb128 0xb
 3158 005e 3B       		.uleb128 0x3b
 3159 005f 0B       		.uleb128 0xb
 3160 0060 39       		.uleb128 0x39
 3161 0061 0B       		.uleb128 0xb
 3162 0062 49       		.uleb128 0x49
 3163 0063 13       		.uleb128 0x13
 3164 0064 38       		.uleb128 0x38
 3165 0065 0B       		.uleb128 0xb
 3166 0066 00       		.byte	0
 3167 0067 00       		.byte	0
 3168 0068 09       		.uleb128 0x9
 3169 0069 0D       		.uleb128 0xd
GAS LISTING /tmp/ccOro4nK.s 			page 58


 3170 006a 00       		.byte	0
 3171 006b 03       		.uleb128 0x3
 3172 006c 08       		.uleb128 0x8
 3173 006d 3A       		.uleb128 0x3a
 3174 006e 0B       		.uleb128 0xb
 3175 006f 3B       		.uleb128 0x3b
 3176 0070 0B       		.uleb128 0xb
 3177 0071 39       		.uleb128 0x39
 3178 0072 0B       		.uleb128 0xb
 3179 0073 49       		.uleb128 0x49
 3180 0074 13       		.uleb128 0x13
 3181 0075 38       		.uleb128 0x38
 3182 0076 0B       		.uleb128 0xb
 3183 0077 00       		.byte	0
 3184 0078 00       		.byte	0
 3185 0079 0A       		.uleb128 0xa
 3186 007a 0D       		.uleb128 0xd
 3187 007b 00       		.byte	0
 3188 007c 03       		.uleb128 0x3
 3189 007d 08       		.uleb128 0x8
 3190 007e 3A       		.uleb128 0x3a
 3191 007f 0B       		.uleb128 0xb
 3192 0080 3B       		.uleb128 0x3b
 3193 0081 05       		.uleb128 0x5
 3194 0082 39       		.uleb128 0x39
 3195 0083 0B       		.uleb128 0xb
 3196 0084 49       		.uleb128 0x49
 3197 0085 13       		.uleb128 0x13
 3198 0086 38       		.uleb128 0x38
 3199 0087 0B       		.uleb128 0xb
 3200 0088 00       		.byte	0
 3201 0089 00       		.byte	0
 3202 008a 0B       		.uleb128 0xb
 3203 008b 0D       		.uleb128 0xd
 3204 008c 00       		.byte	0
 3205 008d 03       		.uleb128 0x3
 3206 008e 0E       		.uleb128 0xe
 3207 008f 3A       		.uleb128 0x3a
 3208 0090 0B       		.uleb128 0xb
 3209 0091 3B       		.uleb128 0x3b
 3210 0092 05       		.uleb128 0x5
 3211 0093 39       		.uleb128 0x39
 3212 0094 0B       		.uleb128 0xb
 3213 0095 49       		.uleb128 0x49
 3214 0096 13       		.uleb128 0x13
 3215 0097 38       		.uleb128 0x38
 3216 0098 0B       		.uleb128 0xb
 3217 0099 00       		.byte	0
 3218 009a 00       		.byte	0
 3219 009b 0C       		.uleb128 0xc
 3220 009c 0F       		.uleb128 0xf
 3221 009d 00       		.byte	0
 3222 009e 0B       		.uleb128 0xb
 3223 009f 0B       		.uleb128 0xb
 3224 00a0 49       		.uleb128 0x49
 3225 00a1 13       		.uleb128 0x13
 3226 00a2 00       		.byte	0
GAS LISTING /tmp/ccOro4nK.s 			page 59


 3227 00a3 00       		.byte	0
 3228 00a4 0D       		.uleb128 0xd
 3229 00a5 13       		.uleb128 0x13
 3230 00a6 01       		.byte	0x1
 3231 00a7 03       		.uleb128 0x3
 3232 00a8 0E       		.uleb128 0xe
 3233 00a9 0B       		.uleb128 0xb
 3234 00aa 0B       		.uleb128 0xb
 3235 00ab 3A       		.uleb128 0x3a
 3236 00ac 0B       		.uleb128 0xb
 3237 00ad 3B       		.uleb128 0x3b
 3238 00ae 05       		.uleb128 0x5
 3239 00af 39       		.uleb128 0x39
 3240 00b0 0B       		.uleb128 0xb
 3241 00b1 01       		.uleb128 0x1
 3242 00b2 13       		.uleb128 0x13
 3243 00b3 00       		.byte	0
 3244 00b4 00       		.byte	0
 3245 00b5 0E       		.uleb128 0xe
 3246 00b6 15       		.uleb128 0x15
 3247 00b7 01       		.byte	0x1
 3248 00b8 27       		.uleb128 0x27
 3249 00b9 19       		.uleb128 0x19
 3250 00ba 01       		.uleb128 0x1
 3251 00bb 13       		.uleb128 0x13
 3252 00bc 00       		.byte	0
 3253 00bd 00       		.byte	0
 3254 00be 0F       		.uleb128 0xf
 3255 00bf 05       		.uleb128 0x5
 3256 00c0 00       		.byte	0
 3257 00c1 49       		.uleb128 0x49
 3258 00c2 13       		.uleb128 0x13
 3259 00c3 00       		.byte	0
 3260 00c4 00       		.byte	0
 3261 00c5 10       		.uleb128 0x10
 3262 00c6 35       		.uleb128 0x35
 3263 00c7 00       		.byte	0
 3264 00c8 49       		.uleb128 0x49
 3265 00c9 13       		.uleb128 0x13
 3266 00ca 00       		.byte	0
 3267 00cb 00       		.byte	0
 3268 00cc 11       		.uleb128 0x11
 3269 00cd 13       		.uleb128 0x13
 3270 00ce 01       		.byte	0x1
 3271 00cf 0B       		.uleb128 0xb
 3272 00d0 0B       		.uleb128 0xb
 3273 00d1 3A       		.uleb128 0x3a
 3274 00d2 0B       		.uleb128 0xb
 3275 00d3 3B       		.uleb128 0x3b
 3276 00d4 0B       		.uleb128 0xb
 3277 00d5 39       		.uleb128 0x39
 3278 00d6 0B       		.uleb128 0xb
 3279 00d7 01       		.uleb128 0x1
 3280 00d8 13       		.uleb128 0x13
 3281 00d9 00       		.byte	0
 3282 00da 00       		.byte	0
 3283 00db 12       		.uleb128 0x12
GAS LISTING /tmp/ccOro4nK.s 			page 60


 3284 00dc 01       		.uleb128 0x1
 3285 00dd 01       		.byte	0x1
 3286 00de 49       		.uleb128 0x49
 3287 00df 13       		.uleb128 0x13
 3288 00e0 01       		.uleb128 0x1
 3289 00e1 13       		.uleb128 0x13
 3290 00e2 00       		.byte	0
 3291 00e3 00       		.byte	0
 3292 00e4 13       		.uleb128 0x13
 3293 00e5 21       		.uleb128 0x21
 3294 00e6 00       		.byte	0
 3295 00e7 49       		.uleb128 0x49
 3296 00e8 13       		.uleb128 0x13
 3297 00e9 2F       		.uleb128 0x2f
 3298 00ea 0B       		.uleb128 0xb
 3299 00eb 00       		.byte	0
 3300 00ec 00       		.byte	0
 3301 00ed 14       		.uleb128 0x14
 3302 00ee 16       		.uleb128 0x16
 3303 00ef 00       		.byte	0
 3304 00f0 03       		.uleb128 0x3
 3305 00f1 0E       		.uleb128 0xe
 3306 00f2 3A       		.uleb128 0x3a
 3307 00f3 0B       		.uleb128 0xb
 3308 00f4 3B       		.uleb128 0x3b
 3309 00f5 0B       		.uleb128 0xb
 3310 00f6 39       		.uleb128 0x39
 3311 00f7 0B       		.uleb128 0xb
 3312 00f8 49       		.uleb128 0x49
 3313 00f9 13       		.uleb128 0x13
 3314 00fa 8801     		.uleb128 0x88
 3315 00fc 0B       		.uleb128 0xb
 3316 00fd 00       		.byte	0
 3317 00fe 00       		.byte	0
 3318 00ff 15       		.uleb128 0x15
 3319 0100 34       		.uleb128 0x34
 3320 0101 00       		.byte	0
 3321 0102 03       		.uleb128 0x3
 3322 0103 0E       		.uleb128 0xe
 3323 0104 3A       		.uleb128 0x3a
 3324 0105 0B       		.uleb128 0xb
 3325 0106 3B       		.uleb128 0x3b
 3326 0107 05       		.uleb128 0x5
 3327 0108 39       		.uleb128 0x39
 3328 0109 0B       		.uleb128 0xb
 3329 010a 49       		.uleb128 0x49
 3330 010b 13       		.uleb128 0x13
 3331 010c 3F       		.uleb128 0x3f
 3332 010d 19       		.uleb128 0x19
 3333 010e 3C       		.uleb128 0x3c
 3334 010f 19       		.uleb128 0x19
 3335 0110 00       		.byte	0
 3336 0111 00       		.byte	0
 3337 0112 16       		.uleb128 0x16
 3338 0113 17       		.uleb128 0x17
 3339 0114 01       		.byte	0x1
 3340 0115 0B       		.uleb128 0xb
GAS LISTING /tmp/ccOro4nK.s 			page 61


 3341 0116 0B       		.uleb128 0xb
 3342 0117 3A       		.uleb128 0x3a
 3343 0118 0B       		.uleb128 0xb
 3344 0119 3B       		.uleb128 0x3b
 3345 011a 0B       		.uleb128 0xb
 3346 011b 39       		.uleb128 0x39
 3347 011c 0B       		.uleb128 0xb
 3348 011d 01       		.uleb128 0x1
 3349 011e 13       		.uleb128 0x13
 3350 011f 00       		.byte	0
 3351 0120 00       		.byte	0
 3352 0121 17       		.uleb128 0x17
 3353 0122 0D       		.uleb128 0xd
 3354 0123 00       		.byte	0
 3355 0124 03       		.uleb128 0x3
 3356 0125 0E       		.uleb128 0xe
 3357 0126 3A       		.uleb128 0x3a
 3358 0127 0B       		.uleb128 0xb
 3359 0128 3B       		.uleb128 0x3b
 3360 0129 0B       		.uleb128 0xb
 3361 012a 39       		.uleb128 0x39
 3362 012b 0B       		.uleb128 0xb
 3363 012c 49       		.uleb128 0x49
 3364 012d 13       		.uleb128 0x13
 3365 012e 00       		.byte	0
 3366 012f 00       		.byte	0
 3367 0130 18       		.uleb128 0x18
 3368 0131 0D       		.uleb128 0xd
 3369 0132 00       		.byte	0
 3370 0133 03       		.uleb128 0x3
 3371 0134 0E       		.uleb128 0xe
 3372 0135 3A       		.uleb128 0x3a
 3373 0136 0B       		.uleb128 0xb
 3374 0137 3B       		.uleb128 0x3b
 3375 0138 05       		.uleb128 0x5
 3376 0139 39       		.uleb128 0x39
 3377 013a 0B       		.uleb128 0xb
 3378 013b 49       		.uleb128 0x49
 3379 013c 13       		.uleb128 0x13
 3380 013d 00       		.byte	0
 3381 013e 00       		.byte	0
 3382 013f 19       		.uleb128 0x19
 3383 0140 34       		.uleb128 0x34
 3384 0141 00       		.byte	0
 3385 0142 03       		.uleb128 0x3
 3386 0143 08       		.uleb128 0x8
 3387 0144 3A       		.uleb128 0x3a
 3388 0145 0B       		.uleb128 0xb
 3389 0146 3B       		.uleb128 0x3b
 3390 0147 05       		.uleb128 0x5
 3391 0148 39       		.uleb128 0x39
 3392 0149 0B       		.uleb128 0xb
 3393 014a 49       		.uleb128 0x49
 3394 014b 13       		.uleb128 0x13
 3395 014c 3F       		.uleb128 0x3f
 3396 014d 19       		.uleb128 0x19
 3397 014e 3C       		.uleb128 0x3c
GAS LISTING /tmp/ccOro4nK.s 			page 62


 3398 014f 19       		.uleb128 0x19
 3399 0150 00       		.byte	0
 3400 0151 00       		.byte	0
 3401 0152 1A       		.uleb128 0x1a
 3402 0153 01       		.uleb128 0x1
 3403 0154 01       		.byte	0x1
 3404 0155 49       		.uleb128 0x49
 3405 0156 13       		.uleb128 0x13
 3406 0157 8801     		.uleb128 0x88
 3407 0159 0B       		.uleb128 0xb
 3408 015a 01       		.uleb128 0x1
 3409 015b 13       		.uleb128 0x13
 3410 015c 00       		.byte	0
 3411 015d 00       		.byte	0
 3412 015e 1B       		.uleb128 0x1b
 3413 015f 21       		.uleb128 0x21
 3414 0160 00       		.byte	0
 3415 0161 00       		.byte	0
 3416 0162 00       		.byte	0
 3417 0163 1C       		.uleb128 0x1c
 3418 0164 34       		.uleb128 0x34
 3419 0165 00       		.byte	0
 3420 0166 03       		.uleb128 0x3
 3421 0167 0E       		.uleb128 0xe
 3422 0168 3A       		.uleb128 0x3a
 3423 0169 0B       		.uleb128 0xb
 3424 016a 3B       		.uleb128 0x3b
 3425 016b 0B       		.uleb128 0xb
 3426 016c 39       		.uleb128 0x39
 3427 016d 0B       		.uleb128 0xb
 3428 016e 49       		.uleb128 0x49
 3429 016f 13       		.uleb128 0x13
 3430 0170 3F       		.uleb128 0x3f
 3431 0171 19       		.uleb128 0x19
 3432 0172 3C       		.uleb128 0x3c
 3433 0173 19       		.uleb128 0x19
 3434 0174 00       		.byte	0
 3435 0175 00       		.byte	0
 3436 0176 1D       		.uleb128 0x1d
 3437 0177 15       		.uleb128 0x15
 3438 0178 01       		.byte	0x1
 3439 0179 27       		.uleb128 0x27
 3440 017a 19       		.uleb128 0x19
 3441 017b 49       		.uleb128 0x49
 3442 017c 13       		.uleb128 0x13
 3443 017d 01       		.uleb128 0x1
 3444 017e 13       		.uleb128 0x13
 3445 017f 00       		.byte	0
 3446 0180 00       		.byte	0
 3447 0181 1E       		.uleb128 0x1e
 3448 0182 16       		.uleb128 0x16
 3449 0183 00       		.byte	0
 3450 0184 03       		.uleb128 0x3
 3451 0185 0E       		.uleb128 0xe
 3452 0186 3A       		.uleb128 0x3a
 3453 0187 0B       		.uleb128 0xb
 3454 0188 3B       		.uleb128 0x3b
GAS LISTING /tmp/ccOro4nK.s 			page 63


 3455 0189 05       		.uleb128 0x5
 3456 018a 39       		.uleb128 0x39
 3457 018b 0B       		.uleb128 0xb
 3458 018c 49       		.uleb128 0x49
 3459 018d 13       		.uleb128 0x13
 3460 018e 00       		.byte	0
 3461 018f 00       		.byte	0
 3462 0190 1F       		.uleb128 0x1f
 3463 0191 34       		.uleb128 0x34
 3464 0192 00       		.byte	0
 3465 0193 47       		.uleb128 0x47
 3466 0194 13       		.uleb128 0x13
 3467 0195 3A       		.uleb128 0x3a
 3468 0196 0B       		.uleb128 0xb
 3469 0197 3B       		.uleb128 0x3b
 3470 0198 0B       		.uleb128 0xb
 3471 0199 39       		.uleb128 0x39
 3472 019a 0B       		.uleb128 0xb
 3473 019b 02       		.uleb128 0x2
 3474 019c 18       		.uleb128 0x18
 3475 019d 00       		.byte	0
 3476 019e 00       		.byte	0
 3477 019f 20       		.uleb128 0x20
 3478 01a0 2E       		.uleb128 0x2e
 3479 01a1 01       		.byte	0x1
 3480 01a2 3F       		.uleb128 0x3f
 3481 01a3 19       		.uleb128 0x19
 3482 01a4 03       		.uleb128 0x3
 3483 01a5 0E       		.uleb128 0xe
 3484 01a6 3A       		.uleb128 0x3a
 3485 01a7 0B       		.uleb128 0xb
 3486 01a8 3B       		.uleb128 0x3b
 3487 01a9 05       		.uleb128 0x5
 3488 01aa 39       		.uleb128 0x39
 3489 01ab 0B       		.uleb128 0xb
 3490 01ac 27       		.uleb128 0x27
 3491 01ad 19       		.uleb128 0x19
 3492 01ae 11       		.uleb128 0x11
 3493 01af 01       		.uleb128 0x1
 3494 01b0 12       		.uleb128 0x12
 3495 01b1 06       		.uleb128 0x6
 3496 01b2 40       		.uleb128 0x40
 3497 01b3 18       		.uleb128 0x18
 3498 01b4 9742     		.uleb128 0x2117
 3499 01b6 19       		.uleb128 0x19
 3500 01b7 01       		.uleb128 0x1
 3501 01b8 13       		.uleb128 0x13
 3502 01b9 00       		.byte	0
 3503 01ba 00       		.byte	0
 3504 01bb 21       		.uleb128 0x21
 3505 01bc 05       		.uleb128 0x5
 3506 01bd 00       		.byte	0
 3507 01be 03       		.uleb128 0x3
 3508 01bf 0E       		.uleb128 0xe
 3509 01c0 3A       		.uleb128 0x3a
 3510 01c1 0B       		.uleb128 0xb
 3511 01c2 3B       		.uleb128 0x3b
GAS LISTING /tmp/ccOro4nK.s 			page 64


 3512 01c3 05       		.uleb128 0x5
 3513 01c4 39       		.uleb128 0x39
 3514 01c5 0B       		.uleb128 0xb
 3515 01c6 49       		.uleb128 0x49
 3516 01c7 13       		.uleb128 0x13
 3517 01c8 02       		.uleb128 0x2
 3518 01c9 18       		.uleb128 0x18
 3519 01ca 00       		.byte	0
 3520 01cb 00       		.byte	0
 3521 01cc 22       		.uleb128 0x22
 3522 01cd 34       		.uleb128 0x34
 3523 01ce 00       		.byte	0
 3524 01cf 03       		.uleb128 0x3
 3525 01d0 0E       		.uleb128 0xe
 3526 01d1 3A       		.uleb128 0x3a
 3527 01d2 0B       		.uleb128 0xb
 3528 01d3 3B       		.uleb128 0x3b
 3529 01d4 05       		.uleb128 0x5
 3530 01d5 39       		.uleb128 0x39
 3531 01d6 0B       		.uleb128 0xb
 3532 01d7 49       		.uleb128 0x49
 3533 01d8 13       		.uleb128 0x13
 3534 01d9 02       		.uleb128 0x2
 3535 01da 17       		.uleb128 0x17
 3536 01db B742     		.uleb128 0x2137
 3537 01dd 17       		.uleb128 0x17
 3538 01de 00       		.byte	0
 3539 01df 00       		.byte	0
 3540 01e0 23       		.uleb128 0x23
 3541 01e1 34       		.uleb128 0x34
 3542 01e2 00       		.byte	0
 3543 01e3 03       		.uleb128 0x3
 3544 01e4 08       		.uleb128 0x8
 3545 01e5 3A       		.uleb128 0x3a
 3546 01e6 0B       		.uleb128 0xb
 3547 01e7 3B       		.uleb128 0x3b
 3548 01e8 05       		.uleb128 0x5
 3549 01e9 39       		.uleb128 0x39
 3550 01ea 0B       		.uleb128 0xb
 3551 01eb 49       		.uleb128 0x49
 3552 01ec 13       		.uleb128 0x13
 3553 01ed 02       		.uleb128 0x2
 3554 01ee 17       		.uleb128 0x17
 3555 01ef B742     		.uleb128 0x2137
 3556 01f1 17       		.uleb128 0x17
 3557 01f2 00       		.byte	0
 3558 01f3 00       		.byte	0
 3559 01f4 24       		.uleb128 0x24
 3560 01f5 1D       		.uleb128 0x1d
 3561 01f6 01       		.byte	0x1
 3562 01f7 31       		.uleb128 0x31
 3563 01f8 13       		.uleb128 0x13
 3564 01f9 52       		.uleb128 0x52
 3565 01fa 01       		.uleb128 0x1
 3566 01fb B842     		.uleb128 0x2138
 3567 01fd 0B       		.uleb128 0xb
 3568 01fe 11       		.uleb128 0x11
GAS LISTING /tmp/ccOro4nK.s 			page 65


 3569 01ff 01       		.uleb128 0x1
 3570 0200 12       		.uleb128 0x12
 3571 0201 06       		.uleb128 0x6
 3572 0202 58       		.uleb128 0x58
 3573 0203 0B       		.uleb128 0xb
 3574 0204 59       		.uleb128 0x59
 3575 0205 05       		.uleb128 0x5
 3576 0206 57       		.uleb128 0x57
 3577 0207 0B       		.uleb128 0xb
 3578 0208 01       		.uleb128 0x1
 3579 0209 13       		.uleb128 0x13
 3580 020a 00       		.byte	0
 3581 020b 00       		.byte	0
 3582 020c 25       		.uleb128 0x25
 3583 020d 05       		.uleb128 0x5
 3584 020e 00       		.byte	0
 3585 020f 31       		.uleb128 0x31
 3586 0210 13       		.uleb128 0x13
 3587 0211 02       		.uleb128 0x2
 3588 0212 17       		.uleb128 0x17
 3589 0213 B742     		.uleb128 0x2137
 3590 0215 17       		.uleb128 0x17
 3591 0216 00       		.byte	0
 3592 0217 00       		.byte	0
 3593 0218 26       		.uleb128 0x26
 3594 0219 898201   		.uleb128 0x4109
 3595 021c 00       		.byte	0
 3596 021d 11       		.uleb128 0x11
 3597 021e 01       		.uleb128 0x1
 3598 021f 31       		.uleb128 0x31
 3599 0220 13       		.uleb128 0x13
 3600 0221 00       		.byte	0
 3601 0222 00       		.byte	0
 3602 0223 27       		.uleb128 0x27
 3603 0224 2E       		.uleb128 0x2e
 3604 0225 01       		.byte	0x1
 3605 0226 3F       		.uleb128 0x3f
 3606 0227 19       		.uleb128 0x19
 3607 0228 03       		.uleb128 0x3
 3608 0229 0E       		.uleb128 0xe
 3609 022a 3A       		.uleb128 0x3a
 3610 022b 0B       		.uleb128 0xb
 3611 022c 3B       		.uleb128 0x3b
 3612 022d 05       		.uleb128 0x5
 3613 022e 39       		.uleb128 0x39
 3614 022f 0B       		.uleb128 0xb
 3615 0230 27       		.uleb128 0x27
 3616 0231 19       		.uleb128 0x19
 3617 0232 49       		.uleb128 0x49
 3618 0233 13       		.uleb128 0x13
 3619 0234 20       		.uleb128 0x20
 3620 0235 0B       		.uleb128 0xb
 3621 0236 01       		.uleb128 0x1
 3622 0237 13       		.uleb128 0x13
 3623 0238 00       		.byte	0
 3624 0239 00       		.byte	0
 3625 023a 28       		.uleb128 0x28
GAS LISTING /tmp/ccOro4nK.s 			page 66


 3626 023b 05       		.uleb128 0x5
 3627 023c 00       		.byte	0
 3628 023d 03       		.uleb128 0x3
 3629 023e 08       		.uleb128 0x8
 3630 023f 3A       		.uleb128 0x3a
 3631 0240 0B       		.uleb128 0xb
 3632 0241 3B       		.uleb128 0x3b
 3633 0242 05       		.uleb128 0x5
 3634 0243 39       		.uleb128 0x39
 3635 0244 0B       		.uleb128 0xb
 3636 0245 49       		.uleb128 0x49
 3637 0246 13       		.uleb128 0x13
 3638 0247 00       		.byte	0
 3639 0248 00       		.byte	0
 3640 0249 29       		.uleb128 0x29
 3641 024a 05       		.uleb128 0x5
 3642 024b 00       		.byte	0
 3643 024c 03       		.uleb128 0x3
 3644 024d 0E       		.uleb128 0xe
 3645 024e 3A       		.uleb128 0x3a
 3646 024f 0B       		.uleb128 0xb
 3647 0250 3B       		.uleb128 0x3b
 3648 0251 05       		.uleb128 0x5
 3649 0252 39       		.uleb128 0x39
 3650 0253 0B       		.uleb128 0xb
 3651 0254 49       		.uleb128 0x49
 3652 0255 13       		.uleb128 0x13
 3653 0256 00       		.byte	0
 3654 0257 00       		.byte	0
 3655 0258 2A       		.uleb128 0x2a
 3656 0259 05       		.uleb128 0x5
 3657 025a 00       		.byte	0
 3658 025b 03       		.uleb128 0x3
 3659 025c 08       		.uleb128 0x8
 3660 025d 3A       		.uleb128 0x3a
 3661 025e 0B       		.uleb128 0xb
 3662 025f 3B       		.uleb128 0x3b
 3663 0260 05       		.uleb128 0x5
 3664 0261 39       		.uleb128 0x39
 3665 0262 0B       		.uleb128 0xb
 3666 0263 49       		.uleb128 0x49
 3667 0264 13       		.uleb128 0x13
 3668 0265 02       		.uleb128 0x2
 3669 0266 18       		.uleb128 0x18
 3670 0267 00       		.byte	0
 3671 0268 00       		.byte	0
 3672 0269 2B       		.uleb128 0x2b
 3673 026a 1D       		.uleb128 0x1d
 3674 026b 00       		.byte	0
 3675 026c 31       		.uleb128 0x31
 3676 026d 13       		.uleb128 0x13
 3677 026e 52       		.uleb128 0x52
 3678 026f 01       		.uleb128 0x1
 3679 0270 B842     		.uleb128 0x2138
 3680 0272 0B       		.uleb128 0xb
 3681 0273 11       		.uleb128 0x11
 3682 0274 01       		.uleb128 0x1
GAS LISTING /tmp/ccOro4nK.s 			page 67


 3683 0275 12       		.uleb128 0x12
 3684 0276 06       		.uleb128 0x6
 3685 0277 58       		.uleb128 0x58
 3686 0278 0B       		.uleb128 0xb
 3687 0279 59       		.uleb128 0x59
 3688 027a 05       		.uleb128 0x5
 3689 027b 57       		.uleb128 0x57
 3690 027c 0B       		.uleb128 0xb
 3691 027d 00       		.byte	0
 3692 027e 00       		.byte	0
 3693 027f 2C       		.uleb128 0x2c
 3694 0280 1D       		.uleb128 0x1d
 3695 0281 01       		.byte	0x1
 3696 0282 31       		.uleb128 0x31
 3697 0283 13       		.uleb128 0x13
 3698 0284 52       		.uleb128 0x52
 3699 0285 01       		.uleb128 0x1
 3700 0286 B842     		.uleb128 0x2138
 3701 0288 0B       		.uleb128 0xb
 3702 0289 55       		.uleb128 0x55
 3703 028a 17       		.uleb128 0x17
 3704 028b 58       		.uleb128 0x58
 3705 028c 0B       		.uleb128 0xb
 3706 028d 59       		.uleb128 0x59
 3707 028e 05       		.uleb128 0x5
 3708 028f 57       		.uleb128 0x57
 3709 0290 0B       		.uleb128 0xb
 3710 0291 01       		.uleb128 0x1
 3711 0292 13       		.uleb128 0x13
 3712 0293 00       		.byte	0
 3713 0294 00       		.byte	0
 3714 0295 2D       		.uleb128 0x2d
 3715 0296 0B       		.uleb128 0xb
 3716 0297 01       		.byte	0x1
 3717 0298 55       		.uleb128 0x55
 3718 0299 17       		.uleb128 0x17
 3719 029a 00       		.byte	0
 3720 029b 00       		.byte	0
 3721 029c 2E       		.uleb128 0x2e
 3722 029d 1D       		.uleb128 0x1d
 3723 029e 00       		.byte	0
 3724 029f 31       		.uleb128 0x31
 3725 02a0 13       		.uleb128 0x13
 3726 02a1 52       		.uleb128 0x52
 3727 02a2 01       		.uleb128 0x1
 3728 02a3 B842     		.uleb128 0x2138
 3729 02a5 0B       		.uleb128 0xb
 3730 02a6 55       		.uleb128 0x55
 3731 02a7 17       		.uleb128 0x17
 3732 02a8 58       		.uleb128 0x58
 3733 02a9 0B       		.uleb128 0xb
 3734 02aa 59       		.uleb128 0x59
 3735 02ab 05       		.uleb128 0x5
 3736 02ac 57       		.uleb128 0x57
 3737 02ad 0B       		.uleb128 0xb
 3738 02ae 00       		.byte	0
 3739 02af 00       		.byte	0
GAS LISTING /tmp/ccOro4nK.s 			page 68


 3740 02b0 2F       		.uleb128 0x2f
 3741 02b1 2E       		.uleb128 0x2e
 3742 02b2 01       		.byte	0x1
 3743 02b3 3F       		.uleb128 0x3f
 3744 02b4 19       		.uleb128 0x19
 3745 02b5 03       		.uleb128 0x3
 3746 02b6 0E       		.uleb128 0xe
 3747 02b7 3A       		.uleb128 0x3a
 3748 02b8 0B       		.uleb128 0xb
 3749 02b9 3B       		.uleb128 0x3b
 3750 02ba 05       		.uleb128 0x5
 3751 02bb 39       		.uleb128 0x39
 3752 02bc 0B       		.uleb128 0xb
 3753 02bd 27       		.uleb128 0x27
 3754 02be 19       		.uleb128 0x19
 3755 02bf 49       		.uleb128 0x49
 3756 02c0 13       		.uleb128 0x13
 3757 02c1 11       		.uleb128 0x11
 3758 02c2 01       		.uleb128 0x1
 3759 02c3 12       		.uleb128 0x12
 3760 02c4 06       		.uleb128 0x6
 3761 02c5 40       		.uleb128 0x40
 3762 02c6 18       		.uleb128 0x18
 3763 02c7 9742     		.uleb128 0x2117
 3764 02c9 19       		.uleb128 0x19
 3765 02ca 01       		.uleb128 0x1
 3766 02cb 13       		.uleb128 0x13
 3767 02cc 00       		.byte	0
 3768 02cd 00       		.byte	0
 3769 02ce 30       		.uleb128 0x30
 3770 02cf 1D       		.uleb128 0x1d
 3771 02d0 01       		.byte	0x1
 3772 02d1 31       		.uleb128 0x31
 3773 02d2 13       		.uleb128 0x13
 3774 02d3 52       		.uleb128 0x52
 3775 02d4 01       		.uleb128 0x1
 3776 02d5 B842     		.uleb128 0x2138
 3777 02d7 0B       		.uleb128 0xb
 3778 02d8 55       		.uleb128 0x55
 3779 02d9 17       		.uleb128 0x17
 3780 02da 58       		.uleb128 0x58
 3781 02db 0B       		.uleb128 0xb
 3782 02dc 59       		.uleb128 0x59
 3783 02dd 05       		.uleb128 0x5
 3784 02de 57       		.uleb128 0x57
 3785 02df 0B       		.uleb128 0xb
 3786 02e0 00       		.byte	0
 3787 02e1 00       		.byte	0
 3788 02e2 31       		.uleb128 0x31
 3789 02e3 2E       		.uleb128 0x2e
 3790 02e4 01       		.byte	0x1
 3791 02e5 3F       		.uleb128 0x3f
 3792 02e6 19       		.uleb128 0x19
 3793 02e7 03       		.uleb128 0x3
 3794 02e8 0E       		.uleb128 0xe
 3795 02e9 3A       		.uleb128 0x3a
 3796 02ea 0B       		.uleb128 0xb
GAS LISTING /tmp/ccOro4nK.s 			page 69


 3797 02eb 3B       		.uleb128 0x3b
 3798 02ec 05       		.uleb128 0x5
 3799 02ed 39       		.uleb128 0x39
 3800 02ee 0B       		.uleb128 0xb
 3801 02ef 27       		.uleb128 0x27
 3802 02f0 19       		.uleb128 0x19
 3803 02f1 11       		.uleb128 0x11
 3804 02f2 01       		.uleb128 0x1
 3805 02f3 12       		.uleb128 0x12
 3806 02f4 06       		.uleb128 0x6
 3807 02f5 40       		.uleb128 0x40
 3808 02f6 18       		.uleb128 0x18
 3809 02f7 9642     		.uleb128 0x2116
 3810 02f9 19       		.uleb128 0x19
 3811 02fa 01       		.uleb128 0x1
 3812 02fb 13       		.uleb128 0x13
 3813 02fc 00       		.byte	0
 3814 02fd 00       		.byte	0
 3815 02fe 32       		.uleb128 0x32
 3816 02ff 0B       		.uleb128 0xb
 3817 0300 01       		.byte	0x1
 3818 0301 31       		.uleb128 0x31
 3819 0302 13       		.uleb128 0x13
 3820 0303 55       		.uleb128 0x55
 3821 0304 17       		.uleb128 0x17
 3822 0305 00       		.byte	0
 3823 0306 00       		.byte	0
 3824 0307 33       		.uleb128 0x33
 3825 0308 34       		.uleb128 0x34
 3826 0309 00       		.byte	0
 3827 030a 31       		.uleb128 0x31
 3828 030b 13       		.uleb128 0x13
 3829 030c 02       		.uleb128 0x2
 3830 030d 17       		.uleb128 0x17
 3831 030e B742     		.uleb128 0x2137
 3832 0310 17       		.uleb128 0x17
 3833 0311 00       		.byte	0
 3834 0312 00       		.byte	0
 3835 0313 34       		.uleb128 0x34
 3836 0314 2E       		.uleb128 0x2e
 3837 0315 01       		.byte	0x1
 3838 0316 3F       		.uleb128 0x3f
 3839 0317 19       		.uleb128 0x19
 3840 0318 03       		.uleb128 0x3
 3841 0319 0E       		.uleb128 0xe
 3842 031a 3A       		.uleb128 0x3a
 3843 031b 0B       		.uleb128 0xb
 3844 031c 3B       		.uleb128 0x3b
 3845 031d 0B       		.uleb128 0xb
 3846 031e 39       		.uleb128 0x39
 3847 031f 0B       		.uleb128 0xb
 3848 0320 27       		.uleb128 0x27
 3849 0321 19       		.uleb128 0x19
 3850 0322 49       		.uleb128 0x49
 3851 0323 13       		.uleb128 0x13
 3852 0324 11       		.uleb128 0x11
 3853 0325 01       		.uleb128 0x1
GAS LISTING /tmp/ccOro4nK.s 			page 70


 3854 0326 12       		.uleb128 0x12
 3855 0327 06       		.uleb128 0x6
 3856 0328 40       		.uleb128 0x40
 3857 0329 18       		.uleb128 0x18
 3858 032a 9742     		.uleb128 0x2117
 3859 032c 19       		.uleb128 0x19
 3860 032d 01       		.uleb128 0x1
 3861 032e 13       		.uleb128 0x13
 3862 032f 00       		.byte	0
 3863 0330 00       		.byte	0
 3864 0331 35       		.uleb128 0x35
 3865 0332 05       		.uleb128 0x5
 3866 0333 00       		.byte	0
 3867 0334 03       		.uleb128 0x3
 3868 0335 0E       		.uleb128 0xe
 3869 0336 3A       		.uleb128 0x3a
 3870 0337 0B       		.uleb128 0xb
 3871 0338 3B       		.uleb128 0x3b
 3872 0339 0B       		.uleb128 0xb
 3873 033a 39       		.uleb128 0x39
 3874 033b 0B       		.uleb128 0xb
 3875 033c 49       		.uleb128 0x49
 3876 033d 13       		.uleb128 0x13
 3877 033e 02       		.uleb128 0x2
 3878 033f 17       		.uleb128 0x17
 3879 0340 B742     		.uleb128 0x2137
 3880 0342 17       		.uleb128 0x17
 3881 0343 00       		.byte	0
 3882 0344 00       		.byte	0
 3883 0345 36       		.uleb128 0x36
 3884 0346 34       		.uleb128 0x34
 3885 0347 00       		.byte	0
 3886 0348 03       		.uleb128 0x3
 3887 0349 08       		.uleb128 0x8
 3888 034a 3A       		.uleb128 0x3a
 3889 034b 0B       		.uleb128 0xb
 3890 034c 3B       		.uleb128 0x3b
 3891 034d 0B       		.uleb128 0xb
 3892 034e 39       		.uleb128 0x39
 3893 034f 0B       		.uleb128 0xb
 3894 0350 49       		.uleb128 0x49
 3895 0351 13       		.uleb128 0x13
 3896 0352 02       		.uleb128 0x2
 3897 0353 17       		.uleb128 0x17
 3898 0354 B742     		.uleb128 0x2137
 3899 0356 17       		.uleb128 0x17
 3900 0357 00       		.byte	0
 3901 0358 00       		.byte	0
 3902 0359 37       		.uleb128 0x37
 3903 035a 0B       		.uleb128 0xb
 3904 035b 01       		.byte	0x1
 3905 035c 55       		.uleb128 0x55
 3906 035d 17       		.uleb128 0x17
 3907 035e 01       		.uleb128 0x1
 3908 035f 13       		.uleb128 0x13
 3909 0360 00       		.byte	0
 3910 0361 00       		.byte	0
GAS LISTING /tmp/ccOro4nK.s 			page 71


 3911 0362 38       		.uleb128 0x38
 3912 0363 0B       		.uleb128 0xb
 3913 0364 01       		.byte	0x1
 3914 0365 11       		.uleb128 0x11
 3915 0366 01       		.uleb128 0x1
 3916 0367 12       		.uleb128 0x12
 3917 0368 06       		.uleb128 0x6
 3918 0369 00       		.byte	0
 3919 036a 00       		.byte	0
 3920 036b 39       		.uleb128 0x39
 3921 036c 2E       		.uleb128 0x2e
 3922 036d 01       		.byte	0x1
 3923 036e 3F       		.uleb128 0x3f
 3924 036f 19       		.uleb128 0x19
 3925 0370 03       		.uleb128 0x3
 3926 0371 0E       		.uleb128 0xe
 3927 0372 3A       		.uleb128 0x3a
 3928 0373 0B       		.uleb128 0xb
 3929 0374 3B       		.uleb128 0x3b
 3930 0375 0B       		.uleb128 0xb
 3931 0376 39       		.uleb128 0x39
 3932 0377 0B       		.uleb128 0xb
 3933 0378 27       		.uleb128 0x27
 3934 0379 19       		.uleb128 0x19
 3935 037a 11       		.uleb128 0x11
 3936 037b 01       		.uleb128 0x1
 3937 037c 12       		.uleb128 0x12
 3938 037d 06       		.uleb128 0x6
 3939 037e 40       		.uleb128 0x40
 3940 037f 18       		.uleb128 0x18
 3941 0380 9742     		.uleb128 0x2117
 3942 0382 19       		.uleb128 0x19
 3943 0383 01       		.uleb128 0x1
 3944 0384 13       		.uleb128 0x13
 3945 0385 00       		.byte	0
 3946 0386 00       		.byte	0
 3947 0387 3A       		.uleb128 0x3a
 3948 0388 05       		.uleb128 0x5
 3949 0389 00       		.byte	0
 3950 038a 03       		.uleb128 0x3
 3951 038b 0E       		.uleb128 0xe
 3952 038c 3A       		.uleb128 0x3a
 3953 038d 0B       		.uleb128 0xb
 3954 038e 3B       		.uleb128 0x3b
 3955 038f 0B       		.uleb128 0xb
 3956 0390 39       		.uleb128 0x39
 3957 0391 0B       		.uleb128 0xb
 3958 0392 49       		.uleb128 0x49
 3959 0393 13       		.uleb128 0x13
 3960 0394 02       		.uleb128 0x2
 3961 0395 18       		.uleb128 0x18
 3962 0396 00       		.byte	0
 3963 0397 00       		.byte	0
 3964 0398 3B       		.uleb128 0x3b
 3965 0399 1D       		.uleb128 0x1d
 3966 039a 00       		.byte	0
 3967 039b 31       		.uleb128 0x31
GAS LISTING /tmp/ccOro4nK.s 			page 72


 3968 039c 13       		.uleb128 0x13
 3969 039d 52       		.uleb128 0x52
 3970 039e 01       		.uleb128 0x1
 3971 039f B842     		.uleb128 0x2138
 3972 03a1 0B       		.uleb128 0xb
 3973 03a2 55       		.uleb128 0x55
 3974 03a3 17       		.uleb128 0x17
 3975 03a4 58       		.uleb128 0x58
 3976 03a5 0B       		.uleb128 0xb
 3977 03a6 59       		.uleb128 0x59
 3978 03a7 0B       		.uleb128 0xb
 3979 03a8 57       		.uleb128 0x57
 3980 03a9 0B       		.uleb128 0xb
 3981 03aa 00       		.byte	0
 3982 03ab 00       		.byte	0
 3983 03ac 3C       		.uleb128 0x3c
 3984 03ad 0B       		.uleb128 0xb
 3985 03ae 01       		.byte	0x1
 3986 03af 11       		.uleb128 0x11
 3987 03b0 01       		.uleb128 0x1
 3988 03b1 12       		.uleb128 0x12
 3989 03b2 06       		.uleb128 0x6
 3990 03b3 01       		.uleb128 0x1
 3991 03b4 13       		.uleb128 0x13
 3992 03b5 00       		.byte	0
 3993 03b6 00       		.byte	0
 3994 03b7 3D       		.uleb128 0x3d
 3995 03b8 34       		.uleb128 0x34
 3996 03b9 00       		.byte	0
 3997 03ba 03       		.uleb128 0x3
 3998 03bb 0E       		.uleb128 0xe
 3999 03bc 3A       		.uleb128 0x3a
 4000 03bd 0B       		.uleb128 0xb
 4001 03be 3B       		.uleb128 0x3b
 4002 03bf 0B       		.uleb128 0xb
 4003 03c0 39       		.uleb128 0x39
 4004 03c1 0B       		.uleb128 0xb
 4005 03c2 49       		.uleb128 0x49
 4006 03c3 13       		.uleb128 0x13
 4007 03c4 02       		.uleb128 0x2
 4008 03c5 18       		.uleb128 0x18
 4009 03c6 00       		.byte	0
 4010 03c7 00       		.byte	0
 4011 03c8 3E       		.uleb128 0x3e
 4012 03c9 1D       		.uleb128 0x1d
 4013 03ca 00       		.byte	0
 4014 03cb 31       		.uleb128 0x31
 4015 03cc 13       		.uleb128 0x13
 4016 03cd 52       		.uleb128 0x52
 4017 03ce 01       		.uleb128 0x1
 4018 03cf B842     		.uleb128 0x2138
 4019 03d1 0B       		.uleb128 0xb
 4020 03d2 11       		.uleb128 0x11
 4021 03d3 01       		.uleb128 0x1
 4022 03d4 12       		.uleb128 0x12
 4023 03d5 06       		.uleb128 0x6
 4024 03d6 58       		.uleb128 0x58
GAS LISTING /tmp/ccOro4nK.s 			page 73


 4025 03d7 0B       		.uleb128 0xb
 4026 03d8 59       		.uleb128 0x59
 4027 03d9 0B       		.uleb128 0xb
 4028 03da 57       		.uleb128 0x57
 4029 03db 0B       		.uleb128 0xb
 4030 03dc 00       		.byte	0
 4031 03dd 00       		.byte	0
 4032 03de 3F       		.uleb128 0x3f
 4033 03df 2E       		.uleb128 0x2e
 4034 03e0 01       		.byte	0x1
 4035 03e1 03       		.uleb128 0x3
 4036 03e2 0E       		.uleb128 0xe
 4037 03e3 3A       		.uleb128 0x3a
 4038 03e4 0B       		.uleb128 0xb
 4039 03e5 3B       		.uleb128 0x3b
 4040 03e6 0B       		.uleb128 0xb
 4041 03e7 39       		.uleb128 0x39
 4042 03e8 0B       		.uleb128 0xb
 4043 03e9 27       		.uleb128 0x27
 4044 03ea 19       		.uleb128 0x19
 4045 03eb 11       		.uleb128 0x11
 4046 03ec 01       		.uleb128 0x1
 4047 03ed 12       		.uleb128 0x12
 4048 03ee 06       		.uleb128 0x6
 4049 03ef 40       		.uleb128 0x40
 4050 03f0 18       		.uleb128 0x18
 4051 03f1 9742     		.uleb128 0x2117
 4052 03f3 19       		.uleb128 0x19
 4053 03f4 01       		.uleb128 0x1
 4054 03f5 13       		.uleb128 0x13
 4055 03f6 00       		.byte	0
 4056 03f7 00       		.byte	0
 4057 03f8 40       		.uleb128 0x40
 4058 03f9 05       		.uleb128 0x5
 4059 03fa 00       		.byte	0
 4060 03fb 03       		.uleb128 0x3
 4061 03fc 08       		.uleb128 0x8
 4062 03fd 3A       		.uleb128 0x3a
 4063 03fe 0B       		.uleb128 0xb
 4064 03ff 3B       		.uleb128 0x3b
 4065 0400 0B       		.uleb128 0xb
 4066 0401 39       		.uleb128 0x39
 4067 0402 0B       		.uleb128 0xb
 4068 0403 49       		.uleb128 0x49
 4069 0404 13       		.uleb128 0x13
 4070 0405 02       		.uleb128 0x2
 4071 0406 18       		.uleb128 0x18
 4072 0407 00       		.byte	0
 4073 0408 00       		.byte	0
 4074 0409 41       		.uleb128 0x41
 4075 040a 1D       		.uleb128 0x1d
 4076 040b 01       		.byte	0x1
 4077 040c 31       		.uleb128 0x31
 4078 040d 13       		.uleb128 0x13
 4079 040e 52       		.uleb128 0x52
 4080 040f 01       		.uleb128 0x1
 4081 0410 B842     		.uleb128 0x2138
GAS LISTING /tmp/ccOro4nK.s 			page 74


 4082 0412 0B       		.uleb128 0xb
 4083 0413 11       		.uleb128 0x11
 4084 0414 01       		.uleb128 0x1
 4085 0415 12       		.uleb128 0x12
 4086 0416 06       		.uleb128 0x6
 4087 0417 58       		.uleb128 0x58
 4088 0418 0B       		.uleb128 0xb
 4089 0419 59       		.uleb128 0x59
 4090 041a 0B       		.uleb128 0xb
 4091 041b 57       		.uleb128 0x57
 4092 041c 0B       		.uleb128 0xb
 4093 041d 00       		.byte	0
 4094 041e 00       		.byte	0
 4095 041f 42       		.uleb128 0x42
 4096 0420 2E       		.uleb128 0x2e
 4097 0421 01       		.byte	0x1
 4098 0422 03       		.uleb128 0x3
 4099 0423 0E       		.uleb128 0xe
 4100 0424 3A       		.uleb128 0x3a
 4101 0425 0B       		.uleb128 0xb
 4102 0426 3B       		.uleb128 0x3b
 4103 0427 05       		.uleb128 0x5
 4104 0428 39       		.uleb128 0x39
 4105 0429 0B       		.uleb128 0xb
 4106 042a 27       		.uleb128 0x27
 4107 042b 19       		.uleb128 0x19
 4108 042c 20       		.uleb128 0x20
 4109 042d 0B       		.uleb128 0xb
 4110 042e 01       		.uleb128 0x1
 4111 042f 13       		.uleb128 0x13
 4112 0430 00       		.byte	0
 4113 0431 00       		.byte	0
 4114 0432 43       		.uleb128 0x43
 4115 0433 0B       		.uleb128 0xb
 4116 0434 01       		.byte	0x1
 4117 0435 00       		.byte	0
 4118 0436 00       		.byte	0
 4119 0437 44       		.uleb128 0x44
 4120 0438 34       		.uleb128 0x34
 4121 0439 00       		.byte	0
 4122 043a 03       		.uleb128 0x3
 4123 043b 08       		.uleb128 0x8
 4124 043c 3A       		.uleb128 0x3a
 4125 043d 0B       		.uleb128 0xb
 4126 043e 3B       		.uleb128 0x3b
 4127 043f 05       		.uleb128 0x5
 4128 0440 39       		.uleb128 0x39
 4129 0441 0B       		.uleb128 0xb
 4130 0442 49       		.uleb128 0x49
 4131 0443 13       		.uleb128 0x13
 4132 0444 00       		.byte	0
 4133 0445 00       		.byte	0
 4134 0446 45       		.uleb128 0x45
 4135 0447 2E       		.uleb128 0x2e
 4136 0448 00       		.byte	0
 4137 0449 03       		.uleb128 0x3
 4138 044a 0E       		.uleb128 0xe
GAS LISTING /tmp/ccOro4nK.s 			page 75


 4139 044b 3A       		.uleb128 0x3a
 4140 044c 0B       		.uleb128 0xb
 4141 044d 3B       		.uleb128 0x3b
 4142 044e 05       		.uleb128 0x5
 4143 044f 39       		.uleb128 0x39
 4144 0450 0B       		.uleb128 0xb
 4145 0451 27       		.uleb128 0x27
 4146 0452 19       		.uleb128 0x19
 4147 0453 20       		.uleb128 0x20
 4148 0454 0B       		.uleb128 0xb
 4149 0455 00       		.byte	0
 4150 0456 00       		.byte	0
 4151 0457 46       		.uleb128 0x46
 4152 0458 34       		.uleb128 0x34
 4153 0459 00       		.byte	0
 4154 045a 03       		.uleb128 0x3
 4155 045b 0E       		.uleb128 0xe
 4156 045c 49       		.uleb128 0x49
 4157 045d 13       		.uleb128 0x13
 4158 045e 34       		.uleb128 0x34
 4159 045f 19       		.uleb128 0x19
 4160 0460 00       		.byte	0
 4161 0461 00       		.byte	0
 4162 0462 47       		.uleb128 0x47
 4163 0463 2E       		.uleb128 0x2e
 4164 0464 00       		.byte	0
 4165 0465 03       		.uleb128 0x3
 4166 0466 0E       		.uleb128 0xe
 4167 0467 3A       		.uleb128 0x3a
 4168 0468 0B       		.uleb128 0xb
 4169 0469 3B       		.uleb128 0x3b
 4170 046a 05       		.uleb128 0x5
 4171 046b 39       		.uleb128 0x39
 4172 046c 0B       		.uleb128 0xb
 4173 046d 27       		.uleb128 0x27
 4174 046e 19       		.uleb128 0x19
 4175 046f 49       		.uleb128 0x49
 4176 0470 13       		.uleb128 0x13
 4177 0471 20       		.uleb128 0x20
 4178 0472 0B       		.uleb128 0xb
 4179 0473 00       		.byte	0
 4180 0474 00       		.byte	0
 4181 0475 48       		.uleb128 0x48
 4182 0476 2E       		.uleb128 0x2e
 4183 0477 01       		.byte	0x1
 4184 0478 03       		.uleb128 0x3
 4185 0479 0E       		.uleb128 0xe
 4186 047a 3A       		.uleb128 0x3a
 4187 047b 0B       		.uleb128 0xb
 4188 047c 3B       		.uleb128 0x3b
 4189 047d 05       		.uleb128 0x5
 4190 047e 39       		.uleb128 0x39
 4191 047f 0B       		.uleb128 0xb
 4192 0480 27       		.uleb128 0x27
 4193 0481 19       		.uleb128 0x19
 4194 0482 49       		.uleb128 0x49
 4195 0483 13       		.uleb128 0x13
GAS LISTING /tmp/ccOro4nK.s 			page 76


 4196 0484 20       		.uleb128 0x20
 4197 0485 0B       		.uleb128 0xb
 4198 0486 01       		.uleb128 0x1
 4199 0487 13       		.uleb128 0x13
 4200 0488 00       		.byte	0
 4201 0489 00       		.byte	0
 4202 048a 49       		.uleb128 0x49
 4203 048b 2E       		.uleb128 0x2e
 4204 048c 01       		.byte	0x1
 4205 048d 31       		.uleb128 0x31
 4206 048e 13       		.uleb128 0x13
 4207 048f 11       		.uleb128 0x11
 4208 0490 01       		.uleb128 0x1
 4209 0491 12       		.uleb128 0x12
 4210 0492 06       		.uleb128 0x6
 4211 0493 40       		.uleb128 0x40
 4212 0494 18       		.uleb128 0x18
 4213 0495 9742     		.uleb128 0x2117
 4214 0497 19       		.uleb128 0x19
 4215 0498 01       		.uleb128 0x1
 4216 0499 13       		.uleb128 0x13
 4217 049a 00       		.byte	0
 4218 049b 00       		.byte	0
 4219 049c 4A       		.uleb128 0x4a
 4220 049d 05       		.uleb128 0x5
 4221 049e 00       		.byte	0
 4222 049f 31       		.uleb128 0x31
 4223 04a0 13       		.uleb128 0x13
 4224 04a1 02       		.uleb128 0x2
 4225 04a2 18       		.uleb128 0x18
 4226 04a3 00       		.byte	0
 4227 04a4 00       		.byte	0
 4228 04a5 4B       		.uleb128 0x4b
 4229 04a6 2E       		.uleb128 0x2e
 4230 04a7 00       		.byte	0
 4231 04a8 3F       		.uleb128 0x3f
 4232 04a9 19       		.uleb128 0x19
 4233 04aa 3C       		.uleb128 0x3c
 4234 04ab 19       		.uleb128 0x19
 4235 04ac 6E       		.uleb128 0x6e
 4236 04ad 0E       		.uleb128 0xe
 4237 04ae 03       		.uleb128 0x3
 4238 04af 0E       		.uleb128 0xe
 4239 04b0 3A       		.uleb128 0x3a
 4240 04b1 0B       		.uleb128 0xb
 4241 04b2 3B       		.uleb128 0x3b
 4242 04b3 05       		.uleb128 0x5
 4243 04b4 39       		.uleb128 0x39
 4244 04b5 0B       		.uleb128 0xb
 4245 04b6 00       		.byte	0
 4246 04b7 00       		.byte	0
 4247 04b8 4C       		.uleb128 0x4c
 4248 04b9 2E       		.uleb128 0x2e
 4249 04ba 00       		.byte	0
 4250 04bb 3F       		.uleb128 0x3f
 4251 04bc 19       		.uleb128 0x19
 4252 04bd 3C       		.uleb128 0x3c
GAS LISTING /tmp/ccOro4nK.s 			page 77


 4253 04be 19       		.uleb128 0x19
 4254 04bf 6E       		.uleb128 0x6e
 4255 04c0 0E       		.uleb128 0xe
 4256 04c1 03       		.uleb128 0x3
 4257 04c2 0E       		.uleb128 0xe
 4258 04c3 3A       		.uleb128 0x3a
 4259 04c4 0B       		.uleb128 0xb
 4260 04c5 3B       		.uleb128 0x3b
 4261 04c6 0B       		.uleb128 0xb
 4262 04c7 39       		.uleb128 0x39
 4263 04c8 0B       		.uleb128 0xb
 4264 04c9 00       		.byte	0
 4265 04ca 00       		.byte	0
 4266 04cb 00       		.byte	0
 4267              		.section	.debug_loc,"",@progbits
 4268              	.Ldebug_loc0:
 4269              	.LVUS8:
 4270 0000 00       		.uleb128 .LVU275
 4271 0001 00       		.uleb128 .LVU277
 4272 0002 00       		.uleb128 .LVU277
 4273 0003 00       		.uleb128 .LVU284
 4274              	.LLST8:
 4275 0004 19000000 		.long	.LVL56
 4276 0008 19000000 		.long	.LVL56
 4277 000c 0100     		.value	0x1
 4278 000e 50       		.byte	0x50
 4279 000f 19000000 		.long	.LVL56
 4280 0013 2D000000 		.long	.LVL58
 4281 0017 0100     		.value	0x1
 4282 0019 56       		.byte	0x56
 4283 001a 00000000 		.long	0
 4284 001e 00000000 		.long	0
 4285              	.LVUS9:
 4286 0022 01       		.uleb128 .LVU276
 4287 0023 00       		.uleb128 .LVU277
 4288 0024 00       		.uleb128 .LVU277
 4289 0025 00       		.uleb128 .LVU284
 4290              	.LLST9:
 4291 0026 19000000 		.long	.LVL56
 4292 002a 19000000 		.long	.LVL56
 4293 002e 0700     		.value	0x7
 4294 0030 70       		.byte	0x70
 4295 0031 00       		.sleb128 0
 4296 0032 91       		.byte	0x91
 4297 0033 00       		.sleb128 0
 4298 0034 06       		.byte	0x6
 4299 0035 22       		.byte	0x22
 4300 0036 9F       		.byte	0x9f
 4301 0037 19000000 		.long	.LVL56
 4302 003b 2D000000 		.long	.LVL58
 4303 003f 0700     		.value	0x7
 4304 0041 76       		.byte	0x76
 4305 0042 00       		.sleb128 0
 4306 0043 91       		.byte	0x91
 4307 0044 00       		.sleb128 0
 4308 0045 06       		.byte	0x6
 4309 0046 22       		.byte	0x22
GAS LISTING /tmp/ccOro4nK.s 			page 78


 4310 0047 9F       		.byte	0x9f
 4311 0048 00000000 		.long	0
 4312 004c 00000000 		.long	0
 4313              	.LVUS10:
 4314 0050 00       		.uleb128 .LVU279
 4315 0051 02       		.uleb128 .LVU281
 4316              	.LLST10:
 4317 0052 25000000 		.long	.LVL57
 4318 0056 25000000 		.long	.LVL57
 4319 005a 0700     		.value	0x7
 4320 005c 76       		.byte	0x76
 4321 005d 00       		.sleb128 0
 4322 005e 91       		.byte	0x91
 4323 005f 00       		.sleb128 0
 4324 0060 06       		.byte	0x6
 4325 0061 22       		.byte	0x22
 4326 0062 9F       		.byte	0x9f
 4327 0063 00000000 		.long	0
 4328 0067 00000000 		.long	0
 4329              	.LVUS11:
 4330 006b 00       		.uleb128 .LVU279
 4331 006c 02       		.uleb128 .LVU281
 4332              	.LLST11:
 4333 006d 25000000 		.long	.LVL57
 4334 0071 25000000 		.long	.LVL57
 4335 0075 0100     		.value	0x1
 4336 0077 56       		.byte	0x56
 4337 0078 00000000 		.long	0
 4338 007c 00000000 		.long	0
 4339              	.LVUS12:
 4340 0080 00       		.uleb128 .LVU279
 4341 0081 02       		.uleb128 .LVU281
 4342              	.LLST12:
 4343 0082 25000000 		.long	.LVL57
 4344 0086 25000000 		.long	.LVL57
 4345 008a 0100     		.value	0x1
 4346 008c 50       		.byte	0x50
 4347 008d 00000000 		.long	0
 4348 0091 00000000 		.long	0
 4349              	.LVUS7:
 4350 0095 00       		.uleb128 .LVU212
 4351 0096 00       		.uleb128 0
 4352              	.LLST7:
 4353 0097 12000000 		.long	.LVL49
 4354 009b 1D000000 		.long	.LFE143
 4355 009f 0100     		.value	0x1
 4356 00a1 50       		.byte	0x50
 4357 00a2 00000000 		.long	0
 4358 00a6 00000000 		.long	0
 4359              	.LVUS5:
 4360 00aa 03       		.uleb128 .LVU175
 4361 00ab 00       		.uleb128 .LVU195
 4362              	.LLST5:
 4363 00ac 40000000 		.long	.LVL46
 4364 00b0 5F000000 		.long	.LVL48-1
 4365 00b4 0100     		.value	0x1
 4366 00b6 50       		.byte	0x50
GAS LISTING /tmp/ccOro4nK.s 			page 79


 4367 00b7 00000000 		.long	0
 4368 00bb 00000000 		.long	0
 4369              	.LVUS6:
 4370 00bf 00       		.uleb128 .LVU178
 4371 00c0 00       		.uleb128 .LVU195
 4372              	.LLST6:
 4373 00c1 45000000 		.long	.LVL47
 4374 00c5 5F000000 		.long	.LVL48-1
 4375 00c9 0100     		.value	0x1
 4376 00cb 51       		.byte	0x51
 4377 00cc 00000000 		.long	0
 4378 00d0 00000000 		.long	0
 4379              	.LVUS0:
 4380 00d4 00       		.uleb128 0
 4381 00d5 00       		.uleb128 .LVU148
 4382 00d6 00       		.uleb128 .LVU148
 4383 00d7 00       		.uleb128 0
 4384              	.LLST0:
 4385 00d8 00000000 		.long	.LVL11
 4386 00dc EC000000 		.long	.LVL43
 4387 00e0 0200     		.value	0x2
 4388 00e2 91       		.byte	0x91
 4389 00e3 00       		.sleb128 0
 4390 00e4 EC000000 		.long	.LVL43
 4391 00e8 1A010000 		.long	.LFE141
 4392 00ec 0100     		.value	0x1
 4393 00ee 56       		.byte	0x56
 4394 00ef 00000000 		.long	0
 4395 00f3 00000000 		.long	0
 4396              	.LVUS1:
 4397 00f7 02       		.uleb128 .LVU67
 4398 00f8 00       		.uleb128 .LVU74
 4399 00f9 00       		.uleb128 .LVU74
 4400 00fa 00       		.uleb128 .LVU90
 4401 00fb 02       		.uleb128 .LVU95
 4402 00fc 00       		.uleb128 .LVU101
 4403 00fd 00       		.uleb128 .LVU101
 4404 00fe 00       		.uleb128 .LVU109
 4405 00ff 00       		.uleb128 .LVU110
 4406 0100 00       		.uleb128 .LVU118
 4407 0101 02       		.uleb128 .LVU124
 4408 0102 00       		.uleb128 .LVU130
 4409 0103 00       		.uleb128 .LVU130
 4410 0104 00       		.uleb128 .LVU135
 4411 0105 01       		.uleb128 .LVU138
 4412 0106 00       		.uleb128 .LVU146
 4413 0107 00       		.uleb128 .LVU148
 4414 0108 00       		.uleb128 .LVU151
 4415 0109 00       		.uleb128 .LVU151
 4416 010a 00       		.uleb128 .LVU152
 4417 010b 00       		.uleb128 .LVU152
 4418 010c 00       		.uleb128 0
 4419              	.LLST1:
 4420 010d 1B000000 		.long	.LVL12
 4421 0111 30000000 		.long	.LVL14
 4422 0115 0200     		.value	0x2
 4423 0117 30       		.byte	0x30
GAS LISTING /tmp/ccOro4nK.s 			page 80


 4424 0118 9F       		.byte	0x9f
 4425 0119 30000000 		.long	.LVL14
 4426 011d 5F000000 		.long	.LVL21
 4427 0121 0100     		.value	0x1
 4428 0123 52       		.byte	0x52
 4429 0124 67000000 		.long	.LVL22
 4430 0128 80000000 		.long	.LVL24
 4431 012c 0200     		.value	0x2
 4432 012e 30       		.byte	0x30
 4433 012f 9F       		.byte	0x9f
 4434 0130 80000000 		.long	.LVL24
 4435 0134 8D000000 		.long	.LVL28
 4436 0138 0100     		.value	0x1
 4437 013a 52       		.byte	0x52
 4438 013b 90000000 		.long	.LVL29
 4439 013f A3000000 		.long	.LVL32
 4440 0143 0100     		.value	0x1
 4441 0145 52       		.byte	0x52
 4442 0146 AA000000 		.long	.LVL33
 4443 014a B9000000 		.long	.LVL35
 4444 014e 0200     		.value	0x2
 4445 0150 30       		.byte	0x30
 4446 0151 9F       		.byte	0x9f
 4447 0152 B9000000 		.long	.LVL35
 4448 0156 CA000000 		.long	.LVL38
 4449 015a 0100     		.value	0x1
 4450 015c 52       		.byte	0x52
 4451 015d CD000000 		.long	.LVL39
 4452 0161 E7000000 		.long	.LVL42
 4453 0165 0100     		.value	0x1
 4454 0167 52       		.byte	0x52
 4455 0168 EC000000 		.long	.LVL43
 4456 016c FD000000 		.long	.LVL44
 4457 0170 0200     		.value	0x2
 4458 0172 30       		.byte	0x30
 4459 0173 9F       		.byte	0x9f
 4460 0174 FD000000 		.long	.LVL44
 4461 0178 07010000 		.long	.LVL45
 4462 017c 0100     		.value	0x1
 4463 017e 52       		.byte	0x52
 4464 017f 07010000 		.long	.LVL45
 4465 0183 1A010000 		.long	.LFE141
 4466 0187 0200     		.value	0x2
 4467 0189 30       		.byte	0x30
 4468 018a 9F       		.byte	0x9f
 4469 018b 00000000 		.long	0
 4470 018f 00000000 		.long	0
 4471              	.LVUS2:
 4472 0193 00       		.uleb128 .LVU71
 4473 0194 00       		.uleb128 .LVU76
 4474 0195 01       		.uleb128 .LVU78
 4475 0196 01       		.uleb128 .LVU80
 4476 0197 00       		.uleb128 .LVU82
 4477 0198 00       		.uleb128 .LVU84
 4478 0199 01       		.uleb128 .LVU86
 4479 019a 00       		.uleb128 .LVU90
 4480 019b 00       		.uleb128 .LVU148
GAS LISTING /tmp/ccOro4nK.s 			page 81


 4481 019c 01       		.uleb128 .LVU149
 4482              	.LLST2:
 4483 019d 25000000 		.long	.LVL13
 4484 01a1 32000000 		.long	.LVL15
 4485 01a5 0100     		.value	0x1
 4486 01a7 51       		.byte	0x51
 4487 01a8 35000000 		.long	.LVL16
 4488 01ac 39000000 		.long	.LVL17
 4489 01b0 0100     		.value	0x1
 4490 01b2 51       		.byte	0x51
 4491 01b3 41000000 		.long	.LVL18
 4492 01b7 4B000000 		.long	.LVL19
 4493 01bb 0100     		.value	0x1
 4494 01bd 53       		.byte	0x53
 4495 01be 4E000000 		.long	.LVL20
 4496 01c2 5F000000 		.long	.LVL21
 4497 01c6 0100     		.value	0x1
 4498 01c8 53       		.byte	0x53
 4499 01c9 EC000000 		.long	.LVL43
 4500 01cd EC000000 		.long	.LVL43
 4501 01d1 0100     		.value	0x1
 4502 01d3 51       		.byte	0x51
 4503 01d4 00000000 		.long	0
 4504 01d8 00000000 		.long	0
 4505              	.LVUS3:
 4506 01dc 00       		.uleb128 .LVU99
 4507 01dd 00       		.uleb128 .LVU103
 4508 01de 01       		.uleb128 .LVU105
 4509 01df 01       		.uleb128 .LVU107
 4510 01e0 00       		.uleb128 .LVU110
 4511 01e1 00       		.uleb128 .LVU112
 4512 01e2 01       		.uleb128 .LVU114
 4513 01e3 00       		.uleb128 .LVU118
 4514 01e4 00       		.uleb128 .LVU152
 4515 01e5 02       		.uleb128 .LVU154
 4516              	.LLST3:
 4517 01e6 72000000 		.long	.LVL23
 4518 01ea 82000000 		.long	.LVL25
 4519 01ee 0100     		.value	0x1
 4520 01f0 51       		.byte	0x51
 4521 01f1 85000000 		.long	.LVL26
 4522 01f5 89000000 		.long	.LVL27
 4523 01f9 0100     		.value	0x1
 4524 01fb 51       		.byte	0x51
 4525 01fc 90000000 		.long	.LVL29
 4526 0200 93000000 		.long	.LVL30
 4527 0204 0100     		.value	0x1
 4528 0206 53       		.byte	0x53
 4529 0207 96000000 		.long	.LVL31
 4530 020b A3000000 		.long	.LVL32
 4531 020f 0100     		.value	0x1
 4532 0211 53       		.byte	0x53
 4533 0212 07010000 		.long	.LVL45
 4534 0216 07010000 		.long	.LVL45
 4535 021a 0100     		.value	0x1
 4536 021c 51       		.byte	0x51
 4537 021d 00000000 		.long	0
GAS LISTING /tmp/ccOro4nK.s 			page 82


 4538 0221 00000000 		.long	0
 4539              	.LVUS4:
 4540 0225 00       		.uleb128 .LVU128
 4541 0226 00       		.uleb128 .LVU132
 4542 0227 01       		.uleb128 .LVU134
 4543 0228 00       		.uleb128 .LVU141
 4544 0229 01       		.uleb128 .LVU143
 4545 022a 00       		.uleb128 .LVU146
 4546              	.LLST4:
 4547 022b B5000000 		.long	.LVL34
 4548 022f C3000000 		.long	.LVL36
 4549 0233 0100     		.value	0x1
 4550 0235 51       		.byte	0x51
 4551 0236 C6000000 		.long	.LVL37
 4552 023a DB000000 		.long	.LVL40
 4553 023e 0100     		.value	0x1
 4554 0240 51       		.byte	0x51
 4555 0241 DE000000 		.long	.LVL41
 4556 0245 E7000000 		.long	.LVL42
 4557 0249 0100     		.value	0x1
 4558 024b 51       		.byte	0x51
 4559 024c 00000000 		.long	0
 4560 0250 00000000 		.long	0
 4561              		.section	.debug_aranges,"",@progbits
 4562 0000 5C000000 		.long	0x5c
 4563 0004 0200     		.value	0x2
 4564 0006 00000000 		.long	.Ldebug_info0
 4565 000a 04       		.byte	0x4
 4566 000b 00       		.byte	0
 4567 000c 0000     		.value	0
 4568 000e 0000     		.value	0
 4569 0010 00000000 		.long	.LFB138
 4570 0014 17000000 		.long	.LFE138-.LFB138
 4571 0018 00000000 		.long	.LFB139
 4572 001c 82000000 		.long	.LFE139-.LFB139
 4573 0020 00000000 		.long	.LFB140
 4574 0024 25000000 		.long	.LFE140-.LFB140
 4575 0028 00000000 		.long	.LFB141
 4576 002c 1A010000 		.long	.LFE141-.LFB141
 4577 0030 00000000 		.long	.LFB142
 4578 0034 77000000 		.long	.LFE142-.LFB142
 4579 0038 00000000 		.long	.LFB143
 4580 003c 1D000000 		.long	.LFE143-.LFB143
 4581 0040 00000000 		.long	.LFB144
 4582 0044 4B000000 		.long	.LFE144-.LFB144
 4583 0048 00000000 		.long	.LFB145
 4584 004c 16000000 		.long	.LFE145-.LFB145
 4585 0050 00000000 		.long	.LFB146
 4586 0054 2F000000 		.long	.LFE146-.LFB146
 4587 0058 00000000 		.long	0
 4588 005c 00000000 		.long	0
 4589              		.section	.debug_ranges,"",@progbits
 4590              	.Ldebug_ranges0:
 4591 0000 00000000 		.long	.LBB65
 4592 0004 10000000 		.long	.LBE65
 4593 0008 16000000 		.long	.LBB68
 4594 000c 1C000000 		.long	.LBE68
GAS LISTING /tmp/ccOro4nK.s 			page 83


 4595 0010 00000000 		.long	0
 4596 0014 00000000 		.long	0
 4597 0018 1B000000 		.long	.LBB69
 4598 001c 5F000000 		.long	.LBE69
 4599 0020 9A000000 		.long	.LBB71
 4600 0024 9F000000 		.long	.LBE71
 4601 0028 F0000000 		.long	.LBB74
 4602 002c 10010000 		.long	.LBE74
 4603 0030 00000000 		.long	0
 4604 0034 00000000 		.long	0
 4605 0038 67000000 		.long	.LBB70
 4606 003c 9A000000 		.long	.LBE70
 4607 0040 9F000000 		.long	.LBB72
 4608 0044 A3000000 		.long	.LBE72
 4609 0048 10010000 		.long	.LBB75
 4610 004c 1A010000 		.long	.LBE75
 4611 0050 00000000 		.long	0
 4612 0054 00000000 		.long	0
 4613 0058 00000000 		.long	.LBB85
 4614 005c 00000000 		.long	.LBE85
 4615 0060 0E000000 		.long	.LBB109
 4616 0064 5E000000 		.long	.LBE109
 4617 0068 5E000000 		.long	.LBB110
 4618 006c 60000000 		.long	.LBE110
 4619 0070 60000000 		.long	.LBB111
 4620 0074 69000000 		.long	.LBE111
 4621 0078 69000000 		.long	.LBB112
 4622 007c 73000000 		.long	.LBE112
 4623 0080 00000000 		.long	0
 4624 0084 00000000 		.long	0
 4625 0088 35000000 		.long	.LBB87
 4626 008c 5E000000 		.long	.LBE87
 4627 0090 5E000000 		.long	.LBB102
 4628 0094 60000000 		.long	.LBE102
 4629 0098 60000000 		.long	.LBB103
 4630 009c 60000000 		.long	.LBE103
 4631 00a0 63000000 		.long	.LBB104
 4632 00a4 69000000 		.long	.LBE104
 4633 00a8 00000000 		.long	0
 4634 00ac 00000000 		.long	0
 4635 00b0 4F000000 		.long	.LBB88
 4636 00b4 55000000 		.long	.LBE88
 4637 00b8 5E000000 		.long	.LBB93
 4638 00bc 5E000000 		.long	.LBE93
 4639 00c0 5E000000 		.long	.LBB94
 4640 00c4 5E000000 		.long	.LBE94
 4641 00c8 00000000 		.long	0
 4642 00cc 00000000 		.long	0
 4643 00d0 4F000000 		.long	.LBB89
 4644 00d4 55000000 		.long	.LBE89
 4645 00d8 5E000000 		.long	.LBB92
 4646 00dc 5E000000 		.long	.LBE92
 4647 00e0 00000000 		.long	0
 4648 00e4 00000000 		.long	0
 4649 00e8 60000000 		.long	.LBB95
 4650 00ec 60000000 		.long	.LBE95
 4651 00f0 60000000 		.long	.LBB100
GAS LISTING /tmp/ccOro4nK.s 			page 84


 4652 00f4 60000000 		.long	.LBE100
 4653 00f8 63000000 		.long	.LBB101
 4654 00fc 69000000 		.long	.LBE101
 4655 0100 00000000 		.long	0
 4656 0104 00000000 		.long	0
 4657 0108 16000000 		.long	.LBB115
 4658 010c 16000000 		.long	.LBE115
 4659 0110 16000000 		.long	.LBB118
 4660 0114 1C000000 		.long	.LBE118
 4661 0118 00000000 		.long	0
 4662 011c 00000000 		.long	0
 4663 0120 22000000 		.long	.LBB121
 4664 0124 2E000000 		.long	.LBE121
 4665 0128 3D000000 		.long	.LBB128
 4666 012c 4B000000 		.long	.LBE128
 4667 0130 00000000 		.long	0
 4668 0134 00000000 		.long	0
 4669 0138 00000000 		.long	.LFB138
 4670 013c 17000000 		.long	.LFE138
 4671 0140 00000000 		.long	.LFB139
 4672 0144 82000000 		.long	.LFE139
 4673 0148 00000000 		.long	.LFB140
 4674 014c 25000000 		.long	.LFE140
 4675 0150 00000000 		.long	.LFB141
 4676 0154 1A010000 		.long	.LFE141
 4677 0158 00000000 		.long	.LFB142
 4678 015c 77000000 		.long	.LFE142
 4679 0160 00000000 		.long	.LFB143
 4680 0164 1D000000 		.long	.LFE143
 4681 0168 00000000 		.long	.LFB144
 4682 016c 4B000000 		.long	.LFE144
 4683 0170 00000000 		.long	.LFB145
 4684 0174 16000000 		.long	.LFE145
 4685 0178 00000000 		.long	.LFB146
 4686 017c 2F000000 		.long	.LFE146
 4687 0180 00000000 		.long	0
 4688 0184 00000000 		.long	0
 4689              		.section	.debug_line,"",@progbits
 4690              	.Ldebug_line0:
 4691 0000 1E070000 		.section	.debug_str,"MS",@progbits,1
 4691      03000B02 
 4691      00000101 
 4691      FB0E0D00 
 4691      01010101 
 4692              	.LASF96:
 4693 0000 7466756E 		.string	"tfunc_t"
 4693      635F7400 
 4694              	.LASF158:
 4695 0008 63685654 		.string	"chVTDoTickI"
 4695      446F5469 
 4695      636B4900 
 4696              	.LASF116:
 4697 0014 6F66665F 		.string	"off_refs"
 4697      72656673 
 4697      00
 4698              	.LASF155:
 4699 001d 63685379 		.string	"chSysInit"
GAS LISTING /tmp/ccOro4nK.s 			page 85


 4699      73496E69 
 4699      7400
 4700              	.LASF113:
 4701 0027 6F66665F 		.string	"off_stklimit"
 4701      73746B6C 
 4701      696D6974 
 4701      00
 4702              	.LASF55:
 4703 0034 72656164 		.string	"ready_list_t"
 4703      795F6C69 
 4703      73745F74 
 4703      00
 4704              	.LASF9:
 4705 0041 73697A65 		.string	"size_t"
 4705      5F7400
 4706              	.LASF84:
 4707 0048 7264796D 		.string	"rdymsg"
 4707      736700
 4708              	.LASF99:
 4709 004f 66756E63 		.string	"funcp"
 4709      7000
 4710              	.LASF190:
 4711 0055 5F69646C 		.string	"_idle_thread"
 4711      655F7468 
 4711      72656164 
 4711      00
 4712              	.LASF42:
 4713 0062 6D736771 		.string	"msgqueue"
 4713      75657565 
 4713      00
 4714              	.LASF10:
 4715 006b 5F5F7569 		.string	"__uint8_t"
 4715      6E74385F 
 4715      7400
 4716              	.LASF54:
 4717 0075 70726576 		.string	"prev"
 4717      00
 4718              	.LASF77:
 4719 007a 706F7274 		.string	"port_intctx"
 4719      5F696E74 
 4719      63747800 
 4720              	.LASF66:
 4721 0086 73797374 		.string	"system_debug_t"
 4721      656D5F64 
 4721      65627567 
 4721      5F7400
 4722              	.LASF130:
 4723 0095 70726F76 		.string	"provider"
 4723      69646572 
 4723      00
 4724              	.LASF100:
 4725 009e 74687265 		.string	"thread_descriptor_t"
 4725      61645F64 
 4725      65736372 
 4725      6970746F 
 4725      725F7400 
 4726              	.LASF140:
GAS LISTING /tmp/ccOro4nK.s 			page 86


 4727 00b2 73656D5F 		.string	"sem_list"
 4727      6C697374 
 4727      00
 4728              	.LASF168:
 4729 00bb 706F7274 		.string	"port_lock"
 4729      5F6C6F63 
 4729      6B00
 4730              	.LASF122:
 4731 00c5 6D656D67 		.string	"memgetfunc_t"
 4731      65746675 
 4731      6E635F74 
 4731      00
 4732              	.LASF98:
 4733 00d2 77656E64 		.string	"wend"
 4733      00
 4734              	.LASF15:
 4735 00d7 6C6F6E67 		.string	"long long unsigned int"
 4735      206C6F6E 
 4735      6720756E 
 4735      7369676E 
 4735      65642069 
 4736              	.LASF85:
 4737 00ee 65786974 		.string	"exitcode"
 4737      636F6465 
 4737      00
 4738              	.LASF73:
 4739 00f7 6D61696E 		.string	"mainthread"
 4739      74687265 
 4739      616400
 4740              	.LASF88:
 4741 0102 73656E74 		.string	"sentmsg"
 4741      6D736700 
 4742              	.LASF61:
 4743 010a 64656C74 		.string	"delta"
 4743      6100
 4744              	.LASF191:
 4745 0110 5F5F6675 		.string	"__func__"
 4745      6E635F5F 
 4745      00
 4746              	.LASF133:
 4747 0119 64796E5F 		.string	"dyn_element_t"
 4747      656C656D 
 4747      656E745F 
 4747      7400
 4748              	.LASF51:
 4749 0127 6E657874 		.string	"next"
 4749      00
 4750              	.LASF53:
 4751 012c 63685F74 		.string	"ch_threads_queue"
 4751      68726561 
 4751      64735F71 
 4751      75657565 
 4751      00
 4752              	.LASF179:
 4753 013d 5F686561 		.string	"_heap_init"
 4753      705F696E 
 4753      697400
GAS LISTING /tmp/ccOro4nK.s 			page 87


 4754              	.LASF175:
 4755 0148 5F736368 		.string	"_scheduler_init"
 4755      6564756C 
 4755      65725F69 
 4755      6E697400 
 4756              	.LASF2:
 4757 0158 6C6F6E67 		.string	"long long int"
 4757      206C6F6E 
 4757      6720696E 
 4757      7400
 4758              	.LASF8:
 4759 0166 7369676E 		.string	"signed char"
 4759      65642063 
 4759      68617200 
 4760              	.LASF169:
 4761 0172 706F7274 		.string	"port_is_isr_context"
 4761      5F69735F 
 4761      6973725F 
 4761      636F6E74 
 4761      65787400 
 4762              	.LASF180:
 4763 0186 5F666163 		.string	"_factory_init"
 4763      746F7279 
 4763      5F696E69 
 4763      7400
 4764              	.LASF4:
 4765 0194 5F466C6F 		.string	"_Float128"
 4765      61743132 
 4765      3800
 4766              	.LASF72:
 4767 019e 76746C69 		.string	"vtlist"
 4767      737400
 4768              	.LASF167:
 4769 01a5 706F7274 		.string	"port_unlock"
 4769      5F756E6C 
 4769      6F636B00 
 4770              	.LASF38:
 4771 01b1 73746174 		.string	"state"
 4771      6500
 4772              	.LASF1:
 4773 01b7 6C6F6E67 		.string	"long int"
 4773      20696E74 
 4773      00
 4774              	.LASF164:
 4775 01c0 706F7274 		.string	"port_disable"
 4775      5F646973 
 4775      61626C65 
 4775      00
 4776              	.LASF24:
 4777 01cd 74737461 		.string	"tstate_t"
 4777      74655F74 
 4777      00
 4778              	.LASF62:
 4779 01d6 66756E63 		.string	"func"
 4779      00
 4780              	.LASF161:
 4781 01db 63685379 		.string	"chSysEnable"
GAS LISTING /tmp/ccOro4nK.s 			page 88


 4781      73456E61 
 4781      626C6500 
 4782              	.LASF101:
 4783 01e7 6964656E 		.string	"identifier"
 4783      74696669 
 4783      657200
 4784              	.LASF185:
 4785 01f2 2F686F6D 		.string	"/home/phil/Documents/ChibiOS_18.2.1/demos/various/RT-Posix-SimulatorAtom"
 4785      652F7068 
 4785      696C2F44 
 4785      6F63756D 
 4785      656E7473 
 4786              	.LASF119:
 4787 023b 63686465 		.string	"chdebug_t"
 4787      6275675F 
 4787      7400
 4788              	.LASF117:
 4789 0245 6F66665F 		.string	"off_preempt"
 4789      70726565 
 4789      6D707400 
 4790              	.LASF156:
 4791 0251 63685379 		.string	"chSysUnlockFromISR"
 4791      73556E6C 
 4791      6F636B46 
 4791      726F6D49 
 4791      535200
 4792              	.LASF22:
 4793 0264 73797373 		.string	"syssts_t"
 4793      74735F74 
 4793      00
 4794              	.LASF173:
 4795 026d 63685363 		.string	"chSchRescheduleS"
 4795      68526573 
 4795      63686564 
 4795      756C6553 
 4795      00
 4796              	.LASF14:
 4797 027e 5F5F7569 		.string	"__uint32_t"
 4797      6E743332 
 4797      5F7400
 4798              	.LASF142:
 4799 0289 6D62785F 		.string	"mbx_list"
 4799      6C697374 
 4799      00
 4800              	.LASF187:
 4801 0292 63685379 		.string	"chSysIsCounterWithinX"
 4801      73497343 
 4801      6F756E74 
 4801      65725769 
 4801      7468696E 
 4802              	.LASF41:
 4803 02a8 77616974 		.string	"waiting"
 4803      696E6700 
 4804              	.LASF147:
 4805 02b0 63685379 		.string	"chSysPolledDelayX"
 4805      73506F6C 
 4805      6C656444 
GAS LISTING /tmp/ccOro4nK.s 			page 89


 4805      656C6179 
 4805      5800
 4806              	.LASF102:
 4807 02c2 7A65726F 		.string	"zero"
 4807      00
 4808              	.LASF121:
 4809 02c7 6D757465 		.string	"mutex_t"
 4809      785F7400 
 4810              	.LASF129:
 4811 02cf 616C6967 		.string	"align"
 4811      6E00
 4812              	.LASF75:
 4813 02d5 73797369 		.string	"sysinterval_t"
 4813      6E746572 
 4813      76616C5F 
 4813      7400
 4814              	.LASF29:
 4815 02e3 636E745F 		.string	"cnt_t"
 4815      7400
 4816              	.LASF0:
 4817 02e9 756E7369 		.string	"unsigned int"
 4817      676E6564 
 4817      20696E74 
 4817      00
 4818              	.LASF181:
 4819 02f6 5F746872 		.string	"_thread_init"
 4819      6561645F 
 4819      696E6974 
 4819      00
 4820              	.LASF19:
 4821 0303 75696E74 		.string	"uint16_t"
 4821      31365F74 
 4821      00
 4822              	.LASF89:
 4823 030c 77747365 		.string	"wtsemp"
 4823      6D7000
 4824              	.LASF165:
 4825 0313 706F7274 		.string	"port_unlock_from_isr"
 4825      5F756E6C 
 4825      6F636B5F 
 4825      66726F6D 
 4825      5F697372 
 4826              	.LASF157:
 4827 0328 63685379 		.string	"chSysLockFromISR"
 4827      734C6F63 
 4827      6B46726F 
 4827      6D495352 
 4827      00
 4828              	.LASF150:
 4829 0339 63685379 		.string	"chSysTimerHandlerI"
 4829      7354696D 
 4829      65724861 
 4829      6E646C65 
 4829      724900
 4830              	.LASF7:
 4831 034c 6C6F6E67 		.string	"long unsigned int"
 4831      20756E73 
GAS LISTING /tmp/ccOro4nK.s 			page 90


 4831      69676E65 
 4831      6420696E 
 4831      7400
 4832              	.LASF170:
 4833 035e 706F7274 		.string	"port_get_irq_status"
 4833      5F676574 
 4833      5F697271 
 4833      5F737461 
 4833      74757300 
 4834              	.LASF120:
 4835 0372 63685F64 		.string	"ch_debug"
 4835      65627567 
 4835      00
 4836              	.LASF152:
 4837 037b 63685379 		.string	"chSysIntegrityCheckI"
 4837      73496E74 
 4837      65677269 
 4837      74794368 
 4837      65636B49 
 4838              	.LASF131:
 4839 0390 6D656D6F 		.string	"memory_pool_t"
 4839      72795F70 
 4839      6F6F6C5F 
 4839      7400
 4840              	.LASF36:
 4841 039e 6E616D65 		.string	"name"
 4841      00
 4842              	.LASF32:
 4843 03a3 71756575 		.string	"queue"
 4843      6500
 4844              	.LASF46:
 4845 03a9 6D706F6F 		.string	"mpool"
 4845      6C00
 4846              	.LASF6:
 4847 03af 73686F72 		.string	"short unsigned int"
 4847      7420756E 
 4847      7369676E 
 4847      65642069 
 4847      6E7400
 4848              	.LASF139:
 4849 03c2 6275665F 		.string	"buf_list"
 4849      6C697374 
 4849      00
 4850              	.LASF171:
 4851 03cb 706F7274 		.string	"port_init"
 4851      5F696E69 
 4851      7400
 4852              	.LASF49:
 4853 03d5 63685F74 		.string	"ch_thread"
 4853      68726561 
 4853      6400
 4854              	.LASF27:
 4855 03df 6D73675F 		.string	"msg_t"
 4855      7400
 4856              	.LASF30:
 4857 03e5 75636E74 		.string	"ucnt_t"
 4857      5F7400
GAS LISTING /tmp/ccOro4nK.s 			page 91


 4858              	.LASF43:
 4859 03ec 6570656E 		.string	"epending"
 4859      64696E67 
 4859      00
 4860              	.LASF135:
 4861 03f5 64796E5F 		.string	"dyn_list_t"
 4861      6C697374 
 4861      5F7400
 4862              	.LASF69:
 4863 0400 63685F73 		.string	"ch_system_t"
 4863      79737465 
 4863      6D5F7400 
 4864              	.LASF109:
 4865 040c 6F66665F 		.string	"off_ctx"
 4865      63747800 
 4866              	.LASF23:
 4867 0414 746D6F64 		.string	"tmode_t"
 4867      655F7400 
 4868              	.LASF65:
 4869 041c 73797374 		.string	"systime"
 4869      696D6500 
 4870              	.LASF56:
 4871 0424 63685F72 		.string	"ch_ready_list"
 4871      65616479 
 4871      5F6C6973 
 4871      7400
 4872              	.LASF28:
 4873 0432 6576656E 		.string	"eventmask_t"
 4873      746D6173 
 4873      6B5F7400 
 4874              	.LASF112:
 4875 043e 6F66665F 		.string	"off_name"
 4875      6E616D65 
 4875      00
 4876              	.LASF124:
 4877 0447 656E646D 		.string	"endmem"
 4877      656D00
 4878              	.LASF163:
 4879 044e 706F7274 		.string	"port_enable"
 4879      5F656E61 
 4879      626C6500 
 4880              	.LASF63:
 4881 045a 76697274 		.string	"virtual_timers_list_t"
 4881      75616C5F 
 4881      74696D65 
 4881      72735F6C 
 4881      6973745F 
 4882              	.LASF186:
 4883 0470 73746B61 		.string	"stkalign_t"
 4883      6C69676E 
 4883      5F7400
 4884              	.LASF34:
 4885 047b 6E657765 		.string	"newer"
 4885      7200
 4886              	.LASF45:
 4887 0481 7265616C 		.string	"realprio"
 4887      7072696F 
GAS LISTING /tmp/ccOro4nK.s 			page 92


 4887      00
 4888              	.LASF104:
 4889 048a 76657273 		.string	"version"
 4889      696F6E00 
 4890              	.LASF153:
 4891 0492 63685379 		.string	"chSysHalt"
 4891      7348616C 
 4891      7400
 4892              	.LASF21:
 4893 049c 7274636E 		.string	"rtcnt_t"
 4893      745F7400 
 4894              	.LASF47:
 4895 04a4 74687265 		.string	"thread_reference_t"
 4895      61645F72 
 4895      65666572 
 4895      656E6365 
 4895      5F7400
 4896              	.LASF64:
 4897 04b7 63685F76 		.string	"ch_virtual_timers_list"
 4897      69727475 
 4897      616C5F74 
 4897      696D6572 
 4897      735F6C69 
 4898              	.LASF3:
 4899 04ce 6C6F6E67 		.string	"long double"
 4899      20646F75 
 4899      626C6500 
 4900              	.LASF110:
 4901 04da 6F66665F 		.string	"off_newer"
 4901      6E657765 
 4901      7200
 4902              	.LASF192:
 4903 04e4 706F7274 		.string	"port_irq_enabled"
 4903      5F697271 
 4903      5F656E61 
 4903      626C6564 
 4903      00
 4904              	.LASF78:
 4905 04f5 706F7274 		.string	"port_context"
 4905      5F636F6E 
 4905      74657874 
 4905      00
 4906              	.LASF83:
 4907 0502 746D5F63 		.string	"tm_calibration_t"
 4907      616C6962 
 4907      72617469 
 4907      6F6E5F74 
 4907      00
 4908              	.LASF189:
 4909 0513 69646C65 		.string	"idle_descriptor"
 4909      5F646573 
 4909      63726970 
 4909      746F7200 
 4910              	.LASF33:
 4911 0523 7072696F 		.string	"prio"
 4911      00
 4912              	.LASF141:
GAS LISTING /tmp/ccOro4nK.s 			page 93


 4913 0528 73656D5F 		.string	"sem_pool"
 4913      706F6F6C 
 4913      00
 4914              	.LASF57:
 4915 0531 63757272 		.string	"current"
 4915      656E7400 
 4916              	.LASF162:
 4917 0539 706F7274 		.string	"port_wait_for_interrupt"
 4917      5F776169 
 4917      745F666F 
 4917      725F696E 
 4917      74657272 
 4918              	.LASF125:
 4919 0551 6D656D63 		.string	"memcore_t"
 4919      6F72655F 
 4919      7400
 4920              	.LASF25:
 4921 055b 74726566 		.string	"trefs_t"
 4921      735F7400 
 4922              	.LASF107:
 4923 0563 74687265 		.string	"threadsize"
 4923      61647369 
 4923      7A6500
 4924              	.LASF40:
 4925 056e 72656673 		.string	"refs"
 4925      00
 4926              	.LASF59:
 4927 0573 76697274 		.string	"virtual_timer_t"
 4927      75616C5F 
 4927      74696D65 
 4927      725F7400 
 4928              	.LASF132:
 4929 0583 63685F64 		.string	"ch_dyn_element"
 4929      796E5F65 
 4929      6C656D65 
 4929      6E7400
 4930              	.LASF97:
 4931 0592 77626173 		.string	"wbase"
 4931      6500
 4932              	.LASF26:
 4933 0598 74707269 		.string	"tprio_t"
 4933      6F5F7400 
 4934              	.LASF188:
 4935 05a0 74657374 		.string	"testmask"
 4935      6D61736B 
 4935      00
 4936              	.LASF67:
 4937 05a9 63685F73 		.string	"ch_system_debug"
 4937      79737465 
 4937      6D5F6465 
 4937      62756700 
 4938              	.LASF79:
 4939 05b9 5F426F6F 		.string	"_Bool"
 4939      6C00
 4940              	.LASF17:
 4941 05bf 696E7433 		.string	"int32_t"
 4941      325F7400 
GAS LISTING /tmp/ccOro4nK.s 			page 94


 4942              	.LASF5:
 4943 05c7 756E7369 		.string	"unsigned char"
 4943      676E6564 
 4943      20636861 
 4943      7200
 4944              	.LASF108:
 4945 05d5 6F66665F 		.string	"off_prio"
 4945      7072696F 
 4945      00
 4946              	.LASF126:
 4947 05de 63685F6D 		.string	"ch_memcore"
 4947      656D636F 
 4947      726500
 4948              	.LASF151:
 4949 05e9 63685379 		.string	"chSysGetStatusAndLockX"
 4949      73476574 
 4949      53746174 
 4949      7573416E 
 4949      644C6F63 
 4950              	.LASF11:
 4951 0600 73686F72 		.string	"short int"
 4951      7420696E 
 4951      7400
 4952              	.LASF87:
 4953 060a 77747472 		.string	"wttrp"
 4953      7000
 4954              	.LASF149:
 4955 0610 6379636C 		.string	"cycles"
 4955      657300
 4956              	.LASF91:
 4957 0617 65776D61 		.string	"ewmask"
 4957      736B00
 4958              	.LASF70:
 4959 061e 63685F73 		.string	"ch_system"
 4959      79737465 
 4959      6D00
 4960              	.LASF18:
 4961 0628 75696E74 		.string	"uint8_t"
 4961      385F7400 
 4962              	.LASF146:
 4963 0630 73746172 		.string	"start"
 4963      7400
 4964              	.LASF145:
 4965 0636 63685F66 		.string	"ch_factory"
 4965      6163746F 
 4965      727900
 4966              	.LASF160:
 4967 0641 63685379 		.string	"chSysLock"
 4967      734C6F63 
 4967      6B00
 4968              	.LASF138:
 4969 064b 6F626A5F 		.string	"obj_pool"
 4969      706F6F6C 
 4969      00
 4970              	.LASF154:
 4971 0654 72656173 		.string	"reason"
 4971      6F6E00
GAS LISTING /tmp/ccOro4nK.s 			page 95


 4972              	.LASF60:
 4973 065b 63685F76 		.string	"ch_virtual_timer"
 4973      69727475 
 4973      616C5F74 
 4973      696D6572 
 4973      00
 4974              	.LASF92:
 4975 066c 63685F73 		.string	"ch_semaphore"
 4975      656D6170 
 4975      686F7265 
 4975      00
 4976              	.LASF118:
 4977 0679 6F66665F 		.string	"off_time"
 4977      74696D65 
 4977      00
 4978              	.LASF95:
 4979 0682 63685F69 		.string	"ch_idle_thread_wa"
 4979      646C655F 
 4979      74687265 
 4979      61645F77 
 4979      6100
 4980              	.LASF106:
 4981 0694 74696D65 		.string	"timesize"
 4981      73697A65 
 4981      00
 4982              	.LASF182:
 4983 069d 5F73696D 		.string	"_sim_check_for_interrupts"
 4983      5F636865 
 4983      636B5F66 
 4983      6F725F69 
 4983      6E746572 
 4984              	.LASF20:
 4985 06b7 75696E74 		.string	"uint32_t"
 4985      33325F74 
 4985      00
 4986              	.LASF90:
 4987 06c0 77746D74 		.string	"wtmtxp"
 4987      787000
 4988              	.LASF50:
 4989 06c7 63685F74 		.string	"ch_threads_list"
 4989      68726561 
 4989      64735F6C 
 4989      69737400 
 4990              	.LASF94:
 4991 06d7 6F776E65 		.string	"owner"
 4991      7200
 4992              	.LASF81:
 4993 06dd 706F7274 		.string	"port_irq_sts"
 4993      5F697271 
 4993      5F737473 
 4993      00
 4994              	.LASF37:
 4995 06ea 77616261 		.string	"wabase"
 4995      736500
 4996              	.LASF16:
 4997 06f1 63686172 		.string	"char"
 4997      00
GAS LISTING /tmp/ccOro4nK.s 			page 96


 4998              	.LASF35:
 4999 06f6 6F6C6465 		.string	"older"
 4999      7200
 5000              	.LASF137:
 5001 06fc 6F626A5F 		.string	"obj_list"
 5001      6C697374 
 5001      00
 5002              	.LASF12:
 5003 0705 5F5F7569 		.string	"__uint16_t"
 5003      6E743136 
 5003      5F7400
 5004              	.LASF80:
 5005 0710 706F7274 		.string	"port_isr_context_flag"
 5005      5F697372 
 5005      5F636F6E 
 5005      74657874 
 5005      5F666C61 
 5006              	.LASF31:
 5007 0726 74687265 		.string	"thread_t"
 5007      61645F74 
 5007      00
 5008              	.LASF172:
 5009 072f 706F7274 		.string	"port_rt_get_counter_value"
 5009      5F72745F 
 5009      6765745F 
 5009      636F756E 
 5009      7465725F 
 5010              	.LASF74:
 5011 0749 73797374 		.string	"systime_t"
 5011      696D655F 
 5011      7400
 5012              	.LASF76:
 5013 0753 72656778 		.string	"regx86"
 5013      383600
 5014              	.LASF13:
 5015 075a 5F5F696E 		.string	"__int32_t"
 5015      7433325F 
 5015      7400
 5016              	.LASF178:
 5017 0764 5F636F72 		.string	"_core_init"
 5017      655F696E 
 5017      697400
 5018              	.LASF68:
 5019 076f 70616E69 		.string	"panic_msg"
 5019      635F6D73 
 5019      6700
 5020              	.LASF176:
 5021 0779 5F76745F 		.string	"_vt_init"
 5021      696E6974 
 5021      00
 5022              	.LASF82:
 5023 0782 6F666673 		.string	"offset"
 5023      657400
 5024              	.LASF111:
 5025 0789 6F66665F 		.string	"off_older"
 5025      6F6C6465 
 5025      7200
GAS LISTING /tmp/ccOro4nK.s 			page 97


 5026              	.LASF134:
 5027 0793 63685F64 		.string	"ch_dyn_list"
 5027      796E5F6C 
 5027      69737400 
 5028              	.LASF166:
 5029 079f 706F7274 		.string	"port_lock_from_isr"
 5029      5F6C6F63 
 5029      6B5F6672 
 5029      6F6D5F69 
 5029      737200
 5030              	.LASF128:
 5031 07b2 6F626A65 		.string	"object_size"
 5031      63745F73 
 5031      697A6500 
 5032              	.LASF105:
 5033 07be 70747273 		.string	"ptrsize"
 5033      697A6500 
 5034              	.LASF136:
 5035 07c6 63685F6F 		.string	"ch_objects_factory"
 5035      626A6563 
 5035      74735F66 
 5035      6163746F 
 5035      727900
 5036              	.LASF52:
 5037 07d9 74687265 		.string	"threads_queue_t"
 5037      6164735F 
 5037      71756575 
 5037      655F7400 
 5038              	.LASF93:
 5039 07e9 63685F6D 		.string	"ch_mutex"
 5039      75746578 
 5039      00
 5040              	.LASF71:
 5041 07f2 726C6973 		.string	"rlist"
 5041      7400
 5042              	.LASF184:
 5043 07f8 2E2E2F2E 		.string	"../../../os/rt/src/chsys.c"
 5043      2E2F2E2E 
 5043      2F6F732F 
 5043      72742F73 
 5043      72632F63 
 5044              	.LASF174:
 5045 0813 63685468 		.string	"chThdCreate"
 5045      64437265 
 5045      61746500 
 5046              	.LASF39:
 5047 081f 666C6167 		.string	"flags"
 5047      7300
 5048              	.LASF143:
 5049 0825 6669666F 		.string	"fifo_list"
 5049      5F6C6973 
 5049      7400
 5050              	.LASF86:
 5051 082f 77746F62 		.string	"wtobjp"
 5051      6A7000
 5052              	.LASF127:
 5053 0836 706F6F6C 		.string	"pool_header"
GAS LISTING /tmp/ccOro4nK.s 			page 98


 5053      5F686561 
 5053      64657200 
 5054              	.LASF103:
 5055 0842 73697A65 		.string	"size"
 5055      00
 5056              	.LASF183:
 5057 0847 474E5520 		.string	"GNU C17 8.3.0 -m32 -mtune=generic -march=i686 -ggdb -O2 -ffunction-sections -fdata-sectio
 5057      43313720 
 5057      382E332E 
 5057      30202D6D 
 5057      3332202D 
 5058              	.LASF48:
 5059 08c8 74687265 		.string	"threads_list_t"
 5059      6164735F 
 5059      6C697374 
 5059      5F7400
 5060              	.LASF58:
 5061 08d7 76746675 		.string	"vtfunc_t"
 5061      6E635F74 
 5061      00
 5062              	.LASF114:
 5063 08e0 6F66665F 		.string	"off_state"
 5063      73746174 
 5063      6500
 5064              	.LASF159:
 5065 08ea 63685379 		.string	"chSysUnlock"
 5065      73556E6C 
 5065      6F636B00 
 5066              	.LASF144:
 5067 08f6 6F626A65 		.string	"objects_factory_t"
 5067      6374735F 
 5067      66616374 
 5067      6F72795F 
 5067      7400
 5068              	.LASF115:
 5069 0908 6F66665F 		.string	"off_flags"
 5069      666C6167 
 5069      7300
 5070              	.LASF44:
 5071 0912 6D74786C 		.string	"mtxlist"
 5071      69737400 
 5072              	.LASF148:
 5073 091a 63685379 		.string	"chSysRestoreStatusX"
 5073      73526573 
 5073      746F7265 
 5073      53746174 
 5073      75735800 
 5074              	.LASF123:
 5075 092e 6E657874 		.string	"nextmem"
 5075      6D656D00 
 5076              	.LASF177:
 5077 0936 5F746D5F 		.string	"_tm_init"
 5077      696E6974 
 5077      00
 5078              		.ident	"GCC: (Ubuntu 8.3.0-6ubuntu1) 8.3.0"
 5079              		.section	.note.GNU-stack,"",@progbits
GAS LISTING /tmp/ccOro4nK.s 			page 99


DEFINED SYMBOLS
                            *ABS*:0000000000000000 chsys.c
     /tmp/ccOro4nK.s:7      .text._idle_thread:0000000000000000 _idle_thread
     /tmp/ccOro4nK.s:953    .text.__x86.get_pc_thunk.bx:0000000000000000 __x86.get_pc_thunk.bx
     /tmp/ccOro4nK.s:45     .text.chSysInit:0000000000000000 chSysInit
     /tmp/ccOro4nK.s:924    .data.rel.ro.local.idle_descriptor.2876:0000000000000000 idle_descriptor.2876
     /tmp/ccOro4nK.s:150    .text.chSysHalt:0000000000000000 chSysHalt
     /tmp/ccOro4nK.s:942    .text.__x86.get_pc_thunk.ax:0000000000000000 __x86.get_pc_thunk.ax
     /tmp/ccOro4nK.s:197    .text.chSysIntegrityCheckI:0000000000000000 chSysIntegrityCheckI
     /tmp/ccOro4nK.s:975    .text.__x86.get_pc_thunk.di:0000000000000000 __x86.get_pc_thunk.di
     /tmp/ccOro4nK.s:490    .text.chSysTimerHandlerI:0000000000000000 chSysTimerHandlerI
     /tmp/ccOro4nK.s:964    .text.__x86.get_pc_thunk.si:0000000000000000 __x86.get_pc_thunk.si
     /tmp/ccOro4nK.s:671    .text.chSysGetStatusAndLockX:0000000000000000 chSysGetStatusAndLockX
     /tmp/ccOro4nK.s:727    .text.chSysRestoreStatusX:0000000000000000 chSysRestoreStatusX
     /tmp/ccOro4nK.s:827    .text.chSysIsCounterWithinX:0000000000000000 chSysIsCounterWithinX
     /tmp/ccOro4nK.s:855    .text.chSysPolledDelayX:0000000000000000 chSysPolledDelayX
     /tmp/ccOro4nK.s:936    .bss.ch_idle_thread_wa:0000000000000000 ch_idle_thread_wa

UNDEFINED SYMBOLS
_GLOBAL_OFFSET_TABLE_
_sim_check_for_interrupts
_scheduler_init
_vt_init
_tm_init
_core_init
_heap_init
_factory_init
ch
ch_debug
_thread_init
port_irq_sts
port_isr_context_flag
chThdCreate
chSchRescheduleS
port_rt_get_counter_value
