GAS LISTING /tmp/ccOro4nK.s 			page 1


   1              		.file	"chsys.c"
   2              		.text
   3              	.Ltext0:
   4              		.section	.text._idle_thread,"ax",@progbits
   5              		.p2align 4,,15
   6              		.type	_idle_thread, @function
   7              	_idle_thread:
   8              	.LVL0:
   9              	.LFB138:
  10              		.file 1 "../../../os/rt/src/chsys.c"
  11              		.loc 1 72 35 view -0
  12              		.cfi_startproc
  13              		.loc 1 72 35 is_stmt 0 view .LVU1
  14 0000 53       		pushl	%ebx
  15              		.cfi_def_cfa_offset 8
  16              		.cfi_offset 3, -8
  17 0001 E8FCFFFF 		call	__x86.get_pc_thunk.bx
  17      FF
  18 0006 81C30200 		addl	$_GLOBAL_OFFSET_TABLE_, %ebx
  18      0000
  19 000c 83EC08   		subl	$8, %esp
  20              		.cfi_def_cfa_offset 16
  21 000f 90       		.p2align 4,,10
  22              		.p2align 3
  23              	.L2:
  24              		.loc 1 74 3 is_stmt 1 discriminator 1 view .LVU2
  25              		.loc 1 76 3 discriminator 1 view .LVU3
  26              		.loc 1 79 5 discriminator 1 view .LVU4
  27              	.LBB60:
  28              	.LBI60:
  29              		.file 2 "../../../os/common/ports/SIMIA32/chcore.h"
  30              		.loc 2 428 20 discriminator 1 view .LVU5
  31              	.LBB61:
  32              		.loc 2 430 3 discriminator 1 view .LVU6
  33 0010 E8FCFFFF 		call	_sim_check_for_interrupts@PLT
  33      FF
  34              	.LVL1:
  35 0015 EBF9     		jmp	.L2
  36              	.LBE61:
  37              	.LBE60:
  38              		.cfi_endproc
  39              	.LFE138:
  40              		.size	_idle_thread, .-_idle_thread
  41              		.section	.text.chSysInit,"ax",@progbits
  42              		.p2align 4,,15
  43              		.globl	chSysInit
  44              		.type	chSysInit, @function
  45              	chSysInit:
  46              	.LFB139:
  47              		.loc 1 100 22 view -0
  48              		.cfi_startproc
  49              		.loc 1 102 3 view .LVU8
  50              		.loc 1 100 22 is_stmt 0 view .LVU9
  51 0000 56       		pushl	%esi
  52              		.cfi_def_cfa_offset 8
  53              		.cfi_offset 6, -8
  54 0001 53       		pushl	%ebx
GAS LISTING /tmp/ccOro4nK.s 			page 2


  55              		.cfi_def_cfa_offset 12
  56              		.cfi_offset 3, -12
  57 0002 E8FCFFFF 		call	__x86.get_pc_thunk.bx
  57      FF
  58 0007 81C30200 		addl	$_GLOBAL_OFFSET_TABLE_, %ebx
  58      0000
  59 000d 83EC04   		subl	$4, %esp
  60              		.cfi_def_cfa_offset 16
  61              		.loc 1 102 3 view .LVU10
  62 0010 E8FCFFFF 		call	_scheduler_init@PLT
  62      FF
  63              	.LVL2:
  64              		.loc 1 103 3 is_stmt 1 view .LVU11
  65 0015 E8FCFFFF 		call	_vt_init@PLT
  65      FF
  66              	.LVL3:
  67              		.loc 1 104 16 view .LVU12
  68              		.loc 1 111 3 view .LVU13
  69 001a E8FCFFFF 		call	_tm_init@PLT
  69      FF
  70              	.LVL4:
  71              		.loc 1 114 3 view .LVU14
  72 001f E8FCFFFF 		call	_core_init@PLT
  72      FF
  73              	.LVL5:
  74              		.loc 1 117 3 view .LVU15
  75 0024 E8FCFFFF 		call	_heap_init@PLT
  75      FF
  76              	.LVL6:
  77              		.loc 1 120 3 view .LVU16
  78 0029 E8FCFFFF 		call	_factory_init@PLT
  78      FF
  79              	.LVL7:
  80              		.loc 1 129 3 view .LVU17
  81              		.loc 1 129 11 is_stmt 0 view .LVU18
  82 002e 8BB30000 		movl	ch@GOT(%ebx), %esi
  82      0000
  83 0034 83EC04   		subl	$4, %esp
  84              		.cfi_def_cfa_offset 20
  85 0037 68800000 		pushl	$128
  85      00
  86              		.cfi_def_cfa_offset 24
  87 003c 8D4630   		leal	48(%esi), %eax
  88 003f FFB30000 		pushl	ch_debug@GOT(%ebx)
  88      0000
  89              		.cfi_def_cfa_offset 28
  90 0045 50       		pushl	%eax
  91              		.cfi_def_cfa_offset 32
  92 0046 E8FCFFFF 		call	_thread_init@PLT
  92      FF
  93              	.LVL8:
  94              		.loc 1 129 9 view .LVU19
  95 004b 894618   		movl	%eax, 24(%esi)
  96              		.loc 1 146 3 is_stmt 1 view .LVU20
  97              		.loc 1 146 17 is_stmt 0 view .LVU21
  98 004e C7401C00 		movl	$0, 28(%eax)
  98      000000
GAS LISTING /tmp/ccOro4nK.s 			page 3


  99              		.loc 1 150 3 is_stmt 1 view .LVU22
 100              		.loc 1 150 16 is_stmt 0 view .LVU23
 101 0055 C6402001 		movb	$1, 32(%eax)
 102              		.loc 1 154 3 is_stmt 1 view .LVU24
 103              	.LBB62:
 104              	.LBI62:
 105              		.loc 2 316 20 view .LVU25
 106              	.LBB63:
 107              		.loc 2 318 3 view .LVU26
 108              		.loc 2 318 16 is_stmt 0 view .LVU27
 109 0059 8B830000 		movl	port_irq_sts@GOT(%ebx), %eax
 109      0000
 110 005f C7000000 		movl	$0, (%eax)
 110      0000
 111              		.loc 2 319 3 is_stmt 1 view .LVU28
 112              		.loc 2 319 25 is_stmt 0 view .LVU29
 113 0065 8B830000 		movl	port_isr_context_flag@GOT(%ebx), %eax
 113      0000
 114 006b C60000   		movb	$0, (%eax)
 115              	.LBE63:
 116              	.LBE62:
 117              		.loc 1 162 3 is_stmt 1 view .LVU30
 118              		.loc 1 162 28 view .LVU31
 119              		.loc 1 165 3 view .LVU32
 120              		.file 3 "../../../os/rt/include/chsys.h"
 121              		.loc 3 344 22 view .LVU33
 122              		.loc 3 345 3 view .LVU34
 123              		.loc 2 417 3 view .LVU35
 124              	.LBB64:
 125              		.loc 1 169 5 view .LVU36
 126              		.loc 1 181 5 view .LVU37
 127              		.loc 1 181 12 is_stmt 0 view .LVU38
 128 006e 8D830000 		leal	idle_descriptor.2876@GOTOFF(%ebx), %eax
 128      0000
 129 0074 890424   		movl	%eax, (%esp)
 130 0077 E8FCFFFF 		call	chThdCreate@PLT
 130      FF
 131              	.LVL9:
 132              	.LBE64:
 133              		.loc 1 184 1 view .LVU39
 134 007c 83C414   		addl	$20, %esp
 135              		.cfi_def_cfa_offset 12
 136 007f 5B       		popl	%ebx
 137              		.cfi_restore 3
 138              		.cfi_def_cfa_offset 8
 139 0080 5E       		popl	%esi
 140              		.cfi_restore 6
 141              		.cfi_def_cfa_offset 4
 142 0081 C3       		ret
 143              		.cfi_endproc
 144              	.LFE139:
 145              		.size	chSysInit, .-chSysInit
 146              		.section	.text.chSysHalt,"ax",@progbits
 147              		.p2align 4,,15
 148              		.globl	chSysHalt
 149              		.type	chSysHalt, @function
 150              	chSysHalt:
GAS LISTING /tmp/ccOro4nK.s 			page 4


 151              	.LVL10:
 152              	.LFB140:
 153              		.loc 1 198 36 is_stmt 1 view -0
 154              		.cfi_startproc
 155              		.loc 1 200 3 view .LVU41
 156              	.LBB65:
 157              	.LBI65:
 158              		.loc 2 399 20 view .LVU42
 159              	.LBB66:
 160              		.loc 2 401 3 view .LVU43
 161 0000 E8FCFFFF 		call	__x86.get_pc_thunk.ax
 161      FF
 162 0005 05010000 		addl	$_GLOBAL_OFFSET_TABLE_, %eax
 162      00
 163              		.loc 2 401 16 is_stmt 0 view .LVU44
 164 000a 8B900000 		movl	port_irq_sts@GOT(%eax), %edx
 164      0000
 165              	.LBE66:
 166              	.LBE65:
 167              		.loc 1 206 20 view .LVU45
 168 0010 8B800000 		movl	ch@GOT(%eax), %eax
 168      0000
 169              	.LBB68:
 170              	.LBB67:
 171              		.loc 2 401 16 view .LVU46
 172 0016 C7020100 		movl	$1, (%edx)
 172      0000
 173              	.LBE67:
 174              	.LBE68:
 175              		.loc 1 203 22 is_stmt 1 view .LVU47
 176              		.loc 1 206 3 view .LVU48
 177              		.loc 1 206 20 is_stmt 0 view .LVU49
 178 001c 8B542404 		movl	4(%esp), %edx
 179 0020 89502C   		movl	%edx, 44(%eax)
 180              	.L8:
 181              		.loc 1 209 3 is_stmt 1 discriminator 1 view .LVU50
 182              		.loc 1 209 34 discriminator 1 view .LVU51
 183              		.loc 1 212 3 discriminator 1 view .LVU52
 184              		.loc 1 213 3 discriminator 1 view .LVU53
 185              		.loc 1 209 3 discriminator 1 view .LVU54
 186              		.loc 1 209 34 discriminator 1 view .LVU55
 187              		.loc 1 212 3 discriminator 1 view .LVU56
 188              		.loc 1 213 3 discriminator 1 view .LVU57
 189 0023 EBFE     		jmp	.L8
 190              		.cfi_endproc
 191              	.LFE140:
 192              		.size	chSysHalt, .-chSysHalt
 193              		.section	.text.chSysIntegrityCheckI,"ax",@progbits
 194              		.p2align 4,,15
 195              		.globl	chSysIntegrityCheckI
 196              		.type	chSysIntegrityCheckI, @function
 197              	chSysIntegrityCheckI:
 198              	.LVL11:
 199              	.LFB141:
 200              		.loc 1 240 46 view -0
 201              		.cfi_startproc
 202              		.loc 1 241 3 view .LVU59
GAS LISTING /tmp/ccOro4nK.s 			page 5


 203              		.loc 1 243 21 view .LVU60
 204              		.loc 1 246 3 view .LVU61
 205              		.loc 1 240 46 is_stmt 0 view .LVU62
 206 0000 55       		pushl	%ebp
 207              		.cfi_def_cfa_offset 8
 208              		.cfi_offset 5, -8
 209 0001 57       		pushl	%edi
 210              		.cfi_def_cfa_offset 12
 211              		.cfi_offset 7, -12
 212 0002 E8FCFFFF 		call	__x86.get_pc_thunk.di
 212      FF
 213 0007 81C70200 		addl	$_GLOBAL_OFFSET_TABLE_, %edi
 213      0000
 214 000d 56       		pushl	%esi
 215              		.cfi_def_cfa_offset 16
 216              		.cfi_offset 6, -16
 217 000e 53       		pushl	%ebx
 218              		.cfi_def_cfa_offset 20
 219              		.cfi_offset 3, -20
 220              		.loc 1 240 46 view .LVU63
 221 000f 8B742414 		movl	20(%esp), %esi
 222              		.loc 1 246 6 view .LVU64
 223 0013 F7C60100 		testl	$1, %esi
 223      0000
 224 0019 7444     		je	.L10
 225              	.LBB69:
 226              		.loc 1 247 5 is_stmt 1 view .LVU65
 227              		.loc 1 250 5 view .LVU66
 228              	.LVL12:
 229              		.loc 1 251 5 view .LVU67
 230              		.loc 1 251 8 is_stmt 0 view .LVU68
 231 001b 8B870000 		movl	ch@GOT(%edi), %eax
 231      0000
 232              		.loc 1 250 7 view .LVU69
 233 0021 31D2     		xorl	%edx, %edx
 234              		.loc 1 251 8 view .LVU70
 235 0023 8B08     		movl	(%eax), %ecx
 236              	.LVL13:
 237              		.loc 1 252 5 is_stmt 1 view .LVU71
 238              		.loc 1 252 5 is_stmt 0 view .LVU72
 239 0025 8B5804   		movl	4(%eax), %ebx
 240              		.loc 1 252 11 view .LVU73
 241 0028 39C1     		cmpl	%eax, %ecx
 242 002a 0F84C000 		je	.L11
 242      0000
 243              	.LVL14:
 244              		.p2align 4,,10
 245              		.p2align 3
 246              	.L12:
 247              		.loc 1 253 7 is_stmt 1 view .LVU74
 248              		.loc 1 254 10 is_stmt 0 view .LVU75
 249 0030 8B09     		movl	(%ecx), %ecx
 250              	.LVL15:
 251              		.loc 1 253 8 view .LVU76
 252 0032 83C201   		addl	$1, %edx
 253              	.LVL16:
 254              		.loc 1 254 7 is_stmt 1 view .LVU77
GAS LISTING /tmp/ccOro4nK.s 			page 6


 255              		.loc 1 252 11 is_stmt 0 view .LVU78
 256 0035 39C1     		cmpl	%eax, %ecx
 257 0037 75F7     		jne	.L12
 258              		.loc 1 258 5 is_stmt 1 view .LVU79
 259              	.LVL17:
 260              		.loc 1 259 5 view .LVU80
 261              		.loc 1 259 11 is_stmt 0 view .LVU81
 262 0039 39CB     		cmpl	%ecx, %ebx
 263 003b 0F84BF00 		je	.L31
 263      0000
 264              	.LVL18:
 265              		.p2align 4,,10
 266 0041 8DB42600 		.p2align 3
 266      000000
 267              	.L16:
 268              		.loc 1 260 7 is_stmt 1 view .LVU82
 269              		.loc 1 261 10 is_stmt 0 view .LVU83
 270 0048 8B5B04   		movl	4(%ebx), %ebx
 271              	.LVL19:
 272              		.loc 1 260 8 view .LVU84
 273 004b 83EA01   		subl	$1, %edx
 274              	.LVL20:
 275              		.loc 1 261 7 is_stmt 1 view .LVU85
 276              		.loc 1 259 11 is_stmt 0 view .LVU86
 277 004e 39C3     		cmpl	%eax, %ebx
 278 0050 75F6     		jne	.L16
 279              		.loc 1 265 5 is_stmt 1 view .LVU87
 280              		.loc 1 266 14 is_stmt 0 view .LVU88
 281 0052 B8010000 		movl	$1, %eax
 281      00
 282              		.loc 1 265 8 view .LVU89
 283 0057 85D2     		testl	%edx, %edx
 284 0059 0F858800 		jne	.L9
 284      0000
 285              	.LVL21:
 286              	.L10:
 287              		.loc 1 265 8 view .LVU90
 288              	.LBE69:
 289              		.loc 1 271 3 is_stmt 1 view .LVU91
 290              		.loc 1 271 6 is_stmt 0 view .LVU92
 291 005f F7C60200 		testl	$2, %esi
 291      0000
 292 0065 743C     		je	.L17
 293              	.LBB70:
 294              		.loc 1 272 5 is_stmt 1 view .LVU93
 295              		.loc 1 275 5 view .LVU94
 296              	.LVL22:
 297              		.loc 1 276 5 view .LVU95
 298              		.loc 1 276 9 is_stmt 0 view .LVU96
 299 0067 8B870000 		movl	ch@GOT(%edi), %eax
 299      0000
 300              		.loc 1 275 7 view .LVU97
 301 006d 31D2     		xorl	%edx, %edx
 302              		.loc 1 276 9 view .LVU98
 303 006f 8B481C   		movl	28(%eax), %ecx
 304              	.LVL23:
 305              		.loc 1 277 5 is_stmt 1 view .LVU99
GAS LISTING /tmp/ccOro4nK.s 			page 7


 306              		.loc 1 277 11 is_stmt 0 view .LVU100
 307 0072 8D681C   		leal	28(%eax), %ebp
 308 0075 8B5820   		movl	32(%eax), %ebx
 309 0078 39E9     		cmpl	%ebp, %ecx
 310 007a 0F849000 		je	.L18
 310      0000
 311              	.LVL24:
 312              		.p2align 4,,10
 313              		.p2align 3
 314              	.L19:
 315              		.loc 1 278 7 is_stmt 1 view .LVU101
 316              		.loc 1 279 11 is_stmt 0 view .LVU102
 317 0080 8B09     		movl	(%ecx), %ecx
 318              	.LVL25:
 319              		.loc 1 278 8 view .LVU103
 320 0082 83C201   		addl	$1, %edx
 321              	.LVL26:
 322              		.loc 1 279 7 is_stmt 1 view .LVU104
 323              		.loc 1 277 11 is_stmt 0 view .LVU105
 324 0085 39E9     		cmpl	%ebp, %ecx
 325 0087 75F7     		jne	.L19
 326              		.loc 1 283 5 is_stmt 1 view .LVU106
 327              	.LVL27:
 328              		.loc 1 284 5 view .LVU107
 329              		.loc 1 284 11 is_stmt 0 view .LVU108
 330 0089 39CB     		cmpl	%ecx, %ebx
 331 008b 7473     		je	.L31
 332              	.LVL28:
 333              	.L21:
 334              		.loc 1 284 11 view .LVU109
 335 008d 83C01C   		addl	$28, %eax
 336              		.p2align 4,,10
 337              		.p2align 3
 338              	.L22:
 339              	.LVL29:
 340              		.loc 1 285 7 is_stmt 1 view .LVU110
 341              		.loc 1 286 11 is_stmt 0 view .LVU111
 342 0090 8B5B04   		movl	4(%ebx), %ebx
 343              	.LVL30:
 344              		.loc 1 285 8 view .LVU112
 345 0093 83EA01   		subl	$1, %edx
 346              	.LVL31:
 347              		.loc 1 286 7 is_stmt 1 view .LVU113
 348              		.loc 1 284 11 is_stmt 0 view .LVU114
 349 0096 39C3     		cmpl	%eax, %ebx
 350 0098 75F6     		jne	.L22
 351              		.loc 1 290 5 is_stmt 1 view .LVU115
 352              	.LBE70:
 353              	.LBB71:
 354              		.loc 1 266 14 is_stmt 0 view .LVU116
 355 009a B8010000 		movl	$1, %eax
 355      00
 356              	.LBE71:
 357              	.LBB72:
 358              		.loc 1 290 8 view .LVU117
 359 009f 85D2     		testl	%edx, %edx
 360 00a1 7544     		jne	.L9
GAS LISTING /tmp/ccOro4nK.s 			page 8


 361              	.LVL32:
 362              	.L17:
 363              		.loc 1 290 8 view .LVU118
 364              	.LBE72:
 365              		.loc 1 296 3 is_stmt 1 view .LVU119
 366              		.loc 1 327 10 is_stmt 0 view .LVU120
 367 00a3 31C0     		xorl	%eax, %eax
 368              		.loc 1 296 6 view .LVU121
 369 00a5 83E604   		andl	$4, %esi
 370 00a8 743D     		je	.L9
 371              	.LBB73:
 372              		.loc 1 297 5 is_stmt 1 view .LVU122
 373              		.loc 1 300 5 view .LVU123
 374              	.LVL33:
 375              		.loc 1 301 5 view .LVU124
 376              		.loc 1 301 8 is_stmt 0 view .LVU125
 377 00aa 8B870000 		movl	ch@GOT(%edi), %eax
 377      0000
 378              		.loc 1 300 7 view .LVU126
 379 00b0 31D2     		xorl	%edx, %edx
 380              		.loc 1 301 8 view .LVU127
 381 00b2 8B4810   		movl	16(%eax), %ecx
 382              	.LVL34:
 383              		.loc 1 302 5 is_stmt 1 view .LVU128
 384              		.loc 1 302 11 is_stmt 0 view .LVU129
 385 00b5 39C1     		cmpl	%eax, %ecx
 386 00b7 7411     		je	.L23
 387              	.LVL35:
 388 00b9 8DB42600 		.p2align 4,,10
 388      000000
 389              		.p2align 3
 390              	.L24:
 391              		.loc 1 303 7 is_stmt 1 view .LVU130
 392              		.loc 1 304 10 is_stmt 0 view .LVU131
 393 00c0 8B4910   		movl	16(%ecx), %ecx
 394              	.LVL36:
 395              		.loc 1 303 8 view .LVU132
 396 00c3 83C201   		addl	$1, %edx
 397              	.LVL37:
 398              		.loc 1 304 7 is_stmt 1 view .LVU133
 399              		.loc 1 302 11 is_stmt 0 view .LVU134
 400 00c6 39C1     		cmpl	%eax, %ecx
 401 00c8 75F6     		jne	.L24
 402              	.LVL38:
 403              	.L23:
 404              		.loc 1 308 5 is_stmt 1 view .LVU135
 405              		.loc 1 308 8 is_stmt 0 view .LVU136
 406 00ca 8B4814   		movl	20(%eax), %ecx
 407              	.LVL39:
 408              		.loc 1 309 5 is_stmt 1 view .LVU137
 409              		.loc 1 309 11 is_stmt 0 view .LVU138
 410 00cd 39C1     		cmpl	%eax, %ecx
 411 00cf 7411     		je	.L25
 412              		.p2align 4,,10
 413 00d1 8DB42600 		.p2align 3
 413      000000
 414              	.L26:
GAS LISTING /tmp/ccOro4nK.s 			page 9


 415              		.loc 1 310 7 is_stmt 1 view .LVU139
 416              		.loc 1 311 10 is_stmt 0 view .LVU140
 417 00d8 8B4914   		movl	20(%ecx), %ecx
 418              	.LVL40:
 419              		.loc 1 310 8 view .LVU141
 420 00db 83EA01   		subl	$1, %edx
 421              	.LVL41:
 422              		.loc 1 311 7 is_stmt 1 view .LVU142
 423              		.loc 1 309 11 is_stmt 0 view .LVU143
 424 00de 39C1     		cmpl	%eax, %ecx
 425 00e0 75F6     		jne	.L26
 426              	.L25:
 427              		.loc 1 315 5 is_stmt 1 view .LVU144
 428              		.loc 1 315 8 is_stmt 0 view .LVU145
 429 00e2 85D2     		testl	%edx, %edx
 430 00e4 0F95C0   		setne	%al
 431              	.LVL42:
 432              	.L9:
 433              		.loc 1 315 8 view .LVU146
 434              	.LBE73:
 435              		.loc 1 328 1 view .LVU147
 436 00e7 5B       		popl	%ebx
 437              		.cfi_remember_state
 438              		.cfi_restore 3
 439              		.cfi_def_cfa_offset 16
 440 00e8 5E       		popl	%esi
 441              		.cfi_restore 6
 442              		.cfi_def_cfa_offset 12
 443 00e9 5F       		popl	%edi
 444              		.cfi_restore 7
 445              		.cfi_def_cfa_offset 8
 446 00ea 5D       		popl	%ebp
 447              		.cfi_restore 5
 448              		.cfi_def_cfa_offset 4
 449 00eb C3       		ret
 450              	.LVL43:
 451 00ec 8D742600 		.p2align 4,,10
 452              		.p2align 3
 453              	.L11:
 454              		.cfi_restore_state
 455              	.LBB74:
 456              		.loc 1 258 5 is_stmt 1 view .LVU148
 457              		.loc 1 259 5 view .LVU149
 458              		.loc 1 259 11 is_stmt 0 view .LVU150
 459 00f0 39C3     		cmpl	%eax, %ebx
 460 00f2 0F8550FF 		jne	.L16
 460      FFFF
 461 00f8 E962FFFF 		jmp	.L10
 461      FF
 462              	.LVL44:
 463 00fd 8D7600   		.p2align 4,,10
 464              		.p2align 3
 465              	.L31:
 466              		.loc 1 266 14 view .LVU151
 467 0100 B8010000 		movl	$1, %eax
 467      00
 468 0105 EBE0     		jmp	.L9
GAS LISTING /tmp/ccOro4nK.s 			page 10


 469              	.LVL45:
 470 0107 8DB42600 		.p2align 4,,10
 470      00000066 
 470      90
 471              		.p2align 3
 472              	.L18:
 473              		.loc 1 266 14 view .LVU152
 474              	.LBE74:
 475              	.LBB75:
 476              		.loc 1 283 5 is_stmt 1 view .LVU153
 477              		.loc 1 284 5 view .LVU154
 478              		.loc 1 284 11 is_stmt 0 view .LVU155
 479 0110 39CB     		cmpl	%ecx, %ebx
 480 0112 0F8575FF 		jne	.L21
 480      FFFF
 481 0118 EB89     		jmp	.L17
 482              	.LBE75:
 483              		.cfi_endproc
 484              	.LFE141:
 485              		.size	chSysIntegrityCheckI, .-chSysIntegrityCheckI
 486              		.section	.text.chSysTimerHandlerI,"ax",@progbits
 487              		.p2align 4,,15
 488              		.globl	chSysTimerHandlerI
 489              		.type	chSysTimerHandlerI, @function
 490              	chSysTimerHandlerI:
 491              	.LFB142:
 492              		.loc 1 341 31 is_stmt 1 view -0
 493              		.cfi_startproc
 494              		.loc 1 343 21 view .LVU157
 495              		.loc 1 355 3 view .LVU158
 496              	.LBB85:
 497              	.LBI85:
 498              		.file 4 "../../../os/rt/include/chvt.h"
 499              		.loc 4 370 20 view .LVU159
 500              	.LBB86:
 501              		.loc 4 372 21 view .LVU160
 502              		.loc 4 375 3 view .LVU161
 503              	.LBE86:
 504              	.LBE85:
 505              		.loc 1 341 31 is_stmt 0 view .LVU162
 506 0000 57       		pushl	%edi
 507              		.cfi_def_cfa_offset 8
 508              		.cfi_offset 7, -8
 509 0001 56       		pushl	%esi
 510              		.cfi_def_cfa_offset 12
 511              		.cfi_offset 6, -12
 512 0002 E8FCFFFF 		call	__x86.get_pc_thunk.si
 512      FF
 513 0007 81C60200 		addl	$_GLOBAL_OFFSET_TABLE_, %esi
 513      0000
 514 000d 53       		pushl	%ebx
 515              		.cfi_def_cfa_offset 16
 516              		.cfi_offset 3, -16
 517              	.LBB109:
 518              	.LBB105:
 519              		.loc 4 375 12 view .LVU163
 520 000e 8B9E0000 		movl	ch@GOT(%esi), %ebx
GAS LISTING /tmp/ccOro4nK.s 			page 11


 520      0000
 521 0014 0FB74328 		movzwl	40(%ebx), %eax
 522              		.loc 4 376 6 view .LVU164
 523 0018 8D4B1C   		leal	28(%ebx), %ecx
 524              		.loc 4 375 20 view .LVU165
 525 001b 83C001   		addl	$1, %eax
 526 001e 66894328 		movw	%ax, 40(%ebx)
 527              		.loc 4 376 3 is_stmt 1 view .LVU166
 528              		.loc 4 376 55 is_stmt 0 view .LVU167
 529 0022 8B431C   		movl	28(%ebx), %eax
 530              		.loc 4 376 6 view .LVU168
 531 0025 39C8     		cmpl	%ecx, %eax
 532 0027 744A     		je	.L51
 533              		.loc 4 378 5 is_stmt 1 view .LVU169
 534              		.loc 4 379 11 is_stmt 0 view .LVU170
 535 0029 83680801 		subl	$1, 8(%eax)
 536 002d 7544     		jne	.L51
 537 002f 8BBE0000 		movl	port_irq_sts@GOT(%esi), %edi
 537      0000
 538              	.LBB87:
 539              		.loc 4 386 23 view .LVU171
 540 0035 89CE     		movl	%ecx, %esi
 541 0037 8DB42600 		.p2align 4,,10
 541      00000066 
 541      90
 542              		.p2align 3
 543              	.L53:
 544              		.loc 4 380 7 is_stmt 1 view .LVU172
 545              		.loc 4 381 7 view .LVU173
 546              		.loc 4 383 7 view .LVU174
 547              	.LVL46:
 548              		.loc 4 384 7 view .LVU175
 549              		.loc 4 386 10 is_stmt 0 view .LVU176
 550 0040 8B10     		movl	(%eax), %edx
 551              		.loc 4 384 10 view .LVU177
 552 0042 8B480C   		movl	12(%eax), %ecx
 553              	.LVL47:
 554              		.loc 4 385 7 is_stmt 1 view .LVU178
 555              		.loc 4 389 7 is_stmt 0 view .LVU179
 556 0045 83EC0C   		subl	$12, %esp
 557              		.cfi_def_cfa_offset 28
 558              		.loc 4 385 17 view .LVU180
 559 0048 C7400C00 		movl	$0, 12(%eax)
 559      000000
 560              		.loc 4 386 7 is_stmt 1 view .LVU181
 561              	.LBB88:
 562              	.LBB89:
 563              	.LBB90:
 564              		.loc 2 393 16 is_stmt 0 view .LVU182
 565 004f C7070000 		movl	$0, (%edi)
 565      0000
 566              	.LBE90:
 567              	.LBE89:
 568              	.LBE88:
 569              		.loc 4 386 23 view .LVU183
 570 0055 897204   		movl	%esi, 4(%edx)
 571              		.loc 4 387 7 is_stmt 1 view .LVU184
GAS LISTING /tmp/ccOro4nK.s 			page 12


 572              		.loc 4 389 7 is_stmt 0 view .LVU185
 573 0058 FF7010   		pushl	16(%eax)
 574              		.cfi_def_cfa_offset 32
 575              		.loc 4 387 22 view .LVU186
 576 005b 89531C   		movl	%edx, 28(%ebx)
 577              		.loc 4 388 7 is_stmt 1 view .LVU187
 578              	.LBB93:
 579              	.LBI88:
 580              		.loc 3 413 20 view .LVU188
 581              	.LBE93:
 582              	.LBE87:
 583              	.LBE105:
 584              	.LBE109:
 585              		.loc 3 415 31 view .LVU189
 586              		.loc 3 416 33 view .LVU190
 587              		.loc 3 417 3 view .LVU191
 588              	.LBB110:
 589              	.LBB106:
 590              	.LBB102:
 591              	.LBB94:
 592              	.LBB92:
 593              	.LBI89:
 594              		.loc 2 391 20 view .LVU192
 595              	.LBB91:
 596              		.loc 2 393 3 view .LVU193
 597              	.LBE91:
 598              	.LBE92:
 599              	.LBE94:
 600              		.loc 4 389 7 view .LVU194
 601 005e FFD1     		call	*%ecx
 602              	.LVL48:
 603              		.loc 4 390 7 view .LVU195
 604              	.LBB95:
 605              	.LBI95:
 606              		.loc 3 393 20 view .LVU196
 607              	.LBE95:
 608              	.LBE102:
 609              	.LBE106:
 610              	.LBE110:
 611              		.loc 3 395 3 view .LVU197
 612              	.LBB111:
 613              	.LBB107:
 614              	.LBB103:
 615              	.LBB100:
 616              	.LBB96:
 617              	.LBI96:
 618              		.loc 2 381 20 view .LVU198
 619              	.LBB97:
 620              		.loc 2 383 3 view .LVU199
 621              	.LBE97:
 622              	.LBE96:
 623              	.LBE100:
 624              	.LBE103:
 625              		.loc 4 379 21 is_stmt 0 view .LVU200
 626 0060 8B431C   		movl	28(%ebx), %eax
 627              	.LBB104:
 628              	.LBB101:
GAS LISTING /tmp/ccOro4nK.s 			page 13


 629              	.LBB99:
 630              	.LBB98:
 631              		.loc 2 383 16 view .LVU201
 632 0063 C7070100 		movl	$1, (%edi)
 632      0000
 633              	.LBE98:
 634              	.LBE99:
 635              	.LBE101:
 636              	.LBE104:
 637              	.LBE107:
 638              	.LBE111:
 639              		.loc 3 396 34 is_stmt 1 view .LVU202
 640              		.loc 3 397 29 view .LVU203
 641              	.LBB112:
 642              	.LBB108:
 643              		.loc 4 379 11 is_stmt 0 view .LVU204
 644 0069 83C410   		addl	$16, %esp
 645              		.cfi_def_cfa_offset 16
 646 006c 8B5008   		movl	8(%eax), %edx
 647 006f 85D2     		testl	%edx, %edx
 648 0071 74CD     		je	.L53
 649              	.L51:
 650              		.loc 4 379 11 view .LVU205
 651              	.LBE108:
 652              	.LBE112:
 653              		.loc 1 357 1 view .LVU206
 654 0073 5B       		popl	%ebx
 655              		.cfi_restore 3
 656              		.cfi_def_cfa_offset 12
 657 0074 5E       		popl	%esi
 658              		.cfi_restore 6
 659              		.cfi_def_cfa_offset 8
 660 0075 5F       		popl	%edi
 661              		.cfi_restore 7
 662              		.cfi_def_cfa_offset 4
 663 0076 C3       		ret
 664              		.cfi_endproc
 665              	.LFE142:
 666              		.size	chSysTimerHandlerI, .-chSysTimerHandlerI
 667              		.section	.text.chSysGetStatusAndLockX,"ax",@progbits
 668              		.p2align 4,,15
 669              		.globl	chSysGetStatusAndLockX
 670              		.type	chSysGetStatusAndLockX, @function
 671              	chSysGetStatusAndLockX:
 672              	.LFB143:
 673              		.loc 1 372 39 is_stmt 1 view -0
 674              		.cfi_startproc
 675              		.loc 1 374 3 view .LVU208
 676              	.LBB113:
 677              	.LBI113:
 678              		.loc 2 327 24 view .LVU209
 679              	.LBB114:
 680              		.loc 2 329 3 view .LVU210
 681 0000 E8FCFFFF 		call	__x86.get_pc_thunk.ax
 681      FF
 682 0005 05010000 		addl	$_GLOBAL_OFFSET_TABLE_, %eax
 682      00
GAS LISTING /tmp/ccOro4nK.s 			page 14


 683              		.loc 2 329 10 is_stmt 0 view .LVU211
 684 000a 8B900000 		movl	port_irq_sts@GOT(%eax), %edx
 684      0000
 685 0010 8B02     		movl	(%edx), %eax
 686              	.LVL49:
 687              		.loc 2 329 10 view .LVU212
 688              	.LBE114:
 689              	.LBE113:
 690              		.loc 1 375 3 is_stmt 1 view .LVU213
 691              		.loc 2 343 3 view .LVU214
 692              		.loc 1 375 6 is_stmt 0 view .LVU215
 693 0012 85C0     		testl	%eax, %eax
 694 0014 7506     		jne	.L56
 695              		.loc 1 376 5 is_stmt 1 view .LVU216
 696              		.loc 2 355 3 view .LVU217
 697              		.loc 1 377 7 view .LVU218
 698              	.LBB115:
 699              	.LBI115:
 700              		.loc 3 393 20 view .LVU219
 701              	.LBE115:
 702              		.loc 3 395 3 view .LVU220
 703              	.LBB118:
 704              	.LBB116:
 705              	.LBI116:
 706              		.loc 2 381 20 view .LVU221
 707              	.LBB117:
 708              		.loc 2 383 3 view .LVU222
 709              		.loc 2 383 16 is_stmt 0 view .LVU223
 710 0016 C7020100 		movl	$1, (%edx)
 710      0000
 711              	.LBE117:
 712              	.LBE116:
 713              	.LBE118:
 714              		.loc 3 396 34 is_stmt 1 view .LVU224
 715              		.loc 3 397 29 view .LVU225
 716              		.loc 1 383 3 view .LVU226
 717              	.L56:
 718              		.loc 1 384 1 is_stmt 0 view .LVU227
 719 001c C3       		ret
 720              		.cfi_endproc
 721              	.LFE143:
 722              		.size	chSysGetStatusAndLockX, .-chSysGetStatusAndLockX
 723              		.section	.text.chSysRestoreStatusX,"ax",@progbits
 724              		.p2align 4,,15
 725              		.globl	chSysRestoreStatusX
 726              		.type	chSysRestoreStatusX, @function
 727              	chSysRestoreStatusX:
 728              	.LVL50:
 729              	.LFB144:
 730              		.loc 1 395 40 is_stmt 1 view -0
 731              		.cfi_startproc
 732              		.loc 1 397 3 view .LVU229
 733              		.loc 1 395 40 is_stmt 0 view .LVU230
 734 0000 53       		pushl	%ebx
 735              		.cfi_def_cfa_offset 8
 736              		.cfi_offset 3, -8
 737 0001 E8FCFFFF 		call	__x86.get_pc_thunk.bx
GAS LISTING /tmp/ccOro4nK.s 			page 15


 737      FF
 738 0006 81C30200 		addl	$_GLOBAL_OFFSET_TABLE_, %ebx
 738      0000
 739 000c 83EC08   		subl	$8, %esp
 740              		.cfi_def_cfa_offset 16
 741              	.LVL51:
 742              		.loc 2 343 3 is_stmt 1 view .LVU231
 743              		.loc 1 397 6 is_stmt 0 view .LVU232
 744 000f 8B442410 		movl	16(%esp), %eax
 745 0013 85C0     		testl	%eax, %eax
 746 0015 7517     		jne	.L58
 747              		.loc 1 398 5 is_stmt 1 view .LVU233
 748              	.LBB119:
 749              	.LBI119:
 750              		.loc 2 353 20 view .LVU234
 751              	.LBB120:
 752              		.loc 2 355 3 view .LVU235
 753              		.loc 2 355 10 is_stmt 0 view .LVU236
 754 0017 8B830000 		movl	port_isr_context_flag@GOT(%ebx), %eax
 754      0000
 755              	.LBE120:
 756              	.LBE119:
 757              		.loc 1 398 8 view .LVU237
 758 001d 803800   		cmpb	$0, (%eax)
 759 0020 7416     		je	.L60
 760              		.loc 1 403 7 is_stmt 1 view .LVU238
 761              	.LBB121:
 762              	.LBI121:
 763              		.loc 3 365 20 view .LVU239
 764              	.LBB122:
 765              		.loc 3 367 22 view .LVU240
 766              		.loc 3 368 33 view .LVU241
 767              		.loc 3 374 3 view .LVU242
 768              		.loc 3 374 3 view .LVU243
 769              		.loc 3 378 3 view .LVU244
 770              	.LBB123:
 771              	.LBI123:
 772              		.loc 2 371 20 view .LVU245
 773              	.LBB124:
 774              		.loc 2 373 3 view .LVU246
 775              		.loc 2 373 16 is_stmt 0 view .LVU247
 776 0022 8B830000 		movl	port_irq_sts@GOT(%ebx), %eax
 776      0000
 777 0028 C7000000 		movl	$0, (%eax)
 777      0000
 778              	.L58:
 779              		.loc 2 373 16 view .LVU248
 780              	.LBE124:
 781              	.LBE123:
 782              	.LBE122:
 783              	.LBE121:
 784              		.loc 1 406 1 view .LVU249
 785 002e 83C408   		addl	$8, %esp
 786              		.cfi_remember_state
 787              		.cfi_def_cfa_offset 8
 788 0031 5B       		popl	%ebx
 789              		.cfi_restore 3
GAS LISTING /tmp/ccOro4nK.s 			page 16


 790              		.cfi_def_cfa_offset 4
 791 0032 C3       		ret
 792              		.p2align 4,,10
 793 0033 8D742600 		.p2align 3
 793      90
 794              	.L60:
 795              		.cfi_restore_state
 796              		.loc 1 402 7 is_stmt 1 view .LVU250
 797 0038 E8FCFFFF 		call	chSchRescheduleS@PLT
 797      FF
 798              	.LVL52:
 799              		.loc 1 403 7 view .LVU251
 800              	.LBB128:
 801              		.loc 3 365 20 view .LVU252
 802              	.LBB127:
 803              		.loc 3 367 22 view .LVU253
 804              		.loc 3 368 33 view .LVU254
 805              		.loc 3 374 3 view .LVU255
 806              		.loc 3 374 3 view .LVU256
 807              		.loc 3 378 3 view .LVU257
 808              	.LBB126:
 809              		.loc 2 371 20 view .LVU258
 810              	.LBB125:
 811              		.loc 2 373 3 view .LVU259
 812              		.loc 2 373 16 is_stmt 0 view .LVU260
 813 003d 8B830000 		movl	port_irq_sts@GOT(%ebx), %eax
 813      0000
 814 0043 C7000000 		movl	$0, (%eax)
 814      0000
 815 0049 EBE3     		jmp	.L58
 816              	.LBE125:
 817              	.LBE126:
 818              	.LBE127:
 819              	.LBE128:
 820              		.cfi_endproc
 821              	.LFE144:
 822              		.size	chSysRestoreStatusX, .-chSysRestoreStatusX
 823              		.section	.text.chSysIsCounterWithinX,"ax",@progbits
 824              		.p2align 4,,15
 825              		.globl	chSysIsCounterWithinX
 826              		.type	chSysIsCounterWithinX, @function
 827              	chSysIsCounterWithinX:
 828              	.LVL53:
 829              	.LFB145:
 830              		.loc 1 427 69 is_stmt 1 view -0
 831              		.cfi_startproc
 832              		.loc 1 429 3 view .LVU262
 833              		.loc 1 427 69 is_stmt 0 view .LVU263
 834 0000 8B442408 		movl	8(%esp), %eax
 835              		.loc 1 429 22 view .LVU264
 836 0004 8B542404 		movl	4(%esp), %edx
 837              		.loc 1 429 38 view .LVU265
 838 0008 8B4C240C 		movl	12(%esp), %ecx
 839              		.loc 1 429 22 view .LVU266
 840 000c 29C2     		subl	%eax, %edx
 841              		.loc 1 429 38 view .LVU267
 842 000e 29C1     		subl	%eax, %ecx
GAS LISTING /tmp/ccOro4nK.s 			page 17


 843              		.loc 1 429 10 view .LVU268
 844 0010 39CA     		cmpl	%ecx, %edx
 845 0012 0F92C0   		setb	%al
 846              		.loc 1 430 1 view .LVU269
 847 0015 C3       		ret
 848              		.cfi_endproc
 849              	.LFE145:
 850              		.size	chSysIsCounterWithinX, .-chSysIsCounterWithinX
 851              		.section	.text.chSysPolledDelayX,"ax",@progbits
 852              		.p2align 4,,15
 853              		.globl	chSysPolledDelayX
 854              		.type	chSysPolledDelayX, @function
 855              	chSysPolledDelayX:
 856              	.LVL54:
 857              	.LFB146:
 858              		.loc 1 443 40 is_stmt 1 view -0
 859              		.cfi_startproc
 860              		.loc 1 444 3 view .LVU271
 861              		.loc 1 443 40 is_stmt 0 view .LVU272
 862 0000 57       		pushl	%edi
 863              		.cfi_def_cfa_offset 8
 864              		.cfi_offset 7, -8
 865 0001 56       		pushl	%esi
 866              		.cfi_def_cfa_offset 12
 867              		.cfi_offset 6, -12
 868 0002 53       		pushl	%ebx
 869              		.cfi_def_cfa_offset 16
 870              		.cfi_offset 3, -16
 871              		.loc 1 443 40 view .LVU273
 872 0003 8B7C2410 		movl	16(%esp), %edi
 873 0007 E8FCFFFF 		call	__x86.get_pc_thunk.bx
 873      FF
 874 000c 81C30200 		addl	$_GLOBAL_OFFSET_TABLE_, %ebx
 874      0000
 875              		.loc 1 444 19 view .LVU274
 876 0012 E8FCFFFF 		call	port_rt_get_counter_value@PLT
 876      FF
 877              	.LVL55:
 878 0017 89C6     		movl	%eax, %esi
 879              	.LVL56:
 880              		.loc 1 445 3 is_stmt 1 view .LVU275
 881              		.loc 1 447 3 view .LVU276
 882 0019 8DB42600 		.p2align 4,,10
 882      000000
 883              		.p2align 3
 884              	.L65:
 885              		.loc 1 448 3 discriminator 1 view .LVU277
 886              		.loc 1 447 32 is_stmt 0 discriminator 1 view .LVU278
 887 0020 E8FCFFFF 		call	port_rt_get_counter_value@PLT
 887      FF
 888              	.LVL57:
 889              	.LBB129:
 890              	.LBI129:
 891              		.loc 1 427 6 is_stmt 1 discriminator 1 view .LVU279
 892              	.LBB130:
 893              		.loc 1 429 3 discriminator 1 view .LVU280
 894              		.loc 1 429 22 is_stmt 0 discriminator 1 view .LVU281
GAS LISTING /tmp/ccOro4nK.s 			page 18


 895 0025 29F0     		subl	%esi, %eax
 896              	.LBE130:
 897              	.LBE129:
 898              		.loc 1 447 9 discriminator 1 view .LVU282
 899 0027 39C7     		cmpl	%eax, %edi
 900 0029 77F5     		ja	.L65
 901              		.loc 1 449 1 view .LVU283
 902 002b 5B       		popl	%ebx
 903              		.cfi_restore 3
 904              		.cfi_def_cfa_offset 12
 905 002c 5E       		popl	%esi
 906              		.cfi_restore 6
 907              		.cfi_def_cfa_offset 8
 908              	.LVL58:
 909              		.loc 1 449 1 view .LVU284
 910 002d 5F       		popl	%edi
 911              		.cfi_restore 7
 912              		.cfi_def_cfa_offset 4
 913 002e C3       		ret
 914              		.cfi_endproc
 915              	.LFE146:
 916              		.size	chSysPolledDelayX, .-chSysPolledDelayX
 917              		.section	.rodata.str1.1,"aMS",@progbits,1
 918              	.LC0:
 919 0000 69646C65 		.string	"idle"
 919      00
 920              		.section	.data.rel.ro.local.idle_descriptor.2876,"aw"
 921              		.align 4
 922              		.type	idle_descriptor.2876, @object
 923              		.size	idle_descriptor.2876, 24
 924              	idle_descriptor.2876:
 925 0000 00000000 		.long	.LC0
 926 0004 00000000 		.long	ch_idle_thread_wa
 927 0008 70410000 		.long	ch_idle_thread_wa+16752
 928 000c 01000000 		.long	1
 929 0010 00000000 		.long	_idle_thread
 930 0014 00000000 		.long	0
 931              		.globl	ch_idle_thread_wa
 932              		.section	.bss.ch_idle_thread_wa,"aw",@nobits
 933              		.align 32
 934              		.type	ch_idle_thread_wa, @object
 935              		.size	ch_idle_thread_wa, 16752
 936              	ch_idle_thread_wa:
 937 0000 00000000 		.zero	16752
 937      00000000 
 937      00000000 
 937      00000000 
 937      00000000 
 938              		.section	.text.__x86.get_pc_thunk.ax,"axG",@progbits,__x86.get_pc_thunk.ax,comdat
 939              		.globl	__x86.get_pc_thunk.ax
 940              		.hidden	__x86.get_pc_thunk.ax
 941              		.type	__x86.get_pc_thunk.ax, @function
 942              	__x86.get_pc_thunk.ax:
 943              	.LFB147:
 944              		.cfi_startproc
 945 0000 8B0424   		movl	(%esp), %eax
 946 0003 C3       		ret
GAS LISTING /tmp/ccOro4nK.s 			page 19


 947              		.cfi_endproc
 948              	.LFE147:
 949              		.section	.text.__x86.get_pc_thunk.bx,"axG",@progbits,__x86.get_pc_thunk.bx,comdat
 950              		.globl	__x86.get_pc_thunk.bx
 951              		.hidden	__x86.get_pc_thunk.bx
 952              		.type	__x86.get_pc_thunk.bx, @function
 953              	__x86.get_pc_thunk.bx:
 954              	.LFB148:
 955              		.cfi_startproc
 956 0000 8B1C24   		movl	(%esp), %ebx
 957 0003 C3       		ret
 958              		.cfi_endproc
 959              	.LFE148:
 960              		.section	.text.__x86.get_pc_thunk.si,"axG",@progbits,__x86.get_pc_thunk.si,comdat
 961              		.globl	__x86.get_pc_thunk.si
 962              		.hidden	__x86.get_pc_thunk.si
 963              		.type	__x86.get_pc_thunk.si, @function
 964              	__x86.get_pc_thunk.si:
 965              	.LFB149:
 966              		.cfi_startproc
 967 0000 8B3424   		movl	(%esp), %esi
 968 0003 C3       		ret
 969              		.cfi_endproc
 970              	.LFE149:
 971              		.section	.text.__x86.get_pc_thunk.di,"axG",@progbits,__x86.get_pc_thunk.di,comdat
 972              		.globl	__x86.get_pc_thunk.di
 973              		.hidden	__x86.get_pc_thunk.di
 974              		.type	__x86.get_pc_thunk.di, @function
 975              	__x86.get_pc_thunk.di:
 976              	.LFB150:
 977              		.cfi_startproc
 978 0000 8B3C24   		movl	(%esp), %edi
 979 0003 C3       		ret
 980              		.cfi_endproc
 981              	.LFE150:
 982              		.text
 983              	.Letext0:
 984              		.file 5 "/usr/lib/gcc/x86_64-linux-gnu/8/include/stddef.h"
 985              		.file 6 "/usr/include/i386-linux-gnu/bits/types.h"
 986              		.file 7 "/usr/include/i386-linux-gnu/bits/stdint-intn.h"
 987              		.file 8 "/usr/include/i386-linux-gnu/bits/stdint-uintn.h"
 988              		.file 9 "../../../os/common/ports/SIMIA32/compilers/GCC/chtypes.h"
 989              		.file 10 "../../../os/rt/include/chsystypes.h"
 990              		.file 11 "../../../os/rt/include/chschd.h"
 991              		.file 12 "../../../os/rt/include/chtime.h"
 992              		.file 13 "../../../os/rt/include/chtm.h"
 993              		.file 14 "../../../os/rt/include/chsem.h"
 994              		.file 15 "../../../os/rt/include/chmtx.h"
 995              		.file 16 "../../../os/rt/include/chthreads.h"
 996              		.file 17 "../../../os/rt/include/chregistry.h"
 997              		.file 18 "../../../os/common/oslib/include/chmemcore.h"
 998              		.file 19 "../../../os/common/oslib/include/chmempools.h"
 999              		.file 20 "../../../os/common/oslib/include/chfactory.h"
 1000              		.file 21 "../../../os/common/oslib/include/chheap.h"
 5079              		.section	.note.GNU-stack,"",@progbits
GAS LISTING /tmp/ccOro4nK.s 			page 99

