GAS LISTING /tmp/ccg3QyJX.s 			page 1


   1              		.file	"chtm.c"
   2              		.text
   3              	.Ltext0:
   4              		.section	.text.chTMObjectInit,"ax",@progbits
   5              		.p2align 4,,15
   6              		.globl	chTMObjectInit
   7              		.type	chTMObjectInit, @function
   8              	chTMObjectInit:
   9              	.LVL0:
  10              	.LFB140:
  11              		.file 1 "../../../os/rt/src/chtm.c"
  12              		.loc 1 97 46 view -0
  13              		.cfi_startproc
  14              		.loc 1 99 3 view .LVU1
  15              		.loc 1 97 46 is_stmt 0 view .LVU2
  16 0000 8B442404 		movl	4(%esp), %eax
  17              		.loc 1 99 19 view .LVU3
  18 0004 C700FFFF 		movl	$-1, (%eax)
  18      FFFF
  19              		.loc 1 100 3 is_stmt 1 view .LVU4
  20              		.loc 1 100 19 is_stmt 0 view .LVU5
  21 000a C7400400 		movl	$0, 4(%eax)
  21      000000
  22              		.loc 1 101 3 is_stmt 1 view .LVU6
  23              		.loc 1 101 19 is_stmt 0 view .LVU7
  24 0011 C7400800 		movl	$0, 8(%eax)
  24      000000
  25              		.loc 1 102 3 is_stmt 1 view .LVU8
  26              		.loc 1 102 19 is_stmt 0 view .LVU9
  27 0018 C7400C00 		movl	$0, 12(%eax)
  27      000000
  28              		.loc 1 103 3 is_stmt 1 view .LVU10
  29              		.loc 1 103 19 is_stmt 0 view .LVU11
  30 001f C7401000 		movl	$0, 16(%eax)
  30      000000
  31 0026 C7401400 		movl	$0, 20(%eax)
  31      000000
  32              		.loc 1 104 1 view .LVU12
  33 002d C3       		ret
  34              		.cfi_endproc
  35              	.LFE140:
  36              		.size	chTMObjectInit, .-chTMObjectInit
  37              		.section	.text.chTMStartMeasurementX,"ax",@progbits
  38              		.p2align 4,,15
  39              		.globl	chTMStartMeasurementX
  40              		.type	chTMStartMeasurementX, @function
  41              	chTMStartMeasurementX:
  42              	.LVL1:
  43              	.LFB141:
  44              		.loc 1 114 62 is_stmt 1 view -0
  45              		.cfi_startproc
  46              		.loc 1 116 3 view .LVU14
  47              		.loc 1 114 62 is_stmt 0 view .LVU15
  48 0000 53       		pushl	%ebx
  49              		.cfi_def_cfa_offset 8
  50              		.cfi_offset 3, -8
  51 0001 E8FCFFFF 		call	__x86.get_pc_thunk.bx
GAS LISTING /tmp/ccg3QyJX.s 			page 2


  51      FF
  52 0006 81C30200 		addl	$_GLOBAL_OFFSET_TABLE_, %ebx
  52      0000
  53 000c 83EC08   		subl	$8, %esp
  54              		.cfi_def_cfa_offset 16
  55              		.loc 1 116 15 view .LVU16
  56 000f E8FCFFFF 		call	port_rt_get_counter_value@PLT
  56      FF
  57              	.LVL2:
  58              		.loc 1 116 13 view .LVU17
  59 0014 8B542410 		movl	16(%esp), %edx
  60 0018 894208   		movl	%eax, 8(%edx)
  61              		.loc 1 117 1 view .LVU18
  62 001b 83C408   		addl	$8, %esp
  63              		.cfi_def_cfa_offset 8
  64 001e 5B       		popl	%ebx
  65              		.cfi_restore 3
  66              		.cfi_def_cfa_offset 4
  67 001f C3       		ret
  68              		.cfi_endproc
  69              	.LFE141:
  70              		.size	chTMStartMeasurementX, .-chTMStartMeasurementX
  71              		.section	.text.chTMStopMeasurementX,"ax",@progbits
  72              		.p2align 4,,15
  73              		.globl	chTMStopMeasurementX
  74              		.type	chTMStopMeasurementX, @function
  75              	chTMStopMeasurementX:
  76              	.LVL3:
  77              	.LFB142:
  78              		.loc 1 127 61 is_stmt 1 view -0
  79              		.cfi_startproc
  80              		.loc 1 129 3 view .LVU20
  81              		.loc 1 127 61 is_stmt 0 view .LVU21
  82 0000 57       		pushl	%edi
  83              		.cfi_def_cfa_offset 8
  84              		.cfi_offset 7, -8
  85 0001 56       		pushl	%esi
  86              		.cfi_def_cfa_offset 12
  87              		.cfi_offset 6, -12
  88 0002 53       		pushl	%ebx
  89              		.cfi_def_cfa_offset 16
  90              		.cfi_offset 3, -16
  91              		.loc 1 127 61 view .LVU22
  92 0003 8B742410 		movl	16(%esp), %esi
  93 0007 E8FCFFFF 		call	__x86.get_pc_thunk.bx
  93      FF
  94 000c 81C30200 		addl	$_GLOBAL_OFFSET_TABLE_, %ebx
  94      0000
  95              		.loc 1 129 3 view .LVU23
  96 0012 8B830000 		movl	ch@GOT(%ebx), %eax
  96      0000
  97 0018 8B7874   		movl	116(%eax), %edi
  98              		.loc 1 129 16 view .LVU24
  99 001b E8FCFFFF 		call	port_rt_get_counter_value@PLT
  99      FF
 100              	.LVL4:
 101              	.LBB8:
GAS LISTING /tmp/ccg3QyJX.s 			page 3


 102              	.LBI8:
 103              		.loc 1 53 20 is_stmt 1 view .LVU25
 104              	.LBB9:
 105              		.loc 1 57 3 view .LVU26
 106              		.loc 1 58 33 is_stmt 0 view .LVU27
 107 0020 037E08   		addl	8(%esi), %edi
 108              	.LVL5:
 109              		.loc 1 59 22 view .LVU28
 110 0023 31DB     		xorl	%ebx, %ebx
 111              		.loc 1 57 9 view .LVU29
 112 0025 83460C01 		addl	$1, 12(%esi)
 113              		.loc 1 58 3 is_stmt 1 view .LVU30
 114              		.loc 1 58 33 is_stmt 0 view .LVU31
 115 0029 29F8     		subl	%edi, %eax
 116              	.LVL6:
 117              		.loc 1 59 19 view .LVU32
 118 002b 014610   		addl	%eax, 16(%esi)
 119              		.loc 1 58 13 view .LVU33
 120 002e 894608   		movl	%eax, 8(%esi)
 121              		.loc 1 59 3 is_stmt 1 view .LVU34
 122              		.loc 1 59 19 is_stmt 0 view .LVU35
 123 0031 115E14   		adcl	%ebx, 20(%esi)
 124              		.loc 1 60 3 is_stmt 1 view .LVU36
 125              		.loc 1 60 6 is_stmt 0 view .LVU37
 126 0034 3B4604   		cmpl	4(%esi), %eax
 127 0037 7603     		jbe	.L6
 128              		.loc 1 61 5 is_stmt 1 view .LVU38
 129              		.loc 1 61 16 is_stmt 0 view .LVU39
 130 0039 894604   		movl	%eax, 4(%esi)
 131              	.L6:
 132              		.loc 1 63 3 is_stmt 1 view .LVU40
 133              		.loc 1 63 6 is_stmt 0 view .LVU41
 134 003c 3B06     		cmpl	(%esi), %eax
 135 003e 7302     		jnb	.L5
 136              		.loc 1 64 5 is_stmt 1 view .LVU42
 137              		.loc 1 64 15 is_stmt 0 view .LVU43
 138 0040 8906     		movl	%eax, (%esi)
 139              	.LVL7:
 140              	.L5:
 141              		.loc 1 64 15 view .LVU44
 142              	.LBE9:
 143              	.LBE8:
 144              		.loc 1 130 1 view .LVU45
 145 0042 5B       		popl	%ebx
 146              		.cfi_restore 3
 147              		.cfi_def_cfa_offset 12
 148 0043 5E       		popl	%esi
 149              		.cfi_restore 6
 150              		.cfi_def_cfa_offset 8
 151 0044 5F       		popl	%edi
 152              		.cfi_restore 7
 153              		.cfi_def_cfa_offset 4
 154 0045 C3       		ret
 155              		.cfi_endproc
 156              	.LFE142:
 157              		.size	chTMStopMeasurementX, .-chTMStopMeasurementX
 158              		.section	.text._tm_init,"ax",@progbits
GAS LISTING /tmp/ccg3QyJX.s 			page 4


 159              		.p2align 4,,15
 160              		.globl	_tm_init
 161              		.type	_tm_init, @function
 162              	_tm_init:
 163              	.LFB139:
 164              		.loc 1 77 21 is_stmt 1 view -0
 165              		.cfi_startproc
 166 0000 E8FCFFFF 		call	__x86.get_pc_thunk.ax
 166      FF
 167 0005 05010000 		addl	$_GLOBAL_OFFSET_TABLE_, %eax
 167      00
 168 000a 56       		pushl	%esi
 169              		.cfi_def_cfa_offset 8
 170              		.cfi_offset 6, -8
 171 000b 53       		pushl	%ebx
 172              		.cfi_def_cfa_offset 12
 173              		.cfi_offset 3, -12
 174 000c 83EC30   		subl	$48, %esp
 175              		.cfi_def_cfa_offset 60
 176              		.loc 1 77 21 is_stmt 0 view .LVU47
 177 000f 658B1514 		movl	%gs:20, %edx
 177      000000
 178 0016 89542428 		movl	%edx, 40(%esp)
 179 001a 31D2     		xorl	%edx, %edx
 180              		.loc 1 78 3 is_stmt 1 view .LVU48
 181              		.loc 1 83 3 view .LVU49
 182              		.loc 1 85 3 is_stmt 0 view .LVU50
 183 001c 8D742410 		leal	16(%esp), %esi
 184              	.LBB10:
 185              	.LBB11:
 186              		.loc 1 99 19 view .LVU51
 187 0020 C7442410 		movl	$-1, 16(%esp)
 187      FFFFFFFF 
 188              		.loc 1 100 19 view .LVU52
 189 0028 C7442414 		movl	$0, 20(%esp)
 189      00000000 
 190              	.LBE11:
 191              	.LBE10:
 192              		.loc 1 83 16 view .LVU53
 193 0030 8B980000 		movl	ch@GOT(%eax), %ebx
 193      0000
 194              	.LBB14:
 195              	.LBB12:
 196              		.loc 1 101 19 view .LVU54
 197 0036 C7442418 		movl	$0, 24(%esp)
 197      00000000 
 198              		.loc 1 102 19 view .LVU55
 199 003e C744241C 		movl	$0, 28(%esp)
 199      00000000 
 200              		.loc 1 103 19 view .LVU56
 201 0046 C7442420 		movl	$0, 32(%esp)
 201      00000000 
 202 004e C7442424 		movl	$0, 36(%esp)
 202      00000000 
 203              	.LBE12:
 204              	.LBE14:
 205              		.loc 1 85 3 view .LVU57
GAS LISTING /tmp/ccg3QyJX.s 			page 5


 206 0056 56       		pushl	%esi
 207              		.cfi_def_cfa_offset 64
 208              		.loc 1 83 16 view .LVU58
 209 0057 C7437400 		movl	$0, 116(%ebx)
 209      000000
 210              		.loc 1 84 3 is_stmt 1 view .LVU59
 211              	.LBB15:
 212              	.LBI10:
 213              		.loc 1 97 6 view .LVU60
 214              	.LBB13:
 215              		.loc 1 99 3 view .LVU61
 216              		.loc 1 100 3 view .LVU62
 217              		.loc 1 101 3 view .LVU63
 218              		.loc 1 102 3 view .LVU64
 219              		.loc 1 103 3 view .LVU65
 220              	.LBE13:
 221              	.LBE15:
 222              		.loc 1 85 3 view .LVU66
 223 005e E8FCFFFF 		call	chTMStartMeasurementX
 223      FF
 224              	.LVL8:
 225              		.loc 1 86 3 view .LVU67
 226 0063 893424   		movl	%esi, (%esp)
 227 0066 E8FCFFFF 		call	chTMStopMeasurementX
 227      FF
 228              	.LVL9:
 229              		.loc 1 87 3 view .LVU68
 230              		.loc 1 87 16 is_stmt 0 view .LVU69
 231 006b 8B44241C 		movl	28(%esp), %eax
 232              		.loc 1 88 1 view .LVU70
 233 006f 83C410   		addl	$16, %esp
 234              		.cfi_def_cfa_offset 48
 235              		.loc 1 87 16 view .LVU71
 236 0072 894374   		movl	%eax, 116(%ebx)
 237              		.loc 1 88 1 view .LVU72
 238 0075 8B44241C 		movl	28(%esp), %eax
 239 0079 65330514 		xorl	%gs:20, %eax
 239      000000
 240 0080 7506     		jne	.L12
 241 0082 83C424   		addl	$36, %esp
 242              		.cfi_remember_state
 243              		.cfi_def_cfa_offset 12
 244 0085 5B       		popl	%ebx
 245              		.cfi_restore 3
 246              		.cfi_def_cfa_offset 8
 247 0086 5E       		popl	%esi
 248              		.cfi_restore 6
 249              		.cfi_def_cfa_offset 4
 250 0087 C3       		ret
 251              	.L12:
 252              		.cfi_restore_state
 253 0088 E8FCFFFF 		call	__stack_chk_fail_local
 253      FF
 254              	.LVL10:
 255              		.cfi_endproc
 256              	.LFE139:
 257              		.size	_tm_init, .-_tm_init
GAS LISTING /tmp/ccg3QyJX.s 			page 6


 258              		.section	.text.chTMChainMeasurementToX,"ax",@progbits
 259              		.p2align 4,,15
 260              		.globl	chTMChainMeasurementToX
 261              		.type	chTMChainMeasurementToX, @function
 262              	chTMChainMeasurementToX:
 263              	.LVL11:
 264              	.LFB143:
 265              		.loc 1 145 65 is_stmt 1 view -0
 266              		.cfi_startproc
 267              		.loc 1 148 3 view .LVU74
 268              		.loc 1 145 65 is_stmt 0 view .LVU75
 269 0000 56       		pushl	%esi
 270              		.cfi_def_cfa_offset 8
 271              		.cfi_offset 6, -8
 272 0001 53       		pushl	%ebx
 273              		.cfi_def_cfa_offset 12
 274              		.cfi_offset 3, -12
 275 0002 E8FCFFFF 		call	__x86.get_pc_thunk.bx
 275      FF
 276 0007 81C30200 		addl	$_GLOBAL_OFFSET_TABLE_, %ebx
 276      0000
 277 000d 83EC04   		subl	$4, %esp
 278              		.cfi_def_cfa_offset 16
 279              		.loc 1 145 65 view .LVU76
 280 0010 8B742410 		movl	16(%esp), %esi
 281              		.loc 1 148 16 view .LVU77
 282 0014 E8FCFFFF 		call	port_rt_get_counter_value@PLT
 282      FF
 283              	.LVL12:
 284              		.loc 1 148 14 view .LVU78
 285 0019 8B542414 		movl	20(%esp), %edx
 286              	.LBB16:
 287              	.LBB17:
 288              		.loc 1 59 22 view .LVU79
 289 001d 31DB     		xorl	%ebx, %ebx
 290              	.LBE17:
 291              	.LBE16:
 292              		.loc 1 148 14 view .LVU80
 293 001f 894208   		movl	%eax, 8(%edx)
 294              		.loc 1 151 3 is_stmt 1 view .LVU81
 295              	.LVL13:
 296              	.LBB19:
 297              	.LBI16:
 298              		.loc 1 53 20 view .LVU82
 299              	.LBB18:
 300              		.loc 1 57 3 view .LVU83
 301              		.loc 1 58 20 is_stmt 0 view .LVU84
 302 0022 2B4608   		subl	8(%esi), %eax
 303              	.LVL14:
 304              		.loc 1 57 9 view .LVU85
 305 0025 83460C01 		addl	$1, 12(%esi)
 306              		.loc 1 58 3 is_stmt 1 view .LVU86
 307              		.loc 1 58 13 is_stmt 0 view .LVU87
 308 0029 894608   		movl	%eax, 8(%esi)
 309              	.LVL15:
 310              		.loc 1 59 3 is_stmt 1 view .LVU88
 311              		.loc 1 59 19 is_stmt 0 view .LVU89
GAS LISTING /tmp/ccg3QyJX.s 			page 7


 312 002c 014610   		addl	%eax, 16(%esi)
 313 002f 115E14   		adcl	%ebx, 20(%esi)
 314              		.loc 1 60 3 is_stmt 1 view .LVU90
 315              		.loc 1 60 6 is_stmt 0 view .LVU91
 316 0032 3B4604   		cmpl	4(%esi), %eax
 317 0035 7603     		jbe	.L14
 318              		.loc 1 61 5 is_stmt 1 view .LVU92
 319              		.loc 1 61 16 is_stmt 0 view .LVU93
 320 0037 894604   		movl	%eax, 4(%esi)
 321              	.L14:
 322              		.loc 1 63 3 is_stmt 1 view .LVU94
 323              		.loc 1 63 6 is_stmt 0 view .LVU95
 324 003a 3B06     		cmpl	(%esi), %eax
 325 003c 7302     		jnb	.L13
 326              		.loc 1 64 5 is_stmt 1 view .LVU96
 327              		.loc 1 64 15 is_stmt 0 view .LVU97
 328 003e 8906     		movl	%eax, (%esi)
 329              	.LVL16:
 330              	.L13:
 331              		.loc 1 64 15 view .LVU98
 332              	.LBE18:
 333              	.LBE19:
 334              		.loc 1 152 1 view .LVU99
 335 0040 83C404   		addl	$4, %esp
 336              		.cfi_def_cfa_offset 12
 337 0043 5B       		popl	%ebx
 338              		.cfi_restore 3
 339              		.cfi_def_cfa_offset 8
 340 0044 5E       		popl	%esi
 341              		.cfi_restore 6
 342              		.cfi_def_cfa_offset 4
 343 0045 C3       		ret
 344              		.cfi_endproc
 345              	.LFE143:
 346              		.size	chTMChainMeasurementToX, .-chTMChainMeasurementToX
 347              		.section	.text.__x86.get_pc_thunk.ax,"axG",@progbits,__x86.get_pc_thunk.ax,comdat
 348              		.globl	__x86.get_pc_thunk.ax
 349              		.hidden	__x86.get_pc_thunk.ax
 350              		.type	__x86.get_pc_thunk.ax, @function
 351              	__x86.get_pc_thunk.ax:
 352              	.LFB144:
 353              		.cfi_startproc
 354 0000 8B0424   		movl	(%esp), %eax
 355 0003 C3       		ret
 356              		.cfi_endproc
 357              	.LFE144:
 358              		.section	.text.__x86.get_pc_thunk.bx,"axG",@progbits,__x86.get_pc_thunk.bx,comdat
 359              		.globl	__x86.get_pc_thunk.bx
 360              		.hidden	__x86.get_pc_thunk.bx
 361              		.type	__x86.get_pc_thunk.bx, @function
 362              	__x86.get_pc_thunk.bx:
 363              	.LFB145:
 364              		.cfi_startproc
 365 0000 8B1C24   		movl	(%esp), %ebx
 366 0003 C3       		ret
 367              		.cfi_endproc
 368              	.LFE145:
GAS LISTING /tmp/ccg3QyJX.s 			page 8


 369              		.text
 370              	.Letext0:
 371              		.file 2 "/usr/lib/gcc/x86_64-linux-gnu/8/include/stddef.h"
 372              		.file 3 "/usr/include/i386-linux-gnu/bits/types.h"
 373              		.file 4 "/usr/include/i386-linux-gnu/bits/stdint-intn.h"
 374              		.file 5 "/usr/include/i386-linux-gnu/bits/stdint-uintn.h"
 375              		.file 6 "../../../os/common/ports/SIMIA32/compilers/GCC/chtypes.h"
 376              		.file 7 "../../../os/rt/include/chsystypes.h"
 377              		.file 8 "../../../os/rt/include/chschd.h"
 378              		.file 9 "../../../os/rt/include/chtime.h"
 379              		.file 10 "../../../os/common/ports/SIMIA32/chcore.h"
 380              		.file 11 "../../../os/rt/include/chtm.h"
 381              		.file 12 "../../../os/rt/include/chsem.h"
 382              		.file 13 "../../../os/rt/include/chmtx.h"
 383              		.file 14 "../../../os/rt/include/chsys.h"
 384              		.file 15 "../../../os/rt/include/chregistry.h"
 385              		.file 16 "../../../os/common/oslib/include/chmemcore.h"
 386              		.file 17 "../../../os/common/oslib/include/chmempools.h"
 387              		.file 18 "../../../os/common/oslib/include/chfactory.h"
 3127              		.section	.note.GNU-stack,"",@progbits
GAS LISTING /tmp/ccg3QyJX.s 			page 63

