GAS LISTING /tmp/ccXK4QHU.s 			page 1


   1              		.file	"chvt.c"
   2              		.text
   3              	.Ltext0:
   4              		.section	.text._vt_init,"ax",@progbits
   5              		.p2align 4,,15
   6              		.globl	_vt_init
   7              		.type	_vt_init, @function
   8              	_vt_init:
   9              	.LFB138:
  10              		.file 1 "../../../os/rt/src/chvt.c"
  11              		.loc 1 61 21 view -0
  12              		.cfi_startproc
  13              		.loc 1 63 3 view .LVU1
  14 0000 E8FCFFFF 		call	__x86.get_pc_thunk.ax
  14      FF
  15 0005 05010000 		addl	$_GLOBAL_OFFSET_TABLE_, %eax
  15      00
  16              		.loc 1 63 18 is_stmt 0 view .LVU2
  17 000a 8B800000 		movl	ch@GOT(%eax), %eax
  17      0000
  18 0010 8D501C   		leal	28(%eax), %edx
  19              		.loc 1 65 19 view .LVU3
  20 0013 C74024FF 		movl	$-1, 36(%eax)
  20      FFFFFF
  21              		.loc 1 63 18 view .LVU4
  22 001a 89501C   		movl	%edx, 28(%eax)
  23              		.loc 1 64 3 is_stmt 1 view .LVU5
  24              		.loc 1 64 18 is_stmt 0 view .LVU6
  25 001d 895020   		movl	%edx, 32(%eax)
  26              		.loc 1 65 3 is_stmt 1 view .LVU7
  27              		.loc 1 67 3 view .LVU8
  28              		.loc 1 67 21 is_stmt 0 view .LVU9
  29 0020 31D2     		xorl	%edx, %edx
  30 0022 66895028 		movw	%dx, 40(%eax)
  31              		.loc 1 71 1 view .LVU10
  32 0026 C3       		ret
  33              		.cfi_endproc
  34              	.LFE138:
  35              		.size	_vt_init, .-_vt_init
  36              		.section	.text.chVTDoSetI,"ax",@progbits
  37              		.p2align 4,,15
  38              		.globl	chVTDoSetI
  39              		.type	chVTDoSetI, @function
  40              	chVTDoSetI:
  41              	.LVL0:
  42              	.LFB139:
  43              		.loc 1 96 45 is_stmt 1 view -0
  44              		.cfi_startproc
  45              		.loc 1 97 3 view .LVU12
  46              		.loc 1 98 3 view .LVU13
  47              		.loc 1 100 21 view .LVU14
  48              		.loc 1 101 3 view .LVU15
  49              		.loc 1 101 3 view .LVU16
  50              		.loc 1 103 3 view .LVU17
  51 0000 E8FCFFFF 		call	__x86.get_pc_thunk.ax
  51      FF
  52 0005 05010000 		addl	$_GLOBAL_OFFSET_TABLE_, %eax
GAS LISTING /tmp/ccXK4QHU.s 			page 2


  52      00
  53              		.loc 1 96 45 is_stmt 0 view .LVU18
  54 000a 56       		pushl	%esi
  55              		.cfi_def_cfa_offset 8
  56              		.cfi_offset 6, -8
  57 000b 53       		pushl	%ebx
  58              		.cfi_def_cfa_offset 12
  59              		.cfi_offset 3, -12
  60              		.loc 1 96 45 view .LVU19
  61 000c 8B5C240C 		movl	12(%esp), %ebx
  62              		.loc 1 103 12 view .LVU20
  63 0010 8B4C2418 		movl	24(%esp), %ecx
  64              		.loc 1 96 45 view .LVU21
  65 0014 8B542410 		movl	16(%esp), %edx
  66              		.loc 1 103 12 view .LVU22
  67 0018 894B10   		movl	%ecx, 16(%ebx)
  68              		.loc 1 104 3 is_stmt 1 view .LVU23
  69              		.loc 1 104 13 is_stmt 0 view .LVU24
  70 001b 8B4C2414 		movl	20(%esp), %ecx
  71              		.loc 1 175 5 view .LVU25
  72 001f 8BB00000 		movl	ch@GOT(%eax), %esi
  72      0000
  73              		.loc 1 104 13 view .LVU26
  74 0025 894B0C   		movl	%ecx, 12(%ebx)
  75              		.loc 1 172 3 is_stmt 1 view .LVU27
  76              	.LVL1:
  77              		.loc 1 175 3 view .LVU28
  78              		.loc 1 175 5 is_stmt 0 view .LVU29
  79 0028 8B461C   		movl	28(%esi), %eax
  80              	.LVL2:
  81              		.loc 1 180 3 is_stmt 1 view .LVU30
  82              		.loc 1 180 11 is_stmt 0 view .LVU31
  83 002b 8B4808   		movl	8(%eax), %ecx
  84              		.loc 1 180 9 view .LVU32
  85 002e 39CA     		cmpl	%ecx, %edx
  86 0030 7611     		jbe	.L4
  87              	.LVL3:
  88              		.p2align 4,,10
  89 0032 8DB60000 		.p2align 3
  89      0000
  90              	.L5:
  91              		.loc 1 182 5 is_stmt 1 view .LVU33
  92              		.loc 1 182 5 view .LVU34
  93              		.loc 1 184 5 view .LVU35
  94              		.loc 1 185 7 is_stmt 0 view .LVU36
  95 0038 8B00     		movl	(%eax), %eax
  96              	.LVL4:
  97              		.loc 1 184 11 view .LVU37
  98 003a 29CA     		subl	%ecx, %edx
  99              	.LVL5:
 100              		.loc 1 185 5 is_stmt 1 view .LVU38
 101              		.loc 1 180 11 is_stmt 0 view .LVU39
 102 003c 8B4808   		movl	8(%eax), %ecx
 103              		.loc 1 180 9 view .LVU40
 104 003f 39D1     		cmpl	%edx, %ecx
 105 0041 72F5     		jb	.L5
 106              	.L4:
GAS LISTING /tmp/ccXK4QHU.s 			page 3


 107              		.loc 1 189 3 is_stmt 1 view .LVU41
 108              		.loc 1 190 24 is_stmt 0 view .LVU42
 109 0043 8B4804   		movl	4(%eax), %ecx
 110              		.loc 1 189 13 view .LVU43
 111 0046 8903     		movl	%eax, (%ebx)
 112              		.loc 1 190 3 is_stmt 1 view .LVU44
 113              		.loc 1 190 13 is_stmt 0 view .LVU45
 114 0048 894B04   		movl	%ecx, 4(%ebx)
 115              		.loc 1 191 3 is_stmt 1 view .LVU46
 116              		.loc 1 191 19 is_stmt 0 view .LVU47
 117 004b 8919     		movl	%ebx, (%ecx)
 118              		.loc 1 192 3 is_stmt 1 view .LVU48
 119              		.loc 1 192 11 is_stmt 0 view .LVU49
 120 004d 895804   		movl	%ebx, 4(%eax)
 121              		.loc 1 193 3 is_stmt 1 view .LVU50
 122              		.loc 1 193 14 is_stmt 0 view .LVU51
 123 0050 895308   		movl	%edx, 8(%ebx)
 124              		.loc 1 196 3 is_stmt 1 view .LVU52
 125              		.loc 1 196 12 is_stmt 0 view .LVU53
 126 0053 295008   		subl	%edx, 8(%eax)
 127              		.loc 1 200 3 is_stmt 1 view .LVU54
 128              		.loc 1 201 1 is_stmt 0 view .LVU55
 129 0056 5B       		popl	%ebx
 130              		.cfi_restore 3
 131              		.cfi_def_cfa_offset 8
 132              		.loc 1 200 19 view .LVU56
 133 0057 C74624FF 		movl	$-1, 36(%esi)
 133      FFFFFF
 134              		.loc 1 201 1 view .LVU57
 135 005e 5E       		popl	%esi
 136              		.cfi_restore 6
 137              		.cfi_def_cfa_offset 4
 138 005f C3       		ret
 139              		.cfi_endproc
 140              	.LFE139:
 141              		.size	chVTDoSetI, .-chVTDoSetI
 142              		.section	.text.chVTDoResetI,"ax",@progbits
 143              		.p2align 4,,15
 144              		.globl	chVTDoResetI
 145              		.type	chVTDoResetI, @function
 146              	chVTDoResetI:
 147              	.LVL6:
 148              	.LFB140:
 149              		.loc 1 211 41 is_stmt 1 view -0
 150              		.cfi_startproc
 151              		.loc 1 213 21 view .LVU59
 152              		.loc 1 214 3 view .LVU60
 153              		.loc 1 214 3 view .LVU61
 154              		.loc 1 215 3 view .LVU62
 155              		.loc 1 215 3 view .LVU63
 156              		.loc 1 220 3 view .LVU64
 157              		.loc 1 211 41 is_stmt 0 view .LVU65
 158 0000 53       		pushl	%ebx
 159              		.cfi_def_cfa_offset 8
 160              		.cfi_offset 3, -8
 161              		.loc 1 211 41 view .LVU66
 162 0001 8B442408 		movl	8(%esp), %eax
GAS LISTING /tmp/ccXK4QHU.s 			page 4


 163 0005 E8FCFFFF 		call	__x86.get_pc_thunk.bx
 163      FF
 164 000a 81C30200 		addl	$_GLOBAL_OFFSET_TABLE_, %ebx
 164      0000
 165              		.loc 1 220 6 view .LVU67
 166 0010 8B10     		movl	(%eax), %edx
 167              		.loc 1 220 20 view .LVU68
 168 0012 8B4808   		movl	8(%eax), %ecx
 169 0015 014A08   		addl	%ecx, 8(%edx)
 170              		.loc 1 223 3 is_stmt 1 view .LVU69
 171              		.loc 1 223 6 is_stmt 0 view .LVU70
 172 0018 8B4804   		movl	4(%eax), %ecx
 173              		.loc 1 223 19 view .LVU71
 174 001b 8911     		movl	%edx, (%ecx)
 175              		.loc 1 224 3 is_stmt 1 view .LVU72
 176              		.loc 1 224 19 is_stmt 0 view .LVU73
 177 001d 8B10     		movl	(%eax), %edx
 178 001f 894A04   		movl	%ecx, 4(%edx)
 179              		.loc 1 225 3 is_stmt 1 view .LVU74
 180              		.loc 1 225 13 is_stmt 0 view .LVU75
 181 0022 C7400C00 		movl	$0, 12(%eax)
 181      000000
 182              		.loc 1 229 3 is_stmt 1 view .LVU76
 183              		.loc 1 229 19 is_stmt 0 view .LVU77
 184 0029 8B830000 		movl	ch@GOT(%ebx), %eax
 184      0000
 185 002f C74024FF 		movl	$-1, 36(%eax)
 185      FFFFFF
 186              		.loc 1 297 1 view .LVU78
 187 0036 5B       		popl	%ebx
 188              		.cfi_restore 3
 189              		.cfi_def_cfa_offset 4
 190 0037 C3       		ret
 191              		.cfi_endproc
 192              	.LFE140:
 193              		.size	chVTDoResetI, .-chVTDoResetI
 194              		.section	.text.__x86.get_pc_thunk.ax,"axG",@progbits,__x86.get_pc_thunk.ax,comdat
 195              		.globl	__x86.get_pc_thunk.ax
 196              		.hidden	__x86.get_pc_thunk.ax
 197              		.type	__x86.get_pc_thunk.ax, @function
 198              	__x86.get_pc_thunk.ax:
 199              	.LFB141:
 200              		.cfi_startproc
 201 0000 8B0424   		movl	(%esp), %eax
 202 0003 C3       		ret
 203              		.cfi_endproc
 204              	.LFE141:
 205              		.section	.text.__x86.get_pc_thunk.bx,"axG",@progbits,__x86.get_pc_thunk.bx,comdat
 206              		.globl	__x86.get_pc_thunk.bx
 207              		.hidden	__x86.get_pc_thunk.bx
 208              		.type	__x86.get_pc_thunk.bx, @function
 209              	__x86.get_pc_thunk.bx:
 210              	.LFB142:
 211              		.cfi_startproc
 212 0000 8B1C24   		movl	(%esp), %ebx
 213 0003 C3       		ret
 214              		.cfi_endproc
GAS LISTING /tmp/ccXK4QHU.s 			page 5


 215              	.LFE142:
 216              		.text
 217              	.Letext0:
 218              		.file 2 "/usr/lib/gcc/x86_64-linux-gnu/8/include/stddef.h"
 219              		.file 3 "/usr/include/i386-linux-gnu/bits/types.h"
 220              		.file 4 "/usr/include/i386-linux-gnu/bits/stdint-intn.h"
 221              		.file 5 "/usr/include/i386-linux-gnu/bits/stdint-uintn.h"
 222              		.file 6 "../../../os/common/ports/SIMIA32/compilers/GCC/chtypes.h"
 223              		.file 7 "../../../os/rt/include/chsystypes.h"
 224              		.file 8 "../../../os/rt/include/chschd.h"
 225              		.file 9 "../../../os/rt/include/chtime.h"
 226              		.file 10 "../../../os/common/ports/SIMIA32/chcore.h"
 227              		.file 11 "../../../os/rt/include/chtm.h"
 228              		.file 12 "../../../os/rt/include/chsem.h"
 229              		.file 13 "../../../os/rt/include/chmtx.h"
 230              		.file 14 "../../../os/rt/include/chsys.h"
 231              		.file 15 "../../../os/rt/include/chregistry.h"
 232              		.file 16 "../../../os/common/oslib/include/chmemcore.h"
 233              		.file 17 "../../../os/common/oslib/include/chmempools.h"
 234              		.file 18 "../../../os/common/oslib/include/chfactory.h"
 2570              		.section	.note.GNU-stack,"",@progbits
GAS LISTING /tmp/ccXK4QHU.s 			page 52

