GAS LISTING /tmp/ccbX2OOb.s 			page 1


   1              		.file	"console.c"
   2              		.text
   3              	.Ltext0:
   4              		.section	.text._ctl,"ax",@progbits
   5              		.p2align 4,,15
   6              		.type	_ctl, @function
   7              	_ctl:
   8              	.LVL0:
   9              	.LFB230:
  10              		.file 1 "../../../os/hal/ports/simulator/console.c"
  11              		.loc 1 116 64 view -0
  12              		.cfi_startproc
  13              		.loc 1 118 3 view .LVU1
  14              		.loc 1 119 3 view .LVU2
  15              		.loc 1 120 3 view .LVU3
  16              		.loc 1 122 3 view .LVU4
  17              		.loc 1 123 1 is_stmt 0 view .LVU5
  18 0000 31C0     		xorl	%eax, %eax
  19 0002 C3       		ret
  20              		.cfi_endproc
  21              	.LFE230:
  22              		.size	_ctl, .-_ctl
  23              		.section	.text._read,"ax",@progbits
  24              		.p2align 4,,15
  25              		.type	_read, @function
  26              	_read:
  27              	.LVL1:
  28              	.LFB223:
  29              		.loc 1 56 54 is_stmt 1 view -0
  30              		.cfi_startproc
  31              		.loc 1 58 3 view .LVU7
  32              		.loc 1 60 3 view .LVU8
  33              		.loc 1 56 54 is_stmt 0 view .LVU9
  34 0000 53       		pushl	%ebx
  35              		.cfi_def_cfa_offset 8
  36              		.cfi_offset 3, -8
  37 0001 E8FCFFFF 		call	__x86.get_pc_thunk.bx
  37      FF
  38 0006 81C30200 		addl	$_GLOBAL_OFFSET_TABLE_, %ebx
  38      0000
  39 000c 83EC08   		subl	$8, %esp
  40              		.cfi_def_cfa_offset 16
  41              	.LVL2:
  42              	.LBB6:
  43              	.LBI6:
  44              		.file 2 "/usr/include/i386-linux-gnu/bits/stdio2.h"
  45              		.loc 2 284 1 is_stmt 1 view .LVU10
  46              	.LBB7:
  47              		.loc 2 287 3 view .LVU11
  48              		.loc 2 297 3 view .LVU12
  49              	.LBE7:
  50              	.LBE6:
  51              		.loc 1 60 10 is_stmt 0 view .LVU13
  52 000f 8B830000 		movl	stdin@GOT(%ebx), %eax
  52      0000
  53              	.LVL3:
  54              	.LBB9:
GAS LISTING /tmp/ccbX2OOb.s 			page 2


  55              	.LBB8:
  56              		.loc 2 297 10 view .LVU14
  57 0015 FF30     		pushl	(%eax)
  58              		.cfi_def_cfa_offset 20
  59 0017 FF74241C 		pushl	28(%esp)
  60              		.cfi_def_cfa_offset 24
  61 001b 6A01     		pushl	$1
  62              		.cfi_def_cfa_offset 28
  63 001d FF742420 		pushl	32(%esp)
  64              		.cfi_def_cfa_offset 32
  65 0021 E8FCFFFF 		call	fread@PLT
  65      FF
  66              	.LVL4:
  67              		.loc 2 297 10 view .LVU15
  68              	.LBE8:
  69              	.LBE9:
  70              		.loc 1 61 1 view .LVU16
  71 0026 83C418   		addl	$24, %esp
  72              		.cfi_def_cfa_offset 8
  73 0029 5B       		popl	%ebx
  74              		.cfi_restore 3
  75              		.cfi_def_cfa_offset 4
  76 002a C3       		ret
  77              		.cfi_endproc
  78              	.LFE223:
  79              		.size	_read, .-_read
  80              		.section	.text._readt,"ax",@progbits
  81              		.p2align 4,,15
  82              		.type	_readt, @function
  83              	_readt:
  84              	.LVL5:
  85              	.LFB229:
  86              		.loc 1 108 75 is_stmt 1 view -0
  87              		.cfi_startproc
  88              		.loc 1 110 3 view .LVU18
  89              		.loc 1 111 3 view .LVU19
  90              		.loc 1 113 3 view .LVU20
  91              		.loc 1 108 75 is_stmt 0 view .LVU21
  92 0000 53       		pushl	%ebx
  93              		.cfi_def_cfa_offset 8
  94              		.cfi_offset 3, -8
  95 0001 E8FCFFFF 		call	__x86.get_pc_thunk.bx
  95      FF
  96 0006 81C30200 		addl	$_GLOBAL_OFFSET_TABLE_, %ebx
  96      0000
  97 000c 83EC08   		subl	$8, %esp
  98              		.cfi_def_cfa_offset 16
  99              	.LVL6:
 100              	.LBB10:
 101              	.LBI10:
 102              		.loc 2 284 1 is_stmt 1 view .LVU22
 103              	.LBB11:
 104              		.loc 2 287 3 view .LVU23
 105              		.loc 2 297 3 view .LVU24
 106              	.LBE11:
 107              	.LBE10:
 108              		.loc 1 113 10 is_stmt 0 view .LVU25
GAS LISTING /tmp/ccbX2OOb.s 			page 3


 109 000f 8B830000 		movl	stdin@GOT(%ebx), %eax
 109      0000
 110              	.LVL7:
 111              	.LBB13:
 112              	.LBB12:
 113              		.loc 2 297 10 view .LVU26
 114 0015 FF30     		pushl	(%eax)
 115              		.cfi_def_cfa_offset 20
 116 0017 FF74241C 		pushl	28(%esp)
 117              		.cfi_def_cfa_offset 24
 118 001b 6A01     		pushl	$1
 119              		.cfi_def_cfa_offset 28
 120 001d FF742420 		pushl	32(%esp)
 121              		.cfi_def_cfa_offset 32
 122 0021 E8FCFFFF 		call	fread@PLT
 122      FF
 123              	.LVL8:
 124              		.loc 2 297 10 view .LVU27
 125              	.LBE12:
 126              	.LBE13:
 127              		.loc 1 114 1 view .LVU28
 128 0026 83C418   		addl	$24, %esp
 129              		.cfi_def_cfa_offset 8
 130 0029 5B       		popl	%ebx
 131              		.cfi_restore 3
 132              		.cfi_def_cfa_offset 4
 133 002a C3       		ret
 134              		.cfi_endproc
 135              	.LFE229:
 136              		.size	_readt, .-_readt
 137              		.section	.text._writet,"ax",@progbits
 138              		.p2align 4,,15
 139              		.type	_writet, @function
 140              	_writet:
 141              	.LVL9:
 142              	.LFB228:
 143              		.loc 1 97 82 is_stmt 1 view -0
 144              		.cfi_startproc
 145              		.loc 1 98 3 view .LVU30
 146              		.loc 1 100 3 view .LVU31
 147              		.loc 1 101 3 view .LVU32
 148              		.loc 1 103 3 view .LVU33
 149              		.loc 1 97 82 is_stmt 0 view .LVU34
 150 0000 57       		pushl	%edi
 151              		.cfi_def_cfa_offset 8
 152              		.cfi_offset 7, -8
 153 0001 56       		pushl	%esi
 154              		.cfi_def_cfa_offset 12
 155              		.cfi_offset 6, -12
 156 0002 53       		pushl	%ebx
 157              		.cfi_def_cfa_offset 16
 158              		.cfi_offset 3, -16
 159 0003 E8FCFFFF 		call	__x86.get_pc_thunk.bx
 159      FF
 160 0008 81C30200 		addl	$_GLOBAL_OFFSET_TABLE_, %ebx
 160      0000
 161              		.loc 1 103 9 view .LVU35
GAS LISTING /tmp/ccbX2OOb.s 			page 4


 162 000e 8BB30000 		movl	stdout@GOT(%ebx), %esi
 162      0000
 163 0014 FF36     		pushl	(%esi)
 164              		.cfi_def_cfa_offset 20
 165 0016 FF74241C 		pushl	28(%esp)
 166              		.cfi_def_cfa_offset 24
 167 001a 6A01     		pushl	$1
 168              		.cfi_def_cfa_offset 28
 169 001c FF742420 		pushl	32(%esp)
 170              		.cfi_def_cfa_offset 32
 171 0020 E8FCFFFF 		call	fwrite@PLT
 171      FF
 172              	.LVL10:
 173 0025 89C7     		movl	%eax, %edi
 174              	.LVL11:
 175              		.loc 1 104 3 is_stmt 1 view .LVU36
 176 0027 58       		popl	%eax
 177              		.cfi_def_cfa_offset 28
 178              	.LVL12:
 179              		.loc 1 104 3 is_stmt 0 view .LVU37
 180 0028 FF36     		pushl	(%esi)
 181              		.cfi_def_cfa_offset 32
 182 002a E8FCFFFF 		call	fflush@PLT
 182      FF
 183              	.LVL13:
 184              		.loc 1 105 3 is_stmt 1 view .LVU38
 185              		.loc 1 105 10 is_stmt 0 view .LVU39
 186 002f 83C410   		addl	$16, %esp
 187              		.cfi_def_cfa_offset 16
 188              		.loc 1 106 1 view .LVU40
 189 0032 89F8     		movl	%edi, %eax
 190 0034 5B       		popl	%ebx
 191              		.cfi_restore 3
 192              		.cfi_def_cfa_offset 12
 193 0035 5E       		popl	%esi
 194              		.cfi_restore 6
 195              		.cfi_def_cfa_offset 8
 196 0036 5F       		popl	%edi
 197              		.cfi_restore 7
 198              		.cfi_def_cfa_offset 4
 199              	.LVL14:
 200              		.loc 1 106 1 view .LVU41
 201 0037 C3       		ret
 202              		.cfi_endproc
 203              	.LFE228:
 204              		.size	_writet, .-_writet
 205              		.section	.text._write,"ax",@progbits
 206              		.p2align 4,,15
 207              		.type	_write, @function
 208              	_write:
 209              	.LVL15:
 210              	.LFB222:
 211              		.loc 1 46 61 is_stmt 1 view -0
 212              		.cfi_startproc
 213              		.loc 1 47 3 view .LVU43
 214              		.loc 1 49 3 view .LVU44
 215              		.loc 1 51 3 view .LVU45
GAS LISTING /tmp/ccbX2OOb.s 			page 5


 216              		.loc 1 46 61 is_stmt 0 view .LVU46
 217 0000 57       		pushl	%edi
 218              		.cfi_def_cfa_offset 8
 219              		.cfi_offset 7, -8
 220 0001 56       		pushl	%esi
 221              		.cfi_def_cfa_offset 12
 222              		.cfi_offset 6, -12
 223 0002 53       		pushl	%ebx
 224              		.cfi_def_cfa_offset 16
 225              		.cfi_offset 3, -16
 226 0003 E8FCFFFF 		call	__x86.get_pc_thunk.bx
 226      FF
 227 0008 81C30200 		addl	$_GLOBAL_OFFSET_TABLE_, %ebx
 227      0000
 228              		.loc 1 51 9 view .LVU47
 229 000e 8BB30000 		movl	stdout@GOT(%ebx), %esi
 229      0000
 230 0014 FF36     		pushl	(%esi)
 231              		.cfi_def_cfa_offset 20
 232 0016 FF74241C 		pushl	28(%esp)
 233              		.cfi_def_cfa_offset 24
 234 001a 6A01     		pushl	$1
 235              		.cfi_def_cfa_offset 28
 236 001c FF742420 		pushl	32(%esp)
 237              		.cfi_def_cfa_offset 32
 238 0020 E8FCFFFF 		call	fwrite@PLT
 238      FF
 239              	.LVL16:
 240 0025 89C7     		movl	%eax, %edi
 241              	.LVL17:
 242              		.loc 1 52 3 is_stmt 1 view .LVU48
 243 0027 58       		popl	%eax
 244              		.cfi_def_cfa_offset 28
 245              	.LVL18:
 246              		.loc 1 52 3 is_stmt 0 view .LVU49
 247 0028 FF36     		pushl	(%esi)
 248              		.cfi_def_cfa_offset 32
 249 002a E8FCFFFF 		call	fflush@PLT
 249      FF
 250              	.LVL19:
 251              		.loc 1 53 3 is_stmt 1 view .LVU50
 252              		.loc 1 53 10 is_stmt 0 view .LVU51
 253 002f 83C410   		addl	$16, %esp
 254              		.cfi_def_cfa_offset 16
 255              		.loc 1 54 1 view .LVU52
 256 0032 89F8     		movl	%edi, %eax
 257 0034 5B       		popl	%ebx
 258              		.cfi_restore 3
 259              		.cfi_def_cfa_offset 12
 260 0035 5E       		popl	%esi
 261              		.cfi_restore 6
 262              		.cfi_def_cfa_offset 8
 263 0036 5F       		popl	%edi
 264              		.cfi_restore 7
 265              		.cfi_def_cfa_offset 4
 266              	.LVL20:
 267              		.loc 1 54 1 view .LVU53
GAS LISTING /tmp/ccbX2OOb.s 			page 6


 268 0037 C3       		ret
 269              		.cfi_endproc
 270              	.LFE222:
 271              		.size	_write, .-_write
 272              		.section	.text._gett,"ax",@progbits
 273              		.p2align 4,,15
 274              		.type	_gett, @function
 275              	_gett:
 276              	.LVL21:
 277              	.LFB227:
 278              		.loc 1 89 50 is_stmt 1 view -0
 279              		.cfi_startproc
 280              		.loc 1 91 3 view .LVU55
 281              		.loc 1 92 3 view .LVU56
 282              		.loc 1 94 3 view .LVU57
 283              		.loc 1 89 50 is_stmt 0 view .LVU58
 284 0000 53       		pushl	%ebx
 285              		.cfi_def_cfa_offset 8
 286              		.cfi_offset 3, -8
 287 0001 E8FCFFFF 		call	__x86.get_pc_thunk.bx
 287      FF
 288 0006 81C30200 		addl	$_GLOBAL_OFFSET_TABLE_, %ebx
 288      0000
 289 000c 83EC14   		subl	$20, %esp
 290              		.cfi_def_cfa_offset 28
 291              		.loc 1 94 10 view .LVU59
 292 000f 8B830000 		movl	stdin@GOT(%ebx), %eax
 292      0000
 293 0015 FF30     		pushl	(%eax)
 294              		.cfi_def_cfa_offset 32
 295 0017 E8FCFFFF 		call	fgetc@PLT
 295      FF
 296              	.LVL22:
 297              		.loc 1 95 1 view .LVU60
 298 001c 83C418   		addl	$24, %esp
 299              		.cfi_def_cfa_offset 8
 300 001f 5B       		popl	%ebx
 301              		.cfi_restore 3
 302              		.cfi_def_cfa_offset 4
 303 0020 C3       		ret
 304              		.cfi_endproc
 305              	.LFE227:
 306              		.size	_gett, .-_gett
 307              		.section	.text._get,"ax",@progbits
 308              		.p2align 4,,15
 309              		.type	_get, @function
 310              	_get:
 311              	.LVL23:
 312              	.LFB225:
 313              		.loc 1 72 29 is_stmt 1 view -0
 314              		.cfi_startproc
 315              		.loc 1 74 3 view .LVU62
 316              		.loc 1 76 3 view .LVU63
 317              		.loc 1 72 29 is_stmt 0 view .LVU64
 318 0000 53       		pushl	%ebx
 319              		.cfi_def_cfa_offset 8
 320              		.cfi_offset 3, -8
GAS LISTING /tmp/ccbX2OOb.s 			page 7


 321 0001 E8FCFFFF 		call	__x86.get_pc_thunk.bx
 321      FF
 322 0006 81C30200 		addl	$_GLOBAL_OFFSET_TABLE_, %ebx
 322      0000
 323 000c 83EC14   		subl	$20, %esp
 324              		.cfi_def_cfa_offset 28
 325              		.loc 1 76 10 view .LVU65
 326 000f 8B830000 		movl	stdin@GOT(%ebx), %eax
 326      0000
 327 0015 FF30     		pushl	(%eax)
 328              		.cfi_def_cfa_offset 32
 329 0017 E8FCFFFF 		call	fgetc@PLT
 329      FF
 330              	.LVL24:
 331              		.loc 1 77 1 view .LVU66
 332 001c 83C418   		addl	$24, %esp
 333              		.cfi_def_cfa_offset 8
 334 001f 5B       		popl	%ebx
 335              		.cfi_restore 3
 336              		.cfi_def_cfa_offset 4
 337 0020 C3       		ret
 338              		.cfi_endproc
 339              	.LFE225:
 340              		.size	_get, .-_get
 341              		.section	.text._putt,"ax",@progbits
 342              		.p2align 4,,15
 343              		.type	_putt, @function
 344              	_putt:
 345              	.LVL25:
 346              	.LFB226:
 347              		.loc 1 79 61 is_stmt 1 view -0
 348              		.cfi_startproc
 349              		.loc 1 81 3 view .LVU68
 350              		.loc 1 82 3 view .LVU69
 351              		.loc 1 84 3 view .LVU70
 352              		.loc 1 79 61 is_stmt 0 view .LVU71
 353 0000 56       		pushl	%esi
 354              		.cfi_def_cfa_offset 8
 355              		.cfi_offset 6, -8
 356 0001 53       		pushl	%ebx
 357              		.cfi_def_cfa_offset 12
 358              		.cfi_offset 3, -12
 359 0002 E8FCFFFF 		call	__x86.get_pc_thunk.bx
 359      FF
 360 0007 81C30200 		addl	$_GLOBAL_OFFSET_TABLE_, %ebx
 360      0000
 361 000d 83EC0C   		subl	$12, %esp
 362              		.cfi_def_cfa_offset 24
 363              		.loc 1 84 3 view .LVU72
 364 0010 8BB30000 		movl	stdout@GOT(%ebx), %esi
 364      0000
 365 0016 FF36     		pushl	(%esi)
 366              		.cfi_def_cfa_offset 28
 367 0018 0FB64424 		movzbl	32(%esp), %eax
 367      20
 368 001d 50       		pushl	%eax
 369              		.cfi_def_cfa_offset 32
GAS LISTING /tmp/ccbX2OOb.s 			page 8


 370 001e E8FCFFFF 		call	fputc@PLT
 370      FF
 371              	.LVL26:
 372              		.loc 1 85 3 is_stmt 1 view .LVU73
 373 0023 58       		popl	%eax
 374              		.cfi_def_cfa_offset 28
 375 0024 FF36     		pushl	(%esi)
 376              		.cfi_def_cfa_offset 32
 377 0026 E8FCFFFF 		call	fflush@PLT
 377      FF
 378              	.LVL27:
 379              		.loc 1 86 3 view .LVU74
 380              		.loc 1 87 1 is_stmt 0 view .LVU75
 381 002b 83C414   		addl	$20, %esp
 382              		.cfi_def_cfa_offset 12
 383 002e 31C0     		xorl	%eax, %eax
 384 0030 5B       		popl	%ebx
 385              		.cfi_restore 3
 386              		.cfi_def_cfa_offset 8
 387 0031 5E       		popl	%esi
 388              		.cfi_restore 6
 389              		.cfi_def_cfa_offset 4
 390 0032 C3       		ret
 391              		.cfi_endproc
 392              	.LFE226:
 393              		.size	_putt, .-_putt
 394              		.section	.text._put,"ax",@progbits
 395              		.p2align 4,,15
 396              		.type	_put, @function
 397              	_put:
 398              	.LVL28:
 399              	.LFB224:
 400              		.loc 1 63 40 is_stmt 1 view -0
 401              		.cfi_startproc
 402              		.loc 1 65 3 view .LVU77
 403              		.loc 1 67 3 view .LVU78
 404              		.loc 1 63 40 is_stmt 0 view .LVU79
 405 0000 56       		pushl	%esi
 406              		.cfi_def_cfa_offset 8
 407              		.cfi_offset 6, -8
 408 0001 53       		pushl	%ebx
 409              		.cfi_def_cfa_offset 12
 410              		.cfi_offset 3, -12
 411 0002 E8FCFFFF 		call	__x86.get_pc_thunk.bx
 411      FF
 412 0007 81C30200 		addl	$_GLOBAL_OFFSET_TABLE_, %ebx
 412      0000
 413 000d 83EC0C   		subl	$12, %esp
 414              		.cfi_def_cfa_offset 24
 415              		.loc 1 67 3 view .LVU80
 416 0010 8BB30000 		movl	stdout@GOT(%ebx), %esi
 416      0000
 417 0016 FF36     		pushl	(%esi)
 418              		.cfi_def_cfa_offset 28
 419 0018 0FB64424 		movzbl	32(%esp), %eax
 419      20
 420 001d 50       		pushl	%eax
GAS LISTING /tmp/ccbX2OOb.s 			page 9


 421              		.cfi_def_cfa_offset 32
 422 001e E8FCFFFF 		call	fputc@PLT
 422      FF
 423              	.LVL29:
 424              		.loc 1 68 3 is_stmt 1 view .LVU81
 425 0023 58       		popl	%eax
 426              		.cfi_def_cfa_offset 28
 427 0024 FF36     		pushl	(%esi)
 428              		.cfi_def_cfa_offset 32
 429 0026 E8FCFFFF 		call	fflush@PLT
 429      FF
 430              	.LVL30:
 431              		.loc 1 69 3 view .LVU82
 432              		.loc 1 70 1 is_stmt 0 view .LVU83
 433 002b 83C414   		addl	$20, %esp
 434              		.cfi_def_cfa_offset 12
 435 002e 31C0     		xorl	%eax, %eax
 436 0030 5B       		popl	%ebx
 437              		.cfi_restore 3
 438              		.cfi_def_cfa_offset 8
 439 0031 5E       		popl	%esi
 440              		.cfi_restore 6
 441              		.cfi_def_cfa_offset 4
 442 0032 C3       		ret
 443              		.cfi_endproc
 444              	.LFE224:
 445              		.size	_put, .-_put
 446              		.section	.text.conInit,"ax",@progbits
 447              		.p2align 4,,15
 448              		.globl	conInit
 449              		.type	conInit, @function
 450              	conInit:
 451              	.LFB231:
 452              		.loc 1 140 20 is_stmt 1 view -0
 453              		.cfi_startproc
 454              		.loc 1 142 3 view .LVU85
 455 0000 E8FCFFFF 		call	__x86.get_pc_thunk.ax
 455      FF
 456 0005 05010000 		addl	$_GLOBAL_OFFSET_TABLE_, %eax
 456      00
 457              		.loc 1 142 11 is_stmt 0 view .LVU86
 458 000a 8D900000 		leal	vmt@GOTOFF(%eax), %edx
 458      0000
 459 0010 89900000 		movl	%edx, CD1@GOTOFF(%eax)
 459      0000
 460              		.loc 1 143 1 view .LVU87
 461 0016 C3       		ret
 462              		.cfi_endproc
 463              	.LFE231:
 464              		.size	conInit, .-conInit
 465              		.section	.data.rel.ro.local.vmt,"aw"
 466              		.align 32
 467              		.type	vmt, @object
 468              		.size	vmt, 40
 469              	vmt:
 470 0000 00000000 		.long	0
 471 0004 00000000 		.long	_write
GAS LISTING /tmp/ccbX2OOb.s 			page 10


 472 0008 00000000 		.long	_read
 473 000c 00000000 		.long	_put
 474 0010 00000000 		.long	_get
 475 0014 00000000 		.long	_putt
 476 0018 00000000 		.long	_gett
 477 001c 00000000 		.long	_writet
 478 0020 00000000 		.long	_readt
 479 0024 00000000 		.long	_ctl
 480              		.globl	CD1
 481              		.section	.bss.CD1,"aw",@nobits
 482              		.align 4
 483              		.type	CD1, @object
 484              		.size	CD1, 4
 485              	CD1:
 486 0000 00000000 		.zero	4
 487              		.section	.text.__x86.get_pc_thunk.ax,"axG",@progbits,__x86.get_pc_thunk.ax,comdat
 488              		.globl	__x86.get_pc_thunk.ax
 489              		.hidden	__x86.get_pc_thunk.ax
 490              		.type	__x86.get_pc_thunk.ax, @function
 491              	__x86.get_pc_thunk.ax:
 492              	.LFB232:
 493              		.cfi_startproc
 494 0000 8B0424   		movl	(%esp), %eax
 495 0003 C3       		ret
 496              		.cfi_endproc
 497              	.LFE232:
 498              		.section	.text.__x86.get_pc_thunk.bx,"axG",@progbits,__x86.get_pc_thunk.bx,comdat
 499              		.globl	__x86.get_pc_thunk.bx
 500              		.hidden	__x86.get_pc_thunk.bx
 501              		.type	__x86.get_pc_thunk.bx, @function
 502              	__x86.get_pc_thunk.bx:
 503              	.LFB233:
 504              		.cfi_startproc
 505 0000 8B1C24   		movl	(%esp), %ebx
 506 0003 C3       		ret
 507              		.cfi_endproc
 508              	.LFE233:
 509              		.text
 510              	.Letext0:
 511              		.file 3 "/usr/lib/gcc/x86_64-linux-gnu/8/include/stddef.h"
 512              		.file 4 "/usr/include/i386-linux-gnu/bits/types.h"
 513              		.file 5 "/usr/include/i386-linux-gnu/bits/types/struct_FILE.h"
 514              		.file 6 "/usr/include/i386-linux-gnu/bits/types/FILE.h"
 515              		.file 7 "/usr/include/stdio.h"
 516              		.file 8 "/usr/include/i386-linux-gnu/bits/sys_errlist.h"
 517              		.file 9 "/usr/include/i386-linux-gnu/bits/stdint-intn.h"
 518              		.file 10 "/usr/include/i386-linux-gnu/bits/stdint-uintn.h"
 519              		.file 11 "../../../os/common/ports/SIMIA32/compilers/GCC/chtypes.h"
 520              		.file 12 "../../../os/rt/include/chsystypes.h"
 521              		.file 13 "../../../os/rt/include/chschd.h"
 522              		.file 14 "../../../os/rt/include/chtime.h"
 523              		.file 15 "../../../os/common/ports/SIMIA32/chcore.h"
 524              		.file 16 "../../../os/rt/include/chtm.h"
 525              		.file 17 "../../../os/rt/include/chsem.h"
 526              		.file 18 "../../../os/rt/include/chmtx.h"
 527              		.file 19 "../../../os/rt/include/chsys.h"
 528              		.file 20 "../../../os/rt/include/chregistry.h"
GAS LISTING /tmp/ccbX2OOb.s 			page 11


 529              		.file 21 "../../../os/rt/include/chevents.h"
 530              		.file 22 "../../../os/common/oslib/include/chmemcore.h"
 531              		.file 23 "../../../os/common/oslib/include/chmempools.h"
 532              		.file 24 "../../../os/common/oslib/include/chfactory.h"
 533              		.file 25 "/usr/include/netinet/in.h"
 534              		.file 26 "/usr/include/unistd.h"
 535              		.file 27 "/usr/include/i386-linux-gnu/bits/getopt_core.h"
 536              		.file 28 "../../../os/hal/include/hal_channels.h"
 537              		.file 29 "../../../os/hal/include/hal_queues.h"
 538              		.file 30 "../../../os/hal/ports/simulator/hal_pal_lld.h"
 539              		.file 31 "../../../os/hal/include/hal_serial.h"
 540              		.file 32 "../../../os/hal/ports/simulator/posix/hal_serial_lld.h"
 541              		.file 33 "../../../os/hal/ports/simulator/console.h"
 4997              		.section	.note.GNU-stack,"",@progbits
GAS LISTING /tmp/ccbX2OOb.s 			page 99

