GAS LISTING /tmp/ccQ8jjaE.s 			page 1


   1              		.file	"drawClock.c"
   2              		.text
   3              	.Ltext0:
   4              		.section	.text.dcSetPerspective,"ax",@progbits
   5              		.p2align 4,,15
   6              		.globl	dcSetPerspective
   7              		.type	dcSetPerspective, @function
   8              	dcSetPerspective:
   9              	.LFB236:
  10              		.file 1 "drawClock.c"
  11              		.loc 1 7 29 view -0
  12              		.cfi_startproc
  13              		.loc 1 8 2 view .LVU1
  14              		.loc 1 7 29 is_stmt 0 view .LVU2
  15 0000 53       		pushl	%ebx
  16              		.cfi_def_cfa_offset 8
  17              		.cfi_offset 3, -8
  18 0001 E8FCFFFF 		call	__x86.get_pc_thunk.bx
  18      FF
  19 0006 81C30200 		addl	$_GLOBAL_OFFSET_TABLE_, %ebx
  19      0000
  20 000c 83EC08   		subl	$8, %esp
  21              		.cfi_def_cfa_offset 16
  22              		.loc 1 8 2 view .LVU3
  23 000f 68800100 		pushl	$384
  23      00
  24              		.cfi_def_cfa_offset 20
  25 0014 68000400 		pushl	$1024
  25      00
  26              		.cfi_def_cfa_offset 24
  27 0019 6A00     		pushl	$0
  28              		.cfi_def_cfa_offset 28
  29 001b 6A00     		pushl	$0
  30              		.cfi_def_cfa_offset 32
  31 001d E8FCFFFF 		call	glViewport@PLT
  31      FF
  32              	.LVL0:
  33              		.loc 1 9 2 is_stmt 1 view .LVU4
  34 0022 C7042401 		movl	$5889, (%esp)
  34      170000
  35 0029 E8FCFFFF 		call	glMatrixMode@PLT
  35      FF
  36              	.LVL1:
  37              		.loc 1 10 2 view .LVU5
  38 002e E8FCFFFF 		call	glLoadIdentity@PLT
  38      FF
  39              	.LVL2:
  40              		.loc 1 11 2 view .LVU6
  41 0033 68000078 		pushl	$1081606144
  41      40
  42              		.cfi_def_cfa_offset 36
  43 0038 6A00     		pushl	$0
  44              		.cfi_def_cfa_offset 40
  45 003a D9EE     		fldz
  46 003c 83EC08   		subl	$8, %esp
  47              		.cfi_def_cfa_offset 48
  48 003f DD1424   		fstl	(%esp)
GAS LISTING /tmp/ccQ8jjaE.s 			page 2


  49 0042 68000090 		pushl	$1083179008
  49      40
  50              		.cfi_def_cfa_offset 52
  51 0047 6A00     		pushl	$0
  52              		.cfi_def_cfa_offset 56
  53 0049 83EC08   		subl	$8, %esp
  54              		.cfi_def_cfa_offset 64
  55 004c DD1C24   		fstpl	(%esp)
  56 004f E8FCFFFF 		call	gluOrtho2D@PLT
  56      FF
  57              	.LVL3:
  58              		.loc 1 12 2 view .LVU7
  59 0054 83C424   		addl	$36, %esp
  60              		.cfi_def_cfa_offset 28
  61 0057 68001700 		pushl	$5888
  61      00
  62              		.cfi_def_cfa_offset 32
  63 005c E8FCFFFF 		call	glMatrixMode@PLT
  63      FF
  64              	.LVL4:
  65              		.loc 1 13 1 is_stmt 0 view .LVU8
  66 0061 83C418   		addl	$24, %esp
  67              		.cfi_def_cfa_offset 8
  68 0064 5B       		popl	%ebx
  69              		.cfi_restore 3
  70              		.cfi_def_cfa_offset 4
  71 0065 C3       		ret
  72              		.cfi_endproc
  73              	.LFE236:
  74              		.size	dcSetPerspective, .-dcSetPerspective
  75              		.section	.rodata.dcInitDisplay.str1.1,"aMS",@progbits,1
  76              	.LC3:
  77 0000 48656C6C 		.string	"Hello World"
  77      6F20576F 
  77      726C6400 
  78              		.section	.text.dcInitDisplay,"ax",@progbits
  79              		.p2align 4,,15
  80              		.globl	dcInitDisplay
  81              		.type	dcInitDisplay, @function
  82              	dcInitDisplay:
  83              	.LVL5:
  84              	.LFB237:
  85              		.loc 1 15 42 is_stmt 1 view -0
  86              		.cfi_startproc
  87              		.loc 1 16 2 view .LVU10
  88              		.loc 1 15 42 is_stmt 0 view .LVU11
  89 0000 53       		pushl	%ebx
  90              		.cfi_def_cfa_offset 8
  91              		.cfi_offset 3, -8
  92 0001 E8FCFFFF 		call	__x86.get_pc_thunk.bx
  92      FF
  93 0006 81C30200 		addl	$_GLOBAL_OFFSET_TABLE_, %ebx
  93      0000
  94 000c 83EC14   		subl	$20, %esp
  95              		.cfi_def_cfa_offset 28
  96              		.loc 1 16 2 view .LVU12
  97 000f 6A02     		pushl	$2
GAS LISTING /tmp/ccQ8jjaE.s 			page 3


  98              		.cfi_def_cfa_offset 32
  99 0011 E8FCFFFF 		call	glutInitDisplayMode@PLT
  99      FF
 100              	.LVL6:
 101              		.loc 1 17 2 is_stmt 1 view .LVU13
 102 0016 58       		popl	%eax
 103              		.cfi_def_cfa_offset 28
 104 0017 5A       		popl	%edx
 105              		.cfi_def_cfa_offset 24
 106 0018 FF74241C 		pushl	28(%esp)
 107              		.cfi_def_cfa_offset 28
 108 001c 8D44241C 		leal	28(%esp), %eax
 109              	.LVL7:
 110              		.loc 1 17 2 is_stmt 0 view .LVU14
 111 0020 50       		pushl	%eax
 112              		.cfi_def_cfa_offset 32
 113 0021 E8FCFFFF 		call	glutInit@PLT
 113      FF
 114              	.LVL8:
 115              		.loc 1 18 2 is_stmt 1 view .LVU15
 116 0026 59       		popl	%ecx
 117              		.cfi_def_cfa_offset 28
 118 0027 58       		popl	%eax
 119              		.cfi_def_cfa_offset 24
 120 0028 6A64     		pushl	$100
 121              		.cfi_def_cfa_offset 28
 122 002a 6A64     		pushl	$100
 123              		.cfi_def_cfa_offset 32
 124 002c E8FCFFFF 		call	glutInitWindowPosition@PLT
 124      FF
 125              	.LVL9:
 126              		.loc 1 19 2 view .LVU16
 127 0031 58       		popl	%eax
 128              		.cfi_def_cfa_offset 28
 129 0032 5A       		popl	%edx
 130              		.cfi_def_cfa_offset 24
 131 0033 68800100 		pushl	$384
 131      00
 132              		.cfi_def_cfa_offset 28
 133 0038 68000400 		pushl	$1024
 133      00
 134              		.cfi_def_cfa_offset 32
 135 003d E8FCFFFF 		call	glutInitWindowSize@PLT
 135      FF
 136              	.LVL10:
 137              		.loc 1 20 2 view .LVU17
 138 0042 8D830000 		leal	.LC3@GOTOFF(%ebx), %eax
 138      0000
 139 0048 890424   		movl	%eax, (%esp)
 140 004b E8FCFFFF 		call	glutCreateWindow@PLT
 140      FF
 141              	.LVL11:
 142              		.loc 1 21 2 view .LVU18
 143 0050 E8FCFFFF 		call	dcSetPerspective
 143      FF
 144              	.LVL12:
 145              		.loc 1 22 2 view .LVU19
GAS LISTING /tmp/ccQ8jjaE.s 			page 4


 146              		.loc 1 22 18 is_stmt 0 view .LVU20
 147 0055 E8FCFFFF 		call	gluNewQuadric@PLT
 147      FF
 148              	.LVL13:
 149              		.loc 1 22 16 view .LVU21
 150 005a 89830000 		movl	%eax, diskClockRing@GOTOFF(%ebx)
 150      0000
 151              		.loc 1 24 1 view .LVU22
 152 0060 83C418   		addl	$24, %esp
 153              		.cfi_def_cfa_offset 8
 154 0063 5B       		popl	%ebx
 155              		.cfi_restore 3
 156              		.cfi_def_cfa_offset 4
 157 0064 C3       		ret
 158              		.cfi_endproc
 159              	.LFE237:
 160              		.size	dcInitDisplay, .-dcInitDisplay
 161              		.section	.text.dcDrawClocks,"ax",@progbits
 162              		.p2align 4,,15
 163              		.globl	dcDrawClocks
 164              		.type	dcDrawClocks, @function
 165              	dcDrawClocks:
 166              	.LFB238:
 167              		.loc 1 26 25 is_stmt 1 view -0
 168              		.cfi_startproc
 169              		.loc 1 27 2 view .LVU24
 170              		.loc 1 28 2 view .LVU25
 171              		.loc 1 29 2 view .LVU26
 172              		.loc 1 26 25 is_stmt 0 view .LVU27
 173 0000 55       		pushl	%ebp
 174              		.cfi_def_cfa_offset 8
 175              		.cfi_offset 5, -8
 176 0001 57       		pushl	%edi
 177              		.cfi_def_cfa_offset 12
 178              		.cfi_offset 7, -12
 179              		.loc 1 30 2 view .LVU28
 180 0002 31FF     		xorl	%edi, %edi
 181              		.loc 1 26 25 view .LVU29
 182 0004 56       		pushl	%esi
 183              		.cfi_def_cfa_offset 16
 184              		.cfi_offset 6, -16
 185 0005 53       		pushl	%ebx
 186              		.cfi_def_cfa_offset 20
 187              		.cfi_offset 3, -20
 188 0006 E8FCFFFF 		call	__x86.get_pc_thunk.bx
 188      FF
 189 000b 81C30200 		addl	$_GLOBAL_OFFSET_TABLE_, %ebx
 189      0000
 190 0011 83EC38   		subl	$56, %esp
 191              		.cfi_def_cfa_offset 76
 192              		.loc 1 29 2 view .LVU30
 193 0014 68004000 		pushl	$16384
 193      00
 194              		.cfi_def_cfa_offset 80
 195 0019 E8FCFFFF 		call	glClear@PLT
 195      FF
 196              	.LVL14:
GAS LISTING /tmp/ccQ8jjaE.s 			page 5


 197              		.loc 1 30 2 is_stmt 1 view .LVU31
 198 001e 8DAB0000 		leal	rectE@GOTOFF(%ebx), %ebp
 198      0000
 199 0024 D9E8     		fld1
 200 0026 D9542408 		fsts	8(%esp)
 201 002a D9542404 		fsts	4(%esp)
 202 002e D91C24   		fstps	(%esp)
 203 0031 E8FCFFFF 		call	glColor3f@PLT
 203      FF
 204              	.LVL15:
 205              		.loc 1 31 2 view .LVU32
 206              	.LBB2:
 207              		.loc 1 31 7 view .LVU33
 208              		.loc 1 31 7 is_stmt 0 view .LVU34
 209              	.LBE2:
 210              		.loc 1 30 2 view .LVU35
 211 0036 83C410   		addl	$16, %esp
 212              		.cfi_def_cfa_offset 64
 213 0039 8D830000 		leal	rectS@GOTOFF(%ebx), %eax
 213      0000
 214 003f 8944240C 		movl	%eax, 12(%esp)
 215              	.LVL16:
 216              		.p2align 4,,10
 217 0043 8D742600 		.p2align 3
 217      90
 218              	.L7:
 219              		.loc 1 30 2 view .LVU36
 220 0048 89F8     		movl	%edi, %eax
 221              	.LBB4:
 222              	.LBB3:
 223              		.loc 1 35 22 view .LVU37
 224 004a 31F6     		xorl	%esi, %esi
 225 004c C1E007   		sall	$7, %eax
 226 004f 83C040   		addl	$64, %eax
 227 0052 89442408 		movl	%eax, 8(%esp)
 228 0056 DB442408 		fildl	8(%esp)
 229 005a D95C2408 		fstps	8(%esp)
 230              	.LVL17:
 231              	.L8:
 232              		.loc 1 35 4 is_stmt 1 discriminator 3 view .LVU38
 233              		.loc 1 35 22 is_stmt 0 discriminator 3 view .LVU39
 234 005e 83EC08   		subl	$8, %esp
 235              		.cfi_def_cfa_offset 72
 236 0061 56       		pushl	%esi
 237              		.cfi_def_cfa_offset 76
 238 0062 57       		pushl	%edi
 239              		.cfi_def_cfa_offset 80
 240 0063 E8FCFFFF 		call	clAGetStepperPositionMin@PLT
 240      FF
 241              	.LVL18:
 242 0068 89442420 		movl	%eax, 32(%esp)
 243              	.LVL19:
 244              		.loc 1 36 4 is_stmt 1 discriminator 3 view .LVU40
 245              		.loc 1 36 23 is_stmt 0 discriminator 3 view .LVU41
 246 006c 58       		popl	%eax
 247              		.cfi_def_cfa_offset 76
 248              	.LVL20:
GAS LISTING /tmp/ccQ8jjaE.s 			page 6


 249              		.loc 1 36 23 discriminator 3 view .LVU42
 250 006d 5A       		popl	%edx
 251              		.cfi_def_cfa_offset 72
 252 006e 56       		pushl	%esi
 253              		.cfi_def_cfa_offset 76
 254 006f 57       		pushl	%edi
 255              		.cfi_def_cfa_offset 80
 256 0070 E8FCFFFF 		call	clAGetStepperPositionHour@PLT
 256      FF
 257              	.LVL21:
 258 0075 89442424 		movl	%eax, 36(%esp)
 259              	.LVL22:
 260              		.loc 1 38 4 is_stmt 1 discriminator 3 view .LVU43
 261 0079 E8FCFFFF 		call	glLoadIdentity@PLT
 261      FF
 262              	.LVL23:
 263              		.loc 1 41 4 discriminator 3 view .LVU44
 264 007e 89F0     		movl	%esi, %eax
 265 0080 83C601   		addl	$1, %esi
 266              	.LVL24:
 267              		.loc 1 41 4 is_stmt 0 discriminator 3 view .LVU45
 268 0083 C1E007   		sall	$7, %eax
 269 0086 83C040   		addl	$64, %eax
 270 0089 89442428 		movl	%eax, 40(%esp)
 271 008d DB442428 		fildl	40(%esp)
 272 0091 83C40C   		addl	$12, %esp
 273              		.cfi_def_cfa_offset 68
 274 0094 6A00     		pushl	$0x00000000
 275              		.cfi_def_cfa_offset 72
 276 0096 83EC04   		subl	$4, %esp
 277              		.cfi_def_cfa_offset 76
 278 0099 D91424   		fsts	(%esp)
 279 009c D95C2428 		fstps	40(%esp)
 280 00a0 FF742414 		pushl	20(%esp)
 281              		.cfi_def_cfa_offset 80
 282 00a4 E8FCFFFF 		call	glTranslatef@PLT
 282      FF
 283              	.LVL25:
 284              		.loc 1 42 4 is_stmt 1 discriminator 3 view .LVU46
 285 00a9 83C40C   		addl	$12, %esp
 286              		.cfi_def_cfa_offset 68
 287 00ac 6A40     		pushl	$64
 288              		.cfi_def_cfa_offset 72
 289 00ae 6A40     		pushl	$64
 290              		.cfi_def_cfa_offset 76
 291 00b0 68000050 		pushl	$1078984704
 291      40
 292              		.cfi_def_cfa_offset 80
 293 00b5 6A00     		pushl	$0
 294              		.cfi_def_cfa_offset 84
 295 00b7 6800804F 		pushl	$1078951936
 295      40
 296              		.cfi_def_cfa_offset 88
 297 00bc 6A00     		pushl	$0
 298              		.cfi_def_cfa_offset 92
 299 00be FFB30000 		pushl	diskClockRing@GOTOFF(%ebx)
 299      0000
GAS LISTING /tmp/ccQ8jjaE.s 			page 7


 300              		.cfi_def_cfa_offset 96
 301 00c4 E8FCFFFF 		call	gluDisk@PLT
 301      FF
 302              	.LVL26:
 303              		.loc 1 44 4 discriminator 3 view .LVU47
 304 00c9 83C420   		addl	$32, %esp
 305              		.cfi_def_cfa_offset 64
 306 00cc 68000080 		pushl	$0x3f800000
 306      3F
 307              		.cfi_def_cfa_offset 68
 308 00d1 6A00     		pushl	$0x00000000
 309              		.cfi_def_cfa_offset 72
 310 00d3 6A00     		pushl	$0x00000000
 311              		.cfi_def_cfa_offset 76
 312              		.loc 1 35 15 is_stmt 0 discriminator 3 view .LVU48
 313 00d5 DB44241C 		fildl	28(%esp)
 314              		.loc 1 35 53 discriminator 3 view .LVU49
 315 00d9 D9830000 		flds	.LC7@GOTOFF(%ebx)
 315      0000
 316 00df D954241C 		fsts	28(%esp)
 317              	.LVL27:
 318              		.loc 1 35 53 discriminator 3 view .LVU50
 319 00e3 DEF9     		fdivrp	%st, %st(1)
 320              		.loc 1 35 13 discriminator 3 view .LVU51
 321 00e5 D9830000 		flds	.LC8@GOTOFF(%ebx)
 321      0000
 322 00eb D9542424 		fsts	36(%esp)
 323              		.loc 1 44 4 discriminator 3 view .LVU52
 324 00ef 83EC04   		subl	$4, %esp
 325              		.cfi_def_cfa_offset 80
 326              		.loc 1 35 13 discriminator 3 view .LVU53
 327 00f2 DEC9     		fmulp	%st, %st(1)
 328              		.loc 1 44 4 discriminator 3 view .LVU54
 329 00f4 D91C24   		fstps	(%esp)
 330 00f7 E8FCFFFF 		call	glRotatef@PLT
 330      FF
 331              	.LVL28:
 332              		.loc 1 45 4 is_stmt 1 discriminator 3 view .LVU55
 333 00fc 59       		popl	%ecx
 334              		.cfi_def_cfa_offset 76
 335 00fd 58       		popl	%eax
 336              		.cfi_def_cfa_offset 72
 337 00fe 55       		pushl	%ebp
 338              		.cfi_def_cfa_offset 76
 339 00ff FF742418 		pushl	24(%esp)
 340              		.cfi_def_cfa_offset 80
 341 0103 E8FCFFFF 		call	glRectiv@PLT
 341      FF
 342              	.LVL29:
 343              		.loc 1 46 4 discriminator 3 view .LVU56
 344 0108 E8FCFFFF 		call	glLoadIdentity@PLT
 344      FF
 345              	.LVL30:
 346              		.loc 1 47 4 discriminator 3 view .LVU57
 347 010d 83C40C   		addl	$12, %esp
 348              		.cfi_def_cfa_offset 68
 349 0110 6A00     		pushl	$0x00000000
GAS LISTING /tmp/ccQ8jjaE.s 			page 8


 350              		.cfi_def_cfa_offset 72
 351 0112 D9442424 		flds	36(%esp)
 352 0116 83EC04   		subl	$4, %esp
 353              		.cfi_def_cfa_offset 76
 354 0119 D91C24   		fstps	(%esp)
 355 011c FF742414 		pushl	20(%esp)
 356              		.cfi_def_cfa_offset 80
 357 0120 E8FCFFFF 		call	glTranslatef@PLT
 357      FF
 358              	.LVL31:
 359              		.loc 1 49 4 discriminator 3 view .LVU58
 360 0125 68000080 		pushl	$0x3f800000
 360      3F
 361              		.cfi_def_cfa_offset 84
 362 012a 6A00     		pushl	$0x00000000
 363              		.cfi_def_cfa_offset 88
 364 012c 6A00     		pushl	$0x00000000
 365              		.cfi_def_cfa_offset 92
 366              		.loc 1 36 16 is_stmt 0 discriminator 3 view .LVU59
 367 012e DB442430 		fildl	48(%esp)
 368              		.loc 1 36 55 discriminator 3 view .LVU60
 369 0132 D874242C 		fdivs	44(%esp)
 370              		.loc 1 49 4 discriminator 3 view .LVU61
 371 0136 83EC04   		subl	$4, %esp
 372              		.cfi_def_cfa_offset 96
 373              		.loc 1 36 14 discriminator 3 view .LVU62
 374 0139 D84C2438 		fmuls	56(%esp)
 375              		.loc 1 49 4 discriminator 3 view .LVU63
 376 013d D91C24   		fstps	(%esp)
 377 0140 E8FCFFFF 		call	glRotatef@PLT
 377      FF
 378              	.LVL32:
 379              		.loc 1 50 4 is_stmt 1 discriminator 3 view .LVU64
 380 0145 83C418   		addl	$24, %esp
 381              		.cfi_def_cfa_offset 72
 382 0148 55       		pushl	%ebp
 383              		.cfi_def_cfa_offset 76
 384 0149 FF742418 		pushl	24(%esp)
 385              		.cfi_def_cfa_offset 80
 386 014d E8FCFFFF 		call	glRectiv@PLT
 386      FF
 387              	.LVL33:
 388              		.loc 1 32 3 is_stmt 0 discriminator 3 view .LVU65
 389 0152 83C410   		addl	$16, %esp
 390              		.cfi_def_cfa_offset 64
 391 0155 83FE03   		cmpl	$3, %esi
 392 0158 0F8500FF 		jne	.L8
 392      FFFF
 393              	.LVL34:
 394              		.loc 1 32 3 discriminator 3 view .LVU66
 395 015e 83C701   		addl	$1, %edi
 396              	.LVL35:
 397              		.loc 1 32 3 discriminator 3 view .LVU67
 398              	.LBE3:
 399              		.loc 1 31 2 discriminator 2 view .LVU68
 400 0161 83FF08   		cmpl	$8, %edi
 401 0164 0F85DEFE 		jne	.L7
GAS LISTING /tmp/ccQ8jjaE.s 			page 9


 401      FFFF
 402              	.LBE4:
 403              		.loc 1 54 2 is_stmt 1 view .LVU69
 404 016a E8FCFFFF 		call	glFinish@PLT
 404      FF
 405              	.LVL36:
 406              		.loc 1 55 2 view .LVU70
 407 016f E8FCFFFF 		call	glutSwapBuffers@PLT
 407      FF
 408              	.LVL37:
 409              		.loc 1 56 1 is_stmt 0 view .LVU71
 410 0174 83C42C   		addl	$44, %esp
 411              		.cfi_def_cfa_offset 20
 412 0177 5B       		popl	%ebx
 413              		.cfi_restore 3
 414              		.cfi_def_cfa_offset 16
 415 0178 5E       		popl	%esi
 416              		.cfi_restore 6
 417              		.cfi_def_cfa_offset 12
 418 0179 5F       		popl	%edi
 419              		.cfi_restore 7
 420              		.cfi_def_cfa_offset 8
 421 017a 5D       		popl	%ebp
 422              		.cfi_restore 5
 423              		.cfi_def_cfa_offset 4
 424 017b C3       		ret
 425              		.cfi_endproc
 426              	.LFE238:
 427              		.size	dcDrawClocks, .-dcDrawClocks
 428              		.section	.text.dcDrawClock,"ax",@progbits
 429              		.p2align 4,,15
 430              		.globl	dcDrawClock
 431              		.type	dcDrawClock, @function
 432              	dcDrawClock:
 433              	.LVL38:
 434              	.LFB239:
 435              		.loc 1 58 54 is_stmt 1 view -0
 436              		.cfi_startproc
 437              		.loc 1 60 2 view .LVU73
 438              		.loc 1 58 54 is_stmt 0 view .LVU74
 439 0000 57       		pushl	%edi
 440              		.cfi_def_cfa_offset 8
 441              		.cfi_offset 7, -8
 442 0001 56       		pushl	%esi
 443              		.cfi_def_cfa_offset 12
 444              		.cfi_offset 6, -12
 445 0002 53       		pushl	%ebx
 446              		.cfi_def_cfa_offset 16
 447              		.cfi_offset 3, -16
 448 0003 E8FCFFFF 		call	__x86.get_pc_thunk.bx
 448      FF
 449 0008 81C30200 		addl	$_GLOBAL_OFFSET_TABLE_, %ebx
 449      0000
 450 000e 83EC1C   		subl	$28, %esp
 451              		.cfi_def_cfa_offset 44
 452              		.loc 1 58 54 view .LVU75
 453 0011 8B44242C 		movl	44(%esp), %eax
GAS LISTING /tmp/ccQ8jjaE.s 			page 10


 454              		.loc 1 60 46 view .LVU76
 455 0015 DB4030   		fildl	48(%eax)
 456 0018 D9830000 		flds	.LC7@GOTOFF(%ebx)
 456      0000
 457              		.loc 1 71 2 view .LVU77
 458 001e 8DBB0000 		leal	rectE@GOTOFF(%ebx), %edi
 458      0000
 459 0024 8DB30000 		leal	rectS@GOTOFF(%ebx), %esi
 459      0000
 460              		.loc 1 60 46 view .LVU78
 461 002a DCF9     		fdivr	%st, %st(1)
 462              		.loc 1 60 8 view .LVU79
 463 002c D9830000 		flds	.LC8@GOTOFF(%ebx)
 463      0000
 464 0032 DCCA     		fmul	%st, %st(2)
 465 0034 D9CA     		fxch	%st(2)
 466 0036 D95C2418 		fstps	24(%esp)
 467              	.LVL39:
 468              		.loc 1 61 2 is_stmt 1 view .LVU80
 469              		.loc 1 61 48 is_stmt 0 view .LVU81
 470 003a DB00     		fildl	(%eax)
 471              	.LVL40:
 472              		.loc 1 61 48 view .LVU82
 473 003c DEF1     		fdivp	%st, %st(1)
 474              		.loc 1 61 8 view .LVU83
 475 003e DEC9     		fmulp	%st, %st(1)
 476 0040 D95C2414 		fstps	20(%esp)
 477              	.LVL41:
 478              		.loc 1 62 2 is_stmt 1 view .LVU84
 479 0044 68004000 		pushl	$16384
 479      00
 480              		.cfi_def_cfa_offset 48
 481 0049 E8FCFFFF 		call	glClear@PLT
 481      FF
 482              	.LVL42:
 483              		.loc 1 64 2 view .LVU85
 484 004e C7042400 		movl	$0x40400000, (%esp)
 484      004040
 485 0055 E8FCFFFF 		call	glPointSize@PLT
 485      FF
 486              	.LVL43:
 487              		.loc 1 65 2 view .LVU86
 488 005a D9E8     		fld1
 489 005c D9542408 		fsts	8(%esp)
 490 0060 D9542404 		fsts	4(%esp)
 491 0064 D91424   		fsts	(%esp)
 492 0067 D95C2410 		fstps	16(%esp)
 493 006b E8FCFFFF 		call	glColor3f@PLT
 493      FF
 494              	.LVL44:
 495              		.loc 1 66 2 view .LVU87
 496 0070 E8FCFFFF 		call	glLoadIdentity@PLT
 496      FF
 497              	.LVL45:
 498              		.loc 1 68 2 view .LVU88
 499 0075 83C40C   		addl	$12, %esp
 500              		.cfi_def_cfa_offset 36
GAS LISTING /tmp/ccQ8jjaE.s 			page 11


 501 0078 D9830000 		flds	.LC5@GOTOFF(%ebx)
 501      0000
 502 007e 6A00     		pushl	$0x00000000
 503              		.cfi_def_cfa_offset 40
 504 0080 83EC08   		subl	$8, %esp
 505              		.cfi_def_cfa_offset 48
 506 0083 D9542404 		fsts	4(%esp)
 507 0087 D91424   		fsts	(%esp)
 508 008a D95C2414 		fstps	20(%esp)
 509 008e E8FCFFFF 		call	glTranslatef@PLT
 509      FF
 510              	.LVL46:
 511              		.loc 1 69 2 view .LVU89
 512 0093 83C40C   		addl	$12, %esp
 513              		.cfi_def_cfa_offset 36
 514 0096 6A40     		pushl	$64
 515              		.cfi_def_cfa_offset 40
 516 0098 6A40     		pushl	$64
 517              		.cfi_def_cfa_offset 44
 518 009a 68000050 		pushl	$1078984704
 518      40
 519              		.cfi_def_cfa_offset 48
 520 009f 6A00     		pushl	$0
 521              		.cfi_def_cfa_offset 52
 522 00a1 6800004F 		pushl	$1078919168
 522      40
 523              		.cfi_def_cfa_offset 56
 524 00a6 6A00     		pushl	$0
 525              		.cfi_def_cfa_offset 60
 526 00a8 FFB30000 		pushl	diskClockRing@GOTOFF(%ebx)
 526      0000
 527              		.cfi_def_cfa_offset 64
 528 00ae E8FCFFFF 		call	gluDisk@PLT
 528      FF
 529              	.LVL47:
 530              		.loc 1 70 2 view .LVU90
 531 00b3 83C41C   		addl	$28, %esp
 532              		.cfi_def_cfa_offset 36
 533 00b6 D9442404 		flds	4(%esp)
 534 00ba D91424   		fsts	(%esp)
 535 00bd D95C2404 		fstps	4(%esp)
 536 00c1 6A00     		pushl	$0x00000000
 537              		.cfi_def_cfa_offset 40
 538 00c3 6A00     		pushl	$0x00000000
 539              		.cfi_def_cfa_offset 44
 540 00c5 D9442418 		flds	24(%esp)
 541 00c9 83EC04   		subl	$4, %esp
 542              		.cfi_def_cfa_offset 48
 543 00cc D91C24   		fstps	(%esp)
 544 00cf E8FCFFFF 		call	glRotatef@PLT
 544      FF
 545              	.LVL48:
 546              		.loc 1 71 2 view .LVU91
 547 00d4 58       		popl	%eax
 548              		.cfi_def_cfa_offset 44
 549 00d5 5A       		popl	%edx
 550              		.cfi_def_cfa_offset 40
GAS LISTING /tmp/ccQ8jjaE.s 			page 12


 551 00d6 57       		pushl	%edi
 552              		.cfi_def_cfa_offset 44
 553 00d7 56       		pushl	%esi
 554              		.cfi_def_cfa_offset 48
 555 00d8 E8FCFFFF 		call	glRectiv@PLT
 555      FF
 556              	.LVL49:
 557              		.loc 1 72 2 view .LVU92
 558 00dd E8FCFFFF 		call	glLoadIdentity@PLT
 558      FF
 559              	.LVL50:
 560              		.loc 1 73 2 view .LVU93
 561 00e2 83C40C   		addl	$12, %esp
 562              		.cfi_def_cfa_offset 36
 563 00e5 6A00     		pushl	$0x00000000
 564              		.cfi_def_cfa_offset 40
 565 00e7 D944240C 		flds	12(%esp)
 566 00eb 83EC08   		subl	$8, %esp
 567              		.cfi_def_cfa_offset 48
 568 00ee D9542404 		fsts	4(%esp)
 569 00f2 D91C24   		fstps	(%esp)
 570 00f5 E8FCFFFF 		call	glTranslatef@PLT
 570      FF
 571              	.LVL51:
 572              		.loc 1 74 2 view .LVU94
 573 00fa D9442410 		flds	16(%esp)
 574 00fe 83EC04   		subl	$4, %esp
 575              		.cfi_def_cfa_offset 52
 576 0101 D91C24   		fstps	(%esp)
 577 0104 6A00     		pushl	$0x00000000
 578              		.cfi_def_cfa_offset 56
 579 0106 6A00     		pushl	$0x00000000
 580              		.cfi_def_cfa_offset 60
 581 0108 D9442424 		flds	36(%esp)
 582 010c 83EC04   		subl	$4, %esp
 583              		.cfi_def_cfa_offset 64
 584 010f D91C24   		fstps	(%esp)
 585 0112 E8FCFFFF 		call	glRotatef@PLT
 585      FF
 586              	.LVL52:
 587              		.loc 1 75 2 view .LVU95
 588 0117 83C418   		addl	$24, %esp
 589              		.cfi_def_cfa_offset 40
 590 011a 57       		pushl	%edi
 591              		.cfi_def_cfa_offset 44
 592 011b 56       		pushl	%esi
 593              		.cfi_def_cfa_offset 48
 594 011c E8FCFFFF 		call	glRectiv@PLT
 594      FF
 595              	.LVL53:
 596              		.loc 1 81 2 view .LVU96
 597 0121 E8FCFFFF 		call	glFinish@PLT
 597      FF
 598              	.LVL54:
 599              		.loc 1 82 2 view .LVU97
 600 0126 E8FCFFFF 		call	glutSwapBuffers@PLT
 600      FF
GAS LISTING /tmp/ccQ8jjaE.s 			page 13


 601              	.LVL55:
 602              		.loc 1 83 1 is_stmt 0 view .LVU98
 603 012b 83C420   		addl	$32, %esp
 604              		.cfi_def_cfa_offset 16
 605 012e 5B       		popl	%ebx
 606              		.cfi_restore 3
 607              		.cfi_def_cfa_offset 12
 608 012f 5E       		popl	%esi
 609              		.cfi_restore 6
 610              		.cfi_def_cfa_offset 8
 611 0130 5F       		popl	%edi
 612              		.cfi_restore 7
 613              		.cfi_def_cfa_offset 4
 614 0131 C3       		ret
 615              		.cfi_endproc
 616              	.LFE239:
 617              		.size	dcDrawClock, .-dcDrawClock
 618              		.globl	diskClockRing
 619              		.section	.bss.diskClockRing,"aw",@nobits
 620              		.align 4
 621              		.type	diskClockRing, @object
 622              		.size	diskClockRing, 4
 623              	diskClockRing:
 624 0000 00000000 		.zero	4
 625              		.globl	rectE
 626              		.section	.rodata.rectE,"a"
 627              		.align 4
 628              		.type	rectE, @object
 629              		.size	rectE, 8
 630              	rectE:
 631 0000 3A000000 		.long	58
 632 0004 04000000 		.long	4
 633              		.globl	rectS
 634              		.section	.rodata.rectS,"a"
 635              		.align 4
 636              		.type	rectS, @object
 637              		.size	rectS, 8
 638              	rectS:
 639 0000 00000000 		.long	0
 640 0004 FCFFFFFF 		.long	-4
 641              		.section	.rodata.cst4,"aM",@progbits,4
 642              		.align 4
 643              	.LC5:
 644 0000 00008042 		.long	1115684864
 645              		.align 4
 646              	.LC7:
 647 0004 5DBCFE44 		.long	1157545053
 648              		.align 4
 649              	.LC8:
 650 0008 0000B443 		.long	1135869952
 651              		.section	.text.__x86.get_pc_thunk.bx,"axG",@progbits,__x86.get_pc_thunk.bx,comdat
 652              		.globl	__x86.get_pc_thunk.bx
 653              		.hidden	__x86.get_pc_thunk.bx
 654              		.type	__x86.get_pc_thunk.bx, @function
 655              	__x86.get_pc_thunk.bx:
 656              	.LFB240:
 657              		.cfi_startproc
GAS LISTING /tmp/ccQ8jjaE.s 			page 14


 658 0000 8B1C24   		movl	(%esp), %ebx
 659 0003 C3       		ret
 660              		.cfi_endproc
 661              	.LFE240:
 662              		.text
 663              	.Letext0:
 664              		.file 2 "/usr/lib/gcc/x86_64-linux-gnu/8/include/stddef.h"
 665              		.file 3 "/usr/include/i386-linux-gnu/bits/types.h"
 666              		.file 4 "/usr/include/i386-linux-gnu/bits/stdint-intn.h"
 667              		.file 5 "/usr/include/i386-linux-gnu/bits/stdint-uintn.h"
 668              		.file 6 "../../../os/common/ports/SIMIA32/compilers/GCC/chtypes.h"
 669              		.file 7 "../../../os/rt/include/chsystypes.h"
 670              		.file 8 "../../../os/rt/include/chschd.h"
 671              		.file 9 "../../../os/rt/include/chtime.h"
 672              		.file 10 "../../../os/common/ports/SIMIA32/chcore.h"
 673              		.file 11 "../../../os/rt/include/chtm.h"
 674              		.file 12 "../../../os/rt/include/chsem.h"
 675              		.file 13 "../../../os/rt/include/chmtx.h"
 676              		.file 14 "../../../os/rt/include/chsys.h"
 677              		.file 15 "../../../os/rt/include/chregistry.h"
 678              		.file 16 "../../../os/rt/include/chevents.h"
 679              		.file 17 "../../../os/common/oslib/include/chmemcore.h"
 680              		.file 18 "../../../os/common/oslib/include/chmempools.h"
 681              		.file 19 "../../../os/common/oslib/include/chfactory.h"
 682              		.file 20 "/usr/include/netinet/in.h"
 683              		.file 21 "/usr/include/unistd.h"
 684              		.file 22 "/usr/include/i386-linux-gnu/bits/getopt_core.h"
 685              		.file 23 "/usr/include/i386-linux-gnu/bits/types/struct_FILE.h"
 686              		.file 24 "/usr/include/i386-linux-gnu/bits/types/FILE.h"
 687              		.file 25 "/usr/include/stdio.h"
 688              		.file 26 "/usr/include/i386-linux-gnu/bits/sys_errlist.h"
 689              		.file 27 "../../../os/hal/include/hal_queues.h"
 690              		.file 28 "../../../os/hal/ports/simulator/hal_pal_lld.h"
 691              		.file 29 "../../../os/hal/include/hal_serial.h"
 692              		.file 30 "../../../os/hal/ports/simulator/posix/hal_serial_lld.h"
 693              		.file 31 "/usr/include/math.h"
 694              		.file 32 "accelStepper.h"
 695              		.file 33 "clock.h"
 696              		.file 34 "/usr/include/GL/gl.h"
 697              		.file 35 "/usr/include/GL/glu.h"
 698              		.file 36 "/usr/include/GL/freeglut_std.h"
 5293              		.section	.note.GNU-stack,"",@progbits
GAS LISTING /tmp/ccQ8jjaE.s 			page 107

