GAS LISTING /tmp/cc3SZxa0.s 			page 1


   1              		.file	"hal_serial.c"
   2              		.text
   3              	.Ltext0:
   4              		.section	.text._readt,"ax",@progbits
   5              		.p2align 4,,15
   6              		.type	_readt, @function
   7              	_readt:
   8              	.LVL0:
   9              	.LFB229:
  10              		.file 1 "../../../os/hal/src/hal_serial.c"
  11              		.loc 1 89 45 view -0
  12              		.cfi_startproc
  13              		.loc 1 91 3 view .LVU1
  14              		.loc 1 89 45 is_stmt 0 view .LVU2
  15 0000 53       		pushl	%ebx
  16              		.cfi_def_cfa_offset 8
  17              		.cfi_offset 3, -8
  18 0001 E8FCFFFF 		call	__x86.get_pc_thunk.bx
  18      FF
  19 0006 81C30200 		addl	$_GLOBAL_OFFSET_TABLE_, %ebx
  19      0000
  20 000c 83EC08   		subl	$8, %esp
  21              		.cfi_def_cfa_offset 16
  22              		.loc 1 91 10 view .LVU3
  23 000f FF74241C 		pushl	28(%esp)
  24              		.cfi_def_cfa_offset 20
  25 0013 FF74241C 		pushl	28(%esp)
  26              		.cfi_def_cfa_offset 24
  27 0017 FF74241C 		pushl	28(%esp)
  28              		.cfi_def_cfa_offset 28
  29 001b 8B44241C 		movl	28(%esp), %eax
  30 001f 83C00C   		addl	$12, %eax
  31 0022 50       		pushl	%eax
  32              		.cfi_def_cfa_offset 32
  33 0023 E8FCFFFF 		call	iqReadTimeout@PLT
  33      FF
  34              	.LVL1:
  35              		.loc 1 92 1 view .LVU4
  36 0028 83C418   		addl	$24, %esp
  37              		.cfi_def_cfa_offset 8
  38 002b 5B       		popl	%ebx
  39              		.cfi_restore 3
  40              		.cfi_def_cfa_offset 4
  41 002c C3       		ret
  42              		.cfi_endproc
  43              	.LFE229:
  44              		.size	_readt, .-_readt
  45              		.section	.text._read,"ax",@progbits
  46              		.p2align 4,,15
  47              		.type	_read, @function
  48              	_read:
  49              	.LVL2:
  50              	.LFB223:
  51              		.loc 1 56 54 is_stmt 1 view -0
  52              		.cfi_startproc
  53              		.loc 1 58 3 view .LVU6
  54              		.loc 1 56 54 is_stmt 0 view .LVU7
GAS LISTING /tmp/cc3SZxa0.s 			page 2


  55 0000 53       		pushl	%ebx
  56              		.cfi_def_cfa_offset 8
  57              		.cfi_offset 3, -8
  58 0001 E8FCFFFF 		call	__x86.get_pc_thunk.bx
  58      FF
  59 0006 81C30200 		addl	$_GLOBAL_OFFSET_TABLE_, %ebx
  59      0000
  60 000c 83EC08   		subl	$8, %esp
  61              		.cfi_def_cfa_offset 16
  62              		.loc 1 58 10 view .LVU8
  63 000f 6AFF     		pushl	$-1
  64              		.cfi_def_cfa_offset 20
  65 0011 FF74241C 		pushl	28(%esp)
  66              		.cfi_def_cfa_offset 24
  67 0015 FF74241C 		pushl	28(%esp)
  68              		.cfi_def_cfa_offset 28
  69 0019 8B44241C 		movl	28(%esp), %eax
  70 001d 83C00C   		addl	$12, %eax
  71 0020 50       		pushl	%eax
  72              		.cfi_def_cfa_offset 32
  73 0021 E8FCFFFF 		call	iqReadTimeout@PLT
  73      FF
  74              	.LVL3:
  75              		.loc 1 60 1 view .LVU9
  76 0026 83C418   		addl	$24, %esp
  77              		.cfi_def_cfa_offset 8
  78 0029 5B       		popl	%ebx
  79              		.cfi_restore 3
  80              		.cfi_def_cfa_offset 4
  81 002a C3       		ret
  82              		.cfi_endproc
  83              	.LFE223:
  84              		.size	_read, .-_read
  85              		.section	.text._writet,"ax",@progbits
  86              		.p2align 4,,15
  87              		.type	_writet, @function
  88              	_writet:
  89              	.LVL4:
  90              	.LFB228:
  91              		.loc 1 83 46 is_stmt 1 view -0
  92              		.cfi_startproc
  93              		.loc 1 85 3 view .LVU11
  94              		.loc 1 83 46 is_stmt 0 view .LVU12
  95 0000 53       		pushl	%ebx
  96              		.cfi_def_cfa_offset 8
  97              		.cfi_offset 3, -8
  98 0001 E8FCFFFF 		call	__x86.get_pc_thunk.bx
  98      FF
  99 0006 81C30200 		addl	$_GLOBAL_OFFSET_TABLE_, %ebx
  99      0000
 100 000c 83EC08   		subl	$8, %esp
 101              		.cfi_def_cfa_offset 16
 102              		.loc 1 85 10 view .LVU13
 103 000f FF74241C 		pushl	28(%esp)
 104              		.cfi_def_cfa_offset 20
 105 0013 FF74241C 		pushl	28(%esp)
 106              		.cfi_def_cfa_offset 24
GAS LISTING /tmp/cc3SZxa0.s 			page 3


 107 0017 FF74241C 		pushl	28(%esp)
 108              		.cfi_def_cfa_offset 28
 109 001b 8B44241C 		movl	28(%esp), %eax
 110 001f 83C030   		addl	$48, %eax
 111 0022 50       		pushl	%eax
 112              		.cfi_def_cfa_offset 32
 113 0023 E8FCFFFF 		call	oqWriteTimeout@PLT
 113      FF
 114              	.LVL5:
 115              		.loc 1 86 1 view .LVU14
 116 0028 83C418   		addl	$24, %esp
 117              		.cfi_def_cfa_offset 8
 118 002b 5B       		popl	%ebx
 119              		.cfi_restore 3
 120              		.cfi_def_cfa_offset 4
 121 002c C3       		ret
 122              		.cfi_endproc
 123              	.LFE228:
 124              		.size	_writet, .-_writet
 125              		.section	.text._write,"ax",@progbits
 126              		.p2align 4,,15
 127              		.type	_write, @function
 128              	_write:
 129              	.LVL6:
 130              	.LFB222:
 131              		.loc 1 50 61 is_stmt 1 view -0
 132              		.cfi_startproc
 133              		.loc 1 52 3 view .LVU16
 134              		.loc 1 50 61 is_stmt 0 view .LVU17
 135 0000 53       		pushl	%ebx
 136              		.cfi_def_cfa_offset 8
 137              		.cfi_offset 3, -8
 138 0001 E8FCFFFF 		call	__x86.get_pc_thunk.bx
 138      FF
 139 0006 81C30200 		addl	$_GLOBAL_OFFSET_TABLE_, %ebx
 139      0000
 140 000c 83EC08   		subl	$8, %esp
 141              		.cfi_def_cfa_offset 16
 142              		.loc 1 52 10 view .LVU18
 143 000f 6AFF     		pushl	$-1
 144              		.cfi_def_cfa_offset 20
 145 0011 FF74241C 		pushl	28(%esp)
 146              		.cfi_def_cfa_offset 24
 147 0015 FF74241C 		pushl	28(%esp)
 148              		.cfi_def_cfa_offset 28
 149 0019 8B44241C 		movl	28(%esp), %eax
 150 001d 83C030   		addl	$48, %eax
 151 0020 50       		pushl	%eax
 152              		.cfi_def_cfa_offset 32
 153 0021 E8FCFFFF 		call	oqWriteTimeout@PLT
 153      FF
 154              	.LVL7:
 155              		.loc 1 54 1 view .LVU19
 156 0026 83C418   		addl	$24, %esp
 157              		.cfi_def_cfa_offset 8
 158 0029 5B       		popl	%ebx
 159              		.cfi_restore 3
GAS LISTING /tmp/cc3SZxa0.s 			page 4


 160              		.cfi_def_cfa_offset 4
 161 002a C3       		ret
 162              		.cfi_endproc
 163              	.LFE222:
 164              		.size	_write, .-_write
 165              		.section	.text._gett,"ax",@progbits
 166              		.p2align 4,,15
 167              		.type	_gett, @function
 168              	_gett:
 169              	.LVL8:
 170              	.LFB227:
 171              		.loc 1 77 53 is_stmt 1 view -0
 172              		.cfi_startproc
 173              		.loc 1 79 3 view .LVU21
 174              		.loc 1 77 53 is_stmt 0 view .LVU22
 175 0000 53       		pushl	%ebx
 176              		.cfi_def_cfa_offset 8
 177              		.cfi_offset 3, -8
 178 0001 E8FCFFFF 		call	__x86.get_pc_thunk.bx
 178      FF
 179 0006 81C30200 		addl	$_GLOBAL_OFFSET_TABLE_, %ebx
 179      0000
 180 000c 83EC10   		subl	$16, %esp
 181              		.cfi_def_cfa_offset 24
 182              		.loc 1 79 10 view .LVU23
 183 000f FF74241C 		pushl	28(%esp)
 184              		.cfi_def_cfa_offset 28
 185 0013 8B44241C 		movl	28(%esp), %eax
 186 0017 83C00C   		addl	$12, %eax
 187 001a 50       		pushl	%eax
 188              		.cfi_def_cfa_offset 32
 189 001b E8FCFFFF 		call	iqGetTimeout@PLT
 189      FF
 190              	.LVL9:
 191              		.loc 1 80 1 view .LVU24
 192 0020 83C418   		addl	$24, %esp
 193              		.cfi_def_cfa_offset 8
 194 0023 5B       		popl	%ebx
 195              		.cfi_restore 3
 196              		.cfi_def_cfa_offset 4
 197 0024 C3       		ret
 198              		.cfi_endproc
 199              	.LFE227:
 200              		.size	_gett, .-_gett
 201              		.section	.text._get,"ax",@progbits
 202              		.p2align 4,,15
 203              		.type	_get, @function
 204              	_get:
 205              	.LVL10:
 206              	.LFB225:
 207              		.loc 1 67 29 is_stmt 1 view -0
 208              		.cfi_startproc
 209              		.loc 1 69 3 view .LVU26
 210              		.loc 1 67 29 is_stmt 0 view .LVU27
 211 0000 53       		pushl	%ebx
 212              		.cfi_def_cfa_offset 8
 213              		.cfi_offset 3, -8
GAS LISTING /tmp/cc3SZxa0.s 			page 5


 214 0001 E8FCFFFF 		call	__x86.get_pc_thunk.bx
 214      FF
 215 0006 81C30200 		addl	$_GLOBAL_OFFSET_TABLE_, %ebx
 215      0000
 216 000c 83EC10   		subl	$16, %esp
 217              		.cfi_def_cfa_offset 24
 218              		.loc 1 69 10 view .LVU28
 219 000f 6AFF     		pushl	$-1
 220              		.cfi_def_cfa_offset 28
 221 0011 8B44241C 		movl	28(%esp), %eax
 222 0015 83C00C   		addl	$12, %eax
 223 0018 50       		pushl	%eax
 224              		.cfi_def_cfa_offset 32
 225 0019 E8FCFFFF 		call	iqGetTimeout@PLT
 225      FF
 226              	.LVL11:
 227              		.loc 1 70 1 view .LVU29
 228 001e 83C418   		addl	$24, %esp
 229              		.cfi_def_cfa_offset 8
 230 0021 5B       		popl	%ebx
 231              		.cfi_restore 3
 232              		.cfi_def_cfa_offset 4
 233 0022 C3       		ret
 234              		.cfi_endproc
 235              	.LFE225:
 236              		.size	_get, .-_get
 237              		.section	.text._putt,"ax",@progbits
 238              		.p2align 4,,15
 239              		.type	_putt, @function
 240              	_putt:
 241              	.LVL12:
 242              	.LFB226:
 243              		.loc 1 72 64 is_stmt 1 view -0
 244              		.cfi_startproc
 245              		.loc 1 74 3 view .LVU31
 246              		.loc 1 72 64 is_stmt 0 view .LVU32
 247 0000 53       		pushl	%ebx
 248              		.cfi_def_cfa_offset 8
 249              		.cfi_offset 3, -8
 250 0001 E8FCFFFF 		call	__x86.get_pc_thunk.bx
 250      FF
 251 0006 81C30200 		addl	$_GLOBAL_OFFSET_TABLE_, %ebx
 251      0000
 252 000c 83EC0C   		subl	$12, %esp
 253              		.cfi_def_cfa_offset 20
 254              		.loc 1 74 10 view .LVU33
 255 000f FF74241C 		pushl	28(%esp)
 256              		.cfi_def_cfa_offset 24
 257 0013 0FB64424 		movzbl	28(%esp), %eax
 257      1C
 258 0018 50       		pushl	%eax
 259              		.cfi_def_cfa_offset 28
 260 0019 8B44241C 		movl	28(%esp), %eax
 261 001d 83C030   		addl	$48, %eax
 262 0020 50       		pushl	%eax
 263              		.cfi_def_cfa_offset 32
 264 0021 E8FCFFFF 		call	oqPutTimeout@PLT
GAS LISTING /tmp/cc3SZxa0.s 			page 6


 264      FF
 265              	.LVL13:
 266              		.loc 1 75 1 view .LVU34
 267 0026 83C418   		addl	$24, %esp
 268              		.cfi_def_cfa_offset 8
 269 0029 5B       		popl	%ebx
 270              		.cfi_restore 3
 271              		.cfi_def_cfa_offset 4
 272 002a C3       		ret
 273              		.cfi_endproc
 274              	.LFE226:
 275              		.size	_putt, .-_putt
 276              		.section	.text._put,"ax",@progbits
 277              		.p2align 4,,15
 278              		.type	_put, @function
 279              	_put:
 280              	.LVL14:
 281              	.LFB224:
 282              		.loc 1 62 40 is_stmt 1 view -0
 283              		.cfi_startproc
 284              		.loc 1 64 3 view .LVU36
 285              		.loc 1 62 40 is_stmt 0 view .LVU37
 286 0000 53       		pushl	%ebx
 287              		.cfi_def_cfa_offset 8
 288              		.cfi_offset 3, -8
 289 0001 E8FCFFFF 		call	__x86.get_pc_thunk.bx
 289      FF
 290 0006 81C30200 		addl	$_GLOBAL_OFFSET_TABLE_, %ebx
 290      0000
 291 000c 83EC0C   		subl	$12, %esp
 292              		.cfi_def_cfa_offset 20
 293              		.loc 1 64 10 view .LVU38
 294 000f 6AFF     		pushl	$-1
 295              		.cfi_def_cfa_offset 24
 296 0011 0FB64424 		movzbl	28(%esp), %eax
 296      1C
 297 0016 50       		pushl	%eax
 298              		.cfi_def_cfa_offset 28
 299 0017 8B44241C 		movl	28(%esp), %eax
 300 001b 83C030   		addl	$48, %eax
 301 001e 50       		pushl	%eax
 302              		.cfi_def_cfa_offset 32
 303 001f E8FCFFFF 		call	oqPutTimeout@PLT
 303      FF
 304              	.LVL15:
 305              		.loc 1 65 1 view .LVU39
 306 0024 83C418   		addl	$24, %esp
 307              		.cfi_def_cfa_offset 8
 308 0027 5B       		popl	%ebx
 309              		.cfi_restore 3
 310              		.cfi_def_cfa_offset 4
 311 0028 C3       		ret
 312              		.cfi_endproc
 313              	.LFE224:
 314              		.size	_put, .-_put
 315              		.section	.text._ctl,"ax",@progbits
 316              		.p2align 4,,15
GAS LISTING /tmp/cc3SZxa0.s 			page 7


 317              		.type	_ctl, @function
 318              	_ctl:
 319              	.LFB241:
 320              		.cfi_startproc
 321 0000 31C0     		xorl	%eax, %eax
 322 0002 C3       		ret
 323              		.cfi_endproc
 324              	.LFE241:
 325              		.size	_ctl, .-_ctl
 326              		.section	.text.sdInit,"ax",@progbits
 327              		.p2align 4,,15
 328              		.globl	sdInit
 329              		.type	sdInit, @function
 330              	sdInit:
 331              	.LFB231:
 332              		.loc 1 135 19 is_stmt 1 view -0
 333              		.cfi_startproc
 334              		.loc 1 137 3 view .LVU41
 335              		.loc 1 135 19 is_stmt 0 view .LVU42
 336 0000 53       		pushl	%ebx
 337              		.cfi_def_cfa_offset 8
 338              		.cfi_offset 3, -8
 339 0001 E8FCFFFF 		call	__x86.get_pc_thunk.bx
 339      FF
 340 0006 81C30200 		addl	$_GLOBAL_OFFSET_TABLE_, %ebx
 340      0000
 341 000c 83EC08   		subl	$8, %esp
 342              		.cfi_def_cfa_offset 16
 343              		.loc 1 137 3 view .LVU43
 344 000f E8FCFFFF 		call	sd_lld_init@PLT
 344      FF
 345              	.LVL16:
 346              		.loc 1 138 1 view .LVU44
 347 0014 83C408   		addl	$8, %esp
 348              		.cfi_def_cfa_offset 8
 349 0017 5B       		popl	%ebx
 350              		.cfi_restore 3
 351              		.cfi_def_cfa_offset 4
 352 0018 C3       		ret
 353              		.cfi_endproc
 354              	.LFE231:
 355              		.size	sdInit, .-sdInit
 356              		.section	.text.sdObjectInit,"ax",@progbits
 357              		.p2align 4,,15
 358              		.globl	sdObjectInit
 359              		.type	sdObjectInit, @function
 360              	sdObjectInit:
 361              	.LVL17:
 362              	.LFB232:
 363              		.loc 1 158 76 is_stmt 1 view -0
 364              		.cfi_startproc
 365              		.loc 1 160 3 view .LVU46
 366              		.loc 1 158 76 is_stmt 0 view .LVU47
 367 0000 56       		pushl	%esi
 368              		.cfi_def_cfa_offset 8
 369              		.cfi_offset 6, -8
 370 0001 53       		pushl	%ebx
GAS LISTING /tmp/cc3SZxa0.s 			page 8


 371              		.cfi_def_cfa_offset 12
 372              		.cfi_offset 3, -12
 373 0002 E8FCFFFF 		call	__x86.get_pc_thunk.bx
 373      FF
 374 0007 81C30200 		addl	$_GLOBAL_OFFSET_TABLE_, %ebx
 374      0000
 375 000d 83EC10   		subl	$16, %esp
 376              		.cfi_def_cfa_offset 28
 377              		.loc 1 158 76 view .LVU48
 378 0010 8B74241C 		movl	28(%esp), %esi
 379              		.loc 1 162 14 view .LVU49
 380 0014 C7460801 		movl	$1, 8(%esi)
 380      000000
 381              		.loc 1 160 12 view .LVU50
 382 001b 8D830000 		leal	vmt@GOTOFF(%ebx), %eax
 382      0000
 383 0021 8906     		movl	%eax, (%esi)
 384              		.loc 1 161 3 is_stmt 1 view .LVU51
 385              	.LVL18:
 386              	.LBB74:
 387              	.LBI74:
 388              		.file 2 "../../../os/hal/osal/rt/osal.h"
 389              		.loc 2 868 20 view .LVU52
 390              	.LBE74:
 391              		.loc 2 870 3 view .LVU53
 392              	.LBB77:
 393              	.LBB75:
 394              	.LBI75:
 395              		.file 3 "../../../os/rt/include/chevents.h"
 396              		.loc 3 171 20 view .LVU54
 397              	.LBB76:
 398              		.loc 3 173 3 view .LVU55
 399              	.LBE76:
 400              	.LBE75:
 401              	.LBE77:
 402              		.loc 1 161 3 is_stmt 0 view .LVU56
 403 0023 8D4604   		leal	4(%esi), %eax
 404              	.LVL19:
 405              		.loc 1 161 3 view .LVU57
 406 0026 894604   		movl	%eax, 4(%esi)
 407              	.LVL20:
 408              		.loc 1 162 3 is_stmt 1 view .LVU58
 409              		.loc 1 163 3 view .LVU59
 410              		.loc 1 163 33 is_stmt 0 view .LVU60
 411 0029 8D4654   		leal	84(%esi), %eax
 412              		.loc 1 163 3 view .LVU61
 413 002c 56       		pushl	%esi
 414              		.cfi_def_cfa_offset 32
 415 002d FF742424 		pushl	36(%esp)
 416              		.cfi_def_cfa_offset 36
 417 0031 6A20     		pushl	$32
 418              		.cfi_def_cfa_offset 40
 419 0033 50       		pushl	%eax
 420              		.cfi_def_cfa_offset 44
 421 0034 8D460C   		leal	12(%esi), %eax
 422 0037 50       		pushl	%eax
 423              		.cfi_def_cfa_offset 48
GAS LISTING /tmp/cc3SZxa0.s 			page 9


 424 0038 E8FCFFFF 		call	iqObjectInit@PLT
 424      FF
 425              	.LVL21:
 426              		.loc 1 164 3 is_stmt 1 view .LVU62
 427 003d 83C414   		addl	$20, %esp
 428              		.cfi_def_cfa_offset 28
 429              		.loc 1 164 33 is_stmt 0 view .LVU63
 430 0040 8D4674   		leal	116(%esi), %eax
 431              		.loc 1 164 3 view .LVU64
 432 0043 56       		pushl	%esi
 433              		.cfi_def_cfa_offset 32
 434 0044 83C630   		addl	$48, %esi
 435 0047 FF742428 		pushl	40(%esp)
 436              		.cfi_def_cfa_offset 36
 437 004b 6A20     		pushl	$32
 438              		.cfi_def_cfa_offset 40
 439 004d 50       		pushl	%eax
 440              		.cfi_def_cfa_offset 44
 441 004e 56       		pushl	%esi
 442              		.cfi_def_cfa_offset 48
 443 004f E8FCFFFF 		call	oqObjectInit@PLT
 443      FF
 444              	.LVL22:
 445              		.loc 1 165 1 view .LVU65
 446 0054 83C424   		addl	$36, %esp
 447              		.cfi_def_cfa_offset 12
 448 0057 5B       		popl	%ebx
 449              		.cfi_restore 3
 450              		.cfi_def_cfa_offset 8
 451 0058 5E       		popl	%esi
 452              		.cfi_restore 6
 453              		.cfi_def_cfa_offset 4
 454 0059 C3       		ret
 455              		.cfi_endproc
 456              	.LFE232:
 457              		.size	sdObjectInit, .-sdObjectInit
 458              		.section	.text.sdStart,"ax",@progbits
 459              		.p2align 4,,15
 460              		.globl	sdStart
 461              		.type	sdStart, @function
 462              	sdStart:
 463              	.LVL23:
 464              	.LFB233:
 465              		.loc 1 185 61 is_stmt 1 view -0
 466              		.cfi_startproc
 467              		.loc 1 187 3 view .LVU67
 468              		.loc 1 187 3 view .LVU68
 469              		.loc 1 189 3 view .LVU69
 470              	.LBB78:
 471              	.LBI78:
 472              		.loc 2 509 20 view .LVU70
 473              	.LBE78:
 474              		.loc 2 511 3 view .LVU71
 475              	.LBB86:
 476              	.LBB79:
 477              	.LBI79:
 478              		.file 4 "../../../os/rt/include/chsys.h"
GAS LISTING /tmp/cc3SZxa0.s 			page 10


 479              		.loc 4 353 20 view .LVU72
 480              	.LBE79:
 481              	.LBE86:
 482              		.loc 4 355 3 view .LVU73
 483              	.LBB87:
 484              	.LBB84:
 485              	.LBB80:
 486              	.LBI80:
 487              		.file 5 "../../../os/common/ports/SIMIA32/chcore.h"
 488              		.loc 5 362 20 view .LVU74
 489              	.LBB81:
 490              		.loc 5 364 3 view .LVU75
 491              	.LBE81:
 492              	.LBE80:
 493              	.LBE84:
 494              	.LBE87:
 495              		.loc 1 185 61 is_stmt 0 view .LVU76
 496 0000 57       		pushl	%edi
 497              		.cfi_def_cfa_offset 8
 498              		.cfi_offset 7, -8
 499 0001 56       		pushl	%esi
 500              		.cfi_def_cfa_offset 12
 501              		.cfi_offset 6, -12
 502 0002 53       		pushl	%ebx
 503              		.cfi_def_cfa_offset 16
 504              		.cfi_offset 3, -16
 505              		.loc 1 185 61 view .LVU77
 506 0003 8B7C2410 		movl	16(%esp), %edi
 507 0007 E8FCFFFF 		call	__x86.get_pc_thunk.bx
 507      FF
 508 000c 81C30200 		addl	$_GLOBAL_OFFSET_TABLE_, %ebx
 508      0000
 509              		.loc 1 192 3 view .LVU78
 510 0012 83EC08   		subl	$8, %esp
 511              		.cfi_def_cfa_offset 24
 512 0015 FF74241C 		pushl	28(%esp)
 513              		.cfi_def_cfa_offset 28
 514 0019 57       		pushl	%edi
 515              		.cfi_def_cfa_offset 32
 516              	.LBB88:
 517              	.LBB85:
 518              	.LBB83:
 519              	.LBB82:
 520              		.loc 5 364 16 view .LVU79
 521 001a 8BB30000 		movl	port_irq_sts@GOT(%ebx), %esi
 521      0000
 522 0020 C7060100 		movl	$1, (%esi)
 522      0000
 523              	.LBE82:
 524              	.LBE83:
 525              	.LBE85:
 526              	.LBE88:
 527              		.loc 4 356 34 is_stmt 1 view .LVU80
 528              		.loc 4 357 20 view .LVU81
 529              		.loc 1 190 3 view .LVU82
 530              		.loc 1 190 3 view .LVU83
 531              		.loc 1 192 3 view .LVU84
GAS LISTING /tmp/cc3SZxa0.s 			page 11


 532 0026 E8FCFFFF 		call	sd_lld_start@PLT
 532      FF
 533              	.LVL24:
 534              		.loc 1 193 3 view .LVU85
 535              		.loc 1 195 1 is_stmt 0 view .LVU86
 536 002b 83C410   		addl	$16, %esp
 537              		.cfi_def_cfa_offset 16
 538              		.loc 1 193 14 view .LVU87
 539 002e C7470802 		movl	$2, 8(%edi)
 539      000000
 540              		.loc 1 194 3 is_stmt 1 view .LVU88
 541              	.LBB89:
 542              	.LBI89:
 543              		.loc 2 520 20 view .LVU89
 544              	.LBE89:
 545              		.loc 2 522 3 view .LVU90
 546              	.LBB94:
 547              	.LBB90:
 548              	.LBI90:
 549              		.loc 4 365 20 view .LVU91
 550              	.LBB91:
 551              		.loc 4 367 22 view .LVU92
 552              		.loc 4 368 33 view .LVU93
 553              		.loc 4 374 3 view .LVU94
 554              		.loc 4 374 3 view .LVU95
 555              		.loc 4 378 3 view .LVU96
 556              	.LBB92:
 557              	.LBI92:
 558              		.loc 5 371 20 view .LVU97
 559              	.LBB93:
 560              		.loc 5 373 3 view .LVU98
 561              		.loc 5 373 16 is_stmt 0 view .LVU99
 562 0035 C7060000 		movl	$0, (%esi)
 562      0000
 563              	.LBE93:
 564              	.LBE92:
 565              	.LBE91:
 566              	.LBE90:
 567              	.LBE94:
 568              		.loc 1 195 1 view .LVU100
 569 003b 5B       		popl	%ebx
 570              		.cfi_restore 3
 571              		.cfi_def_cfa_offset 12
 572 003c 5E       		popl	%esi
 573              		.cfi_restore 6
 574              		.cfi_def_cfa_offset 8
 575 003d 5F       		popl	%edi
 576              		.cfi_restore 7
 577              		.cfi_def_cfa_offset 4
 578 003e C3       		ret
 579              		.cfi_endproc
 580              	.LFE233:
 581              		.size	sdStart, .-sdStart
 582              		.section	.text.sdStop,"ax",@progbits
 583              		.p2align 4,,15
 584              		.globl	sdStop
 585              		.type	sdStop, @function
GAS LISTING /tmp/cc3SZxa0.s 			page 12


 586              	sdStop:
 587              	.LVL25:
 588              	.LFB234:
 589              		.loc 1 206 32 is_stmt 1 view -0
 590              		.cfi_startproc
 591              		.loc 1 208 3 view .LVU102
 592              		.loc 1 208 3 view .LVU103
 593              		.loc 1 210 3 view .LVU104
 594              	.LBB95:
 595              	.LBI95:
 596              		.loc 2 509 20 view .LVU105
 597              	.LBE95:
 598              		.loc 2 511 3 view .LVU106
 599              	.LBB103:
 600              	.LBB96:
 601              	.LBI96:
 602              		.loc 4 353 20 view .LVU107
 603              	.LBE96:
 604              	.LBE103:
 605              		.loc 4 355 3 view .LVU108
 606              	.LBB104:
 607              	.LBB101:
 608              	.LBB97:
 609              	.LBI97:
 610              		.loc 5 362 20 view .LVU109
 611              	.LBB98:
 612              		.loc 5 364 3 view .LVU110
 613              	.LBE98:
 614              	.LBE97:
 615              	.LBE101:
 616              	.LBE104:
 617              		.loc 1 206 32 is_stmt 0 view .LVU111
 618 0000 57       		pushl	%edi
 619              		.cfi_def_cfa_offset 8
 620              		.cfi_offset 7, -8
 621 0001 56       		pushl	%esi
 622              		.cfi_def_cfa_offset 12
 623              		.cfi_offset 6, -12
 624 0002 53       		pushl	%ebx
 625              		.cfi_def_cfa_offset 16
 626              		.cfi_offset 3, -16
 627              		.loc 1 206 32 view .LVU112
 628 0003 8B742410 		movl	16(%esp), %esi
 629 0007 E8FCFFFF 		call	__x86.get_pc_thunk.bx
 629      FF
 630 000c 81C30200 		addl	$_GLOBAL_OFFSET_TABLE_, %ebx
 630      0000
 631              		.loc 1 215 3 view .LVU113
 632 0012 83EC0C   		subl	$12, %esp
 633              		.cfi_def_cfa_offset 28
 634 0015 56       		pushl	%esi
 635              		.cfi_def_cfa_offset 32
 636              	.LBB105:
 637              	.LBB102:
 638              	.LBB100:
 639              	.LBB99:
 640              		.loc 5 364 16 view .LVU114
GAS LISTING /tmp/cc3SZxa0.s 			page 13


 641 0016 8BBB0000 		movl	port_irq_sts@GOT(%ebx), %edi
 641      0000
 642 001c C7070100 		movl	$1, (%edi)
 642      0000
 643              	.LBE99:
 644              	.LBE100:
 645              	.LBE102:
 646              	.LBE105:
 647              		.loc 4 356 34 is_stmt 1 view .LVU115
 648              		.loc 4 357 20 view .LVU116
 649              		.loc 1 212 3 view .LVU117
 650              		.loc 1 212 3 view .LVU118
 651              		.loc 1 215 3 view .LVU119
 652 0022 E8FCFFFF 		call	sd_lld_stop@PLT
 652      FF
 653              	.LVL26:
 654              		.loc 1 216 3 view .LVU120
 655              		.loc 1 216 14 is_stmt 0 view .LVU121
 656 0027 C7460801 		movl	$1, 8(%esi)
 656      000000
 657              		.loc 1 217 3 is_stmt 1 view .LVU122
 658 002e 8D4630   		leal	48(%esi), %eax
 659              		.loc 1 218 3 is_stmt 0 view .LVU123
 660 0031 83C60C   		addl	$12, %esi
 661              		.loc 1 217 3 view .LVU124
 662 0034 890424   		movl	%eax, (%esp)
 663 0037 E8FCFFFF 		call	oqResetI@PLT
 663      FF
 664              	.LVL27:
 665              		.loc 1 218 3 is_stmt 1 view .LVU125
 666 003c 893424   		movl	%esi, (%esp)
 667 003f E8FCFFFF 		call	iqResetI@PLT
 667      FF
 668              	.LVL28:
 669              		.loc 1 219 3 view .LVU126
 670              	.LBB106:
 671              	.LBI106:
 672              		.loc 2 616 20 view .LVU127
 673              	.LBB107:
 674              		.loc 2 618 3 view .LVU128
 675 0044 E8FCFFFF 		call	chSchRescheduleS@PLT
 675      FF
 676              	.LVL29:
 677              	.LBE107:
 678              	.LBE106:
 679              		.loc 1 221 3 view .LVU129
 680              	.LBB108:
 681              	.LBI108:
 682              		.loc 2 520 20 view .LVU130
 683              	.LBE108:
 684              		.loc 2 522 3 view .LVU131
 685              	.LBB117:
 686              	.LBB109:
 687              	.LBI109:
 688              		.loc 4 365 20 view .LVU132
 689              	.LBB110:
 690              		.loc 4 367 22 view .LVU133
GAS LISTING /tmp/cc3SZxa0.s 			page 14


 691              		.loc 4 368 33 view .LVU134
 692              		.loc 4 374 3 view .LVU135
 693              		.loc 4 374 3 view .LVU136
 694              		.loc 4 378 3 view .LVU137
 695              	.LBB111:
 696              	.LBI111:
 697              		.loc 5 371 20 view .LVU138
 698              	.LBB112:
 699              		.loc 5 373 3 view .LVU139
 700              	.LBE112:
 701              	.LBE111:
 702              	.LBE110:
 703              	.LBE109:
 704              	.LBE117:
 705              		.loc 1 222 1 is_stmt 0 view .LVU140
 706 0049 83C410   		addl	$16, %esp
 707              		.cfi_def_cfa_offset 16
 708              	.LBB118:
 709              	.LBB116:
 710              	.LBB115:
 711              	.LBB114:
 712              	.LBB113:
 713              		.loc 5 373 16 view .LVU141
 714 004c C7070000 		movl	$0, (%edi)
 714      0000
 715              	.LBE113:
 716              	.LBE114:
 717              	.LBE115:
 718              	.LBE116:
 719              	.LBE118:
 720              		.loc 1 222 1 view .LVU142
 721 0052 5B       		popl	%ebx
 722              		.cfi_restore 3
 723              		.cfi_def_cfa_offset 12
 724 0053 5E       		popl	%esi
 725              		.cfi_restore 6
 726              		.cfi_def_cfa_offset 8
 727 0054 5F       		popl	%edi
 728              		.cfi_restore 7
 729              		.cfi_def_cfa_offset 4
 730 0055 C3       		ret
 731              		.cfi_endproc
 732              	.LFE234:
 733              		.size	sdStop, .-sdStop
 734              		.section	.text.sdIncomingDataI,"ax",@progbits
 735              		.p2align 4,,15
 736              		.globl	sdIncomingDataI
 737              		.type	sdIncomingDataI, @function
 738              	sdIncomingDataI:
 739              	.LVL30:
 740              	.LFB235:
 741              		.loc 1 240 52 is_stmt 1 view -0
 742              		.cfi_startproc
 743              		.loc 1 242 23 view .LVU144
 744              		.loc 1 243 3 view .LVU145
 745              		.loc 1 243 3 view .LVU146
 746              		.loc 1 245 3 view .LVU147
GAS LISTING /tmp/cc3SZxa0.s 			page 15


 747              		.loc 1 240 52 is_stmt 0 view .LVU148
 748 0000 57       		pushl	%edi
 749              		.cfi_def_cfa_offset 8
 750              		.cfi_offset 7, -8
 751 0001 56       		pushl	%esi
 752              		.cfi_def_cfa_offset 12
 753              		.cfi_offset 6, -12
 754 0002 53       		pushl	%ebx
 755              		.cfi_def_cfa_offset 16
 756              		.cfi_offset 3, -16
 757              		.loc 1 240 52 view .LVU149
 758 0003 8B742410 		movl	16(%esp), %esi
 759 0007 E8FCFFFF 		call	__x86.get_pc_thunk.bx
 759      FF
 760 000c 81C30200 		addl	$_GLOBAL_OFFSET_TABLE_, %ebx
 760      0000
 761 0012 8B7C2414 		movl	20(%esp), %edi
 762              		.loc 1 245 7 view .LVU150
 763 0016 8B4614   		movl	20(%esi), %eax
 764              		.loc 1 245 6 view .LVU151
 765 0019 85C0     		testl	%eax, %eax
 766 001b 7423     		je	.L31
 767              	.L28:
 768              		.loc 1 246 43 is_stmt 1 discriminator 1 view .LVU152
 769              		.loc 1 247 3 discriminator 1 view .LVU153
 770              		.loc 1 247 7 is_stmt 0 discriminator 1 view .LVU154
 771 001d 89F8     		movl	%edi, %eax
 772 001f 83EC08   		subl	$8, %esp
 773              		.cfi_def_cfa_offset 24
 774 0022 0FB6F8   		movzbl	%al, %edi
 775 0025 8D460C   		leal	12(%esi), %eax
 776 0028 57       		pushl	%edi
 777              		.cfi_def_cfa_offset 28
 778 0029 50       		pushl	%eax
 779              		.cfi_def_cfa_offset 32
 780 002a E8FCFFFF 		call	iqPutI@PLT
 780      FF
 781              	.LVL31:
 782              		.loc 1 247 6 discriminator 1 view .LVU155
 783 002f 83C410   		addl	$16, %esp
 784              		.cfi_def_cfa_offset 16
 785 0032 85C0     		testl	%eax, %eax
 786 0034 7822     		js	.L32
 787              		.loc 1 249 1 view .LVU156
 788 0036 5B       		popl	%ebx
 789              		.cfi_remember_state
 790              		.cfi_restore 3
 791              		.cfi_def_cfa_offset 12
 792 0037 5E       		popl	%esi
 793              		.cfi_restore 6
 794              		.cfi_def_cfa_offset 8
 795 0038 5F       		popl	%edi
 796              		.cfi_restore 7
 797              		.cfi_def_cfa_offset 4
 798 0039 C3       		ret
 799              	.LVL32:
 800 003a 8DB60000 		.p2align 4,,10
GAS LISTING /tmp/cc3SZxa0.s 			page 16


 800      0000
 801              		.p2align 3
 802              	.L31:
 803              		.cfi_restore_state
 804              		.loc 1 246 5 is_stmt 1 view .LVU157
 805              	.LBB119:
 806              	.LBI119:
 807              		.loc 2 892 20 view .LVU158
 808              	.LBB120:
 809              		.loc 2 895 3 view .LVU159
 810 0040 83EC08   		subl	$8, %esp
 811              		.cfi_def_cfa_offset 24
 812              	.LBE120:
 813              	.LBE119:
 814              		.loc 1 246 5 is_stmt 0 view .LVU160
 815 0043 8D4604   		leal	4(%esi), %eax
 816              	.LVL33:
 817              	.LBB122:
 818              	.LBB121:
 819              		.loc 2 895 3 view .LVU161
 820 0046 6A04     		pushl	$4
 821              		.cfi_def_cfa_offset 28
 822 0048 50       		pushl	%eax
 823              		.cfi_def_cfa_offset 32
 824 0049 E8FCFFFF 		call	chEvtBroadcastFlagsI@PLT
 824      FF
 825              	.LVL34:
 826              		.loc 2 895 3 view .LVU162
 827 004e 83C410   		addl	$16, %esp
 828              		.cfi_def_cfa_offset 16
 829 0051 EBCA     		jmp	.L28
 830              	.LVL35:
 831              		.p2align 4,,10
 832 0053 8D742600 		.p2align 3
 832      90
 833              	.L32:
 834              		.loc 2 895 3 view .LVU163
 835              	.LBE121:
 836              	.LBE122:
 837              		.loc 1 248 5 is_stmt 1 view .LVU164
 838              	.LBB123:
 839              	.LBI123:
 840              		.loc 2 892 20 view .LVU165
 841              	.LBB124:
 842              		.loc 2 895 3 view .LVU166
 843 0058 83EC08   		subl	$8, %esp
 844              		.cfi_def_cfa_offset 24
 845              	.LBE124:
 846              	.LBE123:
 847              		.loc 1 248 5 is_stmt 0 view .LVU167
 848 005b 83C604   		addl	$4, %esi
 849              	.LVL36:
 850              	.LBB126:
 851              	.LBB125:
 852              		.loc 2 895 3 view .LVU168
 853 005e 68000400 		pushl	$1024
 853      00
GAS LISTING /tmp/cc3SZxa0.s 			page 17


 854              		.cfi_def_cfa_offset 28
 855 0063 56       		pushl	%esi
 856              		.cfi_def_cfa_offset 32
 857 0064 E8FCFFFF 		call	chEvtBroadcastFlagsI@PLT
 857      FF
 858              	.LVL37:
 859 0069 83C410   		addl	$16, %esp
 860              		.cfi_def_cfa_offset 16
 861              	.LBE125:
 862              	.LBE126:
 863              		.loc 1 248 43 is_stmt 1 view .LVU169
 864              		.loc 1 249 1 is_stmt 0 view .LVU170
 865 006c 5B       		popl	%ebx
 866              		.cfi_restore 3
 867              		.cfi_def_cfa_offset 12
 868 006d 5E       		popl	%esi
 869              		.cfi_restore 6
 870              		.cfi_def_cfa_offset 8
 871              	.LVL38:
 872              		.loc 1 249 1 view .LVU171
 873 006e 5F       		popl	%edi
 874              		.cfi_restore 7
 875              		.cfi_def_cfa_offset 4
 876 006f C3       		ret
 877              		.cfi_endproc
 878              	.LFE235:
 879              		.size	sdIncomingDataI, .-sdIncomingDataI
 880              		.section	.text.sdRequestDataI,"ax",@progbits
 881              		.p2align 4,,15
 882              		.globl	sdRequestDataI
 883              		.type	sdRequestDataI, @function
 884              	sdRequestDataI:
 885              	.LVL39:
 886              	.LFB236:
 887              		.loc 1 266 41 is_stmt 1 view -0
 888              		.cfi_startproc
 889              		.loc 1 267 3 view .LVU173
 890              		.loc 1 269 23 view .LVU174
 891              		.loc 1 270 3 view .LVU175
 892              		.loc 1 270 3 view .LVU176
 893              		.loc 1 272 3 view .LVU177
 894              		.loc 1 266 41 is_stmt 0 view .LVU178
 895 0000 56       		pushl	%esi
 896              		.cfi_def_cfa_offset 8
 897              		.cfi_offset 6, -8
 898 0001 53       		pushl	%ebx
 899              		.cfi_def_cfa_offset 12
 900              		.cfi_offset 3, -12
 901 0002 E8FCFFFF 		call	__x86.get_pc_thunk.bx
 901      FF
 902 0007 81C30200 		addl	$_GLOBAL_OFFSET_TABLE_, %ebx
 902      0000
 903 000d 83EC20   		subl	$32, %esp
 904              		.cfi_def_cfa_offset 44
 905              		.loc 1 266 41 view .LVU179
 906 0010 8B74242C 		movl	44(%esp), %esi
 907              		.loc 1 272 7 view .LVU180
GAS LISTING /tmp/cc3SZxa0.s 			page 18


 908 0014 8D4630   		leal	48(%esi), %eax
 909 0017 50       		pushl	%eax
 910              		.cfi_def_cfa_offset 48
 911 0018 E8FCFFFF 		call	oqGetI@PLT
 911      FF
 912              	.LVL40:
 913              		.loc 1 273 3 is_stmt 1 view .LVU181
 914              		.loc 1 273 6 is_stmt 0 view .LVU182
 915 001d 83C410   		addl	$16, %esp
 916              		.cfi_def_cfa_offset 32
 917 0020 85C0     		testl	%eax, %eax
 918 0022 780C     		js	.L36
 919              		.loc 1 276 1 view .LVU183
 920 0024 83C414   		addl	$20, %esp
 921              		.cfi_remember_state
 922              		.cfi_def_cfa_offset 12
 923 0027 5B       		popl	%ebx
 924              		.cfi_restore 3
 925              		.cfi_def_cfa_offset 8
 926 0028 5E       		popl	%esi
 927              		.cfi_restore 6
 928              		.cfi_def_cfa_offset 4
 929 0029 C3       		ret
 930 002a 8DB60000 		.p2align 4,,10
 930      0000
 931              		.p2align 3
 932              	.L36:
 933              		.cfi_restore_state
 934 0030 8944240C 		movl	%eax, 12(%esp)
 935              		.loc 1 274 5 is_stmt 1 view .LVU184
 936              	.LVL41:
 937              	.LBB127:
 938              	.LBI127:
 939              		.loc 2 892 20 view .LVU185
 940              	.LBB128:
 941              		.loc 2 895 3 view .LVU186
 942              	.LBE128:
 943              	.LBE127:
 944              		.loc 1 274 5 is_stmt 0 view .LVU187
 945 0034 83C604   		addl	$4, %esi
 946              	.LVL42:
 947              	.LBB130:
 948              	.LBB129:
 949              		.loc 2 895 3 view .LVU188
 950 0037 83EC08   		subl	$8, %esp
 951              		.cfi_def_cfa_offset 40
 952 003a 6A08     		pushl	$8
 953              		.cfi_def_cfa_offset 44
 954 003c 56       		pushl	%esi
 955              		.cfi_def_cfa_offset 48
 956 003d E8FCFFFF 		call	chEvtBroadcastFlagsI@PLT
 956      FF
 957              	.LVL43:
 958              		.loc 2 895 3 view .LVU189
 959 0042 83C410   		addl	$16, %esp
 960              		.cfi_def_cfa_offset 32
 961 0045 8B44240C 		movl	12(%esp), %eax
GAS LISTING /tmp/cc3SZxa0.s 			page 19


 962              	.LBE129:
 963              	.LBE130:
 964              		.loc 1 274 40 is_stmt 1 view .LVU190
 965              		.loc 1 275 3 view .LVU191
 966              		.loc 1 276 1 is_stmt 0 view .LVU192
 967 0049 83C414   		addl	$20, %esp
 968              		.cfi_def_cfa_offset 12
 969 004c 5B       		popl	%ebx
 970              		.cfi_restore 3
 971              		.cfi_def_cfa_offset 8
 972 004d 5E       		popl	%esi
 973              		.cfi_restore 6
 974              		.cfi_def_cfa_offset 4
 975              	.LVL44:
 976              		.loc 1 276 1 view .LVU193
 977 004e C3       		ret
 978              		.cfi_endproc
 979              	.LFE236:
 980              		.size	sdRequestDataI, .-sdRequestDataI
 981              		.section	.text.sdPutWouldBlock,"ax",@progbits
 982              		.p2align 4,,15
 983              		.globl	sdPutWouldBlock
 984              		.type	sdPutWouldBlock, @function
 985              	sdPutWouldBlock:
 986              	.LVL45:
 987              	.LFB237:
 988              		.loc 1 293 41 is_stmt 1 view -0
 989              		.cfi_startproc
 990              		.loc 1 294 3 view .LVU195
 991              		.loc 1 296 3 view .LVU196
 992              		.loc 2 511 3 view .LVU197
 993              		.loc 4 355 3 view .LVU198
 994              		.loc 5 364 3 view .LVU199
 995              		.loc 4 356 34 view .LVU200
 996              		.loc 4 357 20 view .LVU201
 997              		.loc 1 297 3 view .LVU202
 998 0000 E8FCFFFF 		call	__x86.get_pc_thunk.dx
 998      FF
 999 0005 81C20200 		addl	$_GLOBAL_OFFSET_TABLE_, %edx
 999      0000
 1000              		.loc 1 297 7 is_stmt 0 view .LVU203
 1001 000b 8B442404 		movl	4(%esp), %eax
 1002 000f 8B4038   		movl	56(%eax), %eax
 1003              	.LVL46:
 1004              		.loc 1 298 3 is_stmt 1 view .LVU204
 1005              	.LBB131:
 1006              	.LBI131:
 1007              		.loc 2 520 20 view .LVU205
 1008              	.LBE131:
 1009              		.loc 2 522 3 view .LVU206
 1010              	.LBB140:
 1011              	.LBB132:
 1012              	.LBI132:
 1013              		.loc 4 365 20 view .LVU207
 1014              	.LBB133:
 1015              		.loc 4 367 22 view .LVU208
 1016              		.loc 4 368 33 view .LVU209
GAS LISTING /tmp/cc3SZxa0.s 			page 20


 1017              		.loc 4 374 3 view .LVU210
 1018              		.loc 4 374 3 view .LVU211
 1019              		.loc 4 378 3 view .LVU212
 1020              	.LBB134:
 1021              	.LBI134:
 1022              		.loc 5 371 20 view .LVU213
 1023              	.LBB135:
 1024              		.loc 5 373 3 view .LVU214
 1025              	.LBE135:
 1026              	.LBE134:
 1027              	.LBE133:
 1028              	.LBE132:
 1029              	.LBE140:
 1030              		.loc 1 297 5 is_stmt 0 view .LVU215
 1031 0012 85C0     		testl	%eax, %eax
 1032 0014 0F94C0   		sete	%al
 1033              	.LVL47:
 1034              	.LBB141:
 1035              	.LBB139:
 1036              	.LBB138:
 1037              	.LBB137:
 1038              	.LBB136:
 1039              		.loc 5 373 16 view .LVU216
 1040 0017 8B920000 		movl	port_irq_sts@GOT(%edx), %edx
 1040      0000
 1041 001d C7020000 		movl	$0, (%edx)
 1041      0000
 1042              	.LBE136:
 1043              	.LBE137:
 1044              	.LBE138:
 1045              	.LBE139:
 1046              	.LBE141:
 1047              		.loc 1 300 3 is_stmt 1 view .LVU217
 1048              		.loc 1 301 1 is_stmt 0 view .LVU218
 1049 0023 C3       		ret
 1050              		.cfi_endproc
 1051              	.LFE237:
 1052              		.size	sdPutWouldBlock, .-sdPutWouldBlock
 1053              		.section	.text.sdGetWouldBlock,"ax",@progbits
 1054              		.p2align 4,,15
 1055              		.globl	sdGetWouldBlock
 1056              		.type	sdGetWouldBlock, @function
 1057              	sdGetWouldBlock:
 1058              	.LVL48:
 1059              	.LFB238:
 1060              		.loc 1 318 41 is_stmt 1 view -0
 1061              		.cfi_startproc
 1062              		.loc 1 319 3 view .LVU220
 1063              		.loc 1 321 3 view .LVU221
 1064              		.loc 2 511 3 view .LVU222
 1065              		.loc 4 355 3 view .LVU223
 1066              		.loc 5 364 3 view .LVU224
 1067              		.loc 4 356 34 view .LVU225
 1068              		.loc 4 357 20 view .LVU226
 1069              		.loc 1 322 3 view .LVU227
 1070 0000 E8FCFFFF 		call	__x86.get_pc_thunk.dx
 1070      FF
GAS LISTING /tmp/cc3SZxa0.s 			page 21


 1071 0005 81C20200 		addl	$_GLOBAL_OFFSET_TABLE_, %edx
 1071      0000
 1072              		.loc 1 322 7 is_stmt 0 view .LVU228
 1073 000b 8B442404 		movl	4(%esp), %eax
 1074 000f 8B4014   		movl	20(%eax), %eax
 1075              	.LVL49:
 1076              		.loc 1 323 3 is_stmt 1 view .LVU229
 1077              	.LBB142:
 1078              	.LBI142:
 1079              		.loc 2 520 20 view .LVU230
 1080              	.LBE142:
 1081              		.loc 2 522 3 view .LVU231
 1082              	.LBB151:
 1083              	.LBB143:
 1084              	.LBI143:
 1085              		.loc 4 365 20 view .LVU232
 1086              	.LBB144:
 1087              		.loc 4 367 22 view .LVU233
 1088              		.loc 4 368 33 view .LVU234
 1089              		.loc 4 374 3 view .LVU235
 1090              		.loc 4 374 3 view .LVU236
 1091              		.loc 4 378 3 view .LVU237
 1092              	.LBB145:
 1093              	.LBI145:
 1094              		.loc 5 371 20 view .LVU238
 1095              	.LBB146:
 1096              		.loc 5 373 3 view .LVU239
 1097              	.LBE146:
 1098              	.LBE145:
 1099              	.LBE144:
 1100              	.LBE143:
 1101              	.LBE151:
 1102              		.loc 1 322 5 is_stmt 0 view .LVU240
 1103 0012 85C0     		testl	%eax, %eax
 1104 0014 0F94C0   		sete	%al
 1105              	.LVL50:
 1106              	.LBB152:
 1107              	.LBB150:
 1108              	.LBB149:
 1109              	.LBB148:
 1110              	.LBB147:
 1111              		.loc 5 373 16 view .LVU241
 1112 0017 8B920000 		movl	port_irq_sts@GOT(%edx), %edx
 1112      0000
 1113 001d C7020000 		movl	$0, (%edx)
 1113      0000
 1114              	.LBE147:
 1115              	.LBE148:
 1116              	.LBE149:
 1117              	.LBE150:
 1118              	.LBE152:
 1119              		.loc 1 325 3 is_stmt 1 view .LVU242
 1120              		.loc 1 326 1 is_stmt 0 view .LVU243
 1121 0023 C3       		ret
 1122              		.cfi_endproc
 1123              	.LFE238:
 1124              		.size	sdGetWouldBlock, .-sdGetWouldBlock
GAS LISTING /tmp/cc3SZxa0.s 			page 22


 1125              		.section	.text.sdControl,"ax",@progbits
 1126              		.p2align 4,,15
 1127              		.globl	sdControl
 1128              		.type	sdControl, @function
 1129              	sdControl:
 1130              	.LVL51:
 1131              	.LFB239:
 1132              		.loc 1 342 71 is_stmt 1 view -0
 1133              		.cfi_startproc
 1134              		.loc 1 344 3 view .LVU245
 1135              		.loc 1 95 3 view .LVU246
 1136              		.loc 1 97 3 view .LVU247
 1137              		.loc 1 97 3 view .LVU248
 1138              		.loc 1 99 3 view .LVU249
 1139              		.loc 1 114 3 view .LVU250
 1140              		.loc 1 345 1 is_stmt 0 view .LVU251
 1141 0000 31C0     		xorl	%eax, %eax
 1142 0002 C3       		ret
 1143              		.cfi_endproc
 1144              	.LFE239:
 1145              		.size	sdControl, .-sdControl
 1146              		.section	.data.rel.ro.local.vmt,"aw"
 1147              		.align 32
 1148              		.type	vmt, @object
 1149              		.size	vmt, 40
 1150              	vmt:
 1151 0000 00000000 		.long	0
 1152 0004 00000000 		.long	_write
 1153 0008 00000000 		.long	_read
 1154 000c 00000000 		.long	_put
 1155 0010 00000000 		.long	_get
 1156 0014 00000000 		.long	_putt
 1157 0018 00000000 		.long	_gett
 1158 001c 00000000 		.long	_writet
 1159 0020 00000000 		.long	_readt
 1160 0024 00000000 		.long	_ctl
 1161              		.section	.text.__x86.get_pc_thunk.dx,"axG",@progbits,__x86.get_pc_thunk.dx,comdat
 1162              		.globl	__x86.get_pc_thunk.dx
 1163              		.hidden	__x86.get_pc_thunk.dx
 1164              		.type	__x86.get_pc_thunk.dx, @function
 1165              	__x86.get_pc_thunk.dx:
 1166              	.LFB243:
 1167              		.cfi_startproc
 1168 0000 8B1424   		movl	(%esp), %edx
 1169 0003 C3       		ret
 1170              		.cfi_endproc
 1171              	.LFE243:
 1172              		.section	.text.__x86.get_pc_thunk.bx,"axG",@progbits,__x86.get_pc_thunk.bx,comdat
 1173              		.globl	__x86.get_pc_thunk.bx
 1174              		.hidden	__x86.get_pc_thunk.bx
 1175              		.type	__x86.get_pc_thunk.bx, @function
 1176              	__x86.get_pc_thunk.bx:
 1177              	.LFB244:
 1178              		.cfi_startproc
 1179 0000 8B1C24   		movl	(%esp), %ebx
 1180 0003 C3       		ret
 1181              		.cfi_endproc
GAS LISTING /tmp/cc3SZxa0.s 			page 23


 1182              	.LFE244:
 1183              		.text
 1184              	.Letext0:
 1185              		.file 6 "/usr/lib/gcc/x86_64-linux-gnu/8/include/stddef.h"
 1186              		.file 7 "/usr/include/i386-linux-gnu/bits/types.h"
 1187              		.file 8 "/usr/include/i386-linux-gnu/bits/stdint-intn.h"
 1188              		.file 9 "/usr/include/i386-linux-gnu/bits/stdint-uintn.h"
 1189              		.file 10 "../../../os/common/ports/SIMIA32/compilers/GCC/chtypes.h"
 1190              		.file 11 "../../../os/rt/include/chsystypes.h"
 1191              		.file 12 "../../../os/rt/include/chschd.h"
 1192              		.file 13 "../../../os/rt/include/chtime.h"
 1193              		.file 14 "../../../os/rt/include/chtm.h"
 1194              		.file 15 "../../../os/rt/include/chsem.h"
 1195              		.file 16 "../../../os/rt/include/chmtx.h"
 1196              		.file 17 "../../../os/rt/include/chregistry.h"
 1197              		.file 18 "../../../os/common/oslib/include/chmemcore.h"
 1198              		.file 19 "../../../os/common/oslib/include/chmempools.h"
 1199              		.file 20 "../../../os/common/oslib/include/chfactory.h"
 1200              		.file 21 "/usr/include/netinet/in.h"
 1201              		.file 22 "/usr/include/unistd.h"
 1202              		.file 23 "/usr/include/i386-linux-gnu/bits/getopt_core.h"
 1203              		.file 24 "/usr/include/i386-linux-gnu/bits/types/struct_FILE.h"
 1204              		.file 25 "/usr/include/i386-linux-gnu/bits/types/FILE.h"
 1205              		.file 26 "/usr/include/stdio.h"
 1206              		.file 27 "/usr/include/i386-linux-gnu/bits/sys_errlist.h"
 1207              		.file 28 "../../../os/hal/include/hal_queues.h"
 1208              		.file 29 "../../../os/hal/ports/simulator/hal_pal_lld.h"
 1209              		.file 30 "../../../os/hal/include/hal_serial.h"
 1210              		.file 31 "../../../os/hal/ports/simulator/posix/hal_serial_lld.h"
 6819              		.section	.note.GNU-stack,"",@progbits
GAS LISTING /tmp/cc3SZxa0.s 			page 133

