GAS LISTING /tmp/cccyco2T.s 			page 1


   1              		.file	"hal_buffers.c"
   2              		.text
   3              	.Ltext0:
   4              		.section	.text.ibqObjectInit,"ax",@progbits
   5              		.p2align 4,,15
   6              		.globl	ibqObjectInit
   7              		.type	ibqObjectInit, @function
   8              	ibqObjectInit:
   9              	.LVL0:
  10              	.LFB233:
  11              		.file 1 "../../../os/hal/src/hal_buffers.c"
  12              		.loc 1 77 72 view -0
  13              		.cfi_startproc
  14              		.loc 1 79 3 view .LVU1
  15              		.loc 1 79 3 view .LVU2
  16              		.loc 1 81 3 view .LVU3
  17              		.loc 1 77 72 is_stmt 0 view .LVU4
  18 0000 56       		pushl	%esi
  19              		.cfi_def_cfa_offset 8
  20              		.cfi_offset 6, -8
  21 0001 53       		pushl	%ebx
  22              		.cfi_def_cfa_offset 12
  23              		.cfi_offset 3, -12
  24              		.loc 1 77 72 view .LVU5
  25 0002 8B44240C 		movl	12(%esp), %eax
  26              	.LVL1:
  27              	.LBB276:
  28              	.LBI276:
  29              		.file 2 "../../../os/hal/osal/rt/osal.h"
  30              		.loc 2 800 20 is_stmt 1 view .LVU6
  31              	.LBE276:
  32              		.loc 2 802 3 view .LVU7
  33              	.LBB287:
  34              	.LBB277:
  35              	.LBI277:
  36              		.file 3 "../../../os/rt/include/chthreads.h"
  37              		.loc 3 392 20 view .LVU8
  38              	.LBE277:
  39              	.LBE287:
  40              		.loc 3 394 3 view .LVU9
  41              	.LBB288:
  42              	.LBB284:
  43              	.LBB278:
  44              	.LBI278:
  45              		.file 4 "../../../os/rt/include/chschd.h"
  46              		.loc 4 537 20 view .LVU10
  47              	.LBB279:
  48              		.loc 4 539 3 view .LVU11
  49              	.LBE279:
  50              	.LBE278:
  51              	.LBE284:
  52              	.LBE288:
  53              		.loc 1 82 19 is_stmt 0 view .LVU12
  54 0006 8B4C2410 		movl	16(%esp), %ecx
  55              		.loc 1 77 72 view .LVU13
  56 000a 8B74241C 		movl	28(%esp), %esi
  57 000e 8B542414 		movl	20(%esp), %edx
GAS LISTING /tmp/cccyco2T.s 			page 2


  58              	.LBB289:
  59              	.LBB285:
  60              	.LBB282:
  61              	.LBB280:
  62              		.loc 4 539 13 view .LVU14
  63 0012 8900     		movl	%eax, (%eax)
  64              		.loc 4 540 3 is_stmt 1 view .LVU15
  65              	.LBE280:
  66              	.LBE282:
  67              	.LBE285:
  68              	.LBE289:
  69              		.loc 1 82 19 is_stmt 0 view .LVU16
  70 0014 884808   		movb	%cl, 8(%eax)
  71              		.loc 1 86 33 view .LVU17
  72 0017 8B4C2418 		movl	24(%esp), %ecx
  73              		.loc 1 84 19 view .LVU18
  74 001b 895014   		movl	%edx, 20(%eax)
  75              		.loc 1 86 33 view .LVU19
  76 001e 83C104   		addl	$4, %ecx
  77              		.loc 1 85 19 view .LVU20
  78 0021 895010   		movl	%edx, 16(%eax)
  79              		.loc 1 86 52 view .LVU21
  80 0024 89CB     		movl	%ecx, %ebx
  81              		.loc 1 89 19 view .LVU22
  82 0026 895024   		movl	%edx, 36(%eax)
  83              		.loc 1 86 52 view .LVU23
  84 0029 0FAFDE   		imull	%esi, %ebx
  85              	.LBB290:
  86              	.LBB286:
  87              	.LBB283:
  88              	.LBB281:
  89              		.loc 4 540 13 view .LVU24
  90 002c 894004   		movl	%eax, 4(%eax)
  91              	.LVL2:
  92              		.loc 4 540 13 view .LVU25
  93              	.LBE281:
  94              	.LBE283:
  95              	.LBE286:
  96              	.LBE290:
  97              		.loc 1 82 3 is_stmt 1 view .LVU26
  98              		.loc 1 83 3 view .LVU27
  99              		.loc 1 83 19 is_stmt 0 view .LVU28
 100 002f C7400C00 		movl	$0, 12(%eax)
 100      000000
 101              		.loc 1 84 3 is_stmt 1 view .LVU29
 102              		.loc 1 85 3 view .LVU30
 103              		.loc 1 86 3 view .LVU31
 104              		.loc 1 87 19 is_stmt 0 view .LVU32
 105 0036 89481C   		movl	%ecx, 28(%eax)
 106              		.loc 1 86 24 view .LVU33
 107 0039 01D3     		addl	%edx, %ebx
 108              		.loc 1 92 19 view .LVU34
 109 003b 8B542420 		movl	32(%esp), %edx
 110              		.loc 1 88 19 view .LVU35
 111 003f 897020   		movl	%esi, 32(%eax)
 112              		.loc 1 86 24 view .LVU36
 113 0042 895818   		movl	%ebx, 24(%eax)
GAS LISTING /tmp/cccyco2T.s 			page 3


 114              		.loc 1 87 3 is_stmt 1 view .LVU37
 115              		.loc 1 88 3 view .LVU38
 116              		.loc 1 89 3 view .LVU39
 117              		.loc 1 90 3 view .LVU40
 118              		.loc 1 92 19 is_stmt 0 view .LVU41
 119 0045 895030   		movl	%edx, 48(%eax)
 120              		.loc 1 93 19 view .LVU42
 121 0048 8B542424 		movl	36(%esp), %edx
 122              		.loc 1 90 19 view .LVU43
 123 004c C7402800 		movl	$0, 40(%eax)
 123      000000
 124              		.loc 1 91 3 is_stmt 1 view .LVU44
 125              		.loc 1 91 19 is_stmt 0 view .LVU45
 126 0053 C7402C00 		movl	$0, 44(%eax)
 126      000000
 127              		.loc 1 92 3 is_stmt 1 view .LVU46
 128              		.loc 1 93 3 view .LVU47
 129              		.loc 1 93 19 is_stmt 0 view .LVU48
 130 005a 895034   		movl	%edx, 52(%eax)
 131              		.loc 1 94 1 view .LVU49
 132 005d 5B       		popl	%ebx
 133              		.cfi_restore 3
 134              		.cfi_def_cfa_offset 8
 135 005e 5E       		popl	%esi
 136              		.cfi_restore 6
 137              		.cfi_def_cfa_offset 4
 138 005f C3       		ret
 139              		.cfi_endproc
 140              	.LFE233:
 141              		.size	ibqObjectInit, .-ibqObjectInit
 142              		.section	.text.ibqResetI,"ax",@progbits
 143              		.p2align 4,,15
 144              		.globl	ibqResetI
 145              		.type	ibqResetI, @function
 146              	ibqResetI:
 147              	.LVL3:
 148              	.LFB234:
 149              		.loc 1 107 45 is_stmt 1 view -0
 150              		.cfi_startproc
 151              		.loc 1 109 23 view .LVU51
 152              		.loc 1 111 3 view .LVU52
 153              		.loc 1 107 45 is_stmt 0 view .LVU53
 154 0000 53       		pushl	%ebx
 155              		.cfi_def_cfa_offset 8
 156              		.cfi_offset 3, -8
 157 0001 E8FCFFFF 		call	__x86.get_pc_thunk.bx
 157      FF
 158 0006 81C30200 		addl	$_GLOBAL_OFFSET_TABLE_, %ebx
 158      0000
 159 000c 83EC10   		subl	$16, %esp
 160              		.cfi_def_cfa_offset 24
 161              		.loc 1 107 45 view .LVU54
 162 000f 8B442418 		movl	24(%esp), %eax
 163              		.loc 1 112 25 view .LVU55
 164 0013 8B5024   		movl	36(%eax), %edx
 165              		.loc 1 111 19 view .LVU56
 166 0016 C7400C00 		movl	$0, 12(%eax)
GAS LISTING /tmp/cccyco2T.s 			page 4


 166      000000
 167              		.loc 1 112 3 is_stmt 1 view .LVU57
 168              		.loc 1 114 19 is_stmt 0 view .LVU58
 169 001d C7402800 		movl	$0, 40(%eax)
 169      000000
 170              		.loc 1 112 19 view .LVU59
 171 0024 895014   		movl	%edx, 20(%eax)
 172              		.loc 1 113 3 is_stmt 1 view .LVU60
 173              		.loc 1 113 19 is_stmt 0 view .LVU61
 174 0027 895010   		movl	%edx, 16(%eax)
 175              		.loc 1 114 3 is_stmt 1 view .LVU62
 176              		.loc 1 115 3 view .LVU63
 177              		.loc 1 115 19 is_stmt 0 view .LVU64
 178 002a C7402C00 		movl	$0, 44(%eax)
 178      000000
 179              		.loc 1 116 3 is_stmt 1 view .LVU65
 180              	.LVL4:
 181              	.LBB291:
 182              	.LBI291:
 183              		.loc 2 855 20 view .LVU66
 184              	.LBB292:
 185              		.loc 2 857 3 view .LVU67
 186 0031 6AFE     		pushl	$-2
 187              		.cfi_def_cfa_offset 28
 188 0033 50       		pushl	%eax
 189              		.cfi_def_cfa_offset 32
 190 0034 E8FCFFFF 		call	chThdDequeueAllI@PLT
 190      FF
 191              	.LVL5:
 192              		.loc 2 857 3 is_stmt 0 view .LVU68
 193              	.LBE292:
 194              	.LBE291:
 195              		.loc 1 117 1 view .LVU69
 196 0039 83C418   		addl	$24, %esp
 197              		.cfi_def_cfa_offset 8
 198 003c 5B       		popl	%ebx
 199              		.cfi_restore 3
 200              		.cfi_def_cfa_offset 4
 201 003d C3       		ret
 202              		.cfi_endproc
 203              	.LFE234:
 204              		.size	ibqResetI, .-ibqResetI
 205              		.section	.text.ibqGetEmptyBufferI,"ax",@progbits
 206              		.p2align 4,,15
 207              		.globl	ibqGetEmptyBufferI
 208              		.type	ibqGetEmptyBufferI, @function
 209              	ibqGetEmptyBufferI:
 210              	.LVL6:
 211              	.LFB235:
 212              		.loc 1 129 58 is_stmt 1 view -0
 213              		.cfi_startproc
 214              		.loc 1 131 23 view .LVU71
 215              		.loc 1 133 3 view .LVU72
 216              		.loc 1 129 58 is_stmt 0 view .LVU73
 217 0000 8B542404 		movl	4(%esp), %edx
 218              		.loc 1 133 7 view .LVU74
 219 0004 8B4210   		movl	16(%edx), %eax
GAS LISTING /tmp/cccyco2T.s 			page 5


 220 0007 3B4214   		cmpl	20(%edx), %eax
 221 000a 7404     		je	.L12
 222              	.L7:
 223              		.loc 1 137 3 is_stmt 1 view .LVU75
 224              		.loc 1 137 23 is_stmt 0 view .LVU76
 225 000c 83C004   		addl	$4, %eax
 226              		.loc 1 138 1 view .LVU77
 227 000f C3       		ret
 228              	.LVL7:
 229              		.p2align 4,,10
 230              		.p2align 3
 231              	.L12:
 232              		.loc 1 133 7 discriminator 1 view .LVU78
 233 0010 8B520C   		movl	12(%edx), %edx
 234              	.LVL8:
 235              		.loc 1 133 7 discriminator 1 view .LVU79
 236 0013 85D2     		testl	%edx, %edx
 237 0015 74F5     		je	.L7
 238              		.loc 1 134 12 view .LVU80
 239 0017 31C0     		xorl	%eax, %eax
 240 0019 C3       		ret
 241              		.cfi_endproc
 242              	.LFE235:
 243              		.size	ibqGetEmptyBufferI, .-ibqGetEmptyBufferI
 244              		.section	.text.ibqPostFullBufferI,"ax",@progbits
 245              		.p2align 4,,15
 246              		.globl	ibqPostFullBufferI
 247              		.type	ibqPostFullBufferI, @function
 248              	ibqPostFullBufferI:
 249              	.LVL9:
 250              	.LFB236:
 251              		.loc 1 148 67 is_stmt 1 view -0
 252              		.cfi_startproc
 253              		.loc 1 150 23 view .LVU82
 254              		.loc 1 152 3 view .LVU83
 255              		.loc 1 152 3 view .LVU84
 256              		.loc 1 153 3 view .LVU85
 257              		.loc 1 153 3 view .LVU86
 258              		.loc 1 156 3 view .LVU87
 259              		.loc 1 148 67 is_stmt 0 view .LVU88
 260 0000 53       		pushl	%ebx
 261              		.cfi_def_cfa_offset 8
 262              		.cfi_offset 3, -8
 263 0001 E8FCFFFF 		call	__x86.get_pc_thunk.bx
 263      FF
 264 0006 81C30200 		addl	$_GLOBAL_OFFSET_TABLE_, %ebx
 264      0000
 265 000c 83EC08   		subl	$8, %esp
 266              		.cfi_def_cfa_offset 16
 267              		.loc 1 148 67 view .LVU89
 268 000f 8B442410 		movl	16(%esp), %eax
 269              		.loc 1 156 29 view .LVU90
 270 0013 8B4C2414 		movl	20(%esp), %ecx
 271              		.loc 1 156 19 view .LVU91
 272 0017 8B5010   		movl	16(%eax), %edx
 273              		.loc 1 156 29 view .LVU92
 274 001a 890A     		movl	%ecx, (%edx)
GAS LISTING /tmp/cccyco2T.s 			page 6


 275              		.loc 1 159 3 is_stmt 1 view .LVU93
 276              		.loc 1 159 7 is_stmt 0 view .LVU94
 277 001c 8B480C   		movl	12(%eax), %ecx
 278              		.loc 1 160 16 view .LVU95
 279 001f 03501C   		addl	28(%eax), %edx
 280              		.loc 1 159 17 view .LVU96
 281 0022 83C101   		addl	$1, %ecx
 282              		.loc 1 160 16 view .LVU97
 283 0025 895010   		movl	%edx, 16(%eax)
 284              		.loc 1 159 17 view .LVU98
 285 0028 89480C   		movl	%ecx, 12(%eax)
 286              		.loc 1 160 3 is_stmt 1 view .LVU99
 287              		.loc 1 161 3 view .LVU100
 288              		.loc 1 161 6 is_stmt 0 view .LVU101
 289 002b 3B5018   		cmpl	24(%eax), %edx
 290 002e 7206     		jb	.L14
 291              		.loc 1 162 5 is_stmt 1 view .LVU102
 292              		.loc 1 162 18 is_stmt 0 view .LVU103
 293 0030 8B5024   		movl	36(%eax), %edx
 294 0033 895010   		movl	%edx, 16(%eax)
 295              	.L14:
 296              		.loc 1 166 3 is_stmt 1 view .LVU104
 297              	.LVL10:
 298              	.LBB293:
 299              	.LBI293:
 300              		.loc 2 842 20 view .LVU105
 301              	.LBB294:
 302              		.loc 2 844 3 view .LVU106
 303 0036 83EC08   		subl	$8, %esp
 304              		.cfi_def_cfa_offset 24
 305 0039 6A00     		pushl	$0
 306              		.cfi_def_cfa_offset 28
 307 003b 50       		pushl	%eax
 308              		.cfi_def_cfa_offset 32
 309 003c E8FCFFFF 		call	chThdDequeueNextI@PLT
 309      FF
 310              	.LVL11:
 311              		.loc 2 844 3 is_stmt 0 view .LVU107
 312              	.LBE294:
 313              	.LBE293:
 314              		.loc 1 167 1 view .LVU108
 315 0041 83C418   		addl	$24, %esp
 316              		.cfi_def_cfa_offset 8
 317 0044 5B       		popl	%ebx
 318              		.cfi_restore 3
 319              		.cfi_def_cfa_offset 4
 320 0045 C3       		ret
 321              		.cfi_endproc
 322              	.LFE236:
 323              		.size	ibqPostFullBufferI, .-ibqPostFullBufferI
 324              		.section	.text.ibqGetFullBufferTimeoutS,"ax",@progbits
 325              		.p2align 4,,15
 326              		.globl	ibqGetFullBufferTimeoutS
 327              		.type	ibqGetFullBufferTimeoutS, @function
 328              	ibqGetFullBufferTimeoutS:
 329              	.LVL12:
 330              	.LFB238:
GAS LISTING /tmp/cccyco2T.s 			page 7


 331              		.loc 1 223 57 is_stmt 1 view -0
 332              		.cfi_startproc
 333              		.loc 1 223 57 is_stmt 0 view .LVU110
 334 0000 57       		pushl	%edi
 335              		.cfi_def_cfa_offset 8
 336              		.cfi_offset 7, -8
 337 0001 56       		pushl	%esi
 338              		.cfi_def_cfa_offset 12
 339              		.cfi_offset 6, -12
 340 0002 53       		pushl	%ebx
 341              		.cfi_def_cfa_offset 16
 342              		.cfi_offset 3, -16
 343              		.loc 1 223 57 view .LVU111
 344 0003 8B742410 		movl	16(%esp), %esi
 345              		.loc 1 225 23 is_stmt 1 view .LVU112
 346              		.loc 1 227 3 view .LVU113
 347 0007 E8FCFFFF 		call	__x86.get_pc_thunk.bx
 347      FF
 348 000c 81C30200 		addl	$_GLOBAL_OFFSET_TABLE_, %ebx
 348      0000
 349              		.loc 1 223 57 is_stmt 0 view .LVU114
 350 0012 8B7C2414 		movl	20(%esp), %edi
 351              		.loc 1 227 9 view .LVU115
 352 0016 EB1F     		jmp	.L17
 353 0018 8DB42600 		.p2align 4,,10
 353      00000090 
 354              		.p2align 3
 355              	.L19:
 356              	.LBB303:
 357              		.loc 1 228 5 is_stmt 1 view .LVU116
 358              		.loc 1 228 8 is_stmt 0 view .LVU117
 359 0020 807E0800 		cmpb	$0, 8(%esi)
 360 0024 7532     		jne	.L20
 361              		.loc 1 231 5 is_stmt 1 view .LVU118
 362              	.LVL13:
 363              	.LBB304:
 364              	.LBI304:
 365              		.loc 2 828 21 view .LVU119
 366              	.LBB305:
 367              		.loc 2 831 3 view .LVU120
 368              		.loc 2 831 10 is_stmt 0 view .LVU121
 369 0026 83EC08   		subl	$8, %esp
 370              		.cfi_def_cfa_offset 24
 371 0029 57       		pushl	%edi
 372              		.cfi_def_cfa_offset 28
 373 002a 56       		pushl	%esi
 374              		.cfi_def_cfa_offset 32
 375 002b E8FCFFFF 		call	chThdEnqueueTimeoutS@PLT
 375      FF
 376              	.LVL14:
 377              		.loc 2 831 10 view .LVU122
 378              	.LBE305:
 379              	.LBE304:
 380              		.loc 1 232 5 is_stmt 1 view .LVU123
 381              		.loc 1 232 8 is_stmt 0 view .LVU124
 382 0030 83C410   		addl	$16, %esp
 383              		.cfi_def_cfa_offset 16
GAS LISTING /tmp/cccyco2T.s 			page 8


 384 0033 85C0     		testl	%eax, %eax
 385 0035 7817     		js	.L16
 386              	.LVL15:
 387              	.L17:
 388              		.loc 1 232 8 view .LVU125
 389              	.LBE303:
 390              		.loc 1 227 10 view .LVU126
 391 0037 8B460C   		movl	12(%esi), %eax
 392              		.loc 1 227 9 view .LVU127
 393 003a 85C0     		testl	%eax, %eax
 394 003c 74E2     		je	.L19
 395              	.LVL16:
 396              	.LBB306:
 397              	.LBI306:
 398              		.loc 1 222 9 is_stmt 1 view .LVU128
 399              	.LBB307:
 400              		.loc 1 237 3 view .LVU129
 401              		.loc 1 237 3 view .LVU130
 402              		.loc 1 240 3 view .LVU131
 403              		.loc 1 240 19 is_stmt 0 view .LVU132
 404 003e 8B5614   		movl	20(%esi), %edx
 405              		.loc 1 240 28 view .LVU133
 406 0041 8D4204   		leal	4(%edx), %eax
 407              		.loc 1 240 13 view .LVU134
 408 0044 894628   		movl	%eax, 40(%esi)
 409              		.loc 1 241 3 is_stmt 1 view .LVU135
 410              		.loc 1 241 25 is_stmt 0 view .LVU136
 411 0047 0302     		addl	(%edx), %eax
 412              		.loc 1 241 13 view .LVU137
 413 0049 89462C   		movl	%eax, 44(%esi)
 414              		.loc 1 243 3 is_stmt 1 view .LVU138
 415              	.LVL17:
 416              		.loc 1 241 13 is_stmt 0 view .LVU139
 417 004c 31C0     		xorl	%eax, %eax
 418              	.L16:
 419              	.LBE307:
 420              	.LBE306:
 421              		.loc 1 244 1 view .LVU140
 422 004e 5B       		popl	%ebx
 423              		.cfi_remember_state
 424              		.cfi_restore 3
 425              		.cfi_def_cfa_offset 12
 426 004f 5E       		popl	%esi
 427              		.cfi_restore 6
 428              		.cfi_def_cfa_offset 8
 429 0050 5F       		popl	%edi
 430              		.cfi_restore 7
 431              		.cfi_def_cfa_offset 4
 432 0051 C3       		ret
 433              		.p2align 4,,10
 434 0052 8DB60000 		.p2align 3
 434      0000
 435              	.L20:
 436              		.cfi_restore_state
 437 0058 5B       		popl	%ebx
 438              		.cfi_restore 3
 439              		.cfi_def_cfa_offset 12
GAS LISTING /tmp/cccyco2T.s 			page 9


 440              	.LBB308:
 441              		.loc 1 229 14 view .LVU141
 442 0059 B8FEFFFF 		movl	$-2, %eax
 442      FF
 443              	.LBE308:
 444              		.loc 1 244 1 view .LVU142
 445 005e 5E       		popl	%esi
 446              		.cfi_restore 6
 447              		.cfi_def_cfa_offset 8
 448 005f 5F       		popl	%edi
 449              		.cfi_restore 7
 450              		.cfi_def_cfa_offset 4
 451 0060 C3       		ret
 452              		.cfi_endproc
 453              	.LFE238:
 454              		.size	ibqGetFullBufferTimeoutS, .-ibqGetFullBufferTimeoutS
 455              		.section	.text.ibqGetFullBufferTimeout,"ax",@progbits
 456              		.p2align 4,,15
 457              		.globl	ibqGetFullBufferTimeout
 458              		.type	ibqGetFullBufferTimeout, @function
 459              	ibqGetFullBufferTimeout:
 460              	.LVL18:
 461              	.LFB237:
 462              		.loc 1 191 54 is_stmt 1 view -0
 463              		.cfi_startproc
 464              		.loc 1 192 3 view .LVU144
 465              		.loc 1 194 3 view .LVU145
 466              	.LBB309:
 467              	.LBI309:
 468              		.loc 2 509 20 view .LVU146
 469              	.LBE309:
 470              		.loc 2 511 3 view .LVU147
 471              	.LBB317:
 472              	.LBB310:
 473              	.LBI310:
 474              		.file 5 "../../../os/rt/include/chsys.h"
 475              		.loc 5 353 20 view .LVU148
 476              	.LBE310:
 477              	.LBE317:
 478              		.loc 5 355 3 view .LVU149
 479              	.LBB318:
 480              	.LBB315:
 481              	.LBB311:
 482              	.LBI311:
 483              		.file 6 "../../../os/common/ports/SIMIA32/chcore.h"
 484              		.loc 6 362 20 view .LVU150
 485              	.LBB312:
 486              		.loc 6 364 3 view .LVU151
 487 0000 E8FCFFFF 		call	__x86.get_pc_thunk.ax
 487      FF
 488 0005 05010000 		addl	$_GLOBAL_OFFSET_TABLE_, %eax
 488      00
 489              	.LBE312:
 490              	.LBE311:
 491              	.LBE315:
 492              	.LBE318:
 493              		.loc 1 191 54 is_stmt 0 view .LVU152
GAS LISTING /tmp/cccyco2T.s 			page 10


 494 000a 53       		pushl	%ebx
 495              		.cfi_def_cfa_offset 8
 496              		.cfi_offset 3, -8
 497 000b 83EC10   		subl	$16, %esp
 498              		.cfi_def_cfa_offset 24
 499              		.loc 1 195 9 view .LVU153
 500 000e FF74241C 		pushl	28(%esp)
 501              		.cfi_def_cfa_offset 28
 502 0012 FF74241C 		pushl	28(%esp)
 503              		.cfi_def_cfa_offset 32
 504              	.LBB319:
 505              	.LBB316:
 506              	.LBB314:
 507              	.LBB313:
 508              		.loc 6 364 16 view .LVU154
 509 0016 8B980000 		movl	port_irq_sts@GOT(%eax), %ebx
 509      0000
 510 001c C7030100 		movl	$1, (%ebx)
 510      0000
 511              	.LBE313:
 512              	.LBE314:
 513              	.LBE316:
 514              	.LBE319:
 515              		.loc 5 356 34 is_stmt 1 view .LVU155
 516              		.loc 5 357 20 view .LVU156
 517              		.loc 1 195 3 view .LVU157
 518              		.loc 1 195 9 is_stmt 0 view .LVU158
 519 0022 E8FCFFFF 		call	ibqGetFullBufferTimeoutS
 519      FF
 520              	.LVL19:
 521              		.loc 1 196 3 is_stmt 1 view .LVU159
 522              	.LBB320:
 523              	.LBI320:
 524              		.loc 2 520 20 view .LVU160
 525              	.LBE320:
 526              		.loc 2 522 3 view .LVU161
 527              	.LBB325:
 528              	.LBB321:
 529              	.LBI321:
 530              		.loc 5 365 20 view .LVU162
 531              	.LBB322:
 532              		.loc 5 367 22 view .LVU163
 533              		.loc 5 368 33 view .LVU164
 534              		.loc 5 374 3 view .LVU165
 535              		.loc 5 374 3 view .LVU166
 536              		.loc 5 378 3 view .LVU167
 537              	.LBB323:
 538              	.LBI323:
 539              		.loc 6 371 20 view .LVU168
 540              	.LBB324:
 541              		.loc 6 373 3 view .LVU169
 542              		.loc 6 373 16 is_stmt 0 view .LVU170
 543 0027 C7030000 		movl	$0, (%ebx)
 543      0000
 544              	.LBE324:
 545              	.LBE323:
 546              	.LBE322:
GAS LISTING /tmp/cccyco2T.s 			page 11


 547              	.LBE321:
 548              	.LBE325:
 549              		.loc 1 198 3 is_stmt 1 view .LVU171
 550              		.loc 1 199 1 is_stmt 0 view .LVU172
 551 002d 83C418   		addl	$24, %esp
 552              		.cfi_def_cfa_offset 8
 553 0030 5B       		popl	%ebx
 554              		.cfi_restore 3
 555              		.cfi_def_cfa_offset 4
 556 0031 C3       		ret
 557              		.cfi_endproc
 558              	.LFE237:
 559              		.size	ibqGetFullBufferTimeout, .-ibqGetFullBufferTimeout
 560              		.section	.text.ibqReleaseEmptyBuffer,"ax",@progbits
 561              		.p2align 4,,15
 562              		.globl	ibqReleaseEmptyBuffer
 563              		.type	ibqReleaseEmptyBuffer, @function
 564              	ibqReleaseEmptyBuffer:
 565              	.LVL20:
 566              	.LFB239:
 567              		.loc 1 254 57 is_stmt 1 view -0
 568              		.cfi_startproc
 569              		.loc 1 256 3 view .LVU174
 570              	.LBB326:
 571              	.LBI326:
 572              		.loc 2 509 20 view .LVU175
 573              	.LBE326:
 574              		.loc 2 511 3 view .LVU176
 575              	.LBB337:
 576              	.LBB327:
 577              	.LBI327:
 578              		.loc 5 353 20 view .LVU177
 579              	.LBE327:
 580              	.LBE337:
 581              		.loc 5 355 3 view .LVU178
 582              	.LBB338:
 583              	.LBB334:
 584              	.LBB328:
 585              	.LBI328:
 586              		.loc 6 362 20 view .LVU179
 587              	.LBB329:
 588              		.loc 6 364 3 view .LVU180
 589 0000 E8FCFFFF 		call	__x86.get_pc_thunk.dx
 589      FF
 590 0005 81C20200 		addl	$_GLOBAL_OFFSET_TABLE_, %edx
 590      0000
 591              	.LBE329:
 592              	.LBE328:
 593              	.LBE334:
 594              	.LBE338:
 595              		.loc 1 254 57 is_stmt 0 view .LVU181
 596 000b 53       		pushl	%ebx
 597              		.cfi_def_cfa_offset 8
 598              		.cfi_offset 3, -8
 599 000c 83EC08   		subl	$8, %esp
 600              		.cfi_def_cfa_offset 16
 601              		.loc 1 254 57 view .LVU182
GAS LISTING /tmp/cccyco2T.s 			page 12


 602 000f 8B442410 		movl	16(%esp), %eax
 603              	.LBB339:
 604              	.LBB335:
 605              	.LBB332:
 606              	.LBB330:
 607              		.loc 6 364 16 view .LVU183
 608 0013 8B9A0000 		movl	port_irq_sts@GOT(%edx), %ebx
 608      0000
 609              	.LBE330:
 610              	.LBE332:
 611              	.LBE335:
 612              	.LBE339:
 613              	.LBB340:
 614              	.LBB341:
 615              		.loc 1 275 7 view .LVU184
 616 0019 8B500C   		movl	12(%eax), %edx
 617              		.loc 1 275 17 view .LVU185
 618 001c 83EA01   		subl	$1, %edx
 619              	.LBE341:
 620              	.LBE340:
 621              	.LBB343:
 622              	.LBB336:
 623              	.LBB333:
 624              	.LBB331:
 625              		.loc 6 364 16 view .LVU186
 626 001f C7030100 		movl	$1, (%ebx)
 626      0000
 627              	.LBE331:
 628              	.LBE333:
 629              	.LBE336:
 630              	.LBE343:
 631              		.loc 5 356 34 is_stmt 1 view .LVU187
 632              		.loc 5 357 20 view .LVU188
 633              		.loc 1 257 3 view .LVU189
 634              	.LVL21:
 635              	.LBB344:
 636              	.LBI340:
 637              		.loc 1 269 8 view .LVU190
 638              	.LBB342:
 639              		.loc 1 271 23 view .LVU191
 640              		.loc 1 272 3 view .LVU192
 641              		.loc 1 272 3 view .LVU193
 642              		.loc 1 275 3 view .LVU194
 643              		.loc 1 275 17 is_stmt 0 view .LVU195
 644 0025 89500C   		movl	%edx, 12(%eax)
 645              		.loc 1 276 3 is_stmt 1 view .LVU196
 646              		.loc 1 276 16 is_stmt 0 view .LVU197
 647 0028 8B501C   		movl	28(%eax), %edx
 648 002b 035014   		addl	20(%eax), %edx
 649 002e 895014   		movl	%edx, 20(%eax)
 650              		.loc 1 277 3 is_stmt 1 view .LVU198
 651              		.loc 1 277 6 is_stmt 0 view .LVU199
 652 0031 3B5018   		cmpl	24(%eax), %edx
 653 0034 7206     		jb	.L25
 654              		.loc 1 278 5 is_stmt 1 view .LVU200
 655              		.loc 1 278 18 is_stmt 0 view .LVU201
 656 0036 8B5024   		movl	36(%eax), %edx
GAS LISTING /tmp/cccyco2T.s 			page 13


 657 0039 895014   		movl	%edx, 20(%eax)
 658              	.L25:
 659              		.loc 1 282 3 is_stmt 1 view .LVU202
 660              		.loc 1 285 11 is_stmt 0 view .LVU203
 661 003c 8B5030   		movl	48(%eax), %edx
 662              		.loc 1 282 13 view .LVU204
 663 003f C7402800 		movl	$0, 40(%eax)
 663      000000
 664              		.loc 1 285 3 is_stmt 1 view .LVU205
 665              		.loc 1 285 6 is_stmt 0 view .LVU206
 666 0046 85D2     		testl	%edx, %edx
 667 0048 7409     		je	.L26
 668              		.loc 1 286 5 is_stmt 1 view .LVU207
 669 004a 83EC0C   		subl	$12, %esp
 670              		.cfi_def_cfa_offset 28
 671 004d 50       		pushl	%eax
 672              		.cfi_def_cfa_offset 32
 673 004e FFD2     		call	*%edx
 674              	.LVL22:
 675              		.loc 1 286 5 is_stmt 0 view .LVU208
 676 0050 83C410   		addl	$16, %esp
 677              		.cfi_def_cfa_offset 16
 678              	.L26:
 679              	.LVL23:
 680              		.loc 1 286 5 view .LVU209
 681              	.LBE342:
 682              	.LBE344:
 683              		.loc 1 258 3 is_stmt 1 view .LVU210
 684              	.LBB345:
 685              	.LBI345:
 686              		.loc 2 520 20 view .LVU211
 687              	.LBE345:
 688              		.loc 2 522 3 view .LVU212
 689              	.LBB350:
 690              	.LBB346:
 691              	.LBI346:
 692              		.loc 5 365 20 view .LVU213
 693              	.LBB347:
 694              		.loc 5 367 22 view .LVU214
 695              		.loc 5 368 33 view .LVU215
 696              		.loc 5 374 3 view .LVU216
 697              		.loc 5 374 3 view .LVU217
 698              		.loc 5 378 3 view .LVU218
 699              	.LBB348:
 700              	.LBI348:
 701              		.loc 6 371 20 view .LVU219
 702              	.LBB349:
 703              		.loc 6 373 3 view .LVU220
 704              		.loc 6 373 16 is_stmt 0 view .LVU221
 705 0053 C7030000 		movl	$0, (%ebx)
 705      0000
 706              	.LBE349:
 707              	.LBE348:
 708              	.LBE347:
 709              	.LBE346:
 710              	.LBE350:
 711              		.loc 1 259 1 view .LVU222
GAS LISTING /tmp/cccyco2T.s 			page 14


 712 0059 83C408   		addl	$8, %esp
 713              		.cfi_def_cfa_offset 8
 714 005c 5B       		popl	%ebx
 715              		.cfi_restore 3
 716              		.cfi_def_cfa_offset 4
 717 005d C3       		ret
 718              		.cfi_endproc
 719              	.LFE239:
 720              		.size	ibqReleaseEmptyBuffer, .-ibqReleaseEmptyBuffer
 721              		.section	.text.ibqReleaseEmptyBufferS,"ax",@progbits
 722              		.p2align 4,,15
 723              		.globl	ibqReleaseEmptyBufferS
 724              		.type	ibqReleaseEmptyBufferS, @function
 725              	ibqReleaseEmptyBufferS:
 726              	.LVL24:
 727              	.LFB240:
 728              		.loc 1 269 60 is_stmt 1 view -0
 729              		.cfi_startproc
 730              		.loc 1 271 23 view .LVU224
 731              		.loc 1 272 3 view .LVU225
 732              		.loc 1 272 3 view .LVU226
 733              		.loc 1 275 3 view .LVU227
 734              		.loc 1 269 60 is_stmt 0 view .LVU228
 735 0000 8B442404 		movl	4(%esp), %eax
 736              		.loc 1 275 7 view .LVU229
 737 0004 8B500C   		movl	12(%eax), %edx
 738              		.loc 1 275 17 view .LVU230
 739 0007 83EA01   		subl	$1, %edx
 740 000a 89500C   		movl	%edx, 12(%eax)
 741              		.loc 1 276 3 is_stmt 1 view .LVU231
 742              		.loc 1 276 16 is_stmt 0 view .LVU232
 743 000d 8B501C   		movl	28(%eax), %edx
 744 0010 035014   		addl	20(%eax), %edx
 745 0013 895014   		movl	%edx, 20(%eax)
 746              		.loc 1 277 3 is_stmt 1 view .LVU233
 747              		.loc 1 277 6 is_stmt 0 view .LVU234
 748 0016 3B5018   		cmpl	24(%eax), %edx
 749 0019 7206     		jb	.L32
 750              		.loc 1 278 5 is_stmt 1 view .LVU235
 751              		.loc 1 278 18 is_stmt 0 view .LVU236
 752 001b 8B5024   		movl	36(%eax), %edx
 753 001e 895014   		movl	%edx, 20(%eax)
 754              	.L32:
 755              		.loc 1 282 3 is_stmt 1 view .LVU237
 756              		.loc 1 285 11 is_stmt 0 view .LVU238
 757 0021 8B5030   		movl	48(%eax), %edx
 758              		.loc 1 282 13 view .LVU239
 759 0024 C7402800 		movl	$0, 40(%eax)
 759      000000
 760              		.loc 1 285 3 is_stmt 1 view .LVU240
 761              		.loc 1 285 6 is_stmt 0 view .LVU241
 762 002b 85D2     		testl	%edx, %edx
 763 002d 7409     		je	.L31
 764              		.loc 1 286 5 is_stmt 1 view .LVU242
 765 002f 89442404 		movl	%eax, 4(%esp)
 766              	.LVL25:
 767              		.loc 1 286 5 is_stmt 0 view .LVU243
GAS LISTING /tmp/cccyco2T.s 			page 15


 768 0033 FFE2     		jmp	*%edx
 769              	.LVL26:
 770              		.p2align 4,,10
 771 0035 8D7600   		.p2align 3
 772              	.L31:
 773              		.loc 1 288 1 view .LVU244
 774 0038 C3       		ret
 775              		.cfi_endproc
 776              	.LFE240:
 777              		.size	ibqReleaseEmptyBufferS, .-ibqReleaseEmptyBufferS
 778              		.section	.text.ibqGetTimeout,"ax",@progbits
 779              		.p2align 4,,15
 780              		.globl	ibqGetTimeout
 781              		.type	ibqGetTimeout, @function
 782              	ibqGetTimeout:
 783              	.LVL27:
 784              	.LFB241:
 785              		.loc 1 309 73 is_stmt 1 view -0
 786              		.cfi_startproc
 787              		.loc 1 310 3 view .LVU246
 788              		.loc 1 312 3 view .LVU247
 789              	.LBB351:
 790              	.LBI351:
 791              		.loc 2 509 20 view .LVU248
 792              	.LBE351:
 793              		.loc 2 511 3 view .LVU249
 794              	.LBB359:
 795              	.LBB352:
 796              	.LBI352:
 797              		.loc 5 353 20 view .LVU250
 798              	.LBE352:
 799              	.LBE359:
 800              		.loc 5 355 3 view .LVU251
 801              	.LBB360:
 802              	.LBB357:
 803              	.LBB353:
 804              	.LBI353:
 805              		.loc 6 362 20 view .LVU252
 806              	.LBB354:
 807              		.loc 6 364 3 view .LVU253
 808 0000 E8FCFFFF 		call	__x86.get_pc_thunk.ax
 808      FF
 809 0005 05010000 		addl	$_GLOBAL_OFFSET_TABLE_, %eax
 809      00
 810              	.LBE354:
 811              	.LBE353:
 812              	.LBE357:
 813              	.LBE360:
 814              		.loc 1 309 73 is_stmt 0 view .LVU254
 815 000a 57       		pushl	%edi
 816              		.cfi_def_cfa_offset 8
 817              		.cfi_offset 7, -8
 818 000b 56       		pushl	%esi
 819              		.cfi_def_cfa_offset 12
 820              		.cfi_offset 6, -12
 821 000c 53       		pushl	%ebx
 822              		.cfi_def_cfa_offset 16
GAS LISTING /tmp/cccyco2T.s 			page 16


 823              		.cfi_offset 3, -16
 824              		.loc 1 309 73 view .LVU255
 825 000d 8B5C2410 		movl	16(%esp), %ebx
 826              		.loc 1 315 11 view .LVU256
 827 0011 8B5328   		movl	40(%ebx), %edx
 828              	.LBB361:
 829              	.LBB358:
 830              	.LBB356:
 831              	.LBB355:
 832              		.loc 6 364 16 view .LVU257
 833 0014 8BB00000 		movl	port_irq_sts@GOT(%eax), %esi
 833      0000
 834 001a C7060100 		movl	$1, (%esi)
 834      0000
 835              	.LBE355:
 836              	.LBE356:
 837              	.LBE358:
 838              	.LBE361:
 839              		.loc 5 356 34 is_stmt 1 view .LVU258
 840              		.loc 5 357 20 view .LVU259
 841              		.loc 1 315 3 view .LVU260
 842              		.loc 1 315 6 is_stmt 0 view .LVU261
 843 0020 85D2     		testl	%edx, %edx
 844 0022 7454     		je	.L46
 845              	.L35:
 846              		.loc 1 324 3 is_stmt 1 view .LVU262
 847              		.loc 1 324 7 is_stmt 0 view .LVU263
 848 0024 0FB63A   		movzbl	(%edx), %edi
 849              	.LVL28:
 850              		.loc 1 325 3 is_stmt 1 view .LVU264
 851              		.loc 1 325 12 is_stmt 0 view .LVU265
 852 0027 83C201   		addl	$1, %edx
 853 002a 895328   		movl	%edx, 40(%ebx)
 854              		.loc 1 329 3 is_stmt 1 view .LVU266
 855              		.loc 1 329 6 is_stmt 0 view .LVU267
 856 002d 3B532C   		cmpl	44(%ebx), %edx
 857 0030 7234     		jb	.L39
 858              		.loc 1 330 5 is_stmt 1 view .LVU268
 859              	.LVL29:
 860              	.LBB362:
 861              	.LBI362:
 862              		.loc 1 269 8 view .LVU269
 863              	.LBB363:
 864              		.loc 1 271 23 view .LVU270
 865              		.loc 1 272 3 view .LVU271
 866              		.loc 1 272 3 view .LVU272
 867              		.loc 1 275 3 view .LVU273
 868              		.loc 1 275 7 is_stmt 0 view .LVU274
 869 0032 8B430C   		movl	12(%ebx), %eax
 870              		.loc 1 276 16 view .LVU275
 871 0035 8B531C   		movl	28(%ebx), %edx
 872 0038 035314   		addl	20(%ebx), %edx
 873              		.loc 1 275 17 view .LVU276
 874 003b 83E801   		subl	$1, %eax
 875              		.loc 1 276 16 view .LVU277
 876 003e 895314   		movl	%edx, 20(%ebx)
 877              		.loc 1 275 17 view .LVU278
GAS LISTING /tmp/cccyco2T.s 			page 17


 878 0041 89430C   		movl	%eax, 12(%ebx)
 879              		.loc 1 276 3 is_stmt 1 view .LVU279
 880              		.loc 1 277 3 view .LVU280
 881              		.loc 1 277 6 is_stmt 0 view .LVU281
 882 0044 3B5318   		cmpl	24(%ebx), %edx
 883 0047 7206     		jb	.L40
 884              		.loc 1 278 5 is_stmt 1 view .LVU282
 885              		.loc 1 278 18 is_stmt 0 view .LVU283
 886 0049 8B4324   		movl	36(%ebx), %eax
 887 004c 894314   		movl	%eax, 20(%ebx)
 888              	.L40:
 889              		.loc 1 282 3 is_stmt 1 view .LVU284
 890              		.loc 1 285 11 is_stmt 0 view .LVU285
 891 004f 8B4330   		movl	48(%ebx), %eax
 892              		.loc 1 282 13 view .LVU286
 893 0052 C7432800 		movl	$0, 40(%ebx)
 893      000000
 894              		.loc 1 285 3 is_stmt 1 view .LVU287
 895              		.loc 1 285 6 is_stmt 0 view .LVU288
 896 0059 85C0     		testl	%eax, %eax
 897 005b 7409     		je	.L39
 898              		.loc 1 286 5 is_stmt 1 view .LVU289
 899 005d 83EC0C   		subl	$12, %esp
 900              		.cfi_def_cfa_offset 28
 901 0060 53       		pushl	%ebx
 902              		.cfi_def_cfa_offset 32
 903 0061 FFD0     		call	*%eax
 904              	.LVL30:
 905 0063 83C410   		addl	$16, %esp
 906              		.cfi_def_cfa_offset 16
 907              	.LVL31:
 908              	.L39:
 909              		.loc 1 286 5 is_stmt 0 view .LVU290
 910              	.LBE363:
 911              	.LBE362:
 912              		.loc 1 333 3 is_stmt 1 view .LVU291
 913              	.LBB364:
 914              	.LBI364:
 915              		.loc 2 520 20 view .LVU292
 916              	.LBE364:
 917              		.loc 2 522 3 view .LVU293
 918              	.LBB373:
 919              	.LBB365:
 920              	.LBI365:
 921              		.loc 5 365 20 view .LVU294
 922              	.LBB366:
 923              		.loc 5 367 22 view .LVU295
 924              		.loc 5 368 33 view .LVU296
 925              		.loc 5 374 3 view .LVU297
 926              		.loc 5 374 3 view .LVU298
 927              		.loc 5 378 3 view .LVU299
 928              	.LBB367:
 929              	.LBI367:
 930              		.loc 6 371 20 view .LVU300
 931              	.LBB368:
 932              		.loc 6 373 3 view .LVU301
 933              	.LBE368:
GAS LISTING /tmp/cccyco2T.s 			page 18


 934              	.LBE367:
 935              	.LBE366:
 936              	.LBE365:
 937              	.LBE373:
 938              		.loc 1 335 1 is_stmt 0 view .LVU302
 939 0066 89F8     		movl	%edi, %eax
 940 0068 5B       		popl	%ebx
 941              		.cfi_remember_state
 942              		.cfi_restore 3
 943              		.cfi_def_cfa_offset 12
 944              	.LBB374:
 945              	.LBB372:
 946              	.LBB371:
 947              	.LBB370:
 948              	.LBB369:
 949              		.loc 6 373 16 view .LVU303
 950 0069 C7060000 		movl	$0, (%esi)
 950      0000
 951              	.LBE369:
 952              	.LBE370:
 953              	.LBE371:
 954              	.LBE372:
 955              	.LBE374:
 956              		.loc 1 334 3 is_stmt 1 view .LVU304
 957              		.loc 1 335 1 is_stmt 0 view .LVU305
 958 006f 5E       		popl	%esi
 959              		.cfi_restore 6
 960              		.cfi_def_cfa_offset 8
 961 0070 5F       		popl	%edi
 962              		.cfi_restore 7
 963              		.cfi_def_cfa_offset 4
 964              	.LVL32:
 965              		.loc 1 335 1 view .LVU306
 966 0071 C3       		ret
 967              	.LVL33:
 968              		.p2align 4,,10
 969 0072 8DB60000 		.p2align 3
 969      0000
 970              	.L46:
 971              		.cfi_restore_state
 972              		.loc 1 316 5 is_stmt 1 view .LVU307
 973              		.loc 1 316 11 is_stmt 0 view .LVU308
 974 0078 83EC08   		subl	$8, %esp
 975              		.cfi_def_cfa_offset 24
 976 007b FF74241C 		pushl	28(%esp)
 977              		.cfi_def_cfa_offset 28
 978 007f 53       		pushl	%ebx
 979              		.cfi_def_cfa_offset 32
 980 0080 E8FCFFFF 		call	ibqGetFullBufferTimeoutS
 980      FF
 981              	.LVL34:
 982              		.loc 1 317 8 view .LVU309
 983 0085 83C410   		addl	$16, %esp
 984              		.cfi_def_cfa_offset 16
 985              		.loc 1 316 11 view .LVU310
 986 0088 89C7     		movl	%eax, %edi
 987              	.LVL35:
GAS LISTING /tmp/cccyco2T.s 			page 19


 988              		.loc 1 317 5 is_stmt 1 view .LVU311
 989              		.loc 1 317 8 is_stmt 0 view .LVU312
 990 008a 85C0     		testl	%eax, %eax
 991 008c 75D8     		jne	.L39
 992 008e 8B5328   		movl	40(%ebx), %edx
 993 0091 EB91     		jmp	.L35
 994              		.cfi_endproc
 995              	.LFE241:
 996              		.size	ibqGetTimeout, .-ibqGetTimeout
 997              		.section	.text.ibqReadTimeout,"ax",@progbits
 998              		.p2align 4,,15
 999              		.globl	ibqReadTimeout
 1000              		.type	ibqReadTimeout, @function
 1001              	ibqReadTimeout:
 1002              	.LVL36:
 1003              	.LFB242:
 1004              		.loc 1 359 56 is_stmt 1 view -0
 1005              		.cfi_startproc
 1006              		.loc 1 360 3 view .LVU314
 1007              		.loc 1 361 3 view .LVU315
 1008              		.loc 1 363 3 view .LVU316
 1009              		.loc 1 363 3 view .LVU317
 1010              		.loc 1 365 3 view .LVU318
 1011              	.LBB375:
 1012              	.LBI375:
 1013              		.loc 2 509 20 view .LVU319
 1014              	.LBE375:
 1015              		.loc 2 511 3 view .LVU320
 1016              	.LBB386:
 1017              	.LBB376:
 1018              	.LBI376:
 1019              		.loc 5 353 20 view .LVU321
 1020              	.LBE376:
 1021              	.LBE386:
 1022              		.loc 5 355 3 view .LVU322
 1023              	.LBB387:
 1024              	.LBB383:
 1025              	.LBB377:
 1026              	.LBI377:
 1027              		.loc 6 362 20 view .LVU323
 1028              	.LBB378:
 1029              		.loc 6 364 3 view .LVU324
 1030 0000 E8FCFFFF 		call	__x86.get_pc_thunk.ax
 1030      FF
 1031 0005 05010000 		addl	$_GLOBAL_OFFSET_TABLE_, %eax
 1031      00
 1032              	.LBE378:
 1033              	.LBE377:
 1034              	.LBE383:
 1035              	.LBE387:
 1036              		.loc 1 359 56 is_stmt 0 view .LVU325
 1037 000a 55       		pushl	%ebp
 1038              		.cfi_def_cfa_offset 8
 1039              		.cfi_offset 5, -8
 1040              		.loc 1 360 10 view .LVU326
 1041 000b 31ED     		xorl	%ebp, %ebp
 1042              		.loc 1 359 56 view .LVU327
GAS LISTING /tmp/cccyco2T.s 			page 20


 1043 000d 57       		pushl	%edi
 1044              		.cfi_def_cfa_offset 12
 1045              		.cfi_offset 7, -12
 1046 000e 56       		pushl	%esi
 1047              		.cfi_def_cfa_offset 16
 1048              		.cfi_offset 6, -16
 1049 000f 53       		pushl	%ebx
 1050              		.cfi_def_cfa_offset 20
 1051              		.cfi_offset 3, -20
 1052 0010 83EC2C   		subl	$44, %esp
 1053              		.cfi_def_cfa_offset 64
 1054              	.LBB388:
 1055              	.LBB384:
 1056              	.LBB381:
 1057              	.LBB379:
 1058              		.loc 6 364 16 view .LVU328
 1059 0013 8B880000 		movl	port_irq_sts@GOT(%eax), %ecx
 1059      0000
 1060              	.LBE379:
 1061              	.LBE381:
 1062              	.LBE384:
 1063              	.LBE388:
 1064              		.loc 1 359 56 view .LVU329
 1065 0019 8B7C2440 		movl	64(%esp), %edi
 1066 001d 8B742444 		movl	68(%esp), %esi
 1067 0021 89442410 		movl	%eax, 16(%esp)
 1068              	.LBB389:
 1069              	.LBB390:
 1070              	.LBB391:
 1071              		.file 7 "../../../os/rt/include/chvt.h"
 1072              		.loc 7 118 19 view .LVU330
 1073 0025 8B800000 		movl	ch@GOT(%eax), %eax
 1073      0000
 1074              	.LBE391:
 1075              	.LBE390:
 1076              	.LBE389:
 1077              	.LBB394:
 1078              	.LBB385:
 1079              	.LBB382:
 1080              	.LBB380:
 1081              		.loc 6 364 16 view .LVU331
 1082 002b 894C2408 		movl	%ecx, 8(%esp)
 1083 002f C7010100 		movl	$1, (%ecx)
 1083      0000
 1084              	.LBE380:
 1085              	.LBE382:
 1086              	.LBE385:
 1087              	.LBE394:
 1088              		.loc 5 356 34 is_stmt 1 view .LVU332
 1089              		.loc 5 357 20 view .LVU333
 1090              		.loc 1 368 3 view .LVU334
 1091              	.LBB395:
 1092              	.LBI389:
 1093              		.loc 2 634 25 view .LVU335
 1094              	.LBE395:
 1095              		.loc 2 636 3 view .LVU336
 1096              	.LBB396:
GAS LISTING /tmp/cccyco2T.s 			page 21


 1097              	.LBB393:
 1098              	.LBI390:
 1099              		.loc 7 115 25 view .LVU337
 1100              	.LBB392:
 1101              		.loc 7 118 3 view .LVU338
 1102              		.loc 7 118 19 is_stmt 0 view .LVU339
 1103 0035 8944241C 		movl	%eax, 28(%esp)
 1104 0039 0FB74028 		movzwl	40(%eax), %eax
 1105              	.LVL37:
 1106              		.loc 7 118 19 view .LVU340
 1107              	.LBE392:
 1108              	.LBE393:
 1109              	.LBE396:
 1110              	.LBB397:
 1111              	.LBI397:
 1112              		.loc 2 648 25 is_stmt 1 view .LVU341
 1113              	.LBE397:
 1114              		.loc 2 651 3 view .LVU342
 1115              	.LBB400:
 1116              	.LBB398:
 1117              	.LBI398:
 1118              		.file 8 "../../../os/rt/include/chtime.h"
 1119              		.loc 8 472 25 view .LVU343
 1120              	.LBB399:
 1121              		.loc 8 476 3 view .LVU344
 1122              		.loc 8 476 3 view .LVU345
 1123              		.loc 8 479 3 view .LVU346
 1124              		.loc 8 479 18 is_stmt 0 view .LVU347
 1125 003d 66034424 		addw	76(%esp), %ax
 1125      4C
 1126              	.LVL38:
 1127              		.loc 8 479 18 view .LVU348
 1128 0042 66894424 		movw	%ax, 26(%esp)
 1128      1A
 1129              	.LVL39:
 1130              		.loc 8 479 18 view .LVU349
 1131              	.LBE399:
 1132              	.LBE398:
 1133              	.LBE400:
 1134              	.LBB401:
 1135              	.LBB402:
 1136              		.loc 1 379 38 view .LVU350
 1137 0047 8B44244C 		movl	76(%esp), %eax
 1138              	.LVL40:
 1139              		.loc 1 379 38 view .LVU351
 1140 004b 83E801   		subl	$1, %eax
 1141 004e 89442414 		movl	%eax, 20(%esp)
 1142 0052 E9C40000 		jmp	.L61
 1142      00
 1143              	.LVL41:
 1144 0057 8DB42600 		.p2align 4,,10
 1144      00000066 
 1144      90
 1145              		.p2align 3
 1146              	.L67:
 1147              		.loc 1 379 38 view .LVU352
 1148              	.LBE402:
GAS LISTING /tmp/cccyco2T.s 			page 22


 1149              		.loc 1 413 7 is_stmt 1 view .LVU353
 1150              	.LBB426:
 1151              	.LBI426:
 1152              		.file 9 "/usr/include/i386-linux-gnu/bits/string_fortified.h"
 1153              		.loc 9 31 1 view .LVU354
 1154              	.LBB427:
 1155              		.loc 9 34 3 view .LVU355
 1156              		.loc 9 34 10 is_stmt 0 view .LVU356
 1157 0060 8B10     		movl	(%eax), %edx
 1158              	.LVL42:
 1159              		.loc 9 34 10 view .LVU357
 1160              	.LBE427:
 1161              	.LBE426:
 1162              		.loc 1 414 17 view .LVU358
 1163 0062 83C640   		addl	$64, %esi
 1164              	.LVL43:
 1165              		.loc 1 416 17 view .LVU359
 1166 0065 83C540   		addl	$64, %ebp
 1167              	.LVL44:
 1168              	.LBB429:
 1169              	.LBB428:
 1170              		.loc 9 34 10 view .LVU360
 1171 0068 8956C0   		movl	%edx, -64(%esi)
 1172              	.LVL45:
 1173              		.loc 9 34 10 view .LVU361
 1174 006b 8B5004   		movl	4(%eax), %edx
 1175 006e 8956C4   		movl	%edx, -60(%esi)
 1176 0071 8B5008   		movl	8(%eax), %edx
 1177 0074 8956C8   		movl	%edx, -56(%esi)
 1178 0077 8B500C   		movl	12(%eax), %edx
 1179 007a 8956CC   		movl	%edx, -52(%esi)
 1180 007d 8B5010   		movl	16(%eax), %edx
 1181 0080 8956D0   		movl	%edx, -48(%esi)
 1182 0083 8B5014   		movl	20(%eax), %edx
 1183 0086 8956D4   		movl	%edx, -44(%esi)
 1184 0089 8B5018   		movl	24(%eax), %edx
 1185 008c 8956D8   		movl	%edx, -40(%esi)
 1186 008f 8B501C   		movl	28(%eax), %edx
 1187 0092 8956DC   		movl	%edx, -36(%esi)
 1188 0095 8B5020   		movl	32(%eax), %edx
 1189 0098 8956E0   		movl	%edx, -32(%esi)
 1190 009b 8B5024   		movl	36(%eax), %edx
 1191 009e 8956E4   		movl	%edx, -28(%esi)
 1192 00a1 8B5028   		movl	40(%eax), %edx
 1193 00a4 8956E8   		movl	%edx, -24(%esi)
 1194 00a7 8B502C   		movl	44(%eax), %edx
 1195 00aa 8956EC   		movl	%edx, -20(%esi)
 1196 00ad 8B5030   		movl	48(%eax), %edx
 1197 00b0 8956F0   		movl	%edx, -16(%esi)
 1198 00b3 8B5034   		movl	52(%eax), %edx
 1199 00b6 8956F4   		movl	%edx, -12(%esi)
 1200 00b9 8B5038   		movl	56(%eax), %edx
 1201 00bc 8956F8   		movl	%edx, -8(%esi)
 1202 00bf 8B403C   		movl	60(%eax), %eax
 1203 00c2 8946FC   		movl	%eax, -4(%esi)
 1204              	.LVL46:
 1205              		.loc 9 34 10 view .LVU362
GAS LISTING /tmp/cccyco2T.s 			page 23


 1206              	.LBE428:
 1207              	.LBE429:
 1208              		.loc 1 414 7 is_stmt 1 view .LVU363
 1209              		.loc 1 415 7 view .LVU364
 1210              		.loc 1 415 17 is_stmt 0 view .LVU365
 1211 00c5 8B4728   		movl	40(%edi), %eax
 1212 00c8 83C040   		addl	$64, %eax
 1213 00cb 894728   		movl	%eax, 40(%edi)
 1214              		.loc 1 416 7 is_stmt 1 view .LVU366
 1215              	.LVL47:
 1216              	.L55:
 1217              		.loc 1 426 5 view .LVU367
 1218              		.loc 1 426 8 is_stmt 0 view .LVU368
 1219 00ce 39472C   		cmpl	%eax, 44(%edi)
 1220 00d1 7734     		ja	.L57
 1221              		.loc 1 427 7 is_stmt 1 view .LVU369
 1222              	.LVL48:
 1223              	.LBB430:
 1224              	.LBI430:
 1225              		.loc 1 269 8 view .LVU370
 1226              	.LBB431:
 1227              		.loc 1 271 23 view .LVU371
 1228              		.loc 1 272 3 view .LVU372
 1229              		.loc 1 272 3 view .LVU373
 1230              		.loc 1 275 3 view .LVU374
 1231              		.loc 1 275 7 is_stmt 0 view .LVU375
 1232 00d3 8B470C   		movl	12(%edi), %eax
 1233              		.loc 1 275 17 view .LVU376
 1234 00d6 83E801   		subl	$1, %eax
 1235 00d9 89470C   		movl	%eax, 12(%edi)
 1236              		.loc 1 276 3 is_stmt 1 view .LVU377
 1237              		.loc 1 276 16 is_stmt 0 view .LVU378
 1238 00dc 8B471C   		movl	28(%edi), %eax
 1239 00df 034714   		addl	20(%edi), %eax
 1240 00e2 894714   		movl	%eax, 20(%edi)
 1241              		.loc 1 277 3 is_stmt 1 view .LVU379
 1242              		.loc 1 277 6 is_stmt 0 view .LVU380
 1243 00e5 3B4718   		cmpl	24(%edi), %eax
 1244 00e8 7206     		jb	.L58
 1245              		.loc 1 278 5 is_stmt 1 view .LVU381
 1246              		.loc 1 278 18 is_stmt 0 view .LVU382
 1247 00ea 8B4724   		movl	36(%edi), %eax
 1248 00ed 894714   		movl	%eax, 20(%edi)
 1249              	.L58:
 1250              		.loc 1 282 3 is_stmt 1 view .LVU383
 1251              		.loc 1 285 11 is_stmt 0 view .LVU384
 1252 00f0 8B4730   		movl	48(%edi), %eax
 1253              		.loc 1 282 13 view .LVU385
 1254 00f3 C7472800 		movl	$0, 40(%edi)
 1254      000000
 1255              		.loc 1 285 3 is_stmt 1 view .LVU386
 1256              		.loc 1 285 6 is_stmt 0 view .LVU387
 1257 00fa 85C0     		testl	%eax, %eax
 1258 00fc 7409     		je	.L57
 1259              		.loc 1 286 5 is_stmt 1 view .LVU388
 1260 00fe 83EC0C   		subl	$12, %esp
 1261              		.cfi_def_cfa_offset 76
GAS LISTING /tmp/cccyco2T.s 			page 24


 1262 0101 57       		pushl	%edi
 1263              		.cfi_def_cfa_offset 80
 1264 0102 FFD0     		call	*%eax
 1265              	.LVL49:
 1266 0104 83C410   		addl	$16, %esp
 1267              		.cfi_def_cfa_offset 64
 1268              	.LVL50:
 1269              	.L57:
 1270              		.loc 1 286 5 is_stmt 0 view .LVU389
 1271              	.LBE431:
 1272              	.LBE430:
 1273              		.loc 1 431 5 is_stmt 1 view .LVU390
 1274              	.LBB432:
 1275              	.LBI432:
 1276              		.loc 2 520 20 view .LVU391
 1277              	.LBE432:
 1278              	.LBE401:
 1279              		.loc 2 522 3 view .LVU392
 1280              	.LBB461:
 1281              	.LBB445:
 1282              	.LBB433:
 1283              	.LBI433:
 1284              		.loc 5 365 20 view .LVU393
 1285              	.LBB434:
 1286              		.loc 5 367 22 view .LVU394
 1287              		.loc 5 368 33 view .LVU395
 1288              		.loc 5 374 3 view .LVU396
 1289              		.loc 5 374 3 view .LVU397
 1290              		.loc 5 378 3 view .LVU398
 1291              	.LBB435:
 1292              	.LBI435:
 1293              		.loc 6 371 20 view .LVU399
 1294              	.LBB436:
 1295              		.loc 6 373 3 view .LVU400
 1296              	.LBE436:
 1297              	.LBE435:
 1298              	.LBE434:
 1299              	.LBE433:
 1300              	.LBE445:
 1301              		.loc 1 432 5 view .LVU401
 1302              	.LBB446:
 1303              	.LBB443:
 1304              	.LBB441:
 1305              	.LBB439:
 1306              	.LBB437:
 1307              		.loc 6 373 16 is_stmt 0 view .LVU402
 1308 0107 8B442408 		movl	8(%esp), %eax
 1309              	.LBE437:
 1310              	.LBE439:
 1311              	.LBE441:
 1312              	.LBE443:
 1313              	.LBE446:
 1314              		.loc 1 432 8 view .LVU403
 1315 010b 3B6C2448 		cmpl	72(%esp), %ebp
 1316 010f 0F83CB00 		jnb	.L60
 1316      0000
 1317              		.loc 1 435 5 is_stmt 1 view .LVU404
GAS LISTING /tmp/cccyco2T.s 			page 25


 1318              	.LBB447:
 1319              	.LBI447:
 1320              		.loc 2 509 20 view .LVU405
 1321              	.LBE447:
 1322              	.LBE461:
 1323              		.loc 2 511 3 view .LVU406
 1324              	.LBB462:
 1325              	.LBB452:
 1326              	.LBB448:
 1327              	.LBI448:
 1328              		.loc 5 353 20 view .LVU407
 1329              	.LBE448:
 1330              	.LBE452:
 1331              	.LBE462:
 1332              		.loc 5 355 3 view .LVU408
 1333              	.LBB463:
 1334              	.LBB453:
 1335              	.LBB451:
 1336              	.LBB449:
 1337              	.LBI449:
 1338              		.loc 6 362 20 view .LVU409
 1339              	.LBB450:
 1340              		.loc 6 364 3 view .LVU410
 1341              		.loc 6 364 16 is_stmt 0 view .LVU411
 1342 0115 C7000100 		movl	$1, (%eax)
 1342      0000
 1343              	.LBE450:
 1344              	.LBE449:
 1345              	.LBE451:
 1346              	.LBE453:
 1347              	.LBE463:
 1348              		.loc 5 356 34 is_stmt 1 view .LVU412
 1349              		.loc 5 357 20 view .LVU413
 1350              	.LVL51:
 1351              	.L61:
 1352              		.loc 1 370 3 view .LVU414
 1353              	.LBB464:
 1354              		.loc 1 371 5 view .LVU415
 1355              		.loc 1 374 5 view .LVU416
 1356              		.loc 1 374 13 is_stmt 0 view .LVU417
 1357 011b 8B4728   		movl	40(%edi), %eax
 1358              		.loc 1 374 8 view .LVU418
 1359 011e 85C0     		testl	%eax, %eax
 1360 0120 744E     		je	.L66
 1361              	.L48:
 1362              		.loc 1 404 5 is_stmt 1 view .LVU419
 1363              		.loc 1 404 10 is_stmt 0 view .LVU420
 1364 0122 8B572C   		movl	44(%edi), %edx
 1365              		.loc 1 405 19 view .LVU421
 1366 0125 8B5C2448 		movl	72(%esp), %ebx
 1367              		.loc 1 404 10 view .LVU422
 1368 0129 29C2     		subl	%eax, %edx
 1369              	.LVL52:
 1370              		.loc 1 405 5 is_stmt 1 view .LVU423
 1371              		.loc 1 405 19 is_stmt 0 view .LVU424
 1372 012b 29EB     		subl	%ebp, %ebx
 1373 012d 39D3     		cmpl	%edx, %ebx
GAS LISTING /tmp/cccyco2T.s 			page 26


 1374 012f 0F46D3   		cmovbe	%ebx, %edx
 1375              	.LVL53:
 1376              		.loc 1 411 5 is_stmt 1 view .LVU425
 1377              		.loc 1 411 8 is_stmt 0 view .LVU426
 1378 0132 83FA40   		cmpl	$64, %edx
 1379 0135 0F8725FF 		ja	.L67
 1379      FFFF
 1380              		.loc 1 419 7 is_stmt 1 view .LVU427
 1381              	.LVL54:
 1382              	.LBB454:
 1383              	.LBI454:
 1384              		.loc 9 31 1 view .LVU428
 1385              	.LBB455:
 1386              		.loc 9 34 3 view .LVU429
 1387              		.loc 9 34 10 is_stmt 0 view .LVU430
 1388 013b 83EC04   		subl	$4, %esp
 1389              		.cfi_def_cfa_offset 68
 1390 013e 52       		pushl	%edx
 1391              		.cfi_def_cfa_offset 72
 1392 013f 89542414 		movl	%edx, 20(%esp)
 1393 0143 50       		pushl	%eax
 1394              		.cfi_def_cfa_offset 76
 1395              	.LVL55:
 1396              		.loc 9 34 10 view .LVU431
 1397 0144 56       		pushl	%esi
 1398              		.cfi_def_cfa_offset 80
 1399 0145 8B5C2420 		movl	32(%esp), %ebx
 1400 0149 E8FCFFFF 		call	memcpy@PLT
 1400      FF
 1401              	.LVL56:
 1402              		.loc 9 34 10 view .LVU432
 1403              	.LBE455:
 1404              	.LBE454:
 1405              		.loc 1 420 7 is_stmt 1 view .LVU433
 1406              		.loc 1 420 17 is_stmt 0 view .LVU434
 1407 014e 8B54241C 		movl	28(%esp), %edx
 1408              		.loc 1 421 17 view .LVU435
 1409 0152 8B4728   		movl	40(%edi), %eax
 1410              		.loc 1 422 17 view .LVU436
 1411 0155 83C410   		addl	$16, %esp
 1412              		.cfi_def_cfa_offset 64
 1413              		.loc 1 421 17 view .LVU437
 1414 0158 01D0     		addl	%edx, %eax
 1415              		.loc 1 420 17 view .LVU438
 1416 015a 01D6     		addl	%edx, %esi
 1417              	.LVL57:
 1418              		.loc 1 421 7 is_stmt 1 view .LVU439
 1419              		.loc 1 422 17 is_stmt 0 view .LVU440
 1420 015c 01D5     		addl	%edx, %ebp
 1421              	.LVL58:
 1422              		.loc 1 421 17 view .LVU441
 1423 015e 894728   		movl	%eax, 40(%edi)
 1424              		.loc 1 422 7 is_stmt 1 view .LVU442
 1425              	.LVL59:
 1426              		.loc 1 422 7 is_stmt 0 view .LVU443
 1427 0161 E968FFFF 		jmp	.L55
 1427      FF
GAS LISTING /tmp/cccyco2T.s 			page 27


 1428              	.LVL60:
 1429 0166 8DB42600 		.p2align 4,,10
 1429      0000008D 
 1429      7600
 1430              		.p2align 3
 1431              	.L66:
 1432              	.LBB456:
 1433              		.loc 1 375 7 is_stmt 1 view .LVU444
 1434              		.loc 1 379 7 view .LVU445
 1435              		.loc 1 379 10 is_stmt 0 view .LVU446
 1436 0170 837C2414 		cmpl	$-3, 20(%esp)
 1436      FD
 1437 0175 7739     		ja	.L68
 1438              	.LBB403:
 1439              		.loc 1 383 9 is_stmt 1 view .LVU447
 1440              	.LBB404:
 1441              	.LBI404:
 1442              		.loc 2 634 25 view .LVU448
 1443              	.LBE404:
 1444              	.LBE403:
 1445              	.LBE456:
 1446              	.LBE464:
 1447              		.loc 2 636 3 view .LVU449
 1448              	.LBB465:
 1449              	.LBB457:
 1450              	.LBB418:
 1451              	.LBB409:
 1452              	.LBB405:
 1453              	.LBI405:
 1454              		.loc 7 115 25 view .LVU450
 1455              	.LBB406:
 1456              		.loc 7 118 3 view .LVU451
 1457              		.loc 7 118 19 is_stmt 0 view .LVU452
 1458 0177 8B44241C 		movl	28(%esp), %eax
 1459              	.LBE406:
 1460              	.LBE405:
 1461              	.LBE409:
 1462              	.LBB410:
 1463              	.LBB411:
 1464              	.LBB412:
 1465              		.loc 8 495 26 view .LVU453
 1466 017b 0FB74C24 		movzwl	26(%esp), %ecx
 1466      1A
 1467              	.LBE412:
 1468              	.LBE411:
 1469              	.LBE410:
 1470              	.LBB415:
 1471              	.LBB408:
 1472              	.LBB407:
 1473              		.loc 7 118 19 view .LVU454
 1474 0180 0FB74028 		movzwl	40(%eax), %eax
 1475              	.LVL61:
 1476              		.loc 7 118 19 view .LVU455
 1477              	.LBE407:
 1478              	.LBE408:
 1479              	.LBE415:
 1480              	.LBB416:
GAS LISTING /tmp/cccyco2T.s 			page 28


 1481              	.LBI410:
 1482              		.loc 2 663 29 is_stmt 1 view .LVU456
 1483              	.LBE416:
 1484              	.LBE418:
 1485              	.LBE457:
 1486              	.LBE465:
 1487              		.loc 2 665 3 view .LVU457
 1488              	.LBB466:
 1489              	.LBB458:
 1490              	.LBB419:
 1491              	.LBB417:
 1492              	.LBB414:
 1493              	.LBI411:
 1494              		.loc 8 491 29 view .LVU458
 1495              	.LBB413:
 1496              		.loc 8 495 3 view .LVU459
 1497              		.loc 8 495 26 is_stmt 0 view .LVU460
 1498 0184 29C1     		subl	%eax, %ecx
 1499              	.LVL62:
 1500              		.loc 8 495 26 view .LVU461
 1501 0186 0FB7C1   		movzwl	%cx, %eax
 1502              	.LVL63:
 1503              		.loc 8 495 26 view .LVU462
 1504              	.LBE413:
 1505              	.LBE414:
 1506              	.LBE417:
 1507              		.loc 1 389 9 is_stmt 1 view .LVU463
 1508              		.loc 1 389 12 is_stmt 0 view .LVU464
 1509 0189 3944244C 		cmpl	%eax, 76(%esp)
 1510 018d 7235     		jb	.L53
 1511              		.loc 1 393 9 is_stmt 1 view .LVU465
 1512              		.loc 1 393 15 is_stmt 0 view .LVU466
 1513 018f 83EC08   		subl	$8, %esp
 1514              		.cfi_def_cfa_offset 72
 1515 0192 50       		pushl	%eax
 1516              		.cfi_def_cfa_offset 76
 1517 0193 57       		pushl	%edi
 1518              		.cfi_def_cfa_offset 80
 1519 0194 E8FCFFFF 		call	ibqGetFullBufferTimeoutS
 1519      FF
 1520              	.LVL64:
 1521              		.loc 1 393 15 view .LVU467
 1522 0199 83C410   		addl	$16, %esp
 1523              		.cfi_def_cfa_offset 64
 1524              		.loc 1 393 15 view .LVU468
 1525              	.LBE419:
 1526              		.loc 1 397 7 is_stmt 1 view .LVU469
 1527              		.loc 1 397 10 is_stmt 0 view .LVU470
 1528 019c 85C0     		testl	%eax, %eax
 1529 019e 7524     		jne	.L53
 1530              	.L69:
 1531              		.loc 1 397 10 view .LVU471
 1532 01a0 8B4728   		movl	40(%edi), %eax
 1533              	.LVL65:
 1534              		.loc 1 397 10 view .LVU472
 1535 01a3 E97AFFFF 		jmp	.L48
 1535      FF
GAS LISTING /tmp/cccyco2T.s 			page 29


 1536 01a8 8DB42600 		.p2align 4,,10
 1536      00000090 
 1537              		.p2align 3
 1538              	.L68:
 1539              		.loc 1 380 9 is_stmt 1 view .LVU473
 1540              		.loc 1 380 15 is_stmt 0 view .LVU474
 1541 01b0 83EC08   		subl	$8, %esp
 1542              		.cfi_def_cfa_offset 72
 1543 01b3 FF742454 		pushl	84(%esp)
 1544              		.cfi_def_cfa_offset 76
 1545 01b7 57       		pushl	%edi
 1546              		.cfi_def_cfa_offset 80
 1547 01b8 E8FCFFFF 		call	ibqGetFullBufferTimeoutS
 1547      FF
 1548              	.LVL66:
 1549              		.loc 1 380 15 view .LVU475
 1550 01bd 83C410   		addl	$16, %esp
 1551              		.cfi_def_cfa_offset 64
 1552              		.loc 1 397 7 is_stmt 1 view .LVU476
 1553              		.loc 1 397 10 is_stmt 0 view .LVU477
 1554 01c0 85C0     		testl	%eax, %eax
 1555 01c2 74DC     		je	.L69
 1556              	.LVL67:
 1557              	.L53:
 1558              		.loc 1 398 9 is_stmt 1 view .LVU478
 1559              	.LBB420:
 1560              	.LBI420:
 1561              		.loc 2 520 20 view .LVU479
 1562              	.LBE420:
 1563              	.LBE458:
 1564              	.LBE466:
 1565              		.loc 2 522 3 view .LVU480
 1566              	.LBB467:
 1567              	.LBB459:
 1568              	.LBB425:
 1569              	.LBB421:
 1570              	.LBI421:
 1571              		.loc 5 365 20 view .LVU481
 1572              	.LBB422:
 1573              		.loc 5 367 22 view .LVU482
 1574              		.loc 5 368 33 view .LVU483
 1575              		.loc 5 374 3 view .LVU484
 1576              		.loc 5 374 3 view .LVU485
 1577              		.loc 5 378 3 view .LVU486
 1578              	.LBB423:
 1579              	.LBI423:
 1580              		.loc 6 371 20 view .LVU487
 1581              	.LBB424:
 1582              		.loc 6 373 3 view .LVU488
 1583              		.loc 6 373 16 is_stmt 0 view .LVU489
 1584 01c4 8B442408 		movl	8(%esp), %eax
 1585 01c8 C7000000 		movl	$0, (%eax)
 1585      0000
 1586              	.LBE424:
 1587              	.LBE423:
 1588              	.LBE422:
 1589              	.LBE421:
GAS LISTING /tmp/cccyco2T.s 			page 30


 1590              	.LBE425:
 1591              		.loc 1 399 9 is_stmt 1 view .LVU490
 1592              	.LBE459:
 1593              	.LBE467:
 1594              		.loc 1 437 1 is_stmt 0 view .LVU491
 1595 01ce 83C42C   		addl	$44, %esp
 1596              		.cfi_remember_state
 1597              		.cfi_def_cfa_offset 20
 1598 01d1 89E8     		movl	%ebp, %eax
 1599 01d3 5B       		popl	%ebx
 1600              		.cfi_restore 3
 1601              		.cfi_def_cfa_offset 16
 1602 01d4 5E       		popl	%esi
 1603              		.cfi_restore 6
 1604              		.cfi_def_cfa_offset 12
 1605              	.LVL68:
 1606              		.loc 1 437 1 view .LVU492
 1607 01d5 5F       		popl	%edi
 1608              		.cfi_restore 7
 1609              		.cfi_def_cfa_offset 8
 1610 01d6 5D       		popl	%ebp
 1611              		.cfi_restore 5
 1612              		.cfi_def_cfa_offset 4
 1613              	.LVL69:
 1614              		.loc 1 437 1 view .LVU493
 1615 01d7 C3       		ret
 1616              	.LVL70:
 1617 01d8 8DB42600 		.p2align 4,,10
 1617      00000090 
 1618              		.p2align 3
 1619              	.L60:
 1620              		.cfi_restore_state
 1621              	.LBB468:
 1622              	.LBB460:
 1623              	.LBB444:
 1624              	.LBB442:
 1625              	.LBB440:
 1626              	.LBB438:
 1627              		.loc 6 373 16 view .LVU494
 1628 01e0 C7000000 		movl	$0, (%eax)
 1628      0000
 1629              	.LBE438:
 1630              	.LBE440:
 1631              	.LBE442:
 1632              	.LBE444:
 1633              	.LBE460:
 1634              	.LBE468:
 1635              		.loc 1 437 1 view .LVU495
 1636 01e6 83C42C   		addl	$44, %esp
 1637              		.cfi_def_cfa_offset 20
 1638 01e9 89E8     		movl	%ebp, %eax
 1639 01eb 5B       		popl	%ebx
 1640              		.cfi_restore 3
 1641              		.cfi_def_cfa_offset 16
 1642 01ec 5E       		popl	%esi
 1643              		.cfi_restore 6
 1644              		.cfi_def_cfa_offset 12
GAS LISTING /tmp/cccyco2T.s 			page 31


 1645              	.LVL71:
 1646              		.loc 1 437 1 view .LVU496
 1647 01ed 5F       		popl	%edi
 1648              		.cfi_restore 7
 1649              		.cfi_def_cfa_offset 8
 1650 01ee 5D       		popl	%ebp
 1651              		.cfi_restore 5
 1652              		.cfi_def_cfa_offset 4
 1653              	.LVL72:
 1654              		.loc 1 437 1 view .LVU497
 1655 01ef C3       		ret
 1656              		.cfi_endproc
 1657              	.LFE242:
 1658              		.size	ibqReadTimeout, .-ibqReadTimeout
 1659              		.section	.text.obqObjectInit,"ax",@progbits
 1660              		.p2align 4,,15
 1661              		.globl	obqObjectInit
 1662              		.type	obqObjectInit, @function
 1663              	obqObjectInit:
 1664              	.LVL73:
 1665              	.LFB243:
 1666              		.loc 1 453 72 is_stmt 1 view -0
 1667              		.cfi_startproc
 1668              		.loc 1 455 3 view .LVU499
 1669              		.loc 1 455 3 view .LVU500
 1670              		.loc 1 457 3 view .LVU501
 1671              		.loc 1 453 72 is_stmt 0 view .LVU502
 1672 0000 56       		pushl	%esi
 1673              		.cfi_def_cfa_offset 8
 1674              		.cfi_offset 6, -8
 1675 0001 53       		pushl	%ebx
 1676              		.cfi_def_cfa_offset 12
 1677              		.cfi_offset 3, -12
 1678              		.loc 1 453 72 view .LVU503
 1679 0002 8B44240C 		movl	12(%esp), %eax
 1680              	.LVL74:
 1681              	.LBB469:
 1682              	.LBI469:
 1683              		.loc 2 800 20 is_stmt 1 view .LVU504
 1684              	.LBE469:
 1685              		.loc 2 802 3 view .LVU505
 1686              	.LBB480:
 1687              	.LBB470:
 1688              	.LBI470:
 1689              		.loc 3 392 20 view .LVU506
 1690              	.LBE470:
 1691              	.LBE480:
 1692              		.loc 3 394 3 view .LVU507
 1693              	.LBB481:
 1694              	.LBB477:
 1695              	.LBB471:
 1696              	.LBI471:
 1697              		.loc 4 537 20 view .LVU508
 1698              	.LBB472:
 1699              		.loc 4 539 3 view .LVU509
 1700              	.LBE472:
 1701              	.LBE471:
GAS LISTING /tmp/cccyco2T.s 			page 32


 1702              	.LBE477:
 1703              	.LBE481:
 1704              		.loc 1 458 19 is_stmt 0 view .LVU510
 1705 0006 8B4C2410 		movl	16(%esp), %ecx
 1706              		.loc 1 453 72 view .LVU511
 1707 000a 8B5C241C 		movl	28(%esp), %ebx
 1708 000e 8B542414 		movl	20(%esp), %edx
 1709              	.LBB482:
 1710              	.LBB478:
 1711              	.LBB475:
 1712              	.LBB473:
 1713              		.loc 4 539 13 view .LVU512
 1714 0012 8900     		movl	%eax, (%eax)
 1715              		.loc 4 540 3 is_stmt 1 view .LVU513
 1716              	.LBE473:
 1717              	.LBE475:
 1718              	.LBE478:
 1719              	.LBE482:
 1720              		.loc 1 458 19 is_stmt 0 view .LVU514
 1721 0014 884808   		movb	%cl, 8(%eax)
 1722              		.loc 1 462 33 view .LVU515
 1723 0017 8B4C2418 		movl	24(%esp), %ecx
 1724              		.loc 1 460 19 view .LVU516
 1725 001b 895014   		movl	%edx, 20(%eax)
 1726              		.loc 1 462 33 view .LVU517
 1727 001e 83C104   		addl	$4, %ecx
 1728              		.loc 1 461 19 view .LVU518
 1729 0021 895010   		movl	%edx, 16(%eax)
 1730              		.loc 1 462 52 view .LVU519
 1731 0024 89CE     		movl	%ecx, %esi
 1732              		.loc 1 465 19 view .LVU520
 1733 0026 895024   		movl	%edx, 36(%eax)
 1734              		.loc 1 462 52 view .LVU521
 1735 0029 0FAFF3   		imull	%ebx, %esi
 1736              	.LBB483:
 1737              	.LBB479:
 1738              	.LBB476:
 1739              	.LBB474:
 1740              		.loc 4 540 13 view .LVU522
 1741 002c 894004   		movl	%eax, 4(%eax)
 1742              	.LVL75:
 1743              		.loc 4 540 13 view .LVU523
 1744              	.LBE474:
 1745              	.LBE476:
 1746              	.LBE479:
 1747              	.LBE483:
 1748              		.loc 1 458 3 is_stmt 1 view .LVU524
 1749              		.loc 1 459 3 view .LVU525
 1750              		.loc 1 459 19 is_stmt 0 view .LVU526
 1751 002f 89580C   		movl	%ebx, 12(%eax)
 1752              		.loc 1 460 3 is_stmt 1 view .LVU527
 1753              		.loc 1 461 3 view .LVU528
 1754              		.loc 1 462 3 view .LVU529
 1755              		.loc 1 463 19 is_stmt 0 view .LVU530
 1756 0032 89481C   		movl	%ecx, 28(%eax)
 1757              		.loc 1 462 24 view .LVU531
 1758 0035 01D6     		addl	%edx, %esi
GAS LISTING /tmp/cccyco2T.s 			page 33


 1759              		.loc 1 468 19 view .LVU532
 1760 0037 8B542420 		movl	32(%esp), %edx
 1761              		.loc 1 464 19 view .LVU533
 1762 003b 895820   		movl	%ebx, 32(%eax)
 1763              		.loc 1 462 24 view .LVU534
 1764 003e 897018   		movl	%esi, 24(%eax)
 1765              		.loc 1 463 3 is_stmt 1 view .LVU535
 1766              		.loc 1 464 3 view .LVU536
 1767              		.loc 1 465 3 view .LVU537
 1768              		.loc 1 466 3 view .LVU538
 1769              		.loc 1 468 19 is_stmt 0 view .LVU539
 1770 0041 895030   		movl	%edx, 48(%eax)
 1771              		.loc 1 469 19 view .LVU540
 1772 0044 8B542424 		movl	36(%esp), %edx
 1773              		.loc 1 466 19 view .LVU541
 1774 0048 C7402800 		movl	$0, 40(%eax)
 1774      000000
 1775              		.loc 1 467 3 is_stmt 1 view .LVU542
 1776              		.loc 1 467 19 is_stmt 0 view .LVU543
 1777 004f C7402C00 		movl	$0, 44(%eax)
 1777      000000
 1778              		.loc 1 468 3 is_stmt 1 view .LVU544
 1779              		.loc 1 469 3 view .LVU545
 1780              		.loc 1 469 19 is_stmt 0 view .LVU546
 1781 0056 895034   		movl	%edx, 52(%eax)
 1782              		.loc 1 470 1 view .LVU547
 1783 0059 5B       		popl	%ebx
 1784              		.cfi_restore 3
 1785              		.cfi_def_cfa_offset 8
 1786 005a 5E       		popl	%esi
 1787              		.cfi_restore 6
 1788              		.cfi_def_cfa_offset 4
 1789 005b C3       		ret
 1790              		.cfi_endproc
 1791              	.LFE243:
 1792              		.size	obqObjectInit, .-obqObjectInit
 1793              		.section	.text.obqResetI,"ax",@progbits
 1794              		.p2align 4,,15
 1795              		.globl	obqResetI
 1796              		.type	obqResetI, @function
 1797              	obqResetI:
 1798              	.LVL76:
 1799              	.LFB244:
 1800              		.loc 1 483 46 is_stmt 1 view -0
 1801              		.cfi_startproc
 1802              		.loc 1 485 23 view .LVU549
 1803              		.loc 1 487 3 view .LVU550
 1804              		.loc 1 483 46 is_stmt 0 view .LVU551
 1805 0000 53       		pushl	%ebx
 1806              		.cfi_def_cfa_offset 8
 1807              		.cfi_offset 3, -8
 1808 0001 E8FCFFFF 		call	__x86.get_pc_thunk.bx
 1808      FF
 1809 0006 81C30200 		addl	$_GLOBAL_OFFSET_TABLE_, %ebx
 1809      0000
 1810 000c 83EC10   		subl	$16, %esp
 1811              		.cfi_def_cfa_offset 24
GAS LISTING /tmp/cccyco2T.s 			page 34


 1812              		.loc 1 483 46 view .LVU552
 1813 000f 8B442418 		movl	24(%esp), %eax
 1814              		.loc 1 487 21 view .LVU553
 1815 0013 8B5020   		movl	32(%eax), %edx
 1816              		.loc 1 490 19 view .LVU554
 1817 0016 C7402800 		movl	$0, 40(%eax)
 1817      000000
 1818              		.loc 1 491 19 view .LVU555
 1819 001d C7402C00 		movl	$0, 44(%eax)
 1819      000000
 1820              		.loc 1 487 19 view .LVU556
 1821 0024 89500C   		movl	%edx, 12(%eax)
 1822              		.loc 1 488 3 is_stmt 1 view .LVU557
 1823              		.loc 1 488 25 is_stmt 0 view .LVU558
 1824 0027 8B5024   		movl	36(%eax), %edx
 1825              		.loc 1 488 19 view .LVU559
 1826 002a 895014   		movl	%edx, 20(%eax)
 1827              		.loc 1 489 3 is_stmt 1 view .LVU560
 1828              		.loc 1 489 19 is_stmt 0 view .LVU561
 1829 002d 895010   		movl	%edx, 16(%eax)
 1830              		.loc 1 490 3 is_stmt 1 view .LVU562
 1831              		.loc 1 491 3 view .LVU563
 1832              		.loc 1 492 3 view .LVU564
 1833              	.LVL77:
 1834              	.LBB484:
 1835              	.LBI484:
 1836              		.loc 2 855 20 view .LVU565
 1837              	.LBB485:
 1838              		.loc 2 857 3 view .LVU566
 1839 0030 6AFE     		pushl	$-2
 1840              		.cfi_def_cfa_offset 28
 1841 0032 50       		pushl	%eax
 1842              		.cfi_def_cfa_offset 32
 1843 0033 E8FCFFFF 		call	chThdDequeueAllI@PLT
 1843      FF
 1844              	.LVL78:
 1845              		.loc 2 857 3 is_stmt 0 view .LVU567
 1846              	.LBE485:
 1847              	.LBE484:
 1848              		.loc 1 493 1 view .LVU568
 1849 0038 83C418   		addl	$24, %esp
 1850              		.cfi_def_cfa_offset 8
 1851 003b 5B       		popl	%ebx
 1852              		.cfi_restore 3
 1853              		.cfi_def_cfa_offset 4
 1854 003c C3       		ret
 1855              		.cfi_endproc
 1856              	.LFE244:
 1857              		.size	obqResetI, .-obqResetI
 1858              		.section	.text.obqGetFullBufferI,"ax",@progbits
 1859              		.p2align 4,,15
 1860              		.globl	obqGetFullBufferI
 1861              		.type	obqGetFullBufferI, @function
 1862              	obqGetFullBufferI:
 1863              	.LVL79:
 1864              	.LFB245:
 1865              		.loc 1 507 43 is_stmt 1 view -0
GAS LISTING /tmp/cccyco2T.s 			page 35


 1866              		.cfi_startproc
 1867              		.loc 1 509 23 view .LVU570
 1868              		.loc 1 511 3 view .LVU571
 1869              		.loc 1 507 43 is_stmt 0 view .LVU572
 1870 0000 8B542404 		movl	4(%esp), %edx
 1871              		.loc 1 511 7 view .LVU573
 1872 0004 8B4214   		movl	20(%edx), %eax
 1873 0007 394210   		cmpl	%eax, 16(%edx)
 1874 000a 7414     		je	.L80
 1875              	.L75:
 1876              		.loc 1 516 3 is_stmt 1 view .LVU574
 1877              		.loc 1 516 12 is_stmt 0 view .LVU575
 1878 000c 8B08     		movl	(%eax), %ecx
 1879              		.loc 1 516 10 view .LVU576
 1880 000e 8B542408 		movl	8(%esp), %edx
 1881              		.loc 1 518 23 view .LVU577
 1882 0012 83C004   		addl	$4, %eax
 1883              		.loc 1 516 10 view .LVU578
 1884 0015 890A     		movl	%ecx, (%edx)
 1885              		.loc 1 518 3 is_stmt 1 view .LVU579
 1886              		.loc 1 519 1 is_stmt 0 view .LVU580
 1887 0017 C3       		ret
 1888              	.LVL80:
 1889 0018 8DB42600 		.p2align 4,,10
 1889      00000090 
 1890              		.p2align 3
 1891              	.L80:
 1892              		.loc 1 511 7 discriminator 1 view .LVU581
 1893 0020 8B520C   		movl	12(%edx), %edx
 1894              	.LVL81:
 1895              		.loc 1 511 7 discriminator 1 view .LVU582
 1896 0023 85D2     		testl	%edx, %edx
 1897 0025 74E5     		je	.L75
 1898              		.loc 1 512 12 view .LVU583
 1899 0027 31C0     		xorl	%eax, %eax
 1900 0029 C3       		ret
 1901              		.cfi_endproc
 1902              	.LFE245:
 1903              		.size	obqGetFullBufferI, .-obqGetFullBufferI
 1904              		.section	.text.obqReleaseEmptyBufferI,"ax",@progbits
 1905              		.p2align 4,,15
 1906              		.globl	obqReleaseEmptyBufferI
 1907              		.type	obqReleaseEmptyBufferI, @function
 1908              	obqReleaseEmptyBufferI:
 1909              	.LVL82:
 1910              	.LFB246:
 1911              		.loc 1 528 59 is_stmt 1 view -0
 1912              		.cfi_startproc
 1913              		.loc 1 530 23 view .LVU585
 1914              		.loc 1 531 3 view .LVU586
 1915              		.loc 1 531 3 view .LVU587
 1916              		.loc 1 534 3 view .LVU588
 1917              		.loc 1 528 59 is_stmt 0 view .LVU589
 1918 0000 53       		pushl	%ebx
 1919              		.cfi_def_cfa_offset 8
 1920              		.cfi_offset 3, -8
 1921 0001 E8FCFFFF 		call	__x86.get_pc_thunk.bx
GAS LISTING /tmp/cccyco2T.s 			page 36


 1921      FF
 1922 0006 81C30200 		addl	$_GLOBAL_OFFSET_TABLE_, %ebx
 1922      0000
 1923 000c 83EC08   		subl	$8, %esp
 1924              		.cfi_def_cfa_offset 16
 1925              		.loc 1 528 59 view .LVU590
 1926 000f 8B442410 		movl	16(%esp), %eax
 1927              		.loc 1 534 7 view .LVU591
 1928 0013 8B500C   		movl	12(%eax), %edx
 1929              		.loc 1 534 17 view .LVU592
 1930 0016 83C201   		addl	$1, %edx
 1931 0019 89500C   		movl	%edx, 12(%eax)
 1932              		.loc 1 535 3 is_stmt 1 view .LVU593
 1933              		.loc 1 535 16 is_stmt 0 view .LVU594
 1934 001c 8B501C   		movl	28(%eax), %edx
 1935 001f 035014   		addl	20(%eax), %edx
 1936 0022 895014   		movl	%edx, 20(%eax)
 1937              		.loc 1 536 3 is_stmt 1 view .LVU595
 1938              		.loc 1 536 6 is_stmt 0 view .LVU596
 1939 0025 3B5018   		cmpl	24(%eax), %edx
 1940 0028 7206     		jb	.L82
 1941              		.loc 1 537 5 is_stmt 1 view .LVU597
 1942              		.loc 1 537 18 is_stmt 0 view .LVU598
 1943 002a 8B5024   		movl	36(%eax), %edx
 1944 002d 895014   		movl	%edx, 20(%eax)
 1945              	.L82:
 1946              		.loc 1 541 3 is_stmt 1 view .LVU599
 1947              	.LVL83:
 1948              	.LBB486:
 1949              	.LBI486:
 1950              		.loc 2 842 20 view .LVU600
 1951              	.LBB487:
 1952              		.loc 2 844 3 view .LVU601
 1953 0030 83EC08   		subl	$8, %esp
 1954              		.cfi_def_cfa_offset 24
 1955 0033 6A00     		pushl	$0
 1956              		.cfi_def_cfa_offset 28
 1957 0035 50       		pushl	%eax
 1958              		.cfi_def_cfa_offset 32
 1959 0036 E8FCFFFF 		call	chThdDequeueNextI@PLT
 1959      FF
 1960              	.LVL84:
 1961              		.loc 2 844 3 is_stmt 0 view .LVU602
 1962              	.LBE487:
 1963              	.LBE486:
 1964              		.loc 1 542 1 view .LVU603
 1965 003b 83C418   		addl	$24, %esp
 1966              		.cfi_def_cfa_offset 8
 1967 003e 5B       		popl	%ebx
 1968              		.cfi_restore 3
 1969              		.cfi_def_cfa_offset 4
 1970 003f C3       		ret
 1971              		.cfi_endproc
 1972              	.LFE246:
 1973              		.size	obqReleaseEmptyBufferI, .-obqReleaseEmptyBufferI
 1974              		.section	.text.obqGetEmptyBufferTimeoutS,"ax",@progbits
 1975              		.p2align 4,,15
GAS LISTING /tmp/cccyco2T.s 			page 37


 1976              		.globl	obqGetEmptyBufferTimeoutS
 1977              		.type	obqGetEmptyBufferTimeoutS, @function
 1978              	obqGetEmptyBufferTimeoutS:
 1979              	.LVL85:
 1980              	.LFB248:
 1981              		.loc 1 598 56 is_stmt 1 view -0
 1982              		.cfi_startproc
 1983              		.loc 1 598 56 is_stmt 0 view .LVU605
 1984 0000 57       		pushl	%edi
 1985              		.cfi_def_cfa_offset 8
 1986              		.cfi_offset 7, -8
 1987 0001 56       		pushl	%esi
 1988              		.cfi_def_cfa_offset 12
 1989              		.cfi_offset 6, -12
 1990 0002 53       		pushl	%ebx
 1991              		.cfi_def_cfa_offset 16
 1992              		.cfi_offset 3, -16
 1993              		.loc 1 598 56 view .LVU606
 1994 0003 8B742410 		movl	16(%esp), %esi
 1995              		.loc 1 600 23 is_stmt 1 view .LVU607
 1996              		.loc 1 602 3 view .LVU608
 1997 0007 E8FCFFFF 		call	__x86.get_pc_thunk.bx
 1997      FF
 1998 000c 81C30200 		addl	$_GLOBAL_OFFSET_TABLE_, %ebx
 1998      0000
 1999              		.loc 1 598 56 is_stmt 0 view .LVU609
 2000 0012 8B7C2414 		movl	20(%esp), %edi
 2001              		.loc 1 602 9 view .LVU610
 2002 0016 EB1F     		jmp	.L85
 2003 0018 8DB42600 		.p2align 4,,10
 2003      00000090 
 2004              		.p2align 3
 2005              	.L87:
 2006              	.LBB496:
 2007              		.loc 1 603 5 is_stmt 1 view .LVU611
 2008              		.loc 1 603 8 is_stmt 0 view .LVU612
 2009 0020 807E0800 		cmpb	$0, 8(%esi)
 2010 0024 7532     		jne	.L88
 2011              		.loc 1 606 5 is_stmt 1 view .LVU613
 2012              	.LVL86:
 2013              	.LBB497:
 2014              	.LBI497:
 2015              		.loc 2 828 21 view .LVU614
 2016              	.LBB498:
 2017              		.loc 2 831 3 view .LVU615
 2018              		.loc 2 831 10 is_stmt 0 view .LVU616
 2019 0026 83EC08   		subl	$8, %esp
 2020              		.cfi_def_cfa_offset 24
 2021 0029 57       		pushl	%edi
 2022              		.cfi_def_cfa_offset 28
 2023 002a 56       		pushl	%esi
 2024              		.cfi_def_cfa_offset 32
 2025 002b E8FCFFFF 		call	chThdEnqueueTimeoutS@PLT
 2025      FF
 2026              	.LVL87:
 2027              		.loc 2 831 10 view .LVU617
 2028              	.LBE498:
GAS LISTING /tmp/cccyco2T.s 			page 38


 2029              	.LBE497:
 2030              		.loc 1 607 5 is_stmt 1 view .LVU618
 2031              		.loc 1 607 8 is_stmt 0 view .LVU619
 2032 0030 83C410   		addl	$16, %esp
 2033              		.cfi_def_cfa_offset 16
 2034 0033 85C0     		testl	%eax, %eax
 2035 0035 7818     		js	.L84
 2036              	.LVL88:
 2037              	.L85:
 2038              		.loc 1 607 8 view .LVU620
 2039              	.LBE496:
 2040              		.loc 1 602 10 view .LVU621
 2041 0037 8B460C   		movl	12(%esi), %eax
 2042              		.loc 1 602 9 view .LVU622
 2043 003a 85C0     		testl	%eax, %eax
 2044 003c 74E2     		je	.L87
 2045              	.LVL89:
 2046              	.LBB499:
 2047              	.LBI499:
 2048              		.loc 1 597 7 is_stmt 1 view .LVU623
 2049              	.LBB500:
 2050              		.loc 1 612 3 view .LVU624
 2051              		.loc 1 612 3 view .LVU625
 2052              		.loc 1 615 3 view .LVU626
 2053              		.loc 1 615 19 is_stmt 0 view .LVU627
 2054 003e 8B4610   		movl	16(%esi), %eax
 2055              		.loc 1 615 28 view .LVU628
 2056 0041 8D5004   		leal	4(%eax), %edx
 2057              		.loc 1 616 28 view .LVU629
 2058 0044 03461C   		addl	28(%esi), %eax
 2059              		.loc 1 615 28 view .LVU630
 2060 0047 895628   		movl	%edx, 40(%esi)
 2061              		.loc 1 616 3 is_stmt 1 view .LVU631
 2062              		.loc 1 616 13 is_stmt 0 view .LVU632
 2063 004a 89462C   		movl	%eax, 44(%esi)
 2064              		.loc 1 618 3 is_stmt 1 view .LVU633
 2065              	.LVL90:
 2066              		.loc 1 616 13 is_stmt 0 view .LVU634
 2067 004d 31C0     		xorl	%eax, %eax
 2068              	.L84:
 2069              	.LBE500:
 2070              	.LBE499:
 2071              		.loc 1 619 1 view .LVU635
 2072 004f 5B       		popl	%ebx
 2073              		.cfi_remember_state
 2074              		.cfi_restore 3
 2075              		.cfi_def_cfa_offset 12
 2076 0050 5E       		popl	%esi
 2077              		.cfi_restore 6
 2078              		.cfi_def_cfa_offset 8
 2079 0051 5F       		popl	%edi
 2080              		.cfi_restore 7
 2081              		.cfi_def_cfa_offset 4
 2082 0052 C3       		ret
 2083              		.p2align 4,,10
 2084 0053 8D742600 		.p2align 3
 2084      90
GAS LISTING /tmp/cccyco2T.s 			page 39


 2085              	.L88:
 2086              		.cfi_restore_state
 2087 0058 5B       		popl	%ebx
 2088              		.cfi_restore 3
 2089              		.cfi_def_cfa_offset 12
 2090              	.LBB501:
 2091              		.loc 1 604 14 view .LVU636
 2092 0059 B8FEFFFF 		movl	$-2, %eax
 2092      FF
 2093              	.LBE501:
 2094              		.loc 1 619 1 view .LVU637
 2095 005e 5E       		popl	%esi
 2096              		.cfi_restore 6
 2097              		.cfi_def_cfa_offset 8
 2098 005f 5F       		popl	%edi
 2099              		.cfi_restore 7
 2100              		.cfi_def_cfa_offset 4
 2101 0060 C3       		ret
 2102              		.cfi_endproc
 2103              	.LFE248:
 2104              		.size	obqGetEmptyBufferTimeoutS, .-obqGetEmptyBufferTimeoutS
 2105              		.section	.text.obqGetEmptyBufferTimeout,"ax",@progbits
 2106              		.p2align 4,,15
 2107              		.globl	obqGetEmptyBufferTimeout
 2108              		.type	obqGetEmptyBufferTimeout, @function
 2109              	obqGetEmptyBufferTimeout:
 2110              	.LVL91:
 2111              	.LFB247:
 2112              		.loc 1 566 56 is_stmt 1 view -0
 2113              		.cfi_startproc
 2114              		.loc 1 567 3 view .LVU639
 2115              		.loc 1 569 3 view .LVU640
 2116              	.LBB502:
 2117              	.LBI502:
 2118              		.loc 2 509 20 view .LVU641
 2119              	.LBE502:
 2120              		.loc 2 511 3 view .LVU642
 2121              	.LBB510:
 2122              	.LBB503:
 2123              	.LBI503:
 2124              		.loc 5 353 20 view .LVU643
 2125              	.LBE503:
 2126              	.LBE510:
 2127              		.loc 5 355 3 view .LVU644
 2128              	.LBB511:
 2129              	.LBB508:
 2130              	.LBB504:
 2131              	.LBI504:
 2132              		.loc 6 362 20 view .LVU645
 2133              	.LBB505:
 2134              		.loc 6 364 3 view .LVU646
 2135 0000 E8FCFFFF 		call	__x86.get_pc_thunk.ax
 2135      FF
 2136 0005 05010000 		addl	$_GLOBAL_OFFSET_TABLE_, %eax
 2136      00
 2137              	.LBE505:
 2138              	.LBE504:
GAS LISTING /tmp/cccyco2T.s 			page 40


 2139              	.LBE508:
 2140              	.LBE511:
 2141              		.loc 1 566 56 is_stmt 0 view .LVU647
 2142 000a 53       		pushl	%ebx
 2143              		.cfi_def_cfa_offset 8
 2144              		.cfi_offset 3, -8
 2145 000b 83EC10   		subl	$16, %esp
 2146              		.cfi_def_cfa_offset 24
 2147              		.loc 1 570 9 view .LVU648
 2148 000e FF74241C 		pushl	28(%esp)
 2149              		.cfi_def_cfa_offset 28
 2150 0012 FF74241C 		pushl	28(%esp)
 2151              		.cfi_def_cfa_offset 32
 2152              	.LBB512:
 2153              	.LBB509:
 2154              	.LBB507:
 2155              	.LBB506:
 2156              		.loc 6 364 16 view .LVU649
 2157 0016 8B980000 		movl	port_irq_sts@GOT(%eax), %ebx
 2157      0000
 2158 001c C7030100 		movl	$1, (%ebx)
 2158      0000
 2159              	.LBE506:
 2160              	.LBE507:
 2161              	.LBE509:
 2162              	.LBE512:
 2163              		.loc 5 356 34 is_stmt 1 view .LVU650
 2164              		.loc 5 357 20 view .LVU651
 2165              		.loc 1 570 3 view .LVU652
 2166              		.loc 1 570 9 is_stmt 0 view .LVU653
 2167 0022 E8FCFFFF 		call	obqGetEmptyBufferTimeoutS
 2167      FF
 2168              	.LVL92:
 2169              		.loc 1 571 3 is_stmt 1 view .LVU654
 2170              	.LBB513:
 2171              	.LBI513:
 2172              		.loc 2 520 20 view .LVU655
 2173              	.LBE513:
 2174              		.loc 2 522 3 view .LVU656
 2175              	.LBB518:
 2176              	.LBB514:
 2177              	.LBI514:
 2178              		.loc 5 365 20 view .LVU657
 2179              	.LBB515:
 2180              		.loc 5 367 22 view .LVU658
 2181              		.loc 5 368 33 view .LVU659
 2182              		.loc 5 374 3 view .LVU660
 2183              		.loc 5 374 3 view .LVU661
 2184              		.loc 5 378 3 view .LVU662
 2185              	.LBB516:
 2186              	.LBI516:
 2187              		.loc 6 371 20 view .LVU663
 2188              	.LBB517:
 2189              		.loc 6 373 3 view .LVU664
 2190              		.loc 6 373 16 is_stmt 0 view .LVU665
 2191 0027 C7030000 		movl	$0, (%ebx)
 2191      0000
GAS LISTING /tmp/cccyco2T.s 			page 41


 2192              	.LBE517:
 2193              	.LBE516:
 2194              	.LBE515:
 2195              	.LBE514:
 2196              	.LBE518:
 2197              		.loc 1 573 3 is_stmt 1 view .LVU666
 2198              		.loc 1 574 1 is_stmt 0 view .LVU667
 2199 002d 83C418   		addl	$24, %esp
 2200              		.cfi_def_cfa_offset 8
 2201 0030 5B       		popl	%ebx
 2202              		.cfi_restore 3
 2203              		.cfi_def_cfa_offset 4
 2204 0031 C3       		ret
 2205              		.cfi_endproc
 2206              	.LFE247:
 2207              		.size	obqGetEmptyBufferTimeout, .-obqGetEmptyBufferTimeout
 2208              		.section	.text.obqPostFullBuffer,"ax",@progbits
 2209              		.p2align 4,,15
 2210              		.globl	obqPostFullBuffer
 2211              		.type	obqPostFullBuffer, @function
 2212              	obqPostFullBuffer:
 2213              	.LVL93:
 2214              	.LFB249:
 2215              		.loc 1 630 67 is_stmt 1 view -0
 2216              		.cfi_startproc
 2217              		.loc 1 632 3 view .LVU669
 2218              	.LBB519:
 2219              	.LBI519:
 2220              		.loc 2 509 20 view .LVU670
 2221              	.LBE519:
 2222              		.loc 2 511 3 view .LVU671
 2223              	.LBB530:
 2224              	.LBB520:
 2225              	.LBI520:
 2226              		.loc 5 353 20 view .LVU672
 2227              	.LBE520:
 2228              	.LBE530:
 2229              		.loc 5 355 3 view .LVU673
 2230              	.LBB531:
 2231              	.LBB527:
 2232              	.LBB521:
 2233              	.LBI521:
 2234              		.loc 6 362 20 view .LVU674
 2235              	.LBB522:
 2236              		.loc 6 364 3 view .LVU675
 2237 0000 E8FCFFFF 		call	__x86.get_pc_thunk.dx
 2237      FF
 2238 0005 81C20200 		addl	$_GLOBAL_OFFSET_TABLE_, %edx
 2238      0000
 2239              	.LBE522:
 2240              	.LBE521:
 2241              	.LBE527:
 2242              	.LBE531:
 2243              		.loc 1 630 67 is_stmt 0 view .LVU676
 2244 000b 53       		pushl	%ebx
 2245              		.cfi_def_cfa_offset 8
 2246              		.cfi_offset 3, -8
GAS LISTING /tmp/cccyco2T.s 			page 42


 2247 000c 83EC08   		subl	$8, %esp
 2248              		.cfi_def_cfa_offset 16
 2249              		.loc 1 630 67 view .LVU677
 2250 000f 8B442410 		movl	16(%esp), %eax
 2251              	.LBB532:
 2252              	.LBB533:
 2253              		.loc 1 653 29 view .LVU678
 2254 0013 8B4C2414 		movl	20(%esp), %ecx
 2255              	.LBE533:
 2256              	.LBE532:
 2257              	.LBB536:
 2258              	.LBB528:
 2259              	.LBB525:
 2260              	.LBB523:
 2261              		.loc 6 364 16 view .LVU679
 2262 0017 8B9A0000 		movl	port_irq_sts@GOT(%edx), %ebx
 2262      0000
 2263              	.LBE523:
 2264              	.LBE525:
 2265              	.LBE528:
 2266              	.LBE536:
 2267              	.LBB537:
 2268              	.LBB534:
 2269              		.loc 1 653 19 view .LVU680
 2270 001d 8B5010   		movl	16(%eax), %edx
 2271              	.LBE534:
 2272              	.LBE537:
 2273              	.LBB538:
 2274              	.LBB529:
 2275              	.LBB526:
 2276              	.LBB524:
 2277              		.loc 6 364 16 view .LVU681
 2278 0020 C7030100 		movl	$1, (%ebx)
 2278      0000
 2279              	.LBE524:
 2280              	.LBE526:
 2281              	.LBE529:
 2282              	.LBE538:
 2283              		.loc 5 356 34 is_stmt 1 view .LVU682
 2284              		.loc 5 357 20 view .LVU683
 2285              		.loc 1 633 3 view .LVU684
 2286              	.LVL94:
 2287              	.LBB539:
 2288              	.LBI532:
 2289              		.loc 1 646 6 view .LVU685
 2290              	.LBB535:
 2291              		.loc 1 648 23 view .LVU686
 2292              		.loc 1 649 3 view .LVU687
 2293              		.loc 1 649 3 view .LVU688
 2294              		.loc 1 650 3 view .LVU689
 2295              		.loc 1 650 3 view .LVU690
 2296              		.loc 1 653 3 view .LVU691
 2297              		.loc 1 653 29 is_stmt 0 view .LVU692
 2298 0026 890A     		movl	%ecx, (%edx)
 2299              		.loc 1 656 3 is_stmt 1 view .LVU693
 2300              		.loc 1 656 7 is_stmt 0 view .LVU694
 2301 0028 8B480C   		movl	12(%eax), %ecx
GAS LISTING /tmp/cccyco2T.s 			page 43


 2302              	.LVL95:
 2303              		.loc 1 657 16 view .LVU695
 2304 002b 03501C   		addl	28(%eax), %edx
 2305              		.loc 1 656 17 view .LVU696
 2306 002e 83E901   		subl	$1, %ecx
 2307              		.loc 1 657 16 view .LVU697
 2308 0031 895010   		movl	%edx, 16(%eax)
 2309              		.loc 1 656 17 view .LVU698
 2310 0034 89480C   		movl	%ecx, 12(%eax)
 2311              		.loc 1 657 3 is_stmt 1 view .LVU699
 2312              		.loc 1 658 3 view .LVU700
 2313              		.loc 1 658 6 is_stmt 0 view .LVU701
 2314 0037 3B5018   		cmpl	24(%eax), %edx
 2315 003a 7206     		jb	.L93
 2316              		.loc 1 659 5 is_stmt 1 view .LVU702
 2317              		.loc 1 659 18 is_stmt 0 view .LVU703
 2318 003c 8B5024   		movl	36(%eax), %edx
 2319 003f 895010   		movl	%edx, 16(%eax)
 2320              	.L93:
 2321              		.loc 1 663 3 is_stmt 1 view .LVU704
 2322              		.loc 1 666 11 is_stmt 0 view .LVU705
 2323 0042 8B5030   		movl	48(%eax), %edx
 2324              		.loc 1 663 13 view .LVU706
 2325 0045 C7402800 		movl	$0, 40(%eax)
 2325      000000
 2326              		.loc 1 666 3 is_stmt 1 view .LVU707
 2327              		.loc 1 666 6 is_stmt 0 view .LVU708
 2328 004c 85D2     		testl	%edx, %edx
 2329 004e 7409     		je	.L94
 2330              		.loc 1 667 5 is_stmt 1 view .LVU709
 2331 0050 83EC0C   		subl	$12, %esp
 2332              		.cfi_def_cfa_offset 28
 2333 0053 50       		pushl	%eax
 2334              		.cfi_def_cfa_offset 32
 2335 0054 FFD2     		call	*%edx
 2336              	.LVL96:
 2337              		.loc 1 667 5 is_stmt 0 view .LVU710
 2338 0056 83C410   		addl	$16, %esp
 2339              		.cfi_def_cfa_offset 16
 2340              	.L94:
 2341              	.LVL97:
 2342              		.loc 1 667 5 view .LVU711
 2343              	.LBE535:
 2344              	.LBE539:
 2345              		.loc 1 634 3 is_stmt 1 view .LVU712
 2346              	.LBB540:
 2347              	.LBI540:
 2348              		.loc 2 520 20 view .LVU713
 2349              	.LBE540:
 2350              		.loc 2 522 3 view .LVU714
 2351              	.LBB545:
 2352              	.LBB541:
 2353              	.LBI541:
 2354              		.loc 5 365 20 view .LVU715
 2355              	.LBB542:
 2356              		.loc 5 367 22 view .LVU716
 2357              		.loc 5 368 33 view .LVU717
GAS LISTING /tmp/cccyco2T.s 			page 44


 2358              		.loc 5 374 3 view .LVU718
 2359              		.loc 5 374 3 view .LVU719
 2360              		.loc 5 378 3 view .LVU720
 2361              	.LBB543:
 2362              	.LBI543:
 2363              		.loc 6 371 20 view .LVU721
 2364              	.LBB544:
 2365              		.loc 6 373 3 view .LVU722
 2366              		.loc 6 373 16 is_stmt 0 view .LVU723
 2367 0059 C7030000 		movl	$0, (%ebx)
 2367      0000
 2368              	.LBE544:
 2369              	.LBE543:
 2370              	.LBE542:
 2371              	.LBE541:
 2372              	.LBE545:
 2373              		.loc 1 635 1 view .LVU724
 2374 005f 83C408   		addl	$8, %esp
 2375              		.cfi_def_cfa_offset 8
 2376 0062 5B       		popl	%ebx
 2377              		.cfi_restore 3
 2378              		.cfi_def_cfa_offset 4
 2379 0063 C3       		ret
 2380              		.cfi_endproc
 2381              	.LFE249:
 2382              		.size	obqPostFullBuffer, .-obqPostFullBuffer
 2383              		.section	.text.obqPostFullBufferS,"ax",@progbits
 2384              		.p2align 4,,15
 2385              		.globl	obqPostFullBufferS
 2386              		.type	obqPostFullBufferS, @function
 2387              	obqPostFullBufferS:
 2388              	.LVL98:
 2389              	.LFB250:
 2390              		.loc 1 646 68 is_stmt 1 view -0
 2391              		.cfi_startproc
 2392              		.loc 1 648 23 view .LVU726
 2393              		.loc 1 649 3 view .LVU727
 2394              		.loc 1 649 3 view .LVU728
 2395              		.loc 1 650 3 view .LVU729
 2396              		.loc 1 650 3 view .LVU730
 2397              		.loc 1 653 3 view .LVU731
 2398              		.loc 1 646 68 is_stmt 0 view .LVU732
 2399 0000 8B442404 		movl	4(%esp), %eax
 2400              		.loc 1 653 29 view .LVU733
 2401 0004 8B4C2408 		movl	8(%esp), %ecx
 2402              		.loc 1 653 19 view .LVU734
 2403 0008 8B5010   		movl	16(%eax), %edx
 2404              		.loc 1 653 29 view .LVU735
 2405 000b 890A     		movl	%ecx, (%edx)
 2406              		.loc 1 656 3 is_stmt 1 view .LVU736
 2407              		.loc 1 656 7 is_stmt 0 view .LVU737
 2408 000d 8B480C   		movl	12(%eax), %ecx
 2409              		.loc 1 657 16 view .LVU738
 2410 0010 03501C   		addl	28(%eax), %edx
 2411              		.loc 1 656 17 view .LVU739
 2412 0013 83E901   		subl	$1, %ecx
 2413              		.loc 1 657 16 view .LVU740
GAS LISTING /tmp/cccyco2T.s 			page 45


 2414 0016 895010   		movl	%edx, 16(%eax)
 2415              		.loc 1 656 17 view .LVU741
 2416 0019 89480C   		movl	%ecx, 12(%eax)
 2417              		.loc 1 657 3 is_stmt 1 view .LVU742
 2418              		.loc 1 658 3 view .LVU743
 2419              		.loc 1 658 6 is_stmt 0 view .LVU744
 2420 001c 3B5018   		cmpl	24(%eax), %edx
 2421 001f 7206     		jb	.L100
 2422              		.loc 1 659 5 is_stmt 1 view .LVU745
 2423              		.loc 1 659 18 is_stmt 0 view .LVU746
 2424 0021 8B5024   		movl	36(%eax), %edx
 2425 0024 895010   		movl	%edx, 16(%eax)
 2426              	.L100:
 2427              		.loc 1 663 3 is_stmt 1 view .LVU747
 2428              		.loc 1 666 11 is_stmt 0 view .LVU748
 2429 0027 8B5030   		movl	48(%eax), %edx
 2430              		.loc 1 663 13 view .LVU749
 2431 002a C7402800 		movl	$0, 40(%eax)
 2431      000000
 2432              		.loc 1 666 3 is_stmt 1 view .LVU750
 2433              		.loc 1 666 6 is_stmt 0 view .LVU751
 2434 0031 85D2     		testl	%edx, %edx
 2435 0033 740B     		je	.L99
 2436              		.loc 1 667 5 is_stmt 1 view .LVU752
 2437 0035 89442404 		movl	%eax, 4(%esp)
 2438              	.LVL99:
 2439              		.loc 1 667 5 is_stmt 0 view .LVU753
 2440 0039 FFE2     		jmp	*%edx
 2441              	.LVL100:
 2442 003b 8D742600 		.p2align 4,,10
 2442      90
 2443              		.p2align 3
 2444              	.L99:
 2445              		.loc 1 669 1 view .LVU754
 2446 0040 C3       		ret
 2447              		.cfi_endproc
 2448              	.LFE250:
 2449              		.size	obqPostFullBufferS, .-obqPostFullBufferS
 2450              		.section	.text.obqPutTimeout,"ax",@progbits
 2451              		.p2align 4,,15
 2452              		.globl	obqPutTimeout
 2453              		.type	obqPutTimeout, @function
 2454              	obqPutTimeout:
 2455              	.LVL101:
 2456              	.LFB251:
 2457              		.loc 1 692 44 is_stmt 1 view -0
 2458              		.cfi_startproc
 2459              		.loc 1 693 3 view .LVU756
 2460              		.loc 1 695 3 view .LVU757
 2461              	.LBB546:
 2462              	.LBI546:
 2463              		.loc 2 509 20 view .LVU758
 2464              	.LBE546:
 2465              		.loc 2 511 3 view .LVU759
 2466              	.LBB557:
 2467              	.LBB547:
 2468              	.LBI547:
GAS LISTING /tmp/cccyco2T.s 			page 46


 2469              		.loc 5 353 20 view .LVU760
 2470              	.LBE547:
 2471              	.LBE557:
 2472              		.loc 5 355 3 view .LVU761
 2473              	.LBB558:
 2474              	.LBB554:
 2475              	.LBB548:
 2476              	.LBI548:
 2477              		.loc 6 362 20 view .LVU762
 2478              	.LBB549:
 2479              		.loc 6 364 3 view .LVU763
 2480 0000 E8FCFFFF 		call	__x86.get_pc_thunk.ax
 2480      FF
 2481 0005 05010000 		addl	$_GLOBAL_OFFSET_TABLE_, %eax
 2481      00
 2482              	.LBE549:
 2483              	.LBE548:
 2484              	.LBE554:
 2485              	.LBE558:
 2486              		.loc 1 692 44 is_stmt 0 view .LVU764
 2487 000a 57       		pushl	%edi
 2488              		.cfi_def_cfa_offset 8
 2489              		.cfi_offset 7, -8
 2490 000b 56       		pushl	%esi
 2491              		.cfi_def_cfa_offset 12
 2492              		.cfi_offset 6, -12
 2493 000c 53       		pushl	%ebx
 2494              		.cfi_def_cfa_offset 16
 2495              		.cfi_offset 3, -16
 2496              		.loc 1 692 44 view .LVU765
 2497 000d 8B5C2410 		movl	16(%esp), %ebx
 2498 0011 8B7C2414 		movl	20(%esp), %edi
 2499              	.LBB559:
 2500              	.LBB555:
 2501              	.LBB552:
 2502              	.LBB550:
 2503              		.loc 6 364 16 view .LVU766
 2504 0015 8BB00000 		movl	port_irq_sts@GOT(%eax), %esi
 2504      0000
 2505              	.LBE550:
 2506              	.LBE552:
 2507              	.LBE555:
 2508              	.LBE559:
 2509              		.loc 1 698 11 view .LVU767
 2510 001b 8B4328   		movl	40(%ebx), %eax
 2511              	.LBB560:
 2512              	.LBB556:
 2513              	.LBB553:
 2514              	.LBB551:
 2515              		.loc 6 364 16 view .LVU768
 2516 001e C7060100 		movl	$1, (%esi)
 2516      0000
 2517              	.LBE551:
 2518              	.LBE553:
 2519              	.LBE556:
 2520              	.LBE560:
 2521              		.loc 5 356 34 is_stmt 1 view .LVU769
GAS LISTING /tmp/cccyco2T.s 			page 47


 2522              		.loc 5 357 20 view .LVU770
 2523              		.loc 1 698 3 view .LVU771
 2524              		.loc 1 698 6 is_stmt 0 view .LVU772
 2525 0024 85C0     		testl	%eax, %eax
 2526 0026 7460     		je	.L114
 2527              	.L103:
 2528              		.loc 1 707 3 is_stmt 1 view .LVU773
 2529              		.loc 1 707 14 is_stmt 0 view .LVU774
 2530 0028 89F9     		movl	%edi, %ecx
 2531 002a 8808     		movb	%cl, (%eax)
 2532              		.loc 1 708 3 is_stmt 1 view .LVU775
 2533              		.loc 1 708 12 is_stmt 0 view .LVU776
 2534 002c 8B4328   		movl	40(%ebx), %eax
 2535 002f 83C001   		addl	$1, %eax
 2536 0032 894328   		movl	%eax, 40(%ebx)
 2537              		.loc 1 712 3 is_stmt 1 view .LVU777
 2538              		.loc 1 712 6 is_stmt 0 view .LVU778
 2539 0035 3B432C   		cmpl	44(%ebx), %eax
 2540 0038 723C     		jb	.L107
 2541              		.loc 1 713 5 is_stmt 1 view .LVU779
 2542              	.LVL102:
 2543              	.LBB561:
 2544              	.LBI561:
 2545              		.loc 1 646 6 view .LVU780
 2546              	.LBB562:
 2547              		.loc 1 648 23 view .LVU781
 2548              		.loc 1 649 3 view .LVU782
 2549              		.loc 1 649 3 view .LVU783
 2550              		.loc 1 650 3 view .LVU784
 2551              		.loc 1 650 3 view .LVU785
 2552              		.loc 1 653 3 view .LVU786
 2553              	.LBE562:
 2554              	.LBE561:
 2555              		.loc 1 713 5 is_stmt 0 view .LVU787
 2556 003a 8B4B1C   		movl	28(%ebx), %ecx
 2557              	.LBB565:
 2558              	.LBB563:
 2559              		.loc 1 653 19 view .LVU788
 2560 003d 8B4310   		movl	16(%ebx), %eax
 2561              	.LBE563:
 2562              	.LBE565:
 2563              		.loc 1 713 5 view .LVU789
 2564 0040 8D51FC   		leal	-4(%ecx), %edx
 2565              	.LVL103:
 2566              	.LBB566:
 2567              	.LBB564:
 2568              		.loc 1 653 29 view .LVU790
 2569 0043 8910     		movl	%edx, (%eax)
 2570              		.loc 1 656 3 is_stmt 1 view .LVU791
 2571              		.loc 1 656 7 is_stmt 0 view .LVU792
 2572 0045 8B530C   		movl	12(%ebx), %edx
 2573              	.LVL104:
 2574              		.loc 1 657 16 view .LVU793
 2575 0048 03431C   		addl	28(%ebx), %eax
 2576              	.LVL105:
 2577              		.loc 1 656 17 view .LVU794
 2578 004b 83EA01   		subl	$1, %edx
GAS LISTING /tmp/cccyco2T.s 			page 48


 2579              		.loc 1 657 16 view .LVU795
 2580 004e 894310   		movl	%eax, 16(%ebx)
 2581              	.LVL106:
 2582              		.loc 1 656 17 view .LVU796
 2583 0051 89530C   		movl	%edx, 12(%ebx)
 2584              		.loc 1 657 3 is_stmt 1 view .LVU797
 2585              		.loc 1 658 3 view .LVU798
 2586              		.loc 1 658 6 is_stmt 0 view .LVU799
 2587 0054 3B4318   		cmpl	24(%ebx), %eax
 2588 0057 7206     		jb	.L108
 2589              		.loc 1 659 5 is_stmt 1 view .LVU800
 2590              		.loc 1 659 18 is_stmt 0 view .LVU801
 2591 0059 8B4324   		movl	36(%ebx), %eax
 2592 005c 894310   		movl	%eax, 16(%ebx)
 2593              	.L108:
 2594              		.loc 1 663 3 is_stmt 1 view .LVU802
 2595              		.loc 1 666 11 is_stmt 0 view .LVU803
 2596 005f 8B4330   		movl	48(%ebx), %eax
 2597              		.loc 1 663 13 view .LVU804
 2598 0062 C7432800 		movl	$0, 40(%ebx)
 2598      000000
 2599              		.loc 1 666 3 is_stmt 1 view .LVU805
 2600              		.loc 1 666 6 is_stmt 0 view .LVU806
 2601 0069 85C0     		testl	%eax, %eax
 2602 006b 7409     		je	.L107
 2603              		.loc 1 667 5 is_stmt 1 view .LVU807
 2604 006d 83EC0C   		subl	$12, %esp
 2605              		.cfi_def_cfa_offset 28
 2606 0070 53       		pushl	%ebx
 2607              		.cfi_def_cfa_offset 32
 2608 0071 FFD0     		call	*%eax
 2609              	.LVL107:
 2610              		.loc 1 667 5 is_stmt 0 view .LVU808
 2611 0073 83C410   		addl	$16, %esp
 2612              		.cfi_def_cfa_offset 16
 2613              	.LVL108:
 2614              	.L107:
 2615              		.loc 1 667 5 view .LVU809
 2616              	.LBE564:
 2617              	.LBE566:
 2618              		.loc 1 716 3 is_stmt 1 view .LVU810
 2619              	.LBB567:
 2620              	.LBI567:
 2621              		.loc 2 520 20 view .LVU811
 2622              	.LBE567:
 2623              		.loc 2 522 3 view .LVU812
 2624              	.LBB572:
 2625              	.LBB568:
 2626              	.LBI568:
 2627              		.loc 5 365 20 view .LVU813
 2628              	.LBB569:
 2629              		.loc 5 367 22 view .LVU814
 2630              		.loc 5 368 33 view .LVU815
 2631              		.loc 5 374 3 view .LVU816
 2632              		.loc 5 374 3 view .LVU817
 2633              		.loc 5 378 3 view .LVU818
 2634              	.LBB570:
GAS LISTING /tmp/cccyco2T.s 			page 49


 2635              	.LBI570:
 2636              		.loc 6 371 20 view .LVU819
 2637              	.LBB571:
 2638              		.loc 6 373 3 view .LVU820
 2639              		.loc 6 373 16 is_stmt 0 view .LVU821
 2640 0076 C7060000 		movl	$0, (%esi)
 2640      0000
 2641              	.LBE571:
 2642              	.LBE570:
 2643              	.LBE569:
 2644              	.LBE568:
 2645              	.LBE572:
 2646              		.loc 1 717 3 is_stmt 1 view .LVU822
 2647              		.loc 1 717 10 is_stmt 0 view .LVU823
 2648 007c 31C0     		xorl	%eax, %eax
 2649              	.L102:
 2650              		.loc 1 718 1 view .LVU824
 2651 007e 5B       		popl	%ebx
 2652              		.cfi_remember_state
 2653              		.cfi_restore 3
 2654              		.cfi_def_cfa_offset 12
 2655 007f 5E       		popl	%esi
 2656              		.cfi_restore 6
 2657              		.cfi_def_cfa_offset 8
 2658 0080 5F       		popl	%edi
 2659              		.cfi_restore 7
 2660              		.cfi_def_cfa_offset 4
 2661 0081 C3       		ret
 2662              	.LVL109:
 2663              		.p2align 4,,10
 2664 0082 8DB60000 		.p2align 3
 2664      0000
 2665              	.L114:
 2666              		.cfi_restore_state
 2667              		.loc 1 699 5 is_stmt 1 view .LVU825
 2668              		.loc 1 699 11 is_stmt 0 view .LVU826
 2669 0088 83EC08   		subl	$8, %esp
 2670              		.cfi_def_cfa_offset 24
 2671 008b FF742420 		pushl	32(%esp)
 2672              		.cfi_def_cfa_offset 28
 2673 008f 53       		pushl	%ebx
 2674              		.cfi_def_cfa_offset 32
 2675 0090 E8FCFFFF 		call	obqGetEmptyBufferTimeoutS
 2675      FF
 2676              	.LVL110:
 2677              		.loc 1 700 5 is_stmt 1 view .LVU827
 2678              		.loc 1 700 8 is_stmt 0 view .LVU828
 2679 0095 83C410   		addl	$16, %esp
 2680              		.cfi_def_cfa_offset 16
 2681 0098 85C0     		testl	%eax, %eax
 2682 009a 750C     		jne	.L104
 2683 009c 8B4328   		movl	40(%ebx), %eax
 2684              	.LVL111:
 2685              		.loc 1 700 8 view .LVU829
 2686 009f EB87     		jmp	.L103
 2687              	.LVL112:
 2688              		.p2align 4,,10
GAS LISTING /tmp/cccyco2T.s 			page 50


 2689 00a1 8DB42600 		.p2align 3
 2689      000000
 2690              	.L104:
 2691              		.loc 1 701 7 is_stmt 1 view .LVU830
 2692              	.LBB573:
 2693              	.LBI573:
 2694              		.loc 2 520 20 view .LVU831
 2695              	.LBE573:
 2696              		.loc 2 522 3 view .LVU832
 2697              	.LBB578:
 2698              	.LBB574:
 2699              	.LBI574:
 2700              		.loc 5 365 20 view .LVU833
 2701              	.LBB575:
 2702              		.loc 5 367 22 view .LVU834
 2703              		.loc 5 368 33 view .LVU835
 2704              		.loc 5 374 3 view .LVU836
 2705              		.loc 5 374 3 view .LVU837
 2706              		.loc 5 378 3 view .LVU838
 2707              	.LBB576:
 2708              	.LBI576:
 2709              		.loc 6 371 20 view .LVU839
 2710              	.LBB577:
 2711              		.loc 6 373 3 view .LVU840
 2712              		.loc 6 373 16 is_stmt 0 view .LVU841
 2713 00a8 C7060000 		movl	$0, (%esi)
 2713      0000
 2714              	.LBE577:
 2715              	.LBE576:
 2716              	.LBE575:
 2717              	.LBE574:
 2718              	.LBE578:
 2719              		.loc 1 702 7 is_stmt 1 view .LVU842
 2720              		.loc 1 702 14 is_stmt 0 view .LVU843
 2721 00ae EBCE     		jmp	.L102
 2722              		.cfi_endproc
 2723              	.LFE251:
 2724              		.size	obqPutTimeout, .-obqPutTimeout
 2725              		.section	.text.obqWriteTimeout,"ax",@progbits
 2726              		.p2align 4,,15
 2727              		.globl	obqWriteTimeout
 2728              		.type	obqWriteTimeout, @function
 2729              	obqWriteTimeout:
 2730              	.LVL113:
 2731              	.LFB252:
 2732              		.loc 1 742 57 is_stmt 1 view -0
 2733              		.cfi_startproc
 2734              		.loc 1 743 3 view .LVU845
 2735              		.loc 1 744 3 view .LVU846
 2736              		.loc 1 746 3 view .LVU847
 2737              		.loc 1 746 3 view .LVU848
 2738              		.loc 1 748 3 view .LVU849
 2739              	.LBB579:
 2740              	.LBI579:
 2741              		.loc 2 509 20 view .LVU850
 2742              	.LBE579:
 2743              		.loc 2 511 3 view .LVU851
GAS LISTING /tmp/cccyco2T.s 			page 51


 2744              	.LBB590:
 2745              	.LBB580:
 2746              	.LBI580:
 2747              		.loc 5 353 20 view .LVU852
 2748              	.LBE580:
 2749              	.LBE590:
 2750              		.loc 5 355 3 view .LVU853
 2751              	.LBB591:
 2752              	.LBB587:
 2753              	.LBB581:
 2754              	.LBI581:
 2755              		.loc 6 362 20 view .LVU854
 2756              	.LBB582:
 2757              		.loc 6 364 3 view .LVU855
 2758 0000 E8FCFFFF 		call	__x86.get_pc_thunk.ax
 2758      FF
 2759 0005 05010000 		addl	$_GLOBAL_OFFSET_TABLE_, %eax
 2759      00
 2760              	.LBE582:
 2761              	.LBE581:
 2762              	.LBE587:
 2763              	.LBE591:
 2764              		.loc 1 742 57 is_stmt 0 view .LVU856
 2765 000a 55       		pushl	%ebp
 2766              		.cfi_def_cfa_offset 8
 2767              		.cfi_offset 5, -8
 2768              		.loc 1 743 10 view .LVU857
 2769 000b 31ED     		xorl	%ebp, %ebp
 2770              		.loc 1 742 57 view .LVU858
 2771 000d 57       		pushl	%edi
 2772              		.cfi_def_cfa_offset 12
 2773              		.cfi_offset 7, -12
 2774 000e 56       		pushl	%esi
 2775              		.cfi_def_cfa_offset 16
 2776              		.cfi_offset 6, -16
 2777 000f 53       		pushl	%ebx
 2778              		.cfi_def_cfa_offset 20
 2779              		.cfi_offset 3, -20
 2780 0010 83EC2C   		subl	$44, %esp
 2781              		.cfi_def_cfa_offset 64
 2782              	.LBB592:
 2783              	.LBB588:
 2784              	.LBB585:
 2785              	.LBB583:
 2786              		.loc 6 364 16 view .LVU859
 2787 0013 8B880000 		movl	port_irq_sts@GOT(%eax), %ecx
 2787      0000
 2788              	.LBE583:
 2789              	.LBE585:
 2790              	.LBE588:
 2791              	.LBE592:
 2792              		.loc 1 742 57 view .LVU860
 2793 0019 8B742440 		movl	64(%esp), %esi
 2794 001d 8B7C2444 		movl	68(%esp), %edi
 2795 0021 89442410 		movl	%eax, 16(%esp)
 2796              	.LBB593:
 2797              	.LBB594:
GAS LISTING /tmp/cccyco2T.s 			page 52


 2798              	.LBB595:
 2799              		.loc 7 118 19 view .LVU861
 2800 0025 8B800000 		movl	ch@GOT(%eax), %eax
 2800      0000
 2801              	.LBE595:
 2802              	.LBE594:
 2803              	.LBE593:
 2804              	.LBB598:
 2805              	.LBB589:
 2806              	.LBB586:
 2807              	.LBB584:
 2808              		.loc 6 364 16 view .LVU862
 2809 002b 894C2408 		movl	%ecx, 8(%esp)
 2810 002f C7010100 		movl	$1, (%ecx)
 2810      0000
 2811              	.LBE584:
 2812              	.LBE586:
 2813              	.LBE589:
 2814              	.LBE598:
 2815              		.loc 5 356 34 is_stmt 1 view .LVU863
 2816              		.loc 5 357 20 view .LVU864
 2817              		.loc 1 751 3 view .LVU865
 2818              	.LBB599:
 2819              	.LBI593:
 2820              		.loc 2 634 25 view .LVU866
 2821              	.LBE599:
 2822              		.loc 2 636 3 view .LVU867
 2823              	.LBB600:
 2824              	.LBB597:
 2825              	.LBI594:
 2826              		.loc 7 115 25 view .LVU868
 2827              	.LBB596:
 2828              		.loc 7 118 3 view .LVU869
 2829              		.loc 7 118 19 is_stmt 0 view .LVU870
 2830 0035 8944241C 		movl	%eax, 28(%esp)
 2831 0039 0FB74028 		movzwl	40(%eax), %eax
 2832              	.LVL114:
 2833              		.loc 7 118 19 view .LVU871
 2834              	.LBE596:
 2835              	.LBE597:
 2836              	.LBE600:
 2837              	.LBB601:
 2838              	.LBI601:
 2839              		.loc 2 648 25 is_stmt 1 view .LVU872
 2840              	.LBE601:
 2841              		.loc 2 651 3 view .LVU873
 2842              	.LBB604:
 2843              	.LBB602:
 2844              	.LBI602:
 2845              		.loc 8 472 25 view .LVU874
 2846              	.LBB603:
 2847              		.loc 8 476 3 view .LVU875
 2848              		.loc 8 476 3 view .LVU876
 2849              		.loc 8 479 3 view .LVU877
 2850              		.loc 8 479 18 is_stmt 0 view .LVU878
 2851 003d 66034424 		addw	76(%esp), %ax
 2851      4C
GAS LISTING /tmp/cccyco2T.s 			page 53


 2852              	.LVL115:
 2853              		.loc 8 479 18 view .LVU879
 2854 0042 66894424 		movw	%ax, 26(%esp)
 2854      1A
 2855              	.LVL116:
 2856              		.loc 8 479 18 view .LVU880
 2857              	.LBE603:
 2858              	.LBE602:
 2859              	.LBE604:
 2860              	.LBB605:
 2861              	.LBB606:
 2862              		.loc 1 762 38 view .LVU881
 2863 0047 8B44244C 		movl	76(%esp), %eax
 2864              	.LVL117:
 2865              		.loc 1 762 38 view .LVU882
 2866 004b 83E801   		subl	$1, %eax
 2867 004e 89442414 		movl	%eax, 20(%esp)
 2868 0052 E9CB0000 		jmp	.L129
 2868      00
 2869              	.LVL118:
 2870 0057 8DB42600 		.p2align 4,,10
 2870      00000066 
 2870      90
 2871              		.p2align 3
 2872              	.L135:
 2873              		.loc 1 762 38 view .LVU883
 2874              	.LBE606:
 2875              		.loc 1 796 7 is_stmt 1 view .LVU884
 2876              	.LBB630:
 2877              	.LBI630:
 2878              		.loc 9 31 1 view .LVU885
 2879              	.LBB631:
 2880              		.loc 9 34 3 view .LVU886
 2881              		.loc 9 34 10 is_stmt 0 view .LVU887
 2882 0060 8B17     		movl	(%edi), %edx
 2883              	.LVL119:
 2884              		.loc 9 34 10 view .LVU888
 2885              	.LBE631:
 2886              	.LBE630:
 2887              		.loc 1 799 17 view .LVU889
 2888 0062 83C540   		addl	$64, %ebp
 2889              	.LVL120:
 2890              		.loc 1 797 17 view .LVU890
 2891 0065 83C740   		addl	$64, %edi
 2892              	.LVL121:
 2893              	.LBB633:
 2894              	.LBB632:
 2895              		.loc 9 34 10 view .LVU891
 2896 0068 8910     		movl	%edx, (%eax)
 2897              	.LVL122:
 2898              		.loc 9 34 10 view .LVU892
 2899 006a 8B57C4   		movl	-60(%edi), %edx
 2900 006d 895004   		movl	%edx, 4(%eax)
 2901 0070 8B57C8   		movl	-56(%edi), %edx
 2902 0073 895008   		movl	%edx, 8(%eax)
 2903 0076 8B57CC   		movl	-52(%edi), %edx
 2904 0079 89500C   		movl	%edx, 12(%eax)
GAS LISTING /tmp/cccyco2T.s 			page 54


 2905 007c 8B57D0   		movl	-48(%edi), %edx
 2906 007f 895010   		movl	%edx, 16(%eax)
 2907 0082 8B57D4   		movl	-44(%edi), %edx
 2908 0085 895014   		movl	%edx, 20(%eax)
 2909 0088 8B57D8   		movl	-40(%edi), %edx
 2910 008b 895018   		movl	%edx, 24(%eax)
 2911 008e 8B57DC   		movl	-36(%edi), %edx
 2912 0091 89501C   		movl	%edx, 28(%eax)
 2913 0094 8B57E0   		movl	-32(%edi), %edx
 2914 0097 895020   		movl	%edx, 32(%eax)
 2915 009a 8B57E4   		movl	-28(%edi), %edx
 2916 009d 895024   		movl	%edx, 36(%eax)
 2917 00a0 8B57E8   		movl	-24(%edi), %edx
 2918 00a3 895028   		movl	%edx, 40(%eax)
 2919 00a6 8B57EC   		movl	-20(%edi), %edx
 2920 00a9 89502C   		movl	%edx, 44(%eax)
 2921 00ac 8B57F0   		movl	-16(%edi), %edx
 2922 00af 895030   		movl	%edx, 48(%eax)
 2923 00b2 8B57F4   		movl	-12(%edi), %edx
 2924 00b5 895034   		movl	%edx, 52(%eax)
 2925 00b8 8B57F8   		movl	-8(%edi), %edx
 2926 00bb 895038   		movl	%edx, 56(%eax)
 2927 00be 8B57FC   		movl	-4(%edi), %edx
 2928 00c1 89503C   		movl	%edx, 60(%eax)
 2929              	.LVL123:
 2930              		.loc 9 34 10 view .LVU893
 2931              	.LBE632:
 2932              	.LBE633:
 2933              		.loc 1 797 7 is_stmt 1 view .LVU894
 2934              		.loc 1 798 7 view .LVU895
 2935              		.loc 1 798 17 is_stmt 0 view .LVU896
 2936 00c4 8B4628   		movl	40(%esi), %eax
 2937 00c7 83C040   		addl	$64, %eax
 2938 00ca 894628   		movl	%eax, 40(%esi)
 2939              		.loc 1 799 7 is_stmt 1 view .LVU897
 2940              	.LVL124:
 2941              	.L123:
 2942              		.loc 1 809 5 view .LVU898
 2943              		.loc 1 809 8 is_stmt 0 view .LVU899
 2944 00cd 39462C   		cmpl	%eax, 44(%esi)
 2945 00d0 773C     		ja	.L125
 2946              		.loc 1 810 7 is_stmt 1 view .LVU900
 2947              	.LVL125:
 2948              	.LBB634:
 2949              	.LBI634:
 2950              		.loc 1 646 6 view .LVU901
 2951              	.LBB635:
 2952              		.loc 1 648 23 view .LVU902
 2953              		.loc 1 649 3 view .LVU903
 2954              		.loc 1 649 3 view .LVU904
 2955              		.loc 1 650 3 view .LVU905
 2956              		.loc 1 650 3 view .LVU906
 2957              		.loc 1 653 3 view .LVU907
 2958              	.LBE635:
 2959              	.LBE634:
 2960              		.loc 1 810 7 is_stmt 0 view .LVU908
 2961 00d2 8B4E1C   		movl	28(%esi), %ecx
GAS LISTING /tmp/cccyco2T.s 			page 55


 2962              	.LBB638:
 2963              	.LBB636:
 2964              		.loc 1 653 19 view .LVU909
 2965 00d5 8B4610   		movl	16(%esi), %eax
 2966              	.LBE636:
 2967              	.LBE638:
 2968              		.loc 1 810 7 view .LVU910
 2969 00d8 8D51FC   		leal	-4(%ecx), %edx
 2970              	.LVL126:
 2971              	.LBB639:
 2972              	.LBB637:
 2973              		.loc 1 653 29 view .LVU911
 2974 00db 8910     		movl	%edx, (%eax)
 2975              		.loc 1 656 3 is_stmt 1 view .LVU912
 2976              		.loc 1 656 7 is_stmt 0 view .LVU913
 2977 00dd 8B560C   		movl	12(%esi), %edx
 2978              	.LVL127:
 2979              		.loc 1 657 16 view .LVU914
 2980 00e0 03461C   		addl	28(%esi), %eax
 2981              	.LVL128:
 2982              		.loc 1 656 17 view .LVU915
 2983 00e3 83EA01   		subl	$1, %edx
 2984              		.loc 1 657 16 view .LVU916
 2985 00e6 894610   		movl	%eax, 16(%esi)
 2986              	.LVL129:
 2987              		.loc 1 656 17 view .LVU917
 2988 00e9 89560C   		movl	%edx, 12(%esi)
 2989              		.loc 1 657 3 is_stmt 1 view .LVU918
 2990              		.loc 1 658 3 view .LVU919
 2991              		.loc 1 658 6 is_stmt 0 view .LVU920
 2992 00ec 3B4618   		cmpl	24(%esi), %eax
 2993 00ef 7206     		jb	.L126
 2994              		.loc 1 659 5 is_stmt 1 view .LVU921
 2995              		.loc 1 659 18 is_stmt 0 view .LVU922
 2996 00f1 8B4624   		movl	36(%esi), %eax
 2997 00f4 894610   		movl	%eax, 16(%esi)
 2998              	.L126:
 2999              		.loc 1 663 3 is_stmt 1 view .LVU923
 3000              		.loc 1 666 11 is_stmt 0 view .LVU924
 3001 00f7 8B4630   		movl	48(%esi), %eax
 3002              		.loc 1 663 13 view .LVU925
 3003 00fa C7462800 		movl	$0, 40(%esi)
 3003      000000
 3004              		.loc 1 666 3 is_stmt 1 view .LVU926
 3005              		.loc 1 666 6 is_stmt 0 view .LVU927
 3006 0101 85C0     		testl	%eax, %eax
 3007 0103 7409     		je	.L125
 3008              		.loc 1 667 5 is_stmt 1 view .LVU928
 3009 0105 83EC0C   		subl	$12, %esp
 3010              		.cfi_def_cfa_offset 76
 3011 0108 56       		pushl	%esi
 3012              		.cfi_def_cfa_offset 80
 3013 0109 FFD0     		call	*%eax
 3014              	.LVL130:
 3015              		.loc 1 667 5 is_stmt 0 view .LVU929
 3016 010b 83C410   		addl	$16, %esp
 3017              		.cfi_def_cfa_offset 64
GAS LISTING /tmp/cccyco2T.s 			page 56


 3018              	.LVL131:
 3019              	.L125:
 3020              		.loc 1 667 5 view .LVU930
 3021              	.LBE637:
 3022              	.LBE639:
 3023              		.loc 1 814 5 is_stmt 1 view .LVU931
 3024              	.LBB640:
 3025              	.LBI640:
 3026              		.loc 2 520 20 view .LVU932
 3027              	.LBE640:
 3028              	.LBE605:
 3029              		.loc 2 522 3 view .LVU933
 3030              	.LBB669:
 3031              	.LBB653:
 3032              	.LBB641:
 3033              	.LBI641:
 3034              		.loc 5 365 20 view .LVU934
 3035              	.LBB642:
 3036              		.loc 5 367 22 view .LVU935
 3037              		.loc 5 368 33 view .LVU936
 3038              		.loc 5 374 3 view .LVU937
 3039              		.loc 5 374 3 view .LVU938
 3040              		.loc 5 378 3 view .LVU939
 3041              	.LBB643:
 3042              	.LBI643:
 3043              		.loc 6 371 20 view .LVU940
 3044              	.LBB644:
 3045              		.loc 6 373 3 view .LVU941
 3046              	.LBE644:
 3047              	.LBE643:
 3048              	.LBE642:
 3049              	.LBE641:
 3050              	.LBE653:
 3051              		.loc 1 815 5 view .LVU942
 3052              	.LBB654:
 3053              	.LBB651:
 3054              	.LBB649:
 3055              	.LBB647:
 3056              	.LBB645:
 3057              		.loc 6 373 16 is_stmt 0 view .LVU943
 3058 010e 8B442408 		movl	8(%esp), %eax
 3059              	.LBE645:
 3060              	.LBE647:
 3061              	.LBE649:
 3062              	.LBE651:
 3063              	.LBE654:
 3064              		.loc 1 815 8 view .LVU944
 3065 0112 3B6C2448 		cmpl	72(%esp), %ebp
 3066 0116 0F83B400 		jnb	.L128
 3066      0000
 3067              		.loc 1 818 5 is_stmt 1 view .LVU945
 3068              	.LBB655:
 3069              	.LBI655:
 3070              		.loc 2 509 20 view .LVU946
 3071              	.LBE655:
 3072              	.LBE669:
 3073              		.loc 2 511 3 view .LVU947
GAS LISTING /tmp/cccyco2T.s 			page 57


 3074              	.LBB670:
 3075              	.LBB660:
 3076              	.LBB656:
 3077              	.LBI656:
 3078              		.loc 5 353 20 view .LVU948
 3079              	.LBE656:
 3080              	.LBE660:
 3081              	.LBE670:
 3082              		.loc 5 355 3 view .LVU949
 3083              	.LBB671:
 3084              	.LBB661:
 3085              	.LBB659:
 3086              	.LBB657:
 3087              	.LBI657:
 3088              		.loc 6 362 20 view .LVU950
 3089              	.LBB658:
 3090              		.loc 6 364 3 view .LVU951
 3091              		.loc 6 364 16 is_stmt 0 view .LVU952
 3092 011c C7000100 		movl	$1, (%eax)
 3092      0000
 3093              	.LBE658:
 3094              	.LBE657:
 3095              	.LBE659:
 3096              	.LBE661:
 3097              	.LBE671:
 3098              		.loc 5 356 34 is_stmt 1 view .LVU953
 3099              		.loc 5 357 20 view .LVU954
 3100              	.LVL132:
 3101              	.L129:
 3102              		.loc 1 753 3 view .LVU955
 3103              	.LBB672:
 3104              		.loc 1 754 5 view .LVU956
 3105              		.loc 1 757 5 view .LVU957
 3106              		.loc 1 757 13 is_stmt 0 view .LVU958
 3107 0122 8B4628   		movl	40(%esi), %eax
 3108              		.loc 1 757 8 view .LVU959
 3109 0125 85C0     		testl	%eax, %eax
 3110 0127 7447     		je	.L134
 3111              	.L116:
 3112              		.loc 1 787 5 is_stmt 1 view .LVU960
 3113              		.loc 1 787 10 is_stmt 0 view .LVU961
 3114 0129 8B562C   		movl	44(%esi), %edx
 3115              		.loc 1 788 19 view .LVU962
 3116 012c 8B5C2448 		movl	72(%esp), %ebx
 3117              		.loc 1 787 10 view .LVU963
 3118 0130 29C2     		subl	%eax, %edx
 3119              	.LVL133:
 3120              		.loc 1 788 5 is_stmt 1 view .LVU964
 3121              		.loc 1 788 19 is_stmt 0 view .LVU965
 3122 0132 29EB     		subl	%ebp, %ebx
 3123 0134 39D3     		cmpl	%edx, %ebx
 3124 0136 0F46D3   		cmovbe	%ebx, %edx
 3125              	.LVL134:
 3126              		.loc 1 794 5 is_stmt 1 view .LVU966
 3127              		.loc 1 794 8 is_stmt 0 view .LVU967
 3128 0139 83FA40   		cmpl	$64, %edx
 3129 013c 0F871EFF 		ja	.L135
GAS LISTING /tmp/cccyco2T.s 			page 58


 3129      FFFF
 3130              		.loc 1 802 7 is_stmt 1 view .LVU968
 3131              	.LVL135:
 3132              	.LBB662:
 3133              	.LBI662:
 3134              		.loc 9 31 1 view .LVU969
 3135              	.LBB663:
 3136              		.loc 9 34 3 view .LVU970
 3137              		.loc 9 34 10 is_stmt 0 view .LVU971
 3138 0142 83EC04   		subl	$4, %esp
 3139              		.cfi_def_cfa_offset 68
 3140 0145 52       		pushl	%edx
 3141              		.cfi_def_cfa_offset 72
 3142 0146 89542414 		movl	%edx, 20(%esp)
 3143 014a 57       		pushl	%edi
 3144              		.cfi_def_cfa_offset 76
 3145              	.LVL136:
 3146              		.loc 9 34 10 view .LVU972
 3147 014b 50       		pushl	%eax
 3148              		.cfi_def_cfa_offset 80
 3149 014c 8B5C2420 		movl	32(%esp), %ebx
 3150 0150 E8FCFFFF 		call	memcpy@PLT
 3150      FF
 3151              	.LVL137:
 3152              		.loc 9 34 10 view .LVU973
 3153              	.LBE663:
 3154              	.LBE662:
 3155              		.loc 1 803 7 is_stmt 1 view .LVU974
 3156              		.loc 1 803 17 is_stmt 0 view .LVU975
 3157 0155 8B54241C 		movl	28(%esp), %edx
 3158              		.loc 1 804 17 view .LVU976
 3159 0159 8B4628   		movl	40(%esi), %eax
 3160              		.loc 1 805 17 view .LVU977
 3161 015c 83C410   		addl	$16, %esp
 3162              		.cfi_def_cfa_offset 64
 3163              		.loc 1 804 17 view .LVU978
 3164 015f 01D0     		addl	%edx, %eax
 3165              		.loc 1 803 17 view .LVU979
 3166 0161 01D7     		addl	%edx, %edi
 3167              	.LVL138:
 3168              		.loc 1 804 7 is_stmt 1 view .LVU980
 3169              		.loc 1 805 17 is_stmt 0 view .LVU981
 3170 0163 01D5     		addl	%edx, %ebp
 3171              	.LVL139:
 3172              		.loc 1 804 17 view .LVU982
 3173 0165 894628   		movl	%eax, 40(%esi)
 3174              		.loc 1 805 7 is_stmt 1 view .LVU983
 3175              	.LVL140:
 3176              		.loc 1 805 7 is_stmt 0 view .LVU984
 3177 0168 E960FFFF 		jmp	.L123
 3177      FF
 3178              	.LVL141:
 3179 016d 8D7600   		.p2align 4,,10
 3180              		.p2align 3
 3181              	.L134:
 3182              	.LBB664:
 3183              		.loc 1 758 7 is_stmt 1 view .LVU985
GAS LISTING /tmp/cccyco2T.s 			page 59


 3184              		.loc 1 762 7 view .LVU986
 3185              		.loc 1 762 10 is_stmt 0 view .LVU987
 3186 0170 837C2414 		cmpl	$-3, 20(%esp)
 3186      FD
 3187 0175 7731     		ja	.L136
 3188              	.LBB607:
 3189              		.loc 1 766 9 is_stmt 1 view .LVU988
 3190              	.LBB608:
 3191              	.LBI608:
 3192              		.loc 2 634 25 view .LVU989
 3193              	.LBE608:
 3194              	.LBE607:
 3195              	.LBE664:
 3196              	.LBE672:
 3197              		.loc 2 636 3 view .LVU990
 3198              	.LBB673:
 3199              	.LBB665:
 3200              	.LBB622:
 3201              	.LBB613:
 3202              	.LBB609:
 3203              	.LBI609:
 3204              		.loc 7 115 25 view .LVU991
 3205              	.LBB610:
 3206              		.loc 7 118 3 view .LVU992
 3207              		.loc 7 118 19 is_stmt 0 view .LVU993
 3208 0177 8B44241C 		movl	28(%esp), %eax
 3209              	.LBE610:
 3210              	.LBE609:
 3211              	.LBE613:
 3212              	.LBB614:
 3213              	.LBB615:
 3214              	.LBB616:
 3215              		.loc 8 495 26 view .LVU994
 3216 017b 0FB74C24 		movzwl	26(%esp), %ecx
 3216      1A
 3217              	.LBE616:
 3218              	.LBE615:
 3219              	.LBE614:
 3220              	.LBB619:
 3221              	.LBB612:
 3222              	.LBB611:
 3223              		.loc 7 118 19 view .LVU995
 3224 0180 0FB74028 		movzwl	40(%eax), %eax
 3225              	.LVL142:
 3226              		.loc 7 118 19 view .LVU996
 3227              	.LBE611:
 3228              	.LBE612:
 3229              	.LBE619:
 3230              	.LBB620:
 3231              	.LBI614:
 3232              		.loc 2 663 29 is_stmt 1 view .LVU997
 3233              	.LBE620:
 3234              	.LBE622:
 3235              	.LBE665:
 3236              	.LBE673:
 3237              		.loc 2 665 3 view .LVU998
 3238              	.LBB674:
GAS LISTING /tmp/cccyco2T.s 			page 60


 3239              	.LBB666:
 3240              	.LBB623:
 3241              	.LBB621:
 3242              	.LBB618:
 3243              	.LBI615:
 3244              		.loc 8 491 29 view .LVU999
 3245              	.LBB617:
 3246              		.loc 8 495 3 view .LVU1000
 3247              		.loc 8 495 26 is_stmt 0 view .LVU1001
 3248 0184 29C1     		subl	%eax, %ecx
 3249              	.LVL143:
 3250              		.loc 8 495 26 view .LVU1002
 3251 0186 0FB7C1   		movzwl	%cx, %eax
 3252              	.LVL144:
 3253              		.loc 8 495 26 view .LVU1003
 3254              	.LBE617:
 3255              	.LBE618:
 3256              	.LBE621:
 3257              		.loc 1 772 9 is_stmt 1 view .LVU1004
 3258              		.loc 1 772 12 is_stmt 0 view .LVU1005
 3259 0189 3944244C 		cmpl	%eax, 76(%esp)
 3260 018d 722D     		jb	.L121
 3261              		.loc 1 776 9 is_stmt 1 view .LVU1006
 3262              		.loc 1 776 15 is_stmt 0 view .LVU1007
 3263 018f 83EC08   		subl	$8, %esp
 3264              		.cfi_def_cfa_offset 72
 3265 0192 50       		pushl	%eax
 3266              		.cfi_def_cfa_offset 76
 3267 0193 56       		pushl	%esi
 3268              		.cfi_def_cfa_offset 80
 3269 0194 E8FCFFFF 		call	obqGetEmptyBufferTimeoutS
 3269      FF
 3270              	.LVL145:
 3271              		.loc 1 776 15 view .LVU1008
 3272 0199 83C410   		addl	$16, %esp
 3273              		.cfi_def_cfa_offset 64
 3274              		.loc 1 776 15 view .LVU1009
 3275              	.LBE623:
 3276              		.loc 1 780 7 is_stmt 1 view .LVU1010
 3277              		.loc 1 780 10 is_stmt 0 view .LVU1011
 3278 019c 85C0     		testl	%eax, %eax
 3279 019e 751C     		jne	.L121
 3280              	.L137:
 3281              		.loc 1 780 10 view .LVU1012
 3282 01a0 8B4628   		movl	40(%esi), %eax
 3283              	.LVL146:
 3284              		.loc 1 780 10 view .LVU1013
 3285 01a3 EB84     		jmp	.L116
 3286              		.p2align 4,,10
 3287 01a5 8D7600   		.p2align 3
 3288              	.L136:
 3289              		.loc 1 763 9 is_stmt 1 view .LVU1014
 3290              		.loc 1 763 15 is_stmt 0 view .LVU1015
 3291 01a8 83EC08   		subl	$8, %esp
 3292              		.cfi_def_cfa_offset 72
 3293 01ab FF742454 		pushl	84(%esp)
 3294              		.cfi_def_cfa_offset 76
GAS LISTING /tmp/cccyco2T.s 			page 61


 3295 01af 56       		pushl	%esi
 3296              		.cfi_def_cfa_offset 80
 3297 01b0 E8FCFFFF 		call	obqGetEmptyBufferTimeoutS
 3297      FF
 3298              	.LVL147:
 3299              		.loc 1 763 15 view .LVU1016
 3300 01b5 83C410   		addl	$16, %esp
 3301              		.cfi_def_cfa_offset 64
 3302              		.loc 1 780 7 is_stmt 1 view .LVU1017
 3303              		.loc 1 780 10 is_stmt 0 view .LVU1018
 3304 01b8 85C0     		testl	%eax, %eax
 3305 01ba 74E4     		je	.L137
 3306              	.LVL148:
 3307              	.L121:
 3308              		.loc 1 781 9 is_stmt 1 view .LVU1019
 3309              	.LBB624:
 3310              	.LBI624:
 3311              		.loc 2 520 20 view .LVU1020
 3312              	.LBE624:
 3313              	.LBE666:
 3314              	.LBE674:
 3315              		.loc 2 522 3 view .LVU1021
 3316              	.LBB675:
 3317              	.LBB667:
 3318              	.LBB629:
 3319              	.LBB625:
 3320              	.LBI625:
 3321              		.loc 5 365 20 view .LVU1022
 3322              	.LBB626:
 3323              		.loc 5 367 22 view .LVU1023
 3324              		.loc 5 368 33 view .LVU1024
 3325              		.loc 5 374 3 view .LVU1025
 3326              		.loc 5 374 3 view .LVU1026
 3327              		.loc 5 378 3 view .LVU1027
 3328              	.LBB627:
 3329              	.LBI627:
 3330              		.loc 6 371 20 view .LVU1028
 3331              	.LBB628:
 3332              		.loc 6 373 3 view .LVU1029
 3333              		.loc 6 373 16 is_stmt 0 view .LVU1030
 3334 01bc 8B442408 		movl	8(%esp), %eax
 3335 01c0 C7000000 		movl	$0, (%eax)
 3335      0000
 3336              	.LBE628:
 3337              	.LBE627:
 3338              	.LBE626:
 3339              	.LBE625:
 3340              	.LBE629:
 3341              		.loc 1 782 9 is_stmt 1 view .LVU1031
 3342              	.LBE667:
 3343              	.LBE675:
 3344              		.loc 1 820 1 is_stmt 0 view .LVU1032
 3345 01c6 83C42C   		addl	$44, %esp
 3346              		.cfi_remember_state
 3347              		.cfi_def_cfa_offset 20
 3348 01c9 89E8     		movl	%ebp, %eax
 3349 01cb 5B       		popl	%ebx
GAS LISTING /tmp/cccyco2T.s 			page 62


 3350              		.cfi_restore 3
 3351              		.cfi_def_cfa_offset 16
 3352 01cc 5E       		popl	%esi
 3353              		.cfi_restore 6
 3354              		.cfi_def_cfa_offset 12
 3355 01cd 5F       		popl	%edi
 3356              		.cfi_restore 7
 3357              		.cfi_def_cfa_offset 8
 3358              	.LVL149:
 3359              		.loc 1 820 1 view .LVU1033
 3360 01ce 5D       		popl	%ebp
 3361              		.cfi_restore 5
 3362              		.cfi_def_cfa_offset 4
 3363              	.LVL150:
 3364              		.loc 1 820 1 view .LVU1034
 3365 01cf C3       		ret
 3366              	.LVL151:
 3367              		.p2align 4,,10
 3368              		.p2align 3
 3369              	.L128:
 3370              		.cfi_restore_state
 3371              	.LBB676:
 3372              	.LBB668:
 3373              	.LBB652:
 3374              	.LBB650:
 3375              	.LBB648:
 3376              	.LBB646:
 3377              		.loc 6 373 16 view .LVU1035
 3378 01d0 C7000000 		movl	$0, (%eax)
 3378      0000
 3379              	.LBE646:
 3380              	.LBE648:
 3381              	.LBE650:
 3382              	.LBE652:
 3383              	.LBE668:
 3384              	.LBE676:
 3385              		.loc 1 820 1 view .LVU1036
 3386 01d6 83C42C   		addl	$44, %esp
 3387              		.cfi_def_cfa_offset 20
 3388 01d9 89E8     		movl	%ebp, %eax
 3389 01db 5B       		popl	%ebx
 3390              		.cfi_restore 3
 3391              		.cfi_def_cfa_offset 16
 3392 01dc 5E       		popl	%esi
 3393              		.cfi_restore 6
 3394              		.cfi_def_cfa_offset 12
 3395 01dd 5F       		popl	%edi
 3396              		.cfi_restore 7
 3397              		.cfi_def_cfa_offset 8
 3398              	.LVL152:
 3399              		.loc 1 820 1 view .LVU1037
 3400 01de 5D       		popl	%ebp
 3401              		.cfi_restore 5
 3402              		.cfi_def_cfa_offset 4
 3403              	.LVL153:
 3404              		.loc 1 820 1 view .LVU1038
 3405 01df C3       		ret
GAS LISTING /tmp/cccyco2T.s 			page 63


 3406              		.cfi_endproc
 3407              	.LFE252:
 3408              		.size	obqWriteTimeout, .-obqWriteTimeout
 3409              		.section	.text.obqTryFlushI,"ax",@progbits
 3410              		.p2align 4,,15
 3411              		.globl	obqTryFlushI
 3412              		.type	obqTryFlushI, @function
 3413              	obqTryFlushI:
 3414              	.LVL154:
 3415              	.LFB253:
 3416              		.loc 1 835 49 is_stmt 1 view -0
 3417              		.cfi_startproc
 3418              		.loc 1 837 23 view .LVU1040
 3419              		.loc 1 841 3 view .LVU1041
 3420              		.loc 1 835 49 is_stmt 0 view .LVU1042
 3421 0000 53       		pushl	%ebx
 3422              		.cfi_def_cfa_offset 8
 3423              		.cfi_offset 3, -8
 3424              		.loc 1 835 49 view .LVU1043
 3425 0001 8B542408 		movl	8(%esp), %edx
 3426              		.loc 1 862 10 view .LVU1044
 3427 0005 31C0     		xorl	%eax, %eax
 3428              		.loc 1 841 7 view .LVU1045
 3429 0007 8B4A10   		movl	16(%edx), %ecx
 3430 000a 3B4A14   		cmpl	20(%edx), %ecx
 3431 000d 7409     		je	.L147
 3432              	.L138:
 3433              		.loc 1 863 1 view .LVU1046
 3434 000f 5B       		popl	%ebx
 3435              		.cfi_remember_state
 3436              		.cfi_restore 3
 3437              		.cfi_def_cfa_offset 4
 3438 0010 C3       		ret
 3439              		.p2align 4,,10
 3440 0011 8DB42600 		.p2align 3
 3440      000000
 3441              	.L147:
 3442              		.cfi_restore_state
 3443              		.loc 1 841 7 discriminator 1 view .LVU1047
 3444 0018 8B5A0C   		movl	12(%edx), %ebx
 3445 001b 85DB     		testl	%ebx, %ebx
 3446 001d 74F0     		je	.L138
 3447              		.loc 1 841 33 view .LVU1048
 3448 001f 8B5A28   		movl	40(%edx), %ebx
 3449              		.loc 1 841 25 view .LVU1049
 3450 0022 85DB     		testl	%ebx, %ebx
 3451 0024 74E9     		je	.L138
 3452              	.LBB677:
 3453              		.loc 1 842 5 is_stmt 1 view .LVU1050
 3454              		.loc 1 842 12 is_stmt 0 view .LVU1051
 3455 0026 83EB04   		subl	$4, %ebx
 3456              	.LVL155:
 3457              		.loc 1 844 5 is_stmt 1 view .LVU1052
 3458              		.loc 1 844 8 is_stmt 0 view .LVU1053
 3459 0029 29CB     		subl	%ecx, %ebx
 3460              	.LVL156:
 3461              		.loc 1 844 8 view .LVU1054
GAS LISTING /tmp/cccyco2T.s 			page 64


 3462 002b 74E2     		je	.L138
 3463              		.loc 1 847 7 is_stmt 1 view .LVU1055
 3464              		.loc 1 847 33 is_stmt 0 view .LVU1056
 3465 002d 8919     		movl	%ebx, (%ecx)
 3466              		.loc 1 850 7 is_stmt 1 view .LVU1057
 3467              		.loc 1 850 11 is_stmt 0 view .LVU1058
 3468 002f 8B420C   		movl	12(%edx), %eax
 3469              		.loc 1 851 20 view .LVU1059
 3470 0032 034A1C   		addl	28(%edx), %ecx
 3471              		.loc 1 850 21 view .LVU1060
 3472 0035 83E801   		subl	$1, %eax
 3473              		.loc 1 851 20 view .LVU1061
 3474 0038 894A10   		movl	%ecx, 16(%edx)
 3475              		.loc 1 850 21 view .LVU1062
 3476 003b 89420C   		movl	%eax, 12(%edx)
 3477              		.loc 1 851 7 is_stmt 1 view .LVU1063
 3478              		.loc 1 852 7 view .LVU1064
 3479              		.loc 1 852 10 is_stmt 0 view .LVU1065
 3480 003e 3B4A18   		cmpl	24(%edx), %ecx
 3481 0041 7206     		jb	.L141
 3482              		.loc 1 853 9 is_stmt 1 view .LVU1066
 3483              		.loc 1 853 22 is_stmt 0 view .LVU1067
 3484 0043 8B4224   		movl	36(%edx), %eax
 3485 0046 894210   		movl	%eax, 16(%edx)
 3486              	.L141:
 3487              		.loc 1 857 7 is_stmt 1 view .LVU1068
 3488              		.loc 1 857 17 is_stmt 0 view .LVU1069
 3489 0049 C7422800 		movl	$0, 40(%edx)
 3489      000000
 3490              		.loc 1 859 7 is_stmt 1 view .LVU1070
 3491              		.loc 1 859 14 is_stmt 0 view .LVU1071
 3492 0050 B8010000 		movl	$1, %eax
 3492      00
 3493              	.LBE677:
 3494              		.loc 1 863 1 view .LVU1072
 3495 0055 5B       		popl	%ebx
 3496              		.cfi_restore 3
 3497              		.cfi_def_cfa_offset 4
 3498              	.LVL157:
 3499              		.loc 1 863 1 view .LVU1073
 3500 0056 C3       		ret
 3501              		.cfi_endproc
 3502              	.LFE253:
 3503              		.size	obqTryFlushI, .-obqTryFlushI
 3504              		.section	.text.obqFlush,"ax",@progbits
 3505              		.p2align 4,,15
 3506              		.globl	obqFlush
 3507              		.type	obqFlush, @function
 3508              	obqFlush:
 3509              	.LVL158:
 3510              	.LFB254:
 3511              		.loc 1 872 45 is_stmt 1 view -0
 3512              		.cfi_startproc
 3513              		.loc 1 874 3 view .LVU1075
 3514              	.LBB678:
 3515              	.LBI678:
 3516              		.loc 2 509 20 view .LVU1076
GAS LISTING /tmp/cccyco2T.s 			page 65


 3517              	.LBE678:
 3518              		.loc 2 511 3 view .LVU1077
 3519              	.LBB689:
 3520              	.LBB679:
 3521              	.LBI679:
 3522              		.loc 5 353 20 view .LVU1078
 3523              	.LBE679:
 3524              	.LBE689:
 3525              		.loc 5 355 3 view .LVU1079
 3526              	.LBB690:
 3527              	.LBB686:
 3528              	.LBB680:
 3529              	.LBI680:
 3530              		.loc 6 362 20 view .LVU1080
 3531              	.LBB681:
 3532              		.loc 6 364 3 view .LVU1081
 3533 0000 E8FCFFFF 		call	__x86.get_pc_thunk.ax
 3533      FF
 3534 0005 05010000 		addl	$_GLOBAL_OFFSET_TABLE_, %eax
 3534      00
 3535              	.LBE681:
 3536              	.LBE680:
 3537              	.LBE686:
 3538              	.LBE690:
 3539              		.loc 1 872 45 is_stmt 0 view .LVU1082
 3540 000a 53       		pushl	%ebx
 3541              		.cfi_def_cfa_offset 8
 3542              		.cfi_offset 3, -8
 3543 000b 83EC08   		subl	$8, %esp
 3544              		.cfi_def_cfa_offset 16
 3545              		.loc 1 872 45 view .LVU1083
 3546 000e 8B542410 		movl	16(%esp), %edx
 3547              	.LBB691:
 3548              	.LBB687:
 3549              	.LBB684:
 3550              	.LBB682:
 3551              		.loc 6 364 16 view .LVU1084
 3552 0012 8B980000 		movl	port_irq_sts@GOT(%eax), %ebx
 3552      0000
 3553              	.LBE682:
 3554              	.LBE684:
 3555              	.LBE687:
 3556              	.LBE691:
 3557              		.loc 1 877 11 view .LVU1085
 3558 0018 8B4228   		movl	40(%edx), %eax
 3559              	.LBB692:
 3560              	.LBB688:
 3561              	.LBB685:
 3562              	.LBB683:
 3563              		.loc 6 364 16 view .LVU1086
 3564 001b C7030100 		movl	$1, (%ebx)
 3564      0000
 3565              	.LBE683:
 3566              	.LBE685:
 3567              	.LBE688:
 3568              	.LBE692:
 3569              		.loc 5 356 34 is_stmt 1 view .LVU1087
GAS LISTING /tmp/cccyco2T.s 			page 66


 3570              		.loc 5 357 20 view .LVU1088
 3571              		.loc 1 877 3 view .LVU1089
 3572              		.loc 1 877 6 is_stmt 0 view .LVU1090
 3573 0021 85C0     		testl	%eax, %eax
 3574 0023 7437     		je	.L150
 3575              	.LBB693:
 3576              		.loc 1 878 5 is_stmt 1 view .LVU1091
 3577              		.loc 1 878 52 is_stmt 0 view .LVU1092
 3578 0025 8B4A10   		movl	16(%edx), %ecx
 3579              		.loc 1 878 12 view .LVU1093
 3580 0028 83E804   		subl	$4, %eax
 3581              	.LVL159:
 3582              		.loc 1 880 5 is_stmt 1 view .LVU1094
 3583              		.loc 1 880 8 is_stmt 0 view .LVU1095
 3584 002b 29C8     		subl	%ecx, %eax
 3585              	.LVL160:
 3586              		.loc 1 880 8 view .LVU1096
 3587 002d 742D     		je	.L150
 3588              		.loc 1 881 7 is_stmt 1 view .LVU1097
 3589              	.LVL161:
 3590              	.LBB694:
 3591              	.LBI694:
 3592              		.loc 1 646 6 view .LVU1098
 3593              	.LBB695:
 3594              		.loc 1 648 23 view .LVU1099
 3595              		.loc 1 649 3 view .LVU1100
 3596              		.loc 1 649 3 view .LVU1101
 3597              		.loc 1 650 3 view .LVU1102
 3598              		.loc 1 650 3 view .LVU1103
 3599              		.loc 1 653 3 view .LVU1104
 3600              		.loc 1 653 29 is_stmt 0 view .LVU1105
 3601 002f 8901     		movl	%eax, (%ecx)
 3602              		.loc 1 656 3 is_stmt 1 view .LVU1106
 3603              		.loc 1 656 7 is_stmt 0 view .LVU1107
 3604 0031 8B420C   		movl	12(%edx), %eax
 3605              	.LVL162:
 3606              		.loc 1 657 16 view .LVU1108
 3607 0034 034A1C   		addl	28(%edx), %ecx
 3608              	.LVL163:
 3609              		.loc 1 656 17 view .LVU1109
 3610 0037 83E801   		subl	$1, %eax
 3611              		.loc 1 657 16 view .LVU1110
 3612 003a 894A10   		movl	%ecx, 16(%edx)
 3613              	.LVL164:
 3614              		.loc 1 656 17 view .LVU1111
 3615 003d 89420C   		movl	%eax, 12(%edx)
 3616              		.loc 1 657 3 is_stmt 1 view .LVU1112
 3617              		.loc 1 658 3 view .LVU1113
 3618              		.loc 1 658 6 is_stmt 0 view .LVU1114
 3619 0040 3B4A18   		cmpl	24(%edx), %ecx
 3620 0043 732B     		jnb	.L160
 3621              	.L152:
 3622              		.loc 1 663 3 is_stmt 1 view .LVU1115
 3623              		.loc 1 666 11 is_stmt 0 view .LVU1116
 3624 0045 8B4230   		movl	48(%edx), %eax
 3625              		.loc 1 663 13 view .LVU1117
 3626 0048 C7422800 		movl	$0, 40(%edx)
GAS LISTING /tmp/cccyco2T.s 			page 67


 3626      000000
 3627              		.loc 1 666 3 is_stmt 1 view .LVU1118
 3628              		.loc 1 666 6 is_stmt 0 view .LVU1119
 3629 004f 85C0     		testl	%eax, %eax
 3630 0051 7409     		je	.L150
 3631              		.loc 1 667 5 is_stmt 1 view .LVU1120
 3632 0053 83EC0C   		subl	$12, %esp
 3633              		.cfi_def_cfa_offset 28
 3634 0056 52       		pushl	%edx
 3635              		.cfi_def_cfa_offset 32
 3636 0057 FFD0     		call	*%eax
 3637              	.LVL165:
 3638              		.loc 1 667 5 is_stmt 0 view .LVU1121
 3639 0059 83C410   		addl	$16, %esp
 3640              		.cfi_def_cfa_offset 16
 3641              	.LVL166:
 3642              	.L150:
 3643              		.loc 1 667 5 view .LVU1122
 3644              	.LBE695:
 3645              	.LBE694:
 3646              	.LBE693:
 3647              		.loc 1 885 3 is_stmt 1 view .LVU1123
 3648              	.LBB698:
 3649              	.LBI698:
 3650              		.loc 2 520 20 view .LVU1124
 3651              	.LBE698:
 3652              		.loc 2 522 3 view .LVU1125
 3653              	.LBB703:
 3654              	.LBB699:
 3655              	.LBI699:
 3656              		.loc 5 365 20 view .LVU1126
 3657              	.LBB700:
 3658              		.loc 5 367 22 view .LVU1127
 3659              		.loc 5 368 33 view .LVU1128
 3660              		.loc 5 374 3 view .LVU1129
 3661              		.loc 5 374 3 view .LVU1130
 3662              		.loc 5 378 3 view .LVU1131
 3663              	.LBB701:
 3664              	.LBI701:
 3665              		.loc 6 371 20 view .LVU1132
 3666              	.LBB702:
 3667              		.loc 6 373 3 view .LVU1133
 3668              		.loc 6 373 16 is_stmt 0 view .LVU1134
 3669 005c C7030000 		movl	$0, (%ebx)
 3669      0000
 3670              	.LBE702:
 3671              	.LBE701:
 3672              	.LBE700:
 3673              	.LBE699:
 3674              	.LBE703:
 3675              		.loc 1 886 1 view .LVU1135
 3676 0062 83C408   		addl	$8, %esp
 3677              		.cfi_remember_state
 3678              		.cfi_def_cfa_offset 8
 3679 0065 5B       		popl	%ebx
 3680              		.cfi_restore 3
 3681              		.cfi_def_cfa_offset 4
GAS LISTING /tmp/cccyco2T.s 			page 68


 3682 0066 C3       		ret
 3683              	.LVL167:
 3684 0067 8DB42600 		.p2align 4,,10
 3684      00000066 
 3684      90
 3685              		.p2align 3
 3686              	.L160:
 3687              		.cfi_restore_state
 3688              	.LBB704:
 3689              	.LBB697:
 3690              	.LBB696:
 3691              		.loc 1 659 5 is_stmt 1 view .LVU1136
 3692              		.loc 1 659 18 is_stmt 0 view .LVU1137
 3693 0070 8B4224   		movl	36(%edx), %eax
 3694 0073 894210   		movl	%eax, 16(%edx)
 3695 0076 EBCD     		jmp	.L152
 3696              	.LBE696:
 3697              	.LBE697:
 3698              	.LBE704:
 3699              		.cfi_endproc
 3700              	.LFE254:
 3701              		.size	obqFlush, .-obqFlush
 3702              		.section	.text.__x86.get_pc_thunk.ax,"axG",@progbits,__x86.get_pc_thunk.ax,comdat
 3703              		.globl	__x86.get_pc_thunk.ax
 3704              		.hidden	__x86.get_pc_thunk.ax
 3705              		.type	__x86.get_pc_thunk.ax, @function
 3706              	__x86.get_pc_thunk.ax:
 3707              	.LFB257:
 3708              		.cfi_startproc
 3709 0000 8B0424   		movl	(%esp), %eax
 3710 0003 C3       		ret
 3711              		.cfi_endproc
 3712              	.LFE257:
 3713              		.section	.text.__x86.get_pc_thunk.dx,"axG",@progbits,__x86.get_pc_thunk.dx,comdat
 3714              		.globl	__x86.get_pc_thunk.dx
 3715              		.hidden	__x86.get_pc_thunk.dx
 3716              		.type	__x86.get_pc_thunk.dx, @function
 3717              	__x86.get_pc_thunk.dx:
 3718              	.LFB258:
 3719              		.cfi_startproc
 3720 0000 8B1424   		movl	(%esp), %edx
 3721 0003 C3       		ret
 3722              		.cfi_endproc
 3723              	.LFE258:
 3724              		.section	.text.__x86.get_pc_thunk.bx,"axG",@progbits,__x86.get_pc_thunk.bx,comdat
 3725              		.globl	__x86.get_pc_thunk.bx
 3726              		.hidden	__x86.get_pc_thunk.bx
 3727              		.type	__x86.get_pc_thunk.bx, @function
 3728              	__x86.get_pc_thunk.bx:
 3729              	.LFB259:
 3730              		.cfi_startproc
 3731 0000 8B1C24   		movl	(%esp), %ebx
 3732 0003 C3       		ret
 3733              		.cfi_endproc
 3734              	.LFE259:
 3735              		.text
 3736              	.Letext0:
GAS LISTING /tmp/cccyco2T.s 			page 69


 3737              		.file 10 "/usr/lib/gcc/x86_64-linux-gnu/8/include/stddef.h"
 3738              		.file 11 "/usr/include/i386-linux-gnu/bits/types.h"
 3739              		.file 12 "/usr/include/i386-linux-gnu/bits/stdint-intn.h"
 3740              		.file 13 "/usr/include/i386-linux-gnu/bits/stdint-uintn.h"
 3741              		.file 14 "../../../os/common/ports/SIMIA32/compilers/GCC/chtypes.h"
 3742              		.file 15 "../../../os/rt/include/chsystypes.h"
 3743              		.file 16 "../../../os/rt/include/chtm.h"
 3744              		.file 17 "../../../os/rt/include/chsem.h"
 3745              		.file 18 "../../../os/rt/include/chmtx.h"
 3746              		.file 19 "../../../os/rt/include/chregistry.h"
 3747              		.file 20 "../../../os/rt/include/chevents.h"
 3748              		.file 21 "../../../os/common/oslib/include/chmemcore.h"
 3749              		.file 22 "../../../os/common/oslib/include/chmempools.h"
 3750              		.file 23 "../../../os/common/oslib/include/chfactory.h"
 3751              		.file 24 "/usr/include/netinet/in.h"
 3752              		.file 25 "/usr/include/unistd.h"
 3753              		.file 26 "/usr/include/i386-linux-gnu/bits/getopt_core.h"
 3754              		.file 27 "/usr/include/i386-linux-gnu/bits/types/struct_FILE.h"
 3755              		.file 28 "/usr/include/i386-linux-gnu/bits/types/FILE.h"
 3756              		.file 29 "/usr/include/stdio.h"
 3757              		.file 30 "/usr/include/i386-linux-gnu/bits/sys_errlist.h"
 3758              		.file 31 "../../../os/hal/include/hal_buffers.h"
 3759              		.file 32 "../../../os/hal/include/hal_queues.h"
 3760              		.file 33 "../../../os/hal/ports/simulator/hal_pal_lld.h"
 3761              		.file 34 "../../../os/hal/include/hal_serial.h"
 3762              		.file 35 "../../../os/hal/ports/simulator/posix/hal_serial_lld.h"
 3763              		.file 36 "<built-in>"
 13149              		.section	.note.GNU-stack,"",@progbits
GAS LISTING /tmp/cccyco2T.s 			page 247

