GAS LISTING /tmp/cccyco2T.s 			page 1


   1              		.file	"hal_buffers.c"
   2              		.text
   3              	.Ltext0:
   4              		.section	.text.ibqObjectInit,"ax",@progbits
   5              		.p2align 4,,15
   6              		.globl	ibqObjectInit
   7              		.type	ibqObjectInit, @function
   8              	ibqObjectInit:
   9              	.LVL0:
  10              	.LFB233:
  11              		.file 1 "../../../os/hal/src/hal_buffers.c"
  12              		.loc 1 77 72 view -0
  13              		.cfi_startproc
  14              		.loc 1 79 3 view .LVU1
  15              		.loc 1 79 3 view .LVU2
  16              		.loc 1 81 3 view .LVU3
  17              		.loc 1 77 72 is_stmt 0 view .LVU4
  18 0000 56       		pushl	%esi
  19              		.cfi_def_cfa_offset 8
  20              		.cfi_offset 6, -8
  21 0001 53       		pushl	%ebx
  22              		.cfi_def_cfa_offset 12
  23              		.cfi_offset 3, -12
  24              		.loc 1 77 72 view .LVU5
  25 0002 8B44240C 		movl	12(%esp), %eax
  26              	.LVL1:
  27              	.LBB276:
  28              	.LBI276:
  29              		.file 2 "../../../os/hal/osal/rt/osal.h"
  30              		.loc 2 800 20 is_stmt 1 view .LVU6
  31              	.LBE276:
  32              		.loc 2 802 3 view .LVU7
  33              	.LBB287:
  34              	.LBB277:
  35              	.LBI277:
  36              		.file 3 "../../../os/rt/include/chthreads.h"
  37              		.loc 3 392 20 view .LVU8
  38              	.LBE277:
  39              	.LBE287:
  40              		.loc 3 394 3 view .LVU9
  41              	.LBB288:
  42              	.LBB284:
  43              	.LBB278:
  44              	.LBI278:
  45              		.file 4 "../../../os/rt/include/chschd.h"
  46              		.loc 4 537 20 view .LVU10
  47              	.LBB279:
  48              		.loc 4 539 3 view .LVU11
  49              	.LBE279:
  50              	.LBE278:
  51              	.LBE284:
  52              	.LBE288:
  53              		.loc 1 82 19 is_stmt 0 view .LVU12
  54 0006 8B4C2410 		movl	16(%esp), %ecx
  55              		.loc 1 77 72 view .LVU13
  56 000a 8B74241C 		movl	28(%esp), %esi
  57 000e 8B542414 		movl	20(%esp), %edx
GAS LISTING /tmp/cccyco2T.s 			page 2


  58              	.LBB289:
  59              	.LBB285:
  60              	.LBB282:
  61              	.LBB280:
  62              		.loc 4 539 13 view .LVU14
  63 0012 8900     		movl	%eax, (%eax)
  64              		.loc 4 540 3 is_stmt 1 view .LVU15
  65              	.LBE280:
  66              	.LBE282:
  67              	.LBE285:
  68              	.LBE289:
  69              		.loc 1 82 19 is_stmt 0 view .LVU16
  70 0014 884808   		movb	%cl, 8(%eax)
  71              		.loc 1 86 33 view .LVU17
  72 0017 8B4C2418 		movl	24(%esp), %ecx
  73              		.loc 1 84 19 view .LVU18
  74 001b 895014   		movl	%edx, 20(%eax)
  75              		.loc 1 86 33 view .LVU19
  76 001e 83C104   		addl	$4, %ecx
  77              		.loc 1 85 19 view .LVU20
  78 0021 895010   		movl	%edx, 16(%eax)
  79              		.loc 1 86 52 view .LVU21
  80 0024 89CB     		movl	%ecx, %ebx
  81              		.loc 1 89 19 view .LVU22
  82 0026 895024   		movl	%edx, 36(%eax)
  83              		.loc 1 86 52 view .LVU23
  84 0029 0FAFDE   		imull	%esi, %ebx
  85              	.LBB290:
  86              	.LBB286:
  87              	.LBB283:
  88              	.LBB281:
  89              		.loc 4 540 13 view .LVU24
  90 002c 894004   		movl	%eax, 4(%eax)
  91              	.LVL2:
  92              		.loc 4 540 13 view .LVU25
  93              	.LBE281:
  94              	.LBE283:
  95              	.LBE286:
  96              	.LBE290:
  97              		.loc 1 82 3 is_stmt 1 view .LVU26
  98              		.loc 1 83 3 view .LVU27
  99              		.loc 1 83 19 is_stmt 0 view .LVU28
 100 002f C7400C00 		movl	$0, 12(%eax)
 100      000000
 101              		.loc 1 84 3 is_stmt 1 view .LVU29
 102              		.loc 1 85 3 view .LVU30
 103              		.loc 1 86 3 view .LVU31
 104              		.loc 1 87 19 is_stmt 0 view .LVU32
 105 0036 89481C   		movl	%ecx, 28(%eax)
 106              		.loc 1 86 24 view .LVU33
 107 0039 01D3     		addl	%edx, %ebx
 108              		.loc 1 92 19 view .LVU34
 109 003b 8B542420 		movl	32(%esp), %edx
 110              		.loc 1 88 19 view .LVU35
 111 003f 897020   		movl	%esi, 32(%eax)
 112              		.loc 1 86 24 view .LVU36
 113 0042 895818   		movl	%ebx, 24(%eax)
GAS LISTING /tmp/cccyco2T.s 			page 3


 114              		.loc 1 87 3 is_stmt 1 view .LVU37
 115              		.loc 1 88 3 view .LVU38
 116              		.loc 1 89 3 view .LVU39
 117              		.loc 1 90 3 view .LVU40
 118              		.loc 1 92 19 is_stmt 0 view .LVU41
 119 0045 895030   		movl	%edx, 48(%eax)
 120              		.loc 1 93 19 view .LVU42
 121 0048 8B542424 		movl	36(%esp), %edx
 122              		.loc 1 90 19 view .LVU43
 123 004c C7402800 		movl	$0, 40(%eax)
 123      000000
 124              		.loc 1 91 3 is_stmt 1 view .LVU44
 125              		.loc 1 91 19 is_stmt 0 view .LVU45
 126 0053 C7402C00 		movl	$0, 44(%eax)
 126      000000
 127              		.loc 1 92 3 is_stmt 1 view .LVU46
 128              		.loc 1 93 3 view .LVU47
 129              		.loc 1 93 19 is_stmt 0 view .LVU48
 130 005a 895034   		movl	%edx, 52(%eax)
 131              		.loc 1 94 1 view .LVU49
 132 005d 5B       		popl	%ebx
 133              		.cfi_restore 3
 134              		.cfi_def_cfa_offset 8
 135 005e 5E       		popl	%esi
 136              		.cfi_restore 6
 137              		.cfi_def_cfa_offset 4
 138 005f C3       		ret
 139              		.cfi_endproc
 140              	.LFE233:
 141              		.size	ibqObjectInit, .-ibqObjectInit
 142              		.section	.text.ibqResetI,"ax",@progbits
 143              		.p2align 4,,15
 144              		.globl	ibqResetI
 145              		.type	ibqResetI, @function
 146              	ibqResetI:
 147              	.LVL3:
 148              	.LFB234:
 149              		.loc 1 107 45 is_stmt 1 view -0
 150              		.cfi_startproc
 151              		.loc 1 109 23 view .LVU51
 152              		.loc 1 111 3 view .LVU52
 153              		.loc 1 107 45 is_stmt 0 view .LVU53
 154 0000 53       		pushl	%ebx
 155              		.cfi_def_cfa_offset 8
 156              		.cfi_offset 3, -8
 157 0001 E8FCFFFF 		call	__x86.get_pc_thunk.bx
 157      FF
 158 0006 81C30200 		addl	$_GLOBAL_OFFSET_TABLE_, %ebx
 158      0000
 159 000c 83EC10   		subl	$16, %esp
 160              		.cfi_def_cfa_offset 24
 161              		.loc 1 107 45 view .LVU54
 162 000f 8B442418 		movl	24(%esp), %eax
 163              		.loc 1 112 25 view .LVU55
 164 0013 8B5024   		movl	36(%eax), %edx
 165              		.loc 1 111 19 view .LVU56
 166 0016 C7400C00 		movl	$0, 12(%eax)
GAS LISTING /tmp/cccyco2T.s 			page 4


 166      000000
 167              		.loc 1 112 3 is_stmt 1 view .LVU57
 168              		.loc 1 114 19 is_stmt 0 view .LVU58
 169 001d C7402800 		movl	$0, 40(%eax)
 169      000000
 170              		.loc 1 112 19 view .LVU59
 171 0024 895014   		movl	%edx, 20(%eax)
 172              		.loc 1 113 3 is_stmt 1 view .LVU60
 173              		.loc 1 113 19 is_stmt 0 view .LVU61
 174 0027 895010   		movl	%edx, 16(%eax)
 175              		.loc 1 114 3 is_stmt 1 view .LVU62
 176              		.loc 1 115 3 view .LVU63
 177              		.loc 1 115 19 is_stmt 0 view .LVU64
 178 002a C7402C00 		movl	$0, 44(%eax)
 178      000000
 179              		.loc 1 116 3 is_stmt 1 view .LVU65
 180              	.LVL4:
 181              	.LBB291:
 182              	.LBI291:
 183              		.loc 2 855 20 view .LVU66
 184              	.LBB292:
 185              		.loc 2 857 3 view .LVU67
 186 0031 6AFE     		pushl	$-2
 187              		.cfi_def_cfa_offset 28
 188 0033 50       		pushl	%eax
 189              		.cfi_def_cfa_offset 32
 190 0034 E8FCFFFF 		call	chThdDequeueAllI@PLT
 190      FF
 191              	.LVL5:
 192              		.loc 2 857 3 is_stmt 0 view .LVU68
 193              	.LBE292:
 194              	.LBE291:
 195              		.loc 1 117 1 view .LVU69
 196 0039 83C418   		addl	$24, %esp
 197              		.cfi_def_cfa_offset 8
 198 003c 5B       		popl	%ebx
 199              		.cfi_restore 3
 200              		.cfi_def_cfa_offset 4
 201 003d C3       		ret
 202              		.cfi_endproc
 203              	.LFE234:
 204              		.size	ibqResetI, .-ibqResetI
 205              		.section	.text.ibqGetEmptyBufferI,"ax",@progbits
 206              		.p2align 4,,15
 207              		.globl	ibqGetEmptyBufferI
 208              		.type	ibqGetEmptyBufferI, @function
 209              	ibqGetEmptyBufferI:
 210              	.LVL6:
 211              	.LFB235:
 212              		.loc 1 129 58 is_stmt 1 view -0
 213              		.cfi_startproc
 214              		.loc 1 131 23 view .LVU71
 215              		.loc 1 133 3 view .LVU72
 216              		.loc 1 129 58 is_stmt 0 view .LVU73
 217 0000 8B542404 		movl	4(%esp), %edx
 218              		.loc 1 133 7 view .LVU74
 219 0004 8B4210   		movl	16(%edx), %eax
GAS LISTING /tmp/cccyco2T.s 			page 5


 220 0007 3B4214   		cmpl	20(%edx), %eax
 221 000a 7404     		je	.L12
 222              	.L7:
 223              		.loc 1 137 3 is_stmt 1 view .LVU75
 224              		.loc 1 137 23 is_stmt 0 view .LVU76
 225 000c 83C004   		addl	$4, %eax
 226              		.loc 1 138 1 view .LVU77
 227 000f C3       		ret
 228              	.LVL7:
 229              		.p2align 4,,10
 230              		.p2align 3
 231              	.L12:
 232              		.loc 1 133 7 discriminator 1 view .LVU78
 233 0010 8B520C   		movl	12(%edx), %edx
 234              	.LVL8:
 235              		.loc 1 133 7 discriminator 1 view .LVU79
 236 0013 85D2     		testl	%edx, %edx
 237 0015 74F5     		je	.L7
 238              		.loc 1 134 12 view .LVU80
 239 0017 31C0     		xorl	%eax, %eax
 240 0019 C3       		ret
 241              		.cfi_endproc
 242              	.LFE235:
 243              		.size	ibqGetEmptyBufferI, .-ibqGetEmptyBufferI
 244              		.section	.text.ibqPostFullBufferI,"ax",@progbits
 245              		.p2align 4,,15
 246              		.globl	ibqPostFullBufferI
 247              		.type	ibqPostFullBufferI, @function
 248              	ibqPostFullBufferI:
 249              	.LVL9:
 250              	.LFB236:
 251              		.loc 1 148 67 is_stmt 1 view -0
 252              		.cfi_startproc
 253              		.loc 1 150 23 view .LVU82
 254              		.loc 1 152 3 view .LVU83
 255              		.loc 1 152 3 view .LVU84
 256              		.loc 1 153 3 view .LVU85
 257              		.loc 1 153 3 view .LVU86
 258              		.loc 1 156 3 view .LVU87
 259              		.loc 1 148 67 is_stmt 0 view .LVU88
 260 0000 53       		pushl	%ebx
 261              		.cfi_def_cfa_offset 8
 262              		.cfi_offset 3, -8
 263 0001 E8FCFFFF 		call	__x86.get_pc_thunk.bx
 263      FF
 264 0006 81C30200 		addl	$_GLOBAL_OFFSET_TABLE_, %ebx
 264      0000
 265 000c 83EC08   		subl	$8, %esp
 266              		.cfi_def_cfa_offset 16
 267              		.loc 1 148 67 view .LVU89
 268 000f 8B442410 		movl	16(%esp), %eax
 269              		.loc 1 156 29 view .LVU90
 270 0013 8B4C2414 		movl	20(%esp), %ecx
 271              		.loc 1 156 19 view .LVU91
 272 0017 8B5010   		movl	16(%eax), %edx
 273              		.loc 1 156 29 view .LVU92
 274 001a 890A     		movl	%ecx, (%edx)
GAS LISTING /tmp/cccyco2T.s 			page 6


 275              		.loc 1 159 3 is_stmt 1 view .LVU93
 276              		.loc 1 159 7 is_stmt 0 view .LVU94
 277 001c 8B480C   		movl	12(%eax), %ecx
 278              		.loc 1 160 16 view .LVU95
 279 001f 03501C   		addl	28(%eax), %edx
 280              		.loc 1 159 17 view .LVU96
 281 0022 83C101   		addl	$1, %ecx
 282              		.loc 1 160 16 view .LVU97
 283 0025 895010   		movl	%edx, 16(%eax)
 284              		.loc 1 159 17 view .LVU98
 285 0028 89480C   		movl	%ecx, 12(%eax)
 286              		.loc 1 160 3 is_stmt 1 view .LVU99
 287              		.loc 1 161 3 view .LVU100
 288              		.loc 1 161 6 is_stmt 0 view .LVU101
 289 002b 3B5018   		cmpl	24(%eax), %edx
 290 002e 7206     		jb	.L14
 291              		.loc 1 162 5 is_stmt 1 view .LVU102
 292              		.loc 1 162 18 is_stmt 0 view .LVU103
 293 0030 8B5024   		movl	36(%eax), %edx
 294 0033 895010   		movl	%edx, 16(%eax)
 295              	.L14:
 296              		.loc 1 166 3 is_stmt 1 view .LVU104
 297              	.LVL10:
 298              	.LBB293:
 299              	.LBI293:
 300              		.loc 2 842 20 view .LVU105
 301              	.LBB294:
 302              		.loc 2 844 3 view .LVU106
 303 0036 83EC08   		subl	$8, %esp
 304              		.cfi_def_cfa_offset 24
 305 0039 6A00     		pushl	$0
 306              		.cfi_def_cfa_offset 28
 307 003b 50       		pushl	%eax
 308              		.cfi_def_cfa_offset 32
 309 003c E8FCFFFF 		call	chThdDequeueNextI@PLT
 309      FF
 310              	.LVL11:
 311              		.loc 2 844 3 is_stmt 0 view .LVU107
 312              	.LBE294:
 313              	.LBE293:
 314              		.loc 1 167 1 view .LVU108
 315 0041 83C418   		addl	$24, %esp
 316              		.cfi_def_cfa_offset 8
 317 0044 5B       		popl	%ebx
 318              		.cfi_restore 3
 319              		.cfi_def_cfa_offset 4
 320 0045 C3       		ret
 321              		.cfi_endproc
 322              	.LFE236:
 323              		.size	ibqPostFullBufferI, .-ibqPostFullBufferI
 324              		.section	.text.ibqGetFullBufferTimeoutS,"ax",@progbits
 325              		.p2align 4,,15
 326              		.globl	ibqGetFullBufferTimeoutS
 327              		.type	ibqGetFullBufferTimeoutS, @function
 328              	ibqGetFullBufferTimeoutS:
 329              	.LVL12:
 330              	.LFB238:
GAS LISTING /tmp/cccyco2T.s 			page 7


 331              		.loc 1 223 57 is_stmt 1 view -0
 332              		.cfi_startproc
 333              		.loc 1 223 57 is_stmt 0 view .LVU110
 334 0000 57       		pushl	%edi
 335              		.cfi_def_cfa_offset 8
 336              		.cfi_offset 7, -8
 337 0001 56       		pushl	%esi
 338              		.cfi_def_cfa_offset 12
 339              		.cfi_offset 6, -12
 340 0002 53       		pushl	%ebx
 341              		.cfi_def_cfa_offset 16
 342              		.cfi_offset 3, -16
 343              		.loc 1 223 57 view .LVU111
 344 0003 8B742410 		movl	16(%esp), %esi
 345              		.loc 1 225 23 is_stmt 1 view .LVU112
 346              		.loc 1 227 3 view .LVU113
 347 0007 E8FCFFFF 		call	__x86.get_pc_thunk.bx
 347      FF
 348 000c 81C30200 		addl	$_GLOBAL_OFFSET_TABLE_, %ebx
 348      0000
 349              		.loc 1 223 57 is_stmt 0 view .LVU114
 350 0012 8B7C2414 		movl	20(%esp), %edi
 351              		.loc 1 227 9 view .LVU115
 352 0016 EB1F     		jmp	.L17
 353 0018 8DB42600 		.p2align 4,,10
 353      00000090 
 354              		.p2align 3
 355              	.L19:
 356              	.LBB303:
 357              		.loc 1 228 5 is_stmt 1 view .LVU116
 358              		.loc 1 228 8 is_stmt 0 view .LVU117
 359 0020 807E0800 		cmpb	$0, 8(%esi)
 360 0024 7532     		jne	.L20
 361              		.loc 1 231 5 is_stmt 1 view .LVU118
 362              	.LVL13:
 363              	.LBB304:
 364              	.LBI304:
 365              		.loc 2 828 21 view .LVU119
 366              	.LBB305:
 367              		.loc 2 831 3 view .LVU120
 368              		.loc 2 831 10 is_stmt 0 view .LVU121
 369 0026 83EC08   		subl	$8, %esp
 370              		.cfi_def_cfa_offset 24
 371 0029 57       		pushl	%edi
 372              		.cfi_def_cfa_offset 28
 373 002a 56       		pushl	%esi
 374              		.cfi_def_cfa_offset 32
 375 002b E8FCFFFF 		call	chThdEnqueueTimeoutS@PLT
 375      FF
 376              	.LVL14:
 377              		.loc 2 831 10 view .LVU122
 378              	.LBE305:
 379              	.LBE304:
 380              		.loc 1 232 5 is_stmt 1 view .LVU123
 381              		.loc 1 232 8 is_stmt 0 view .LVU124
 382 0030 83C410   		addl	$16, %esp
 383              		.cfi_def_cfa_offset 16
GAS LISTING /tmp/cccyco2T.s 			page 8


 384 0033 85C0     		testl	%eax, %eax
 385 0035 7817     		js	.L16
 386              	.LVL15:
 387              	.L17:
 388              		.loc 1 232 8 view .LVU125
 389              	.LBE303:
 390              		.loc 1 227 10 view .LVU126
 391 0037 8B460C   		movl	12(%esi), %eax
 392              		.loc 1 227 9 view .LVU127
 393 003a 85C0     		testl	%eax, %eax
 394 003c 74E2     		je	.L19
 395              	.LVL16:
 396              	.LBB306:
 397              	.LBI306:
 398              		.loc 1 222 9 is_stmt 1 view .LVU128
 399              	.LBB307:
 400              		.loc 1 237 3 view .LVU129
 401              		.loc 1 237 3 view .LVU130
 402              		.loc 1 240 3 view .LVU131
 403              		.loc 1 240 19 is_stmt 0 view .LVU132
 404 003e 8B5614   		movl	20(%esi), %edx
 405              		.loc 1 240 28 view .LVU133
 406 0041 8D4204   		leal	4(%edx), %eax
 407              		.loc 1 240 13 view .LVU134
 408 0044 894628   		movl	%eax, 40(%esi)
 409              		.loc 1 241 3 is_stmt 1 view .LVU135
 410              		.loc 1 241 25 is_stmt 0 view .LVU136
 411 0047 0302     		addl	(%edx), %eax
 412              		.loc 1 241 13 view .LVU137
 413 0049 89462C   		movl	%eax, 44(%esi)
 414              		.loc 1 243 3 is_stmt 1 view .LVU138
 415              	.LVL17:
 416              		.loc 1 241 13 is_stmt 0 view .LVU139
 417 004c 31C0     		xorl	%eax, %eax
 418              	.L16:
 419              	.LBE307:
 420              	.LBE306:
 421              		.loc 1 244 1 view .LVU140
 422 004e 5B       		popl	%ebx
 423              		.cfi_remember_state
 424              		.cfi_restore 3
 425              		.cfi_def_cfa_offset 12
 426 004f 5E       		popl	%esi
 427              		.cfi_restore 6
 428              		.cfi_def_cfa_offset 8
 429 0050 5F       		popl	%edi
 430              		.cfi_restore 7
 431              		.cfi_def_cfa_offset 4
 432 0051 C3       		ret
 433              		.p2align 4,,10
 434 0052 8DB60000 		.p2align 3
 434      0000
 435              	.L20:
 436              		.cfi_restore_state
 437 0058 5B       		popl	%ebx
 438              		.cfi_restore 3
 439              		.cfi_def_cfa_offset 12
GAS LISTING /tmp/cccyco2T.s 			page 9


 440              	.LBB308:
 441              		.loc 1 229 14 view .LVU141
 442 0059 B8FEFFFF 		movl	$-2, %eax
 442      FF
 443              	.LBE308:
 444              		.loc 1 244 1 view .LVU142
 445 005e 5E       		popl	%esi
 446              		.cfi_restore 6
 447              		.cfi_def_cfa_offset 8
 448 005f 5F       		popl	%edi
 449              		.cfi_restore 7
 450              		.cfi_def_cfa_offset 4
 451 0060 C3       		ret
 452              		.cfi_endproc
 453              	.LFE238:
 454              		.size	ibqGetFullBufferTimeoutS, .-ibqGetFullBufferTimeoutS
 455              		.section	.text.ibqGetFullBufferTimeout,"ax",@progbits
 456              		.p2align 4,,15
 457              		.globl	ibqGetFullBufferTimeout
 458              		.type	ibqGetFullBufferTimeout, @function
 459              	ibqGetFullBufferTimeout:
 460              	.LVL18:
 461              	.LFB237:
 462              		.loc 1 191 54 is_stmt 1 view -0
 463              		.cfi_startproc
 464              		.loc 1 192 3 view .LVU144
 465              		.loc 1 194 3 view .LVU145
 466              	.LBB309:
 467              	.LBI309:
 468              		.loc 2 509 20 view .LVU146
 469              	.LBE309:
 470              		.loc 2 511 3 view .LVU147
 471              	.LBB317:
 472              	.LBB310:
 473              	.LBI310:
 474              		.file 5 "../../../os/rt/include/chsys.h"
 475              		.loc 5 353 20 view .LVU148
 476              	.LBE310:
 477              	.LBE317:
 478              		.loc 5 355 3 view .LVU149
 479              	.LBB318:
 480              	.LBB315:
 481              	.LBB311:
 482              	.LBI311:
 483              		.file 6 "../../../os/common/ports/SIMIA32/chcore.h"
 484              		.loc 6 362 20 view .LVU150
 485              	.LBB312:
 486              		.loc 6 364 3 view .LVU151
 487 0000 E8FCFFFF 		call	__x86.get_pc_thunk.ax
 487      FF
 488 0005 05010000 		addl	$_GLOBAL_OFFSET_TABLE_, %eax
 488      00
 489              	.LBE312:
 490              	.LBE311:
 491              	.LBE315:
 492              	.LBE318:
 493              		.loc 1 191 54 is_stmt 0 view .LVU152
GAS LISTING /tmp/cccyco2T.s 			page 10


 494 000a 53       		pushl	%ebx
 495              		.cfi_def_cfa_offset 8
 496              		.cfi_offset 3, -8
 497 000b 83EC10   		subl	$16, %esp
 498              		.cfi_def_cfa_offset 24
 499              		.loc 1 195 9 view .LVU153
 500 000e FF74241C 		pushl	28(%esp)
 501              		.cfi_def_cfa_offset 28
 502 0012 FF74241C 		pushl	28(%esp)
 503              		.cfi_def_cfa_offset 32
 504              	.LBB319:
 505              	.LBB316:
 506              	.LBB314:
 507              	.LBB313:
 508              		.loc 6 364 16 view .LVU154
 509 0016 8B980000 		movl	port_irq_sts@GOT(%eax), %ebx
 509      0000
 510 001c C7030100 		movl	$1, (%ebx)
 510      0000
 511              	.LBE313:
 512              	.LBE314:
 513              	.LBE316:
 514              	.LBE319:
 515              		.loc 5 356 34 is_stmt 1 view .LVU155
 516              		.loc 5 357 20 view .LVU156
 517              		.loc 1 195 3 view .LVU157
 518              		.loc 1 195 9 is_stmt 0 view .LVU158
 519 0022 E8FCFFFF 		call	ibqGetFullBufferTimeoutS
 519      FF
 520              	.LVL19:
 521              		.loc 1 196 3 is_stmt 1 view .LVU159
 522              	.LBB320:
 523              	.LBI320:
 524              		.loc 2 520 20 view .LVU160
 525              	.LBE320:
 526              		.loc 2 522 3 view .LVU161
 527              	.LBB325:
 528              	.LBB321:
 529              	.LBI321:
 530              		.loc 5 365 20 view .LVU162
 531              	.LBB322:
 532              		.loc 5 367 22 view .LVU163
 533              		.loc 5 368 33 view .LVU164
 534              		.loc 5 374 3 view .LVU165
 535              		.loc 5 374 3 view .LVU166
 536              		.loc 5 378 3 view .LVU167
 537              	.LBB323:
 538              	.LBI323:
 539              		.loc 6 371 20 view .LVU168
 540              	.LBB324:
 541              		.loc 6 373 3 view .LVU169
 542              		.loc 6 373 16 is_stmt 0 view .LVU170
 543 0027 C7030000 		movl	$0, (%ebx)
 543      0000
 544              	.LBE324:
 545              	.LBE323:
 546              	.LBE322:
GAS LISTING /tmp/cccyco2T.s 			page 11


 547              	.LBE321:
 548              	.LBE325:
 549              		.loc 1 198 3 is_stmt 1 view .LVU171
 550              		.loc 1 199 1 is_stmt 0 view .LVU172
 551 002d 83C418   		addl	$24, %esp
 552              		.cfi_def_cfa_offset 8
 553 0030 5B       		popl	%ebx
 554              		.cfi_restore 3
 555              		.cfi_def_cfa_offset 4
 556 0031 C3       		ret
 557              		.cfi_endproc
 558              	.LFE237:
 559              		.size	ibqGetFullBufferTimeout, .-ibqGetFullBufferTimeout
 560              		.section	.text.ibqReleaseEmptyBuffer,"ax",@progbits
 561              		.p2align 4,,15
 562              		.globl	ibqReleaseEmptyBuffer
 563              		.type	ibqReleaseEmptyBuffer, @function
 564              	ibqReleaseEmptyBuffer:
 565              	.LVL20:
 566              	.LFB239:
 567              		.loc 1 254 57 is_stmt 1 view -0
 568              		.cfi_startproc
 569              		.loc 1 256 3 view .LVU174
 570              	.LBB326:
 571              	.LBI326:
 572              		.loc 2 509 20 view .LVU175
 573              	.LBE326:
 574              		.loc 2 511 3 view .LVU176
 575              	.LBB337:
 576              	.LBB327:
 577              	.LBI327:
 578              		.loc 5 353 20 view .LVU177
 579              	.LBE327:
 580              	.LBE337:
 581              		.loc 5 355 3 view .LVU178
 582              	.LBB338:
 583              	.LBB334:
 584              	.LBB328:
 585              	.LBI328:
 586              		.loc 6 362 20 view .LVU179
 587              	.LBB329:
 588              		.loc 6 364 3 view .LVU180
 589 0000 E8FCFFFF 		call	__x86.get_pc_thunk.dx
 589      FF
 590 0005 81C20200 		addl	$_GLOBAL_OFFSET_TABLE_, %edx
 590      0000
 591              	.LBE329:
 592              	.LBE328:
 593              	.LBE334:
 594              	.LBE338:
 595              		.loc 1 254 57 is_stmt 0 view .LVU181
 596 000b 53       		pushl	%ebx
 597              		.cfi_def_cfa_offset 8
 598              		.cfi_offset 3, -8
 599 000c 83EC08   		subl	$8, %esp
 600              		.cfi_def_cfa_offset 16
 601              		.loc 1 254 57 view .LVU182
GAS LISTING /tmp/cccyco2T.s 			page 12


 602 000f 8B442410 		movl	16(%esp), %eax
 603              	.LBB339:
 604              	.LBB335:
 605              	.LBB332:
 606              	.LBB330:
 607              		.loc 6 364 16 view .LVU183
 608 0013 8B9A0000 		movl	port_irq_sts@GOT(%edx), %ebx
 608      0000
 609              	.LBE330:
 610              	.LBE332:
 611              	.LBE335:
 612              	.LBE339:
 613              	.LBB340:
 614              	.LBB341:
 615              		.loc 1 275 7 view .LVU184
 616 0019 8B500C   		movl	12(%eax), %edx
 617              		.loc 1 275 17 view .LVU185
 618 001c 83EA01   		subl	$1, %edx
 619              	.LBE341:
 620              	.LBE340:
 621              	.LBB343:
 622              	.LBB336:
 623              	.LBB333:
 624              	.LBB331:
 625              		.loc 6 364 16 view .LVU186
 626 001f C7030100 		movl	$1, (%ebx)
 626      0000
 627              	.LBE331:
 628              	.LBE333:
 629              	.LBE336:
 630              	.LBE343:
 631              		.loc 5 356 34 is_stmt 1 view .LVU187
 632              		.loc 5 357 20 view .LVU188
 633              		.loc 1 257 3 view .LVU189
 634              	.LVL21:
 635              	.LBB344:
 636              	.LBI340:
 637              		.loc 1 269 8 view .LVU190
 638              	.LBB342:
 639              		.loc 1 271 23 view .LVU191
 640              		.loc 1 272 3 view .LVU192
 641              		.loc 1 272 3 view .LVU193
 642              		.loc 1 275 3 view .LVU194
 643              		.loc 1 275 17 is_stmt 0 view .LVU195
 644 0025 89500C   		movl	%edx, 12(%eax)
 645              		.loc 1 276 3 is_stmt 1 view .LVU196
 646              		.loc 1 276 16 is_stmt 0 view .LVU197
 647 0028 8B501C   		movl	28(%eax), %edx
 648 002b 035014   		addl	20(%eax), %edx
 649 002e 895014   		movl	%edx, 20(%eax)
 650              		.loc 1 277 3 is_stmt 1 view .LVU198
 651              		.loc 1 277 6 is_stmt 0 view .LVU199
 652 0031 3B5018   		cmpl	24(%eax), %edx
 653 0034 7206     		jb	.L25
 654              		.loc 1 278 5 is_stmt 1 view .LVU200
 655              		.loc 1 278 18 is_stmt 0 view .LVU201
 656 0036 8B5024   		movl	36(%eax), %edx
GAS LISTING /tmp/cccyco2T.s 			page 13


 657 0039 895014   		movl	%edx, 20(%eax)
 658              	.L25:
 659              		.loc 1 282 3 is_stmt 1 view .LVU202
 660              		.loc 1 285 11 is_stmt 0 view .LVU203
 661 003c 8B5030   		movl	48(%eax), %edx
 662              		.loc 1 282 13 view .LVU204
 663 003f C7402800 		movl	$0, 40(%eax)
 663      000000
 664              		.loc 1 285 3 is_stmt 1 view .LVU205
 665              		.loc 1 285 6 is_stmt 0 view .LVU206
 666 0046 85D2     		testl	%edx, %edx
 667 0048 7409     		je	.L26
 668              		.loc 1 286 5 is_stmt 1 view .LVU207
 669 004a 83EC0C   		subl	$12, %esp
 670              		.cfi_def_cfa_offset 28
 671 004d 50       		pushl	%eax
 672              		.cfi_def_cfa_offset 32
 673 004e FFD2     		call	*%edx
 674              	.LVL22:
 675              		.loc 1 286 5 is_stmt 0 view .LVU208
 676 0050 83C410   		addl	$16, %esp
 677              		.cfi_def_cfa_offset 16
 678              	.L26:
 679              	.LVL23:
 680              		.loc 1 286 5 view .LVU209
 681              	.LBE342:
 682              	.LBE344:
 683              		.loc 1 258 3 is_stmt 1 view .LVU210
 684              	.LBB345:
 685              	.LBI345:
 686              		.loc 2 520 20 view .LVU211
 687              	.LBE345:
 688              		.loc 2 522 3 view .LVU212
 689              	.LBB350:
 690              	.LBB346:
 691              	.LBI346:
 692              		.loc 5 365 20 view .LVU213
 693              	.LBB347:
 694              		.loc 5 367 22 view .LVU214
 695              		.loc 5 368 33 view .LVU215
 696              		.loc 5 374 3 view .LVU216
 697              		.loc 5 374 3 view .LVU217
 698              		.loc 5 378 3 view .LVU218
 699              	.LBB348:
 700              	.LBI348:
 701              		.loc 6 371 20 view .LVU219
 702              	.LBB349:
 703              		.loc 6 373 3 view .LVU220
 704              		.loc 6 373 16 is_stmt 0 view .LVU221
 705 0053 C7030000 		movl	$0, (%ebx)
 705      0000
 706              	.LBE349:
 707              	.LBE348:
 708              	.LBE347:
 709              	.LBE346:
 710              	.LBE350:
 711              		.loc 1 259 1 view .LVU222
GAS LISTING /tmp/cccyco2T.s 			page 14


 712 0059 83C408   		addl	$8, %esp
 713              		.cfi_def_cfa_offset 8
 714 005c 5B       		popl	%ebx
 715              		.cfi_restore 3
 716              		.cfi_def_cfa_offset 4
 717 005d C3       		ret
 718              		.cfi_endproc
 719              	.LFE239:
 720              		.size	ibqReleaseEmptyBuffer, .-ibqReleaseEmptyBuffer
 721              		.section	.text.ibqReleaseEmptyBufferS,"ax",@progbits
 722              		.p2align 4,,15
 723              		.globl	ibqReleaseEmptyBufferS
 724              		.type	ibqReleaseEmptyBufferS, @function
 725              	ibqReleaseEmptyBufferS:
 726              	.LVL24:
 727              	.LFB240:
 728              		.loc 1 269 60 is_stmt 1 view -0
 729              		.cfi_startproc
 730              		.loc 1 271 23 view .LVU224
 731              		.loc 1 272 3 view .LVU225
 732              		.loc 1 272 3 view .LVU226
 733              		.loc 1 275 3 view .LVU227
 734              		.loc 1 269 60 is_stmt 0 view .LVU228
 735 0000 8B442404 		movl	4(%esp), %eax
 736              		.loc 1 275 7 view .LVU229
 737 0004 8B500C   		movl	12(%eax), %edx
 738              		.loc 1 275 17 view .LVU230
 739 0007 83EA01   		subl	$1, %edx
 740 000a 89500C   		movl	%edx, 12(%eax)
 741              		.loc 1 276 3 is_stmt 1 view .LVU231
 742              		.loc 1 276 16 is_stmt 0 view .LVU232
 743 000d 8B501C   		movl	28(%eax), %edx
 744 0010 035014   		addl	20(%eax), %edx
 745 0013 895014   		movl	%edx, 20(%eax)
 746              		.loc 1 277 3 is_stmt 1 view .LVU233
 747              		.loc 1 277 6 is_stmt 0 view .LVU234
 748 0016 3B5018   		cmpl	24(%eax), %edx
 749 0019 7206     		jb	.L32
 750              		.loc 1 278 5 is_stmt 1 view .LVU235
 751              		.loc 1 278 18 is_stmt 0 view .LVU236
 752 001b 8B5024   		movl	36(%eax), %edx
 753 001e 895014   		movl	%edx, 20(%eax)
 754              	.L32:
 755              		.loc 1 282 3 is_stmt 1 view .LVU237
 756              		.loc 1 285 11 is_stmt 0 view .LVU238
 757 0021 8B5030   		movl	48(%eax), %edx
 758              		.loc 1 282 13 view .LVU239
 759 0024 C7402800 		movl	$0, 40(%eax)
 759      000000
 760              		.loc 1 285 3 is_stmt 1 view .LVU240
 761              		.loc 1 285 6 is_stmt 0 view .LVU241
 762 002b 85D2     		testl	%edx, %edx
 763 002d 7409     		je	.L31
 764              		.loc 1 286 5 is_stmt 1 view .LVU242
 765 002f 89442404 		movl	%eax, 4(%esp)
 766              	.LVL25:
 767              		.loc 1 286 5 is_stmt 0 view .LVU243
GAS LISTING /tmp/cccyco2T.s 			page 15


 768 0033 FFE2     		jmp	*%edx
 769              	.LVL26:
 770              		.p2align 4,,10
 771 0035 8D7600   		.p2align 3
 772              	.L31:
 773              		.loc 1 288 1 view .LVU244
 774 0038 C3       		ret
 775              		.cfi_endproc
 776              	.LFE240:
 777              		.size	ibqReleaseEmptyBufferS, .-ibqReleaseEmptyBufferS
 778              		.section	.text.ibqGetTimeout,"ax",@progbits
 779              		.p2align 4,,15
 780              		.globl	ibqGetTimeout
 781              		.type	ibqGetTimeout, @function
 782              	ibqGetTimeout:
 783              	.LVL27:
 784              	.LFB241:
 785              		.loc 1 309 73 is_stmt 1 view -0
 786              		.cfi_startproc
 787              		.loc 1 310 3 view .LVU246
 788              		.loc 1 312 3 view .LVU247
 789              	.LBB351:
 790              	.LBI351:
 791              		.loc 2 509 20 view .LVU248
 792              	.LBE351:
 793              		.loc 2 511 3 view .LVU249
 794              	.LBB359:
 795              	.LBB352:
 796              	.LBI352:
 797              		.loc 5 353 20 view .LVU250
 798              	.LBE352:
 799              	.LBE359:
 800              		.loc 5 355 3 view .LVU251
 801              	.LBB360:
 802              	.LBB357:
 803              	.LBB353:
 804              	.LBI353:
 805              		.loc 6 362 20 view .LVU252
 806              	.LBB354:
 807              		.loc 6 364 3 view .LVU253
 808 0000 E8FCFFFF 		call	__x86.get_pc_thunk.ax
 808      FF
 809 0005 05010000 		addl	$_GLOBAL_OFFSET_TABLE_, %eax
 809      00
 810              	.LBE354:
 811              	.LBE353:
 812              	.LBE357:
 813              	.LBE360:
 814              		.loc 1 309 73 is_stmt 0 view .LVU254
 815 000a 57       		pushl	%edi
 816              		.cfi_def_cfa_offset 8
 817              		.cfi_offset 7, -8
 818 000b 56       		pushl	%esi
 819              		.cfi_def_cfa_offset 12
 820              		.cfi_offset 6, -12
 821 000c 53       		pushl	%ebx
 822              		.cfi_def_cfa_offset 16
GAS LISTING /tmp/cccyco2T.s 			page 16


 823              		.cfi_offset 3, -16
 824              		.loc 1 309 73 view .LVU255
 825 000d 8B5C2410 		movl	16(%esp), %ebx
 826              		.loc 1 315 11 view .LVU256
 827 0011 8B5328   		movl	40(%ebx), %edx
 828              	.LBB361:
 829              	.LBB358:
 830              	.LBB356:
 831              	.LBB355:
 832              		.loc 6 364 16 view .LVU257
 833 0014 8BB00000 		movl	port_irq_sts@GOT(%eax), %esi
 833      0000
 834 001a C7060100 		movl	$1, (%esi)
 834      0000
 835              	.LBE355:
 836              	.LBE356:
 837              	.LBE358:
 838              	.LBE361:
 839              		.loc 5 356 34 is_stmt 1 view .LVU258
 840              		.loc 5 357 20 view .LVU259
 841              		.loc 1 315 3 view .LVU260
 842              		.loc 1 315 6 is_stmt 0 view .LVU261
 843 0020 85D2     		testl	%edx, %edx
 844 0022 7454     		je	.L46
 845              	.L35:
 846              		.loc 1 324 3 is_stmt 1 view .LVU262
 847              		.loc 1 324 7 is_stmt 0 view .LVU263
 848 0024 0FB63A   		movzbl	(%edx), %edi
 849              	.LVL28:
 850              		.loc 1 325 3 is_stmt 1 view .LVU264
 851              		.loc 1 325 12 is_stmt 0 view .LVU265
 852 0027 83C201   		addl	$1, %edx
 853 002a 895328   		movl	%edx, 40(%ebx)
 854              		.loc 1 329 3 is_stmt 1 view .LVU266
 855              		.loc 1 329 6 is_stmt 0 view .LVU267
 856 002d 3B532C   		cmpl	44(%ebx), %edx
 857 0030 7234     		jb	.L39
 858              		.loc 1 330 5 is_stmt 1 view .LVU268
 859              	.LVL29:
 860              	.LBB362:
 861              	.LBI362:
 862              		.loc 1 269 8 view .LVU269
 863              	.LBB363:
 864              		.loc 1 271 23 view .LVU270
 865              		.loc 1 272 3 view .LVU271
 866              		.loc 1 272 3 view .LVU272
 867              		.loc 1 275 3 view .LVU273
 868              		.loc 1 275 7 is_stmt 0 view .LVU274
 869 0032 8B430C   		movl	12(%ebx), %eax
 870              		.loc 1 276 16 view .LVU275
 871 0035 8B531C   		movl	28(%ebx), %edx
 872 0038 035314   		addl	20(%ebx), %edx
 873              		.loc 1 275 17 view .LVU276
 874 003b 83E801   		subl	$1, %eax
 875              		.loc 1 276 16 view .LVU277
 876 003e 895314   		movl	%edx, 20(%ebx)
 877              		.loc 1 275 17 view .LVU278
GAS LISTING /tmp/cccyco2T.s 			page 17


 878 0041 89430C   		movl	%eax, 12(%ebx)
 879              		.loc 1 276 3 is_stmt 1 view .LVU279
 880              		.loc 1 277 3 view .LVU280
 881              		.loc 1 277 6 is_stmt 0 view .LVU281
 882 0044 3B5318   		cmpl	24(%ebx), %edx
 883 0047 7206     		jb	.L40
 884              		.loc 1 278 5 is_stmt 1 view .LVU282
 885              		.loc 1 278 18 is_stmt 0 view .LVU283
 886 0049 8B4324   		movl	36(%ebx), %eax
 887 004c 894314   		movl	%eax, 20(%ebx)
 888              	.L40:
 889              		.loc 1 282 3 is_stmt 1 view .LVU284
 890              		.loc 1 285 11 is_stmt 0 view .LVU285
 891 004f 8B4330   		movl	48(%ebx), %eax
 892              		.loc 1 282 13 view .LVU286
 893 0052 C7432800 		movl	$0, 40(%ebx)
 893      000000
 894              		.loc 1 285 3 is_stmt 1 view .LVU287
 895              		.loc 1 285 6 is_stmt 0 view .LVU288
 896 0059 85C0     		testl	%eax, %eax
 897 005b 7409     		je	.L39
 898              		.loc 1 286 5 is_stmt 1 view .LVU289
 899 005d 83EC0C   		subl	$12, %esp
 900              		.cfi_def_cfa_offset 28
 901 0060 53       		pushl	%ebx
 902              		.cfi_def_cfa_offset 32
 903 0061 FFD0     		call	*%eax
 904              	.LVL30:
 905 0063 83C410   		addl	$16, %esp
 906              		.cfi_def_cfa_offset 16
 907              	.LVL31:
 908              	.L39:
 909              		.loc 1 286 5 is_stmt 0 view .LVU290
 910              	.LBE363:
 911              	.LBE362:
 912              		.loc 1 333 3 is_stmt 1 view .LVU291
 913              	.LBB364:
 914              	.LBI364:
 915              		.loc 2 520 20 view .LVU292
 916              	.LBE364:
 917              		.loc 2 522 3 view .LVU293
 918              	.LBB373:
 919              	.LBB365:
 920              	.LBI365:
 921              		.loc 5 365 20 view .LVU294
 922              	.LBB366:
 923              		.loc 5 367 22 view .LVU295
 924              		.loc 5 368 33 view .LVU296
 925              		.loc 5 374 3 view .LVU297
 926              		.loc 5 374 3 view .LVU298
 927              		.loc 5 378 3 view .LVU299
 928              	.LBB367:
 929              	.LBI367:
 930              		.loc 6 371 20 view .LVU300
 931              	.LBB368:
 932              		.loc 6 373 3 view .LVU301
 933              	.LBE368:
GAS LISTING /tmp/cccyco2T.s 			page 18


 934              	.LBE367:
 935              	.LBE366:
 936              	.LBE365:
 937              	.LBE373:
 938              		.loc 1 335 1 is_stmt 0 view .LVU302
 939 0066 89F8     		movl	%edi, %eax
 940 0068 5B       		popl	%ebx
 941              		.cfi_remember_state
 942              		.cfi_restore 3
 943              		.cfi_def_cfa_offset 12
 944              	.LBB374:
 945              	.LBB372:
 946              	.LBB371:
 947              	.LBB370:
 948              	.LBB369:
 949              		.loc 6 373 16 view .LVU303
 950 0069 C7060000 		movl	$0, (%esi)
 950      0000
 951              	.LBE369:
 952              	.LBE370:
 953              	.LBE371:
 954              	.LBE372:
 955              	.LBE374:
 956              		.loc 1 334 3 is_stmt 1 view .LVU304
 957              		.loc 1 335 1 is_stmt 0 view .LVU305
 958 006f 5E       		popl	%esi
 959              		.cfi_restore 6
 960              		.cfi_def_cfa_offset 8
 961 0070 5F       		popl	%edi
 962              		.cfi_restore 7
 963              		.cfi_def_cfa_offset 4
 964              	.LVL32:
 965              		.loc 1 335 1 view .LVU306
 966 0071 C3       		ret
 967              	.LVL33:
 968              		.p2align 4,,10
 969 0072 8DB60000 		.p2align 3
 969      0000
 970              	.L46:
 971              		.cfi_restore_state
 972              		.loc 1 316 5 is_stmt 1 view .LVU307
 973              		.loc 1 316 11 is_stmt 0 view .LVU308
 974 0078 83EC08   		subl	$8, %esp
 975              		.cfi_def_cfa_offset 24
 976 007b FF74241C 		pushl	28(%esp)
 977              		.cfi_def_cfa_offset 28
 978 007f 53       		pushl	%ebx
 979              		.cfi_def_cfa_offset 32
 980 0080 E8FCFFFF 		call	ibqGetFullBufferTimeoutS
 980      FF
 981              	.LVL34:
 982              		.loc 1 317 8 view .LVU309
 983 0085 83C410   		addl	$16, %esp
 984              		.cfi_def_cfa_offset 16
 985              		.loc 1 316 11 view .LVU310
 986 0088 89C7     		movl	%eax, %edi
 987              	.LVL35:
GAS LISTING /tmp/cccyco2T.s 			page 19


 988              		.loc 1 317 5 is_stmt 1 view .LVU311
 989              		.loc 1 317 8 is_stmt 0 view .LVU312
 990 008a 85C0     		testl	%eax, %eax
 991 008c 75D8     		jne	.L39
 992 008e 8B5328   		movl	40(%ebx), %edx
 993 0091 EB91     		jmp	.L35
 994              		.cfi_endproc
 995              	.LFE241:
 996              		.size	ibqGetTimeout, .-ibqGetTimeout
 997              		.section	.text.ibqReadTimeout,"ax",@progbits
 998              		.p2align 4,,15
 999              		.globl	ibqReadTimeout
 1000              		.type	ibqReadTimeout, @function
 1001              	ibqReadTimeout:
 1002              	.LVL36:
 1003              	.LFB242:
 1004              		.loc 1 359 56 is_stmt 1 view -0
 1005              		.cfi_startproc
 1006              		.loc 1 360 3 view .LVU314
 1007              		.loc 1 361 3 view .LVU315
 1008              		.loc 1 363 3 view .LVU316
 1009              		.loc 1 363 3 view .LVU317
 1010              		.loc 1 365 3 view .LVU318
 1011              	.LBB375:
 1012              	.LBI375:
 1013              		.loc 2 509 20 view .LVU319
 1014              	.LBE375:
 1015              		.loc 2 511 3 view .LVU320
 1016              	.LBB386:
 1017              	.LBB376:
 1018              	.LBI376:
 1019              		.loc 5 353 20 view .LVU321
 1020              	.LBE376:
 1021              	.LBE386:
 1022              		.loc 5 355 3 view .LVU322
 1023              	.LBB387:
 1024              	.LBB383:
 1025              	.LBB377:
 1026              	.LBI377:
 1027              		.loc 6 362 20 view .LVU323
 1028              	.LBB378:
 1029              		.loc 6 364 3 view .LVU324
 1030 0000 E8FCFFFF 		call	__x86.get_pc_thunk.ax
 1030      FF
 1031 0005 05010000 		addl	$_GLOBAL_OFFSET_TABLE_, %eax
 1031      00
 1032              	.LBE378:
 1033              	.LBE377:
 1034              	.LBE383:
 1035              	.LBE387:
 1036              		.loc 1 359 56 is_stmt 0 view .LVU325
 1037 000a 55       		pushl	%ebp
 1038              		.cfi_def_cfa_offset 8
 1039              		.cfi_offset 5, -8
 1040              		.loc 1 360 10 view .LVU326
 1041 000b 31ED     		xorl	%ebp, %ebp
 1042              		.loc 1 359 56 view .LVU327
GAS LISTING /tmp/cccyco2T.s 			page 20


 1043 000d 57       		pushl	%edi
 1044              		.cfi_def_cfa_offset 12
 1045              		.cfi_offset 7, -12
 1046 000e 56       		pushl	%esi
 1047              		.cfi_def_cfa_offset 16
 1048              		.cfi_offset 6, -16
 1049 000f 53       		pushl	%ebx
 1050              		.cfi_def_cfa_offset 20
 1051              		.cfi_offset 3, -20
 1052 0010 83EC2C   		subl	$44, %esp
 1053              		.cfi_def_cfa_offset 64
 1054              	.LBB388:
 1055              	.LBB384:
 1056              	.LBB381:
 1057              	.LBB379:
 1058              		.loc 6 364 16 view .LVU328
 1059 0013 8B880000 		movl	port_irq_sts@GOT(%eax), %ecx
 1059      0000
 1060              	.LBE379:
 1061              	.LBE381:
 1062              	.LBE384:
 1063              	.LBE388:
 1064              		.loc 1 359 56 view .LVU329
 1065 0019 8B7C2440 		movl	64(%esp), %edi
 1066 001d 8B742444 		movl	68(%esp), %esi
 1067 0021 89442410 		movl	%eax, 16(%esp)
 1068              	.LBB389:
 1069              	.LBB390:
 1070              	.LBB391:
 1071              		.file 7 "../../../os/rt/include/chvt.h"
 1072              		.loc 7 118 19 view .LVU330
 1073 0025 8B800000 		movl	ch@GOT(%eax), %eax
 1073      0000
 1074              	.LBE391:
 1075              	.LBE390:
 1076              	.LBE389:
 1077              	.LBB394:
 1078              	.LBB385:
 1079              	.LBB382:
 1080              	.LBB380:
 1081              		.loc 6 364 16 view .LVU331
 1082 002b 894C2408 		movl	%ecx, 8(%esp)
 1083 002f C7010100 		movl	$1, (%ecx)
 1083      0000
 1084              	.LBE380:
 1085              	.LBE382:
 1086              	.LBE385:
 1087              	.LBE394:
 1088              		.loc 5 356 34 is_stmt 1 view .LVU332
 1089              		.loc 5 357 20 view .LVU333
 1090              		.loc 1 368 3 view .LVU334
 1091              	.LBB395:
 1092              	.LBI389:
 1093              		.loc 2 634 25 view .LVU335
 1094              	.LBE395:
 1095              		.loc 2 636 3 view .LVU336
 1096              	.LBB396:
GAS LISTING /tmp/cccyco2T.s 			page 21


 1097              	.LBB393:
 1098              	.LBI390:
 1099              		.loc 7 115 25 view .LVU337
 1100              	.LBB392:
 1101              		.loc 7 118 3 view .LVU338
 1102              		.loc 7 118 19 is_stmt 0 view .LVU339
 1103 0035 8944241C 		movl	%eax, 28(%esp)
 1104 0039 0FB74028 		movzwl	40(%eax), %eax
 1105              	.LVL37:
 1106              		.loc 7 118 19 view .LVU340
 1107              	.LBE392:
 1108              	.LBE393:
 1109              	.LBE396:
 1110              	.LBB397:
 1111              	.LBI397:
 1112              		.loc 2 648 25 is_stmt 1 view .LVU341
 1113              	.LBE397:
 1114              		.loc 2 651 3 view .LVU342
 1115              	.LBB400:
 1116              	.LBB398:
 1117              	.LBI398:
 1118              		.file 8 "../../../os/rt/include/chtime.h"
 1119              		.loc 8 472 25 view .LVU343
 1120              	.LBB399:
 1121              		.loc 8 476 3 view .LVU344
 1122              		.loc 8 476 3 view .LVU345
 1123              		.loc 8 479 3 view .LVU346
 1124              		.loc 8 479 18 is_stmt 0 view .LVU347
 1125 003d 66034424 		addw	76(%esp), %ax
 1125      4C
 1126              	.LVL38:
 1127              		.loc 8 479 18 view .LVU348
 1128 0042 66894424 		movw	%ax, 26(%esp)
 1128      1A
 1129              	.LVL39:
 1130              		.loc 8 479 18 view .LVU349
 1131              	.LBE399:
 1132              	.LBE398:
 1133              	.LBE400:
 1134              	.LBB401:
 1135              	.LBB402:
 1136              		.loc 1 379 38 view .LVU350
 1137 0047 8B44244C 		movl	76(%esp), %eax
 1138              	.LVL40:
 1139              		.loc 1 379 38 view .LVU351
 1140 004b 83E801   		subl	$1, %eax
 1141 004e 89442414 		movl	%eax, 20(%esp)
 1142 0052 E9C40000 		jmp	.L61
 1142      00
 1143              	.LVL41:
 1144 0057 8DB42600 		.p2align 4,,10
 1144      00000066 
 1144      90
 1145              		.p2align 3
 1146              	.L67:
 1147              		.loc 1 379 38 view .LVU352
 1148              	.LBE402:
GAS LISTING /tmp/cccyco2T.s 			page 22


 1149              		.loc 1 413 7 is_stmt 1 view .LVU353
 1150              	.LBB426:
 1151              	.LBI426:
 1152              		.file 9 "/usr/include/i386-linux-gnu/bits/string_fortified.h"
 1153              		.loc 9 31 1 view .LVU354
 1154              	.LBB427:
 1155              		.loc 9 34 3 view .LVU355
 1156              		.loc 9 34 10 is_stmt 0 view .LVU356
 1157 0060 8B10     		movl	(%eax), %edx
 1158              	.LVL42:
 1159              		.loc 9 34 10 view .LVU357
 1160              	.LBE427:
 1161              	.LBE426:
 1162              		.loc 1 414 17 view .LVU358
 1163 0062 83C640   		addl	$64, %esi
 1164              	.LVL43:
 1165              		.loc 1 416 17 view .LVU359
 1166 0065 83C540   		addl	$64, %ebp
 1167              	.LVL44:
 1168              	.LBB429:
 1169              	.LBB428:
 1170              		.loc 9 34 10 view .LVU360
 1171 0068 8956C0   		movl	%edx, -64(%esi)
 1172              	.LVL45:
 1173              		.loc 9 34 10 view .LVU361
 1174 006b 8B5004   		movl	4(%eax), %edx
 1175 006e 8956C4   		movl	%edx, -60(%esi)
 1176 0071 8B5008   		movl	8(%eax), %edx
 1177 0074 8956C8   		movl	%edx, -56(%esi)
 1178 0077 8B500C   		movl	12(%eax), %edx
 1179 007a 8956CC   		movl	%edx, -52(%esi)
 1180 007d 8B5010   		movl	16(%eax), %edx
 1181 0080 8956D0   		movl	%edx, -48(%esi)
 1182 0083 8B5014   		movl	20(%eax), %edx
 1183 0086 8956D4   		movl	%edx, -44(%esi)
 1184 0089 8B5018   		movl	24(%eax), %edx
 1185 008c 8956D8   		movl	%edx, -40(%esi)
 1186 008f 8B501C   		movl	28(%eax), %edx
 1187 0092 8956DC   		movl	%edx, -36(%esi)
 1188 0095 8B5020   		movl	32(%eax), %edx
 1189 0098 8956E0   		movl	%edx, -32(%esi)
 1190 009b 8B5024   		movl	36(%eax), %edx
 1191 009e 8956E4   		movl	%edx, -28(%esi)
 1192 00a1 8B5028   		movl	40(%eax), %edx
 1193 00a4 8956E8   		movl	%edx, -24(%esi)
 1194 00a7 8B502C   		movl	44(%eax), %edx
 1195 00aa 8956EC   		movl	%edx, -20(%esi)
 1196 00ad 8B5030   		movl	48(%eax), %edx
 1197 00b0 8956F0   		movl	%edx, -16(%esi)
 1198 00b3 8B5034   		movl	52(%eax), %edx
 1199 00b6 8956F4   		movl	%edx, -12(%esi)
 1200 00b9 8B5038   		movl	56(%eax), %edx
 1201 00bc 8956F8   		movl	%edx, -8(%esi)
 1202 00bf 8B403C   		movl	60(%eax), %eax
 1203 00c2 8946FC   		movl	%eax, -4(%esi)
 1204              	.LVL46:
 1205              		.loc 9 34 10 view .LVU362
GAS LISTING /tmp/cccyco2T.s 			page 23


 1206              	.LBE428:
 1207              	.LBE429:
 1208              		.loc 1 414 7 is_stmt 1 view .LVU363
 1209              		.loc 1 415 7 view .LVU364
 1210              		.loc 1 415 17 is_stmt 0 view .LVU365
 1211 00c5 8B4728   		movl	40(%edi), %eax
 1212 00c8 83C040   		addl	$64, %eax
 1213 00cb 894728   		movl	%eax, 40(%edi)
 1214              		.loc 1 416 7 is_stmt 1 view .LVU366
 1215              	.LVL47:
 1216              	.L55:
 1217              		.loc 1 426 5 view .LVU367
 1218              		.loc 1 426 8 is_stmt 0 view .LVU368
 1219 00ce 39472C   		cmpl	%eax, 44(%edi)
 1220 00d1 7734     		ja	.L57
 1221              		.loc 1 427 7 is_stmt 1 view .LVU369
 1222              	.LVL48:
 1223              	.LBB430:
 1224              	.LBI430:
 1225              		.loc 1 269 8 view .LVU370
 1226              	.LBB431:
 1227              		.loc 1 271 23 view .LVU371
 1228              		.loc 1 272 3 view .LVU372
 1229              		.loc 1 272 3 view .LVU373
 1230              		.loc 1 275 3 view .LVU374
 1231              		.loc 1 275 7 is_stmt 0 view .LVU375
 1232 00d3 8B470C   		movl	12(%edi), %eax
 1233              		.loc 1 275 17 view .LVU376
 1234 00d6 83E801   		subl	$1, %eax
 1235 00d9 89470C   		movl	%eax, 12(%edi)
 1236              		.loc 1 276 3 is_stmt 1 view .LVU377
 1237              		.loc 1 276 16 is_stmt 0 view .LVU378
 1238 00dc 8B471C   		movl	28(%edi), %eax
 1239 00df 034714   		addl	20(%edi), %eax
 1240 00e2 894714   		movl	%eax, 20(%edi)
 1241              		.loc 1 277 3 is_stmt 1 view .LVU379
 1242              		.loc 1 277 6 is_stmt 0 view .LVU380
 1243 00e5 3B4718   		cmpl	24(%edi), %eax
 1244 00e8 7206     		jb	.L58
 1245              		.loc 1 278 5 is_stmt 1 view .LVU381
 1246              		.loc 1 278 18 is_stmt 0 view .LVU382
 1247 00ea 8B4724   		movl	36(%edi), %eax
 1248 00ed 894714   		movl	%eax, 20(%edi)
 1249              	.L58:
 1250              		.loc 1 282 3 is_stmt 1 view .LVU383
 1251              		.loc 1 285 11 is_stmt 0 view .LVU384
 1252 00f0 8B4730   		movl	48(%edi), %eax
 1253              		.loc 1 282 13 view .LVU385
 1254 00f3 C7472800 		movl	$0, 40(%edi)
 1254      000000
 1255              		.loc 1 285 3 is_stmt 1 view .LVU386
 1256              		.loc 1 285 6 is_stmt 0 view .LVU387
 1257 00fa 85C0     		testl	%eax, %eax
 1258 00fc 7409     		je	.L57
 1259              		.loc 1 286 5 is_stmt 1 view .LVU388
 1260 00fe 83EC0C   		subl	$12, %esp
 1261              		.cfi_def_cfa_offset 76
GAS LISTING /tmp/cccyco2T.s 			page 24


 1262 0101 57       		pushl	%edi
 1263              		.cfi_def_cfa_offset 80
 1264 0102 FFD0     		call	*%eax
 1265              	.LVL49:
 1266 0104 83C410   		addl	$16, %esp
 1267              		.cfi_def_cfa_offset 64
 1268              	.LVL50:
 1269              	.L57:
 1270              		.loc 1 286 5 is_stmt 0 view .LVU389
 1271              	.LBE431:
 1272              	.LBE430:
 1273              		.loc 1 431 5 is_stmt 1 view .LVU390
 1274              	.LBB432:
 1275              	.LBI432:
 1276              		.loc 2 520 20 view .LVU391
 1277              	.LBE432:
 1278              	.LBE401:
 1279              		.loc 2 522 3 view .LVU392
 1280              	.LBB461:
 1281              	.LBB445:
 1282              	.LBB433:
 1283              	.LBI433:
 1284              		.loc 5 365 20 view .LVU393
 1285              	.LBB434:
 1286              		.loc 5 367 22 view .LVU394
 1287              		.loc 5 368 33 view .LVU395
 1288              		.loc 5 374 3 view .LVU396
 1289              		.loc 5 374 3 view .LVU397
 1290              		.loc 5 378 3 view .LVU398
 1291              	.LBB435:
 1292              	.LBI435:
 1293              		.loc 6 371 20 view .LVU399
 1294              	.LBB436:
 1295              		.loc 6 373 3 view .LVU400
 1296              	.LBE436:
 1297              	.LBE435:
 1298              	.LBE434:
 1299              	.LBE433:
 1300              	.LBE445:
 1301              		.loc 1 432 5 view .LVU401
 1302              	.LBB446:
 1303              	.LBB443:
 1304              	.LBB441:
 1305              	.LBB439:
 1306              	.LBB437:
 1307              		.loc 6 373 16 is_stmt 0 view .LVU402
 1308 0107 8B442408 		movl	8(%esp), %eax
 1309              	.LBE437:
 1310              	.LBE439:
 1311              	.LBE441:
 1312              	.LBE443:
 1313              	.LBE446:
 1314              		.loc 1 432 8 view .LVU403
 1315 010b 3B6C2448 		cmpl	72(%esp), %ebp
 1316 010f 0F83CB00 		jnb	.L60
 1316      0000
 1317              		.loc 1 435 5 is_stmt 1 view .LVU404
GAS LISTING /tmp/cccyco2T.s 			page 25


 1318              	.LBB447:
 1319              	.LBI447:
 1320              		.loc 2 509 20 view .LVU405
 1321              	.LBE447:
 1322              	.LBE461:
 1323              		.loc 2 511 3 view .LVU406
 1324              	.LBB462:
 1325              	.LBB452:
 1326              	.LBB448:
 1327              	.LBI448:
 1328              		.loc 5 353 20 view .LVU407
 1329              	.LBE448:
 1330              	.LBE452:
 1331              	.LBE462:
 1332              		.loc 5 355 3 view .LVU408
 1333              	.LBB463:
 1334              	.LBB453:
 1335              	.LBB451:
 1336              	.LBB449:
 1337              	.LBI449:
 1338              		.loc 6 362 20 view .LVU409
 1339              	.LBB450:
 1340              		.loc 6 364 3 view .LVU410
 1341              		.loc 6 364 16 is_stmt 0 view .LVU411
 1342 0115 C7000100 		movl	$1, (%eax)
 1342      0000
 1343              	.LBE450:
 1344              	.LBE449:
 1345              	.LBE451:
 1346              	.LBE453:
 1347              	.LBE463:
 1348              		.loc 5 356 34 is_stmt 1 view .LVU412
 1349              		.loc 5 357 20 view .LVU413
 1350              	.LVL51:
 1351              	.L61:
 1352              		.loc 1 370 3 view .LVU414
 1353              	.LBB464:
 1354              		.loc 1 371 5 view .LVU415
 1355              		.loc 1 374 5 view .LVU416
 1356              		.loc 1 374 13 is_stmt 0 view .LVU417
 1357 011b 8B4728   		movl	40(%edi), %eax
 1358              		.loc 1 374 8 view .LVU418
 1359 011e 85C0     		testl	%eax, %eax
 1360 0120 744E     		je	.L66
 1361              	.L48:
 1362              		.loc 1 404 5 is_stmt 1 view .LVU419
 1363              		.loc 1 404 10 is_stmt 0 view .LVU420
 1364 0122 8B572C   		movl	44(%edi), %edx
 1365              		.loc 1 405 19 view .LVU421
 1366 0125 8B5C2448 		movl	72(%esp), %ebx
 1367              		.loc 1 404 10 view .LVU422
 1368 0129 29C2     		subl	%eax, %edx
 1369              	.LVL52:
 1370              		.loc 1 405 5 is_stmt 1 view .LVU423
 1371              		.loc 1 405 19 is_stmt 0 view .LVU424
 1372 012b 29EB     		subl	%ebp, %ebx
 1373 012d 39D3     		cmpl	%edx, %ebx
GAS LISTING /tmp/cccyco2T.s 			page 26


 1374 012f 0F46D3   		cmovbe	%ebx, %edx
 1375              	.LVL53:
 1376              		.loc 1 411 5 is_stmt 1 view .LVU425
 1377              		.loc 1 411 8 is_stmt 0 view .LVU426
 1378 0132 83FA40   		cmpl	$64, %edx
 1379 0135 0F8725FF 		ja	.L67
 1379      FFFF
 1380              		.loc 1 419 7 is_stmt 1 view .LVU427
 1381              	.LVL54:
 1382              	.LBB454:
 1383              	.LBI454:
 1384              		.loc 9 31 1 view .LVU428
 1385              	.LBB455:
 1386              		.loc 9 34 3 view .LVU429
 1387              		.loc 9 34 10 is_stmt 0 view .LVU430
 1388 013b 83EC04   		subl	$4, %esp
 1389              		.cfi_def_cfa_offset 68
 1390 013e 52       		pushl	%edx
 1391              		.cfi_def_cfa_offset 72
 1392 013f 89542414 		movl	%edx, 20(%esp)
 1393 0143 50       		pushl	%eax
 1394              		.cfi_def_cfa_offset 76
 1395              	.LVL55:
 1396              		.loc 9 34 10 view .LVU431
 1397 0144 56       		pushl	%esi
 1398              		.cfi_def_cfa_offset 80
 1399 0145 8B5C2420 		movl	32(%esp), %ebx
 1400 0149 E8FCFFFF 		call	memcpy@PLT
 1400      FF
 1401              	.LVL56:
 1402              		.loc 9 34 10 view .LVU432
 1403              	.LBE455:
 1404              	.LBE454:
 1405              		.loc 1 420 7 is_stmt 1 view .LVU433
 1406              		.loc 1 420 17 is_stmt 0 view .LVU434
 1407 014e 8B54241C 		movl	28(%esp), %edx
 1408              		.loc 1 421 17 view .LVU435
 1409 0152 8B4728   		movl	40(%edi), %eax
 1410              		.loc 1 422 17 view .LVU436
 1411 0155 83C410   		addl	$16, %esp
 1412              		.cfi_def_cfa_offset 64
 1413              		.loc 1 421 17 view .LVU437
 1414 0158 01D0     		addl	%edx, %eax
 1415              		.loc 1 420 17 view .LVU438
 1416 015a 01D6     		addl	%edx, %esi
 1417              	.LVL57:
 1418              		.loc 1 421 7 is_stmt 1 view .LVU439
 1419              		.loc 1 422 17 is_stmt 0 view .LVU440
 1420 015c 01D5     		addl	%edx, %ebp
 1421              	.LVL58:
 1422              		.loc 1 421 17 view .LVU441
 1423 015e 894728   		movl	%eax, 40(%edi)
 1424              		.loc 1 422 7 is_stmt 1 view .LVU442
 1425              	.LVL59:
 1426              		.loc 1 422 7 is_stmt 0 view .LVU443
 1427 0161 E968FFFF 		jmp	.L55
 1427      FF
GAS LISTING /tmp/cccyco2T.s 			page 27


 1428              	.LVL60:
 1429 0166 8DB42600 		.p2align 4,,10
 1429      0000008D 
 1429      7600
 1430              		.p2align 3
 1431              	.L66:
 1432              	.LBB456:
 1433              		.loc 1 375 7 is_stmt 1 view .LVU444
 1434              		.loc 1 379 7 view .LVU445
 1435              		.loc 1 379 10 is_stmt 0 view .LVU446
 1436 0170 837C2414 		cmpl	$-3, 20(%esp)
 1436      FD
 1437 0175 7739     		ja	.L68
 1438              	.LBB403:
 1439              		.loc 1 383 9 is_stmt 1 view .LVU447
 1440              	.LBB404:
 1441              	.LBI404:
 1442              		.loc 2 634 25 view .LVU448
 1443              	.LBE404:
 1444              	.LBE403:
 1445              	.LBE456:
 1446              	.LBE464:
 1447              		.loc 2 636 3 view .LVU449
 1448              	.LBB465:
 1449              	.LBB457:
 1450              	.LBB418:
 1451              	.LBB409:
 1452              	.LBB405:
 1453              	.LBI405:
 1454              		.loc 7 115 25 view .LVU450
 1455              	.LBB406:
 1456              		.loc 7 118 3 view .LVU451
 1457              		.loc 7 118 19 is_stmt 0 view .LVU452
 1458 0177 8B44241C 		movl	28(%esp), %eax
 1459              	.LBE406:
 1460              	.LBE405:
 1461              	.LBE409:
 1462              	.LBB410:
 1463              	.LBB411:
 1464              	.LBB412:
 1465              		.loc 8 495 26 view .LVU453
 1466 017b 0FB74C24 		movzwl	26(%esp), %ecx
 1466      1A
 1467              	.LBE412:
 1468              	.LBE411:
 1469              	.LBE410:
 1470              	.LBB415:
 1471              	.LBB408:
 1472              	.LBB407:
 1473              		.loc 7 118 19 view .LVU454
 1474 0180 0FB74028 		movzwl	40(%eax), %eax
 1475              	.LVL61:
 1476              		.loc 7 118 19 view .LVU455
 1477              	.LBE407:
 1478              	.LBE408:
 1479              	.LBE415:
 1480              	.LBB416:
GAS LISTING /tmp/cccyco2T.s 			page 28


 1481              	.LBI410:
 1482              		.loc 2 663 29 is_stmt 1 view .LVU456
 1483              	.LBE416:
 1484              	.LBE418:
 1485              	.LBE457:
 1486              	.LBE465:
 1487              		.loc 2 665 3 view .LVU457
 1488              	.LBB466:
 1489              	.LBB458:
 1490              	.LBB419:
 1491              	.LBB417:
 1492              	.LBB414:
 1493              	.LBI411:
 1494              		.loc 8 491 29 view .LVU458
 1495              	.LBB413:
 1496              		.loc 8 495 3 view .LVU459
 1497              		.loc 8 495 26 is_stmt 0 view .LVU460
 1498 0184 29C1     		subl	%eax, %ecx
 1499              	.LVL62:
 1500              		.loc 8 495 26 view .LVU461
 1501 0186 0FB7C1   		movzwl	%cx, %eax
 1502              	.LVL63:
 1503              		.loc 8 495 26 view .LVU462
 1504              	.LBE413:
 1505              	.LBE414:
 1506              	.LBE417:
 1507              		.loc 1 389 9 is_stmt 1 view .LVU463
 1508              		.loc 1 389 12 is_stmt 0 view .LVU464
 1509 0189 3944244C 		cmpl	%eax, 76(%esp)
 1510 018d 7235     		jb	.L53
 1511              		.loc 1 393 9 is_stmt 1 view .LVU465
 1512              		.loc 1 393 15 is_stmt 0 view .LVU466
 1513 018f 83EC08   		subl	$8, %esp
 1514              		.cfi_def_cfa_offset 72
 1515 0192 50       		pushl	%eax
 1516              		.cfi_def_cfa_offset 76
 1517 0193 57       		pushl	%edi
 1518              		.cfi_def_cfa_offset 80
 1519 0194 E8FCFFFF 		call	ibqGetFullBufferTimeoutS
 1519      FF
 1520              	.LVL64:
 1521              		.loc 1 393 15 view .LVU467
 1522 0199 83C410   		addl	$16, %esp
 1523              		.cfi_def_cfa_offset 64
 1524              		.loc 1 393 15 view .LVU468
 1525              	.LBE419:
 1526              		.loc 1 397 7 is_stmt 1 view .LVU469
 1527              		.loc 1 397 10 is_stmt 0 view .LVU470
 1528 019c 85C0     		testl	%eax, %eax
 1529 019e 7524     		jne	.L53
 1530              	.L69:
 1531              		.loc 1 397 10 view .LVU471
 1532 01a0 8B4728   		movl	40(%edi), %eax
 1533              	.LVL65:
 1534              		.loc 1 397 10 view .LVU472
 1535 01a3 E97AFFFF 		jmp	.L48
 1535      FF
GAS LISTING /tmp/cccyco2T.s 			page 29


 1536 01a8 8DB42600 		.p2align 4,,10
 1536      00000090 
 1537              		.p2align 3
 1538              	.L68:
 1539              		.loc 1 380 9 is_stmt 1 view .LVU473
 1540              		.loc 1 380 15 is_stmt 0 view .LVU474
 1541 01b0 83EC08   		subl	$8, %esp
 1542              		.cfi_def_cfa_offset 72
 1543 01b3 FF742454 		pushl	84(%esp)
 1544              		.cfi_def_cfa_offset 76
 1545 01b7 57       		pushl	%edi
 1546              		.cfi_def_cfa_offset 80
 1547 01b8 E8FCFFFF 		call	ibqGetFullBufferTimeoutS
 1547      FF
 1548              	.LVL66:
 1549              		.loc 1 380 15 view .LVU475
 1550 01bd 83C410   		addl	$16, %esp
 1551              		.cfi_def_cfa_offset 64
 1552              		.loc 1 397 7 is_stmt 1 view .LVU476
 1553              		.loc 1 397 10 is_stmt 0 view .LVU477
 1554 01c0 85C0     		testl	%eax, %eax
 1555 01c2 74DC     		je	.L69
 1556              	.LVL67:
 1557              	.L53:
 1558              		.loc 1 398 9 is_stmt 1 view .LVU478
 1559              	.LBB420:
 1560              	.LBI420:
 1561              		.loc 2 520 20 view .LVU479
 1562              	.LBE420:
 1563              	.LBE458:
 1564              	.LBE466:
 1565              		.loc 2 522 3 view .LVU480
 1566              	.LBB467:
 1567              	.LBB459:
 1568              	.LBB425:
 1569              	.LBB421:
 1570              	.LBI421:
 1571              		.loc 5 365 20 view .LVU481
 1572              	.LBB422:
 1573              		.loc 5 367 22 view .LVU482
 1574              		.loc 5 368 33 view .LVU483
 1575              		.loc 5 374 3 view .LVU484
 1576              		.loc 5 374 3 view .LVU485
 1577              		.loc 5 378 3 view .LVU486
 1578              	.LBB423:
 1579              	.LBI423:
 1580              		.loc 6 371 20 view .LVU487
 1581              	.LBB424:
 1582              		.loc 6 373 3 view .LVU488
 1583              		.loc 6 373 16 is_stmt 0 view .LVU489
 1584 01c4 8B442408 		movl	8(%esp), %eax
 1585 01c8 C7000000 		movl	$0, (%eax)
 1585      0000
 1586              	.LBE424:
 1587              	.LBE423:
 1588              	.LBE422:
 1589              	.LBE421:
GAS LISTING /tmp/cccyco2T.s 			page 30


 1590              	.LBE425:
 1591              		.loc 1 399 9 is_stmt 1 view .LVU490
 1592              	.LBE459:
 1593              	.LBE467:
 1594              		.loc 1 437 1 is_stmt 0 view .LVU491
 1595 01ce 83C42C   		addl	$44, %esp
 1596              		.cfi_remember_state
 1597              		.cfi_def_cfa_offset 20
 1598 01d1 89E8     		movl	%ebp, %eax
 1599 01d3 5B       		popl	%ebx
 1600              		.cfi_restore 3
 1601              		.cfi_def_cfa_offset 16
 1602 01d4 5E       		popl	%esi
 1603              		.cfi_restore 6
 1604              		.cfi_def_cfa_offset 12
 1605              	.LVL68:
 1606              		.loc 1 437 1 view .LVU492
 1607 01d5 5F       		popl	%edi
 1608              		.cfi_restore 7
 1609              		.cfi_def_cfa_offset 8
 1610 01d6 5D       		popl	%ebp
 1611              		.cfi_restore 5
 1612              		.cfi_def_cfa_offset 4
 1613              	.LVL69:
 1614              		.loc 1 437 1 view .LVU493
 1615 01d7 C3       		ret
 1616              	.LVL70:
 1617 01d8 8DB42600 		.p2align 4,,10
 1617      00000090 
 1618              		.p2align 3
 1619              	.L60:
 1620              		.cfi_restore_state
 1621              	.LBB468:
 1622              	.LBB460:
 1623              	.LBB444:
 1624              	.LBB442:
 1625              	.LBB440:
 1626              	.LBB438:
 1627              		.loc 6 373 16 view .LVU494
 1628 01e0 C7000000 		movl	$0, (%eax)
 1628      0000
 1629              	.LBE438:
 1630              	.LBE440:
 1631              	.LBE442:
 1632              	.LBE444:
 1633              	.LBE460:
 1634              	.LBE468:
 1635              		.loc 1 437 1 view .LVU495
 1636 01e6 83C42C   		addl	$44, %esp
 1637              		.cfi_def_cfa_offset 20
 1638 01e9 89E8     		movl	%ebp, %eax
 1639 01eb 5B       		popl	%ebx
 1640              		.cfi_restore 3
 1641              		.cfi_def_cfa_offset 16
 1642 01ec 5E       		popl	%esi
 1643              		.cfi_restore 6
 1644              		.cfi_def_cfa_offset 12
GAS LISTING /tmp/cccyco2T.s 			page 31


 1645              	.LVL71:
 1646              		.loc 1 437 1 view .LVU496
 1647 01ed 5F       		popl	%edi
 1648              		.cfi_restore 7
 1649              		.cfi_def_cfa_offset 8
 1650 01ee 5D       		popl	%ebp
 1651              		.cfi_restore 5
 1652              		.cfi_def_cfa_offset 4
 1653              	.LVL72:
 1654              		.loc 1 437 1 view .LVU497
 1655 01ef C3       		ret
 1656              		.cfi_endproc
 1657              	.LFE242:
 1658              		.size	ibqReadTimeout, .-ibqReadTimeout
 1659              		.section	.text.obqObjectInit,"ax",@progbits
 1660              		.p2align 4,,15
 1661              		.globl	obqObjectInit
 1662              		.type	obqObjectInit, @function
 1663              	obqObjectInit:
 1664              	.LVL73:
 1665              	.LFB243:
 1666              		.loc 1 453 72 is_stmt 1 view -0
 1667              		.cfi_startproc
 1668              		.loc 1 455 3 view .LVU499
 1669              		.loc 1 455 3 view .LVU500
 1670              		.loc 1 457 3 view .LVU501
 1671              		.loc 1 453 72 is_stmt 0 view .LVU502
 1672 0000 56       		pushl	%esi
 1673              		.cfi_def_cfa_offset 8
 1674              		.cfi_offset 6, -8
 1675 0001 53       		pushl	%ebx
 1676              		.cfi_def_cfa_offset 12
 1677              		.cfi_offset 3, -12
 1678              		.loc 1 453 72 view .LVU503
 1679 0002 8B44240C 		movl	12(%esp), %eax
 1680              	.LVL74:
 1681              	.LBB469:
 1682              	.LBI469:
 1683              		.loc 2 800 20 is_stmt 1 view .LVU504
 1684              	.LBE469:
 1685              		.loc 2 802 3 view .LVU505
 1686              	.LBB480:
 1687              	.LBB470:
 1688              	.LBI470:
 1689              		.loc 3 392 20 view .LVU506
 1690              	.LBE470:
 1691              	.LBE480:
 1692              		.loc 3 394 3 view .LVU507
 1693              	.LBB481:
 1694              	.LBB477:
 1695              	.LBB471:
 1696              	.LBI471:
 1697              		.loc 4 537 20 view .LVU508
 1698              	.LBB472:
 1699              		.loc 4 539 3 view .LVU509
 1700              	.LBE472:
 1701              	.LBE471:
GAS LISTING /tmp/cccyco2T.s 			page 32


 1702              	.LBE477:
 1703              	.LBE481:
 1704              		.loc 1 458 19 is_stmt 0 view .LVU510
 1705 0006 8B4C2410 		movl	16(%esp), %ecx
 1706              		.loc 1 453 72 view .LVU511
 1707 000a 8B5C241C 		movl	28(%esp), %ebx
 1708 000e 8B542414 		movl	20(%esp), %edx
 1709              	.LBB482:
 1710              	.LBB478:
 1711              	.LBB475:
 1712              	.LBB473:
 1713              		.loc 4 539 13 view .LVU512
 1714 0012 8900     		movl	%eax, (%eax)
 1715              		.loc 4 540 3 is_stmt 1 view .LVU513
 1716              	.LBE473:
 1717              	.LBE475:
 1718              	.LBE478:
 1719              	.LBE482:
 1720              		.loc 1 458 19 is_stmt 0 view .LVU514
 1721 0014 884808   		movb	%cl, 8(%eax)
 1722              		.loc 1 462 33 view .LVU515
 1723 0017 8B4C2418 		movl	24(%esp), %ecx
 1724              		.loc 1 460 19 view .LVU516
 1725 001b 895014   		movl	%edx, 20(%eax)
 1726              		.loc 1 462 33 view .LVU517
 1727 001e 83C104   		addl	$4, %ecx
 1728              		.loc 1 461 19 view .LVU518
 1729 0021 895010   		movl	%edx, 16(%eax)
 1730              		.loc 1 462 52 view .LVU519
 1731 0024 89CE     		movl	%ecx, %esi
 1732              		.loc 1 465 19 view .LVU520
 1733 0026 895024   		movl	%edx, 36(%eax)
 1734              		.loc 1 462 52 view .LVU521
 1735 0029 0FAFF3   		imull	%ebx, %esi
 1736              	.LBB483:
 1737              	.LBB479:
 1738              	.LBB476:
 1739              	.LBB474:
 1740              		.loc 4 540 13 view .LVU522
 1741 002c 894004   		movl	%eax, 4(%eax)
 1742              	.LVL75:
 1743              		.loc 4 540 13 view .LVU523
 1744              	.LBE474:
 1745              	.LBE476:
 1746              	.LBE479:
 1747              	.LBE483:
 1748              		.loc 1 458 3 is_stmt 1 view .LVU524
 1749              		.loc 1 459 3 view .LVU525
 1750              		.loc 1 459 19 is_stmt 0 view .LVU526
 1751 002f 89580C   		movl	%ebx, 12(%eax)
 1752              		.loc 1 460 3 is_stmt 1 view .LVU527
 1753              		.loc 1 461 3 view .LVU528
 1754              		.loc 1 462 3 view .LVU529
 1755              		.loc 1 463 19 is_stmt 0 view .LVU530
 1756 0032 89481C   		movl	%ecx, 28(%eax)
 1757              		.loc 1 462 24 view .LVU531
 1758 0035 01D6     		addl	%edx, %esi
GAS LISTING /tmp/cccyco2T.s 			page 33


 1759              		.loc 1 468 19 view .LVU532
 1760 0037 8B542420 		movl	32(%esp), %edx
 1761              		.loc 1 464 19 view .LVU533
 1762 003b 895820   		movl	%ebx, 32(%eax)
 1763              		.loc 1 462 24 view .LVU534
 1764 003e 897018   		movl	%esi, 24(%eax)
 1765              		.loc 1 463 3 is_stmt 1 view .LVU535
 1766              		.loc 1 464 3 view .LVU536
 1767              		.loc 1 465 3 view .LVU537
 1768              		.loc 1 466 3 view .LVU538
 1769              		.loc 1 468 19 is_stmt 0 view .LVU539
 1770 0041 895030   		movl	%edx, 48(%eax)
 1771              		.loc 1 469 19 view .LVU540
 1772 0044 8B542424 		movl	36(%esp), %edx
 1773              		.loc 1 466 19 view .LVU541
 1774 0048 C7402800 		movl	$0, 40(%eax)
 1774      000000
 1775              		.loc 1 467 3 is_stmt 1 view .LVU542
 1776              		.loc 1 467 19 is_stmt 0 view .LVU543
 1777 004f C7402C00 		movl	$0, 44(%eax)
 1777      000000
 1778              		.loc 1 468 3 is_stmt 1 view .LVU544
 1779              		.loc 1 469 3 view .LVU545
 1780              		.loc 1 469 19 is_stmt 0 view .LVU546
 1781 0056 895034   		movl	%edx, 52(%eax)
 1782              		.loc 1 470 1 view .LVU547
 1783 0059 5B       		popl	%ebx
 1784              		.cfi_restore 3
 1785              		.cfi_def_cfa_offset 8
 1786 005a 5E       		popl	%esi
 1787              		.cfi_restore 6
 1788              		.cfi_def_cfa_offset 4
 1789 005b C3       		ret
 1790              		.cfi_endproc
 1791              	.LFE243:
 1792              		.size	obqObjectInit, .-obqObjectInit
 1793              		.section	.text.obqResetI,"ax",@progbits
 1794              		.p2align 4,,15
 1795              		.globl	obqResetI
 1796              		.type	obqResetI, @function
 1797              	obqResetI:
 1798              	.LVL76:
 1799              	.LFB244:
 1800              		.loc 1 483 46 is_stmt 1 view -0
 1801              		.cfi_startproc
 1802              		.loc 1 485 23 view .LVU549
 1803              		.loc 1 487 3 view .LVU550
 1804              		.loc 1 483 46 is_stmt 0 view .LVU551
 1805 0000 53       		pushl	%ebx
 1806              		.cfi_def_cfa_offset 8
 1807              		.cfi_offset 3, -8
 1808 0001 E8FCFFFF 		call	__x86.get_pc_thunk.bx
 1808      FF
 1809 0006 81C30200 		addl	$_GLOBAL_OFFSET_TABLE_, %ebx
 1809      0000
 1810 000c 83EC10   		subl	$16, %esp
 1811              		.cfi_def_cfa_offset 24
GAS LISTING /tmp/cccyco2T.s 			page 34


 1812              		.loc 1 483 46 view .LVU552
 1813 000f 8B442418 		movl	24(%esp), %eax
 1814              		.loc 1 487 21 view .LVU553
 1815 0013 8B5020   		movl	32(%eax), %edx
 1816              		.loc 1 490 19 view .LVU554
 1817 0016 C7402800 		movl	$0, 40(%eax)
 1817      000000
 1818              		.loc 1 491 19 view .LVU555
 1819 001d C7402C00 		movl	$0, 44(%eax)
 1819      000000
 1820              		.loc 1 487 19 view .LVU556
 1821 0024 89500C   		movl	%edx, 12(%eax)
 1822              		.loc 1 488 3 is_stmt 1 view .LVU557
 1823              		.loc 1 488 25 is_stmt 0 view .LVU558
 1824 0027 8B5024   		movl	36(%eax), %edx
 1825              		.loc 1 488 19 view .LVU559
 1826 002a 895014   		movl	%edx, 20(%eax)
 1827              		.loc 1 489 3 is_stmt 1 view .LVU560
 1828              		.loc 1 489 19 is_stmt 0 view .LVU561
 1829 002d 895010   		movl	%edx, 16(%eax)
 1830              		.loc 1 490 3 is_stmt 1 view .LVU562
 1831              		.loc 1 491 3 view .LVU563
 1832              		.loc 1 492 3 view .LVU564
 1833              	.LVL77:
 1834              	.LBB484:
 1835              	.LBI484:
 1836              		.loc 2 855 20 view .LVU565
 1837              	.LBB485:
 1838              		.loc 2 857 3 view .LVU566
 1839 0030 6AFE     		pushl	$-2
 1840              		.cfi_def_cfa_offset 28
 1841 0032 50       		pushl	%eax
 1842              		.cfi_def_cfa_offset 32
 1843 0033 E8FCFFFF 		call	chThdDequeueAllI@PLT
 1843      FF
 1844              	.LVL78:
 1845              		.loc 2 857 3 is_stmt 0 view .LVU567
 1846              	.LBE485:
 1847              	.LBE484:
 1848              		.loc 1 493 1 view .LVU568
 1849 0038 83C418   		addl	$24, %esp
 1850              		.cfi_def_cfa_offset 8
 1851 003b 5B       		popl	%ebx
 1852              		.cfi_restore 3
 1853              		.cfi_def_cfa_offset 4
 1854 003c C3       		ret
 1855              		.cfi_endproc
 1856              	.LFE244:
 1857              		.size	obqResetI, .-obqResetI
 1858              		.section	.text.obqGetFullBufferI,"ax",@progbits
 1859              		.p2align 4,,15
 1860              		.globl	obqGetFullBufferI
 1861              		.type	obqGetFullBufferI, @function
 1862              	obqGetFullBufferI:
 1863              	.LVL79:
 1864              	.LFB245:
 1865              		.loc 1 507 43 is_stmt 1 view -0
GAS LISTING /tmp/cccyco2T.s 			page 35


 1866              		.cfi_startproc
 1867              		.loc 1 509 23 view .LVU570
 1868              		.loc 1 511 3 view .LVU571
 1869              		.loc 1 507 43 is_stmt 0 view .LVU572
 1870 0000 8B542404 		movl	4(%esp), %edx
 1871              		.loc 1 511 7 view .LVU573
 1872 0004 8B4214   		movl	20(%edx), %eax
 1873 0007 394210   		cmpl	%eax, 16(%edx)
 1874 000a 7414     		je	.L80
 1875              	.L75:
 1876              		.loc 1 516 3 is_stmt 1 view .LVU574
 1877              		.loc 1 516 12 is_stmt 0 view .LVU575
 1878 000c 8B08     		movl	(%eax), %ecx
 1879              		.loc 1 516 10 view .LVU576
 1880 000e 8B542408 		movl	8(%esp), %edx
 1881              		.loc 1 518 23 view .LVU577
 1882 0012 83C004   		addl	$4, %eax
 1883              		.loc 1 516 10 view .LVU578
 1884 0015 890A     		movl	%ecx, (%edx)
 1885              		.loc 1 518 3 is_stmt 1 view .LVU579
 1886              		.loc 1 519 1 is_stmt 0 view .LVU580
 1887 0017 C3       		ret
 1888              	.LVL80:
 1889 0018 8DB42600 		.p2align 4,,10
 1889      00000090 
 1890              		.p2align 3
 1891              	.L80:
 1892              		.loc 1 511 7 discriminator 1 view .LVU581
 1893 0020 8B520C   		movl	12(%edx), %edx
 1894              	.LVL81:
 1895              		.loc 1 511 7 discriminator 1 view .LVU582
 1896 0023 85D2     		testl	%edx, %edx
 1897 0025 74E5     		je	.L75
 1898              		.loc 1 512 12 view .LVU583
 1899 0027 31C0     		xorl	%eax, %eax
 1900 0029 C3       		ret
 1901              		.cfi_endproc
 1902              	.LFE245:
 1903              		.size	obqGetFullBufferI, .-obqGetFullBufferI
 1904              		.section	.text.obqReleaseEmptyBufferI,"ax",@progbits
 1905              		.p2align 4,,15
 1906              		.globl	obqReleaseEmptyBufferI
 1907              		.type	obqReleaseEmptyBufferI, @function
 1908              	obqReleaseEmptyBufferI:
 1909              	.LVL82:
 1910              	.LFB246:
 1911              		.loc 1 528 59 is_stmt 1 view -0
 1912              		.cfi_startproc
 1913              		.loc 1 530 23 view .LVU585
 1914              		.loc 1 531 3 view .LVU586
 1915              		.loc 1 531 3 view .LVU587
 1916              		.loc 1 534 3 view .LVU588
 1917              		.loc 1 528 59 is_stmt 0 view .LVU589
 1918 0000 53       		pushl	%ebx
 1919              		.cfi_def_cfa_offset 8
 1920              		.cfi_offset 3, -8
 1921 0001 E8FCFFFF 		call	__x86.get_pc_thunk.bx
GAS LISTING /tmp/cccyco2T.s 			page 36


 1921      FF
 1922 0006 81C30200 		addl	$_GLOBAL_OFFSET_TABLE_, %ebx
 1922      0000
 1923 000c 83EC08   		subl	$8, %esp
 1924              		.cfi_def_cfa_offset 16
 1925              		.loc 1 528 59 view .LVU590
 1926 000f 8B442410 		movl	16(%esp), %eax
 1927              		.loc 1 534 7 view .LVU591
 1928 0013 8B500C   		movl	12(%eax), %edx
 1929              		.loc 1 534 17 view .LVU592
 1930 0016 83C201   		addl	$1, %edx
 1931 0019 89500C   		movl	%edx, 12(%eax)
 1932              		.loc 1 535 3 is_stmt 1 view .LVU593
 1933              		.loc 1 535 16 is_stmt 0 view .LVU594
 1934 001c 8B501C   		movl	28(%eax), %edx
 1935 001f 035014   		addl	20(%eax), %edx
 1936 0022 895014   		movl	%edx, 20(%eax)
 1937              		.loc 1 536 3 is_stmt 1 view .LVU595
 1938              		.loc 1 536 6 is_stmt 0 view .LVU596
 1939 0025 3B5018   		cmpl	24(%eax), %edx
 1940 0028 7206     		jb	.L82
 1941              		.loc 1 537 5 is_stmt 1 view .LVU597
 1942              		.loc 1 537 18 is_stmt 0 view .LVU598
 1943 002a 8B5024   		movl	36(%eax), %edx
 1944 002d 895014   		movl	%edx, 20(%eax)
 1945              	.L82:
 1946              		.loc 1 541 3 is_stmt 1 view .LVU599
 1947              	.LVL83:
 1948              	.LBB486:
 1949              	.LBI486:
 1950              		.loc 2 842 20 view .LVU600
 1951              	.LBB487:
 1952              		.loc 2 844 3 view .LVU601
 1953 0030 83EC08   		subl	$8, %esp
 1954              		.cfi_def_cfa_offset 24
 1955 0033 6A00     		pushl	$0
 1956              		.cfi_def_cfa_offset 28
 1957 0035 50       		pushl	%eax
 1958              		.cfi_def_cfa_offset 32
 1959 0036 E8FCFFFF 		call	chThdDequeueNextI@PLT
 1959      FF
 1960              	.LVL84:
 1961              		.loc 2 844 3 is_stmt 0 view .LVU602
 1962              	.LBE487:
 1963              	.LBE486:
 1964              		.loc 1 542 1 view .LVU603
 1965 003b 83C418   		addl	$24, %esp
 1966              		.cfi_def_cfa_offset 8
 1967 003e 5B       		popl	%ebx
 1968              		.cfi_restore 3
 1969              		.cfi_def_cfa_offset 4
 1970 003f C3       		ret
 1971              		.cfi_endproc
 1972              	.LFE246:
 1973              		.size	obqReleaseEmptyBufferI, .-obqReleaseEmptyBufferI
 1974              		.section	.text.obqGetEmptyBufferTimeoutS,"ax",@progbits
 1975              		.p2align 4,,15
GAS LISTING /tmp/cccyco2T.s 			page 37


 1976              		.globl	obqGetEmptyBufferTimeoutS
 1977              		.type	obqGetEmptyBufferTimeoutS, @function
 1978              	obqGetEmptyBufferTimeoutS:
 1979              	.LVL85:
 1980              	.LFB248:
 1981              		.loc 1 598 56 is_stmt 1 view -0
 1982              		.cfi_startproc
 1983              		.loc 1 598 56 is_stmt 0 view .LVU605
 1984 0000 57       		pushl	%edi
 1985              		.cfi_def_cfa_offset 8
 1986              		.cfi_offset 7, -8
 1987 0001 56       		pushl	%esi
 1988              		.cfi_def_cfa_offset 12
 1989              		.cfi_offset 6, -12
 1990 0002 53       		pushl	%ebx
 1991              		.cfi_def_cfa_offset 16
 1992              		.cfi_offset 3, -16
 1993              		.loc 1 598 56 view .LVU606
 1994 0003 8B742410 		movl	16(%esp), %esi
 1995              		.loc 1 600 23 is_stmt 1 view .LVU607
 1996              		.loc 1 602 3 view .LVU608
 1997 0007 E8FCFFFF 		call	__x86.get_pc_thunk.bx
 1997      FF
 1998 000c 81C30200 		addl	$_GLOBAL_OFFSET_TABLE_, %ebx
 1998      0000
 1999              		.loc 1 598 56 is_stmt 0 view .LVU609
 2000 0012 8B7C2414 		movl	20(%esp), %edi
 2001              		.loc 1 602 9 view .LVU610
 2002 0016 EB1F     		jmp	.L85
 2003 0018 8DB42600 		.p2align 4,,10
 2003      00000090 
 2004              		.p2align 3
 2005              	.L87:
 2006              	.LBB496:
 2007              		.loc 1 603 5 is_stmt 1 view .LVU611
 2008              		.loc 1 603 8 is_stmt 0 view .LVU612
 2009 0020 807E0800 		cmpb	$0, 8(%esi)
 2010 0024 7532     		jne	.L88
 2011              		.loc 1 606 5 is_stmt 1 view .LVU613
 2012              	.LVL86:
 2013              	.LBB497:
 2014              	.LBI497:
 2015              		.loc 2 828 21 view .LVU614
 2016              	.LBB498:
 2017              		.loc 2 831 3 view .LVU615
 2018              		.loc 2 831 10 is_stmt 0 view .LVU616
 2019 0026 83EC08   		subl	$8, %esp
 2020              		.cfi_def_cfa_offset 24
 2021 0029 57       		pushl	%edi
 2022              		.cfi_def_cfa_offset 28
 2023 002a 56       		pushl	%esi
 2024              		.cfi_def_cfa_offset 32
 2025 002b E8FCFFFF 		call	chThdEnqueueTimeoutS@PLT
 2025      FF
 2026              	.LVL87:
 2027              		.loc 2 831 10 view .LVU617
 2028              	.LBE498:
GAS LISTING /tmp/cccyco2T.s 			page 38


 2029              	.LBE497:
 2030              		.loc 1 607 5 is_stmt 1 view .LVU618
 2031              		.loc 1 607 8 is_stmt 0 view .LVU619
 2032 0030 83C410   		addl	$16, %esp
 2033              		.cfi_def_cfa_offset 16
 2034 0033 85C0     		testl	%eax, %eax
 2035 0035 7818     		js	.L84
 2036              	.LVL88:
 2037              	.L85:
 2038              		.loc 1 607 8 view .LVU620
 2039              	.LBE496:
 2040              		.loc 1 602 10 view .LVU621
 2041 0037 8B460C   		movl	12(%esi), %eax
 2042              		.loc 1 602 9 view .LVU622
 2043 003a 85C0     		testl	%eax, %eax
 2044 003c 74E2     		je	.L87
 2045              	.LVL89:
 2046              	.LBB499:
 2047              	.LBI499:
 2048              		.loc 1 597 7 is_stmt 1 view .LVU623
 2049              	.LBB500:
 2050              		.loc 1 612 3 view .LVU624
 2051              		.loc 1 612 3 view .LVU625
 2052              		.loc 1 615 3 view .LVU626
 2053              		.loc 1 615 19 is_stmt 0 view .LVU627
 2054 003e 8B4610   		movl	16(%esi), %eax
 2055              		.loc 1 615 28 view .LVU628
 2056 0041 8D5004   		leal	4(%eax), %edx
 2057              		.loc 1 616 28 view .LVU629
 2058 0044 03461C   		addl	28(%esi), %eax
 2059              		.loc 1 615 28 view .LVU630
 2060 0047 895628   		movl	%edx, 40(%esi)
 2061              		.loc 1 616 3 is_stmt 1 view .LVU631
 2062              		.loc 1 616 13 is_stmt 0 view .LVU632
 2063 004a 89462C   		movl	%eax, 44(%esi)
 2064              		.loc 1 618 3 is_stmt 1 view .LVU633
 2065              	.LVL90:
 2066              		.loc 1 616 13 is_stmt 0 view .LVU634
 2067 004d 31C0     		xorl	%eax, %eax
 2068              	.L84:
 2069              	.LBE500:
 2070              	.LBE499:
 2071              		.loc 1 619 1 view .LVU635
 2072 004f 5B       		popl	%ebx
 2073              		.cfi_remember_state
 2074              		.cfi_restore 3
 2075              		.cfi_def_cfa_offset 12
 2076 0050 5E       		popl	%esi
 2077              		.cfi_restore 6
 2078              		.cfi_def_cfa_offset 8
 2079 0051 5F       		popl	%edi
 2080              		.cfi_restore 7
 2081              		.cfi_def_cfa_offset 4
 2082 0052 C3       		ret
 2083              		.p2align 4,,10
 2084 0053 8D742600 		.p2align 3
 2084      90
GAS LISTING /tmp/cccyco2T.s 			page 39


 2085              	.L88:
 2086              		.cfi_restore_state
 2087 0058 5B       		popl	%ebx
 2088              		.cfi_restore 3
 2089              		.cfi_def_cfa_offset 12
 2090              	.LBB501:
 2091              		.loc 1 604 14 view .LVU636
 2092 0059 B8FEFFFF 		movl	$-2, %eax
 2092      FF
 2093              	.LBE501:
 2094              		.loc 1 619 1 view .LVU637
 2095 005e 5E       		popl	%esi
 2096              		.cfi_restore 6
 2097              		.cfi_def_cfa_offset 8
 2098 005f 5F       		popl	%edi
 2099              		.cfi_restore 7
 2100              		.cfi_def_cfa_offset 4
 2101 0060 C3       		ret
 2102              		.cfi_endproc
 2103              	.LFE248:
 2104              		.size	obqGetEmptyBufferTimeoutS, .-obqGetEmptyBufferTimeoutS
 2105              		.section	.text.obqGetEmptyBufferTimeout,"ax",@progbits
 2106              		.p2align 4,,15
 2107              		.globl	obqGetEmptyBufferTimeout
 2108              		.type	obqGetEmptyBufferTimeout, @function
 2109              	obqGetEmptyBufferTimeout:
 2110              	.LVL91:
 2111              	.LFB247:
 2112              		.loc 1 566 56 is_stmt 1 view -0
 2113              		.cfi_startproc
 2114              		.loc 1 567 3 view .LVU639
 2115              		.loc 1 569 3 view .LVU640
 2116              	.LBB502:
 2117              	.LBI502:
 2118              		.loc 2 509 20 view .LVU641
 2119              	.LBE502:
 2120              		.loc 2 511 3 view .LVU642
 2121              	.LBB510:
 2122              	.LBB503:
 2123              	.LBI503:
 2124              		.loc 5 353 20 view .LVU643
 2125              	.LBE503:
 2126              	.LBE510:
 2127              		.loc 5 355 3 view .LVU644
 2128              	.LBB511:
 2129              	.LBB508:
 2130              	.LBB504:
 2131              	.LBI504:
 2132              		.loc 6 362 20 view .LVU645
 2133              	.LBB505:
 2134              		.loc 6 364 3 view .LVU646
 2135 0000 E8FCFFFF 		call	__x86.get_pc_thunk.ax
 2135      FF
 2136 0005 05010000 		addl	$_GLOBAL_OFFSET_TABLE_, %eax
 2136      00
 2137              	.LBE505:
 2138              	.LBE504:
GAS LISTING /tmp/cccyco2T.s 			page 40


 2139              	.LBE508:
 2140              	.LBE511:
 2141              		.loc 1 566 56 is_stmt 0 view .LVU647
 2142 000a 53       		pushl	%ebx
 2143              		.cfi_def_cfa_offset 8
 2144              		.cfi_offset 3, -8
 2145 000b 83EC10   		subl	$16, %esp
 2146              		.cfi_def_cfa_offset 24
 2147              		.loc 1 570 9 view .LVU648
 2148 000e FF74241C 		pushl	28(%esp)
 2149              		.cfi_def_cfa_offset 28
 2150 0012 FF74241C 		pushl	28(%esp)
 2151              		.cfi_def_cfa_offset 32
 2152              	.LBB512:
 2153              	.LBB509:
 2154              	.LBB507:
 2155              	.LBB506:
 2156              		.loc 6 364 16 view .LVU649
 2157 0016 8B980000 		movl	port_irq_sts@GOT(%eax), %ebx
 2157      0000
 2158 001c C7030100 		movl	$1, (%ebx)
 2158      0000
 2159              	.LBE506:
 2160              	.LBE507:
 2161              	.LBE509:
 2162              	.LBE512:
 2163              		.loc 5 356 34 is_stmt 1 view .LVU650
 2164              		.loc 5 357 20 view .LVU651
 2165              		.loc 1 570 3 view .LVU652
 2166              		.loc 1 570 9 is_stmt 0 view .LVU653
 2167 0022 E8FCFFFF 		call	obqGetEmptyBufferTimeoutS
 2167      FF
 2168              	.LVL92:
 2169              		.loc 1 571 3 is_stmt 1 view .LVU654
 2170              	.LBB513:
 2171              	.LBI513:
 2172              		.loc 2 520 20 view .LVU655
 2173              	.LBE513:
 2174              		.loc 2 522 3 view .LVU656
 2175              	.LBB518:
 2176              	.LBB514:
 2177              	.LBI514:
 2178              		.loc 5 365 20 view .LVU657
 2179              	.LBB515:
 2180              		.loc 5 367 22 view .LVU658
 2181              		.loc 5 368 33 view .LVU659
 2182              		.loc 5 374 3 view .LVU660
 2183              		.loc 5 374 3 view .LVU661
 2184              		.loc 5 378 3 view .LVU662
 2185              	.LBB516:
 2186              	.LBI516:
 2187              		.loc 6 371 20 view .LVU663
 2188              	.LBB517:
 2189              		.loc 6 373 3 view .LVU664
 2190              		.loc 6 373 16 is_stmt 0 view .LVU665
 2191 0027 C7030000 		movl	$0, (%ebx)
 2191      0000
GAS LISTING /tmp/cccyco2T.s 			page 41


 2192              	.LBE517:
 2193              	.LBE516:
 2194              	.LBE515:
 2195              	.LBE514:
 2196              	.LBE518:
 2197              		.loc 1 573 3 is_stmt 1 view .LVU666
 2198              		.loc 1 574 1 is_stmt 0 view .LVU667
 2199 002d 83C418   		addl	$24, %esp
 2200              		.cfi_def_cfa_offset 8
 2201 0030 5B       		popl	%ebx
 2202              		.cfi_restore 3
 2203              		.cfi_def_cfa_offset 4
 2204 0031 C3       		ret
 2205              		.cfi_endproc
 2206              	.LFE247:
 2207              		.size	obqGetEmptyBufferTimeout, .-obqGetEmptyBufferTimeout
 2208              		.section	.text.obqPostFullBuffer,"ax",@progbits
 2209              		.p2align 4,,15
 2210              		.globl	obqPostFullBuffer
 2211              		.type	obqPostFullBuffer, @function
 2212              	obqPostFullBuffer:
 2213              	.LVL93:
 2214              	.LFB249:
 2215              		.loc 1 630 67 is_stmt 1 view -0
 2216              		.cfi_startproc
 2217              		.loc 1 632 3 view .LVU669
 2218              	.LBB519:
 2219              	.LBI519:
 2220              		.loc 2 509 20 view .LVU670
 2221              	.LBE519:
 2222              		.loc 2 511 3 view .LVU671
 2223              	.LBB530:
 2224              	.LBB520:
 2225              	.LBI520:
 2226              		.loc 5 353 20 view .LVU672
 2227              	.LBE520:
 2228              	.LBE530:
 2229              		.loc 5 355 3 view .LVU673
 2230              	.LBB531:
 2231              	.LBB527:
 2232              	.LBB521:
 2233              	.LBI521:
 2234              		.loc 6 362 20 view .LVU674
 2235              	.LBB522:
 2236              		.loc 6 364 3 view .LVU675
 2237 0000 E8FCFFFF 		call	__x86.get_pc_thunk.dx
 2237      FF
 2238 0005 81C20200 		addl	$_GLOBAL_OFFSET_TABLE_, %edx
 2238      0000
 2239              	.LBE522:
 2240              	.LBE521:
 2241              	.LBE527:
 2242              	.LBE531:
 2243              		.loc 1 630 67 is_stmt 0 view .LVU676
 2244 000b 53       		pushl	%ebx
 2245              		.cfi_def_cfa_offset 8
 2246              		.cfi_offset 3, -8
GAS LISTING /tmp/cccyco2T.s 			page 42


 2247 000c 83EC08   		subl	$8, %esp
 2248              		.cfi_def_cfa_offset 16
 2249              		.loc 1 630 67 view .LVU677
 2250 000f 8B442410 		movl	16(%esp), %eax
 2251              	.LBB532:
 2252              	.LBB533:
 2253              		.loc 1 653 29 view .LVU678
 2254 0013 8B4C2414 		movl	20(%esp), %ecx
 2255              	.LBE533:
 2256              	.LBE532:
 2257              	.LBB536:
 2258              	.LBB528:
 2259              	.LBB525:
 2260              	.LBB523:
 2261              		.loc 6 364 16 view .LVU679
 2262 0017 8B9A0000 		movl	port_irq_sts@GOT(%edx), %ebx
 2262      0000
 2263              	.LBE523:
 2264              	.LBE525:
 2265              	.LBE528:
 2266              	.LBE536:
 2267              	.LBB537:
 2268              	.LBB534:
 2269              		.loc 1 653 19 view .LVU680
 2270 001d 8B5010   		movl	16(%eax), %edx
 2271              	.LBE534:
 2272              	.LBE537:
 2273              	.LBB538:
 2274              	.LBB529:
 2275              	.LBB526:
 2276              	.LBB524:
 2277              		.loc 6 364 16 view .LVU681
 2278 0020 C7030100 		movl	$1, (%ebx)
 2278      0000
 2279              	.LBE524:
 2280              	.LBE526:
 2281              	.LBE529:
 2282              	.LBE538:
 2283              		.loc 5 356 34 is_stmt 1 view .LVU682
 2284              		.loc 5 357 20 view .LVU683
 2285              		.loc 1 633 3 view .LVU684
 2286              	.LVL94:
 2287              	.LBB539:
 2288              	.LBI532:
 2289              		.loc 1 646 6 view .LVU685
 2290              	.LBB535:
 2291              		.loc 1 648 23 view .LVU686
 2292              		.loc 1 649 3 view .LVU687
 2293              		.loc 1 649 3 view .LVU688
 2294              		.loc 1 650 3 view .LVU689
 2295              		.loc 1 650 3 view .LVU690
 2296              		.loc 1 653 3 view .LVU691
 2297              		.loc 1 653 29 is_stmt 0 view .LVU692
 2298 0026 890A     		movl	%ecx, (%edx)
 2299              		.loc 1 656 3 is_stmt 1 view .LVU693
 2300              		.loc 1 656 7 is_stmt 0 view .LVU694
 2301 0028 8B480C   		movl	12(%eax), %ecx
GAS LISTING /tmp/cccyco2T.s 			page 43


 2302              	.LVL95:
 2303              		.loc 1 657 16 view .LVU695
 2304 002b 03501C   		addl	28(%eax), %edx
 2305              		.loc 1 656 17 view .LVU696
 2306 002e 83E901   		subl	$1, %ecx
 2307              		.loc 1 657 16 view .LVU697
 2308 0031 895010   		movl	%edx, 16(%eax)
 2309              		.loc 1 656 17 view .LVU698
 2310 0034 89480C   		movl	%ecx, 12(%eax)
 2311              		.loc 1 657 3 is_stmt 1 view .LVU699
 2312              		.loc 1 658 3 view .LVU700
 2313              		.loc 1 658 6 is_stmt 0 view .LVU701
 2314 0037 3B5018   		cmpl	24(%eax), %edx
 2315 003a 7206     		jb	.L93
 2316              		.loc 1 659 5 is_stmt 1 view .LVU702
 2317              		.loc 1 659 18 is_stmt 0 view .LVU703
 2318 003c 8B5024   		movl	36(%eax), %edx
 2319 003f 895010   		movl	%edx, 16(%eax)
 2320              	.L93:
 2321              		.loc 1 663 3 is_stmt 1 view .LVU704
 2322              		.loc 1 666 11 is_stmt 0 view .LVU705
 2323 0042 8B5030   		movl	48(%eax), %edx
 2324              		.loc 1 663 13 view .LVU706
 2325 0045 C7402800 		movl	$0, 40(%eax)
 2325      000000
 2326              		.loc 1 666 3 is_stmt 1 view .LVU707
 2327              		.loc 1 666 6 is_stmt 0 view .LVU708
 2328 004c 85D2     		testl	%edx, %edx
 2329 004e 7409     		je	.L94
 2330              		.loc 1 667 5 is_stmt 1 view .LVU709
 2331 0050 83EC0C   		subl	$12, %esp
 2332              		.cfi_def_cfa_offset 28
 2333 0053 50       		pushl	%eax
 2334              		.cfi_def_cfa_offset 32
 2335 0054 FFD2     		call	*%edx
 2336              	.LVL96:
 2337              		.loc 1 667 5 is_stmt 0 view .LVU710
 2338 0056 83C410   		addl	$16, %esp
 2339              		.cfi_def_cfa_offset 16
 2340              	.L94:
 2341              	.LVL97:
 2342              		.loc 1 667 5 view .LVU711
 2343              	.LBE535:
 2344              	.LBE539:
 2345              		.loc 1 634 3 is_stmt 1 view .LVU712
 2346              	.LBB540:
 2347              	.LBI540:
 2348              		.loc 2 520 20 view .LVU713
 2349              	.LBE540:
 2350              		.loc 2 522 3 view .LVU714
 2351              	.LBB545:
 2352              	.LBB541:
 2353              	.LBI541:
 2354              		.loc 5 365 20 view .LVU715
 2355              	.LBB542:
 2356              		.loc 5 367 22 view .LVU716
 2357              		.loc 5 368 33 view .LVU717
GAS LISTING /tmp/cccyco2T.s 			page 44


 2358              		.loc 5 374 3 view .LVU718
 2359              		.loc 5 374 3 view .LVU719
 2360              		.loc 5 378 3 view .LVU720
 2361              	.LBB543:
 2362              	.LBI543:
 2363              		.loc 6 371 20 view .LVU721
 2364              	.LBB544:
 2365              		.loc 6 373 3 view .LVU722
 2366              		.loc 6 373 16 is_stmt 0 view .LVU723
 2367 0059 C7030000 		movl	$0, (%ebx)
 2367      0000
 2368              	.LBE544:
 2369              	.LBE543:
 2370              	.LBE542:
 2371              	.LBE541:
 2372              	.LBE545:
 2373              		.loc 1 635 1 view .LVU724
 2374 005f 83C408   		addl	$8, %esp
 2375              		.cfi_def_cfa_offset 8
 2376 0062 5B       		popl	%ebx
 2377              		.cfi_restore 3
 2378              		.cfi_def_cfa_offset 4
 2379 0063 C3       		ret
 2380              		.cfi_endproc
 2381              	.LFE249:
 2382              		.size	obqPostFullBuffer, .-obqPostFullBuffer
 2383              		.section	.text.obqPostFullBufferS,"ax",@progbits
 2384              		.p2align 4,,15
 2385              		.globl	obqPostFullBufferS
 2386              		.type	obqPostFullBufferS, @function
 2387              	obqPostFullBufferS:
 2388              	.LVL98:
 2389              	.LFB250:
 2390              		.loc 1 646 68 is_stmt 1 view -0
 2391              		.cfi_startproc
 2392              		.loc 1 648 23 view .LVU726
 2393              		.loc 1 649 3 view .LVU727
 2394              		.loc 1 649 3 view .LVU728
 2395              		.loc 1 650 3 view .LVU729
 2396              		.loc 1 650 3 view .LVU730
 2397              		.loc 1 653 3 view .LVU731
 2398              		.loc 1 646 68 is_stmt 0 view .LVU732
 2399 0000 8B442404 		movl	4(%esp), %eax
 2400              		.loc 1 653 29 view .LVU733
 2401 0004 8B4C2408 		movl	8(%esp), %ecx
 2402              		.loc 1 653 19 view .LVU734
 2403 0008 8B5010   		movl	16(%eax), %edx
 2404              		.loc 1 653 29 view .LVU735
 2405 000b 890A     		movl	%ecx, (%edx)
 2406              		.loc 1 656 3 is_stmt 1 view .LVU736
 2407              		.loc 1 656 7 is_stmt 0 view .LVU737
 2408 000d 8B480C   		movl	12(%eax), %ecx
 2409              		.loc 1 657 16 view .LVU738
 2410 0010 03501C   		addl	28(%eax), %edx
 2411              		.loc 1 656 17 view .LVU739
 2412 0013 83E901   		subl	$1, %ecx
 2413              		.loc 1 657 16 view .LVU740
GAS LISTING /tmp/cccyco2T.s 			page 45


 2414 0016 895010   		movl	%edx, 16(%eax)
 2415              		.loc 1 656 17 view .LVU741
 2416 0019 89480C   		movl	%ecx, 12(%eax)
 2417              		.loc 1 657 3 is_stmt 1 view .LVU742
 2418              		.loc 1 658 3 view .LVU743
 2419              		.loc 1 658 6 is_stmt 0 view .LVU744
 2420 001c 3B5018   		cmpl	24(%eax), %edx
 2421 001f 7206     		jb	.L100
 2422              		.loc 1 659 5 is_stmt 1 view .LVU745
 2423              		.loc 1 659 18 is_stmt 0 view .LVU746
 2424 0021 8B5024   		movl	36(%eax), %edx
 2425 0024 895010   		movl	%edx, 16(%eax)
 2426              	.L100:
 2427              		.loc 1 663 3 is_stmt 1 view .LVU747
 2428              		.loc 1 666 11 is_stmt 0 view .LVU748
 2429 0027 8B5030   		movl	48(%eax), %edx
 2430              		.loc 1 663 13 view .LVU749
 2431 002a C7402800 		movl	$0, 40(%eax)
 2431      000000
 2432              		.loc 1 666 3 is_stmt 1 view .LVU750
 2433              		.loc 1 666 6 is_stmt 0 view .LVU751
 2434 0031 85D2     		testl	%edx, %edx
 2435 0033 740B     		je	.L99
 2436              		.loc 1 667 5 is_stmt 1 view .LVU752
 2437 0035 89442404 		movl	%eax, 4(%esp)
 2438              	.LVL99:
 2439              		.loc 1 667 5 is_stmt 0 view .LVU753
 2440 0039 FFE2     		jmp	*%edx
 2441              	.LVL100:
 2442 003b 8D742600 		.p2align 4,,10
 2442      90
 2443              		.p2align 3
 2444              	.L99:
 2445              		.loc 1 669 1 view .LVU754
 2446 0040 C3       		ret
 2447              		.cfi_endproc
 2448              	.LFE250:
 2449              		.size	obqPostFullBufferS, .-obqPostFullBufferS
 2450              		.section	.text.obqPutTimeout,"ax",@progbits
 2451              		.p2align 4,,15
 2452              		.globl	obqPutTimeout
 2453              		.type	obqPutTimeout, @function
 2454              	obqPutTimeout:
 2455              	.LVL101:
 2456              	.LFB251:
 2457              		.loc 1 692 44 is_stmt 1 view -0
 2458              		.cfi_startproc
 2459              		.loc 1 693 3 view .LVU756
 2460              		.loc 1 695 3 view .LVU757
 2461              	.LBB546:
 2462              	.LBI546:
 2463              		.loc 2 509 20 view .LVU758
 2464              	.LBE546:
 2465              		.loc 2 511 3 view .LVU759
 2466              	.LBB557:
 2467              	.LBB547:
 2468              	.LBI547:
GAS LISTING /tmp/cccyco2T.s 			page 46


 2469              		.loc 5 353 20 view .LVU760
 2470              	.LBE547:
 2471              	.LBE557:
 2472              		.loc 5 355 3 view .LVU761
 2473              	.LBB558:
 2474              	.LBB554:
 2475              	.LBB548:
 2476              	.LBI548:
 2477              		.loc 6 362 20 view .LVU762
 2478              	.LBB549:
 2479              		.loc 6 364 3 view .LVU763
 2480 0000 E8FCFFFF 		call	__x86.get_pc_thunk.ax
 2480      FF
 2481 0005 05010000 		addl	$_GLOBAL_OFFSET_TABLE_, %eax
 2481      00
 2482              	.LBE549:
 2483              	.LBE548:
 2484              	.LBE554:
 2485              	.LBE558:
 2486              		.loc 1 692 44 is_stmt 0 view .LVU764
 2487 000a 57       		pushl	%edi
 2488              		.cfi_def_cfa_offset 8
 2489              		.cfi_offset 7, -8
 2490 000b 56       		pushl	%esi
 2491              		.cfi_def_cfa_offset 12
 2492              		.cfi_offset 6, -12
 2493 000c 53       		pushl	%ebx
 2494              		.cfi_def_cfa_offset 16
 2495              		.cfi_offset 3, -16
 2496              		.loc 1 692 44 view .LVU765
 2497 000d 8B5C2410 		movl	16(%esp), %ebx
 2498 0011 8B7C2414 		movl	20(%esp), %edi
 2499              	.LBB559:
 2500              	.LBB555:
 2501              	.LBB552:
 2502              	.LBB550:
 2503              		.loc 6 364 16 view .LVU766
 2504 0015 8BB00000 		movl	port_irq_sts@GOT(%eax), %esi
 2504      0000
 2505              	.LBE550:
 2506              	.LBE552:
 2507              	.LBE555:
 2508              	.LBE559:
 2509              		.loc 1 698 11 view .LVU767
 2510 001b 8B4328   		movl	40(%ebx), %eax
 2511              	.LBB560:
 2512              	.LBB556:
 2513              	.LBB553:
 2514              	.LBB551:
 2515              		.loc 6 364 16 view .LVU768
 2516 001e C7060100 		movl	$1, (%esi)
 2516      0000
 2517              	.LBE551:
 2518              	.LBE553:
 2519              	.LBE556:
 2520              	.LBE560:
 2521              		.loc 5 356 34 is_stmt 1 view .LVU769
GAS LISTING /tmp/cccyco2T.s 			page 47


 2522              		.loc 5 357 20 view .LVU770
 2523              		.loc 1 698 3 view .LVU771
 2524              		.loc 1 698 6 is_stmt 0 view .LVU772
 2525 0024 85C0     		testl	%eax, %eax
 2526 0026 7460     		je	.L114
 2527              	.L103:
 2528              		.loc 1 707 3 is_stmt 1 view .LVU773
 2529              		.loc 1 707 14 is_stmt 0 view .LVU774
 2530 0028 89F9     		movl	%edi, %ecx
 2531 002a 8808     		movb	%cl, (%eax)
 2532              		.loc 1 708 3 is_stmt 1 view .LVU775
 2533              		.loc 1 708 12 is_stmt 0 view .LVU776
 2534 002c 8B4328   		movl	40(%ebx), %eax
 2535 002f 83C001   		addl	$1, %eax
 2536 0032 894328   		movl	%eax, 40(%ebx)
 2537              		.loc 1 712 3 is_stmt 1 view .LVU777
 2538              		.loc 1 712 6 is_stmt 0 view .LVU778
 2539 0035 3B432C   		cmpl	44(%ebx), %eax
 2540 0038 723C     		jb	.L107
 2541              		.loc 1 713 5 is_stmt 1 view .LVU779
 2542              	.LVL102:
 2543              	.LBB561:
 2544              	.LBI561:
 2545              		.loc 1 646 6 view .LVU780
 2546              	.LBB562:
 2547              		.loc 1 648 23 view .LVU781
 2548              		.loc 1 649 3 view .LVU782
 2549              		.loc 1 649 3 view .LVU783
 2550              		.loc 1 650 3 view .LVU784
 2551              		.loc 1 650 3 view .LVU785
 2552              		.loc 1 653 3 view .LVU786
 2553              	.LBE562:
 2554              	.LBE561:
 2555              		.loc 1 713 5 is_stmt 0 view .LVU787
 2556 003a 8B4B1C   		movl	28(%ebx), %ecx
 2557              	.LBB565:
 2558              	.LBB563:
 2559              		.loc 1 653 19 view .LVU788
 2560 003d 8B4310   		movl	16(%ebx), %eax
 2561              	.LBE563:
 2562              	.LBE565:
 2563              		.loc 1 713 5 view .LVU789
 2564 0040 8D51FC   		leal	-4(%ecx), %edx
 2565              	.LVL103:
 2566              	.LBB566:
 2567              	.LBB564:
 2568              		.loc 1 653 29 view .LVU790
 2569 0043 8910     		movl	%edx, (%eax)
 2570              		.loc 1 656 3 is_stmt 1 view .LVU791
 2571              		.loc 1 656 7 is_stmt 0 view .LVU792
 2572 0045 8B530C   		movl	12(%ebx), %edx
 2573              	.LVL104:
 2574              		.loc 1 657 16 view .LVU793
 2575 0048 03431C   		addl	28(%ebx), %eax
 2576              	.LVL105:
 2577              		.loc 1 656 17 view .LVU794
 2578 004b 83EA01   		subl	$1, %edx
GAS LISTING /tmp/cccyco2T.s 			page 48


 2579              		.loc 1 657 16 view .LVU795
 2580 004e 894310   		movl	%eax, 16(%ebx)
 2581              	.LVL106:
 2582              		.loc 1 656 17 view .LVU796
 2583 0051 89530C   		movl	%edx, 12(%ebx)
 2584              		.loc 1 657 3 is_stmt 1 view .LVU797
 2585              		.loc 1 658 3 view .LVU798
 2586              		.loc 1 658 6 is_stmt 0 view .LVU799
 2587 0054 3B4318   		cmpl	24(%ebx), %eax
 2588 0057 7206     		jb	.L108
 2589              		.loc 1 659 5 is_stmt 1 view .LVU800
 2590              		.loc 1 659 18 is_stmt 0 view .LVU801
 2591 0059 8B4324   		movl	36(%ebx), %eax
 2592 005c 894310   		movl	%eax, 16(%ebx)
 2593              	.L108:
 2594              		.loc 1 663 3 is_stmt 1 view .LVU802
 2595              		.loc 1 666 11 is_stmt 0 view .LVU803
 2596 005f 8B4330   		movl	48(%ebx), %eax
 2597              		.loc 1 663 13 view .LVU804
 2598 0062 C7432800 		movl	$0, 40(%ebx)
 2598      000000
 2599              		.loc 1 666 3 is_stmt 1 view .LVU805
 2600              		.loc 1 666 6 is_stmt 0 view .LVU806
 2601 0069 85C0     		testl	%eax, %eax
 2602 006b 7409     		je	.L107
 2603              		.loc 1 667 5 is_stmt 1 view .LVU807
 2604 006d 83EC0C   		subl	$12, %esp
 2605              		.cfi_def_cfa_offset 28
 2606 0070 53       		pushl	%ebx
 2607              		.cfi_def_cfa_offset 32
 2608 0071 FFD0     		call	*%eax
 2609              	.LVL107:
 2610              		.loc 1 667 5 is_stmt 0 view .LVU808
 2611 0073 83C410   		addl	$16, %esp
 2612              		.cfi_def_cfa_offset 16
 2613              	.LVL108:
 2614              	.L107:
 2615              		.loc 1 667 5 view .LVU809
 2616              	.LBE564:
 2617              	.LBE566:
 2618              		.loc 1 716 3 is_stmt 1 view .LVU810
 2619              	.LBB567:
 2620              	.LBI567:
 2621              		.loc 2 520 20 view .LVU811
 2622              	.LBE567:
 2623              		.loc 2 522 3 view .LVU812
 2624              	.LBB572:
 2625              	.LBB568:
 2626              	.LBI568:
 2627              		.loc 5 365 20 view .LVU813
 2628              	.LBB569:
 2629              		.loc 5 367 22 view .LVU814
 2630              		.loc 5 368 33 view .LVU815
 2631              		.loc 5 374 3 view .LVU816
 2632              		.loc 5 374 3 view .LVU817
 2633              		.loc 5 378 3 view .LVU818
 2634              	.LBB570:
GAS LISTING /tmp/cccyco2T.s 			page 49


 2635              	.LBI570:
 2636              		.loc 6 371 20 view .LVU819
 2637              	.LBB571:
 2638              		.loc 6 373 3 view .LVU820
 2639              		.loc 6 373 16 is_stmt 0 view .LVU821
 2640 0076 C7060000 		movl	$0, (%esi)
 2640      0000
 2641              	.LBE571:
 2642              	.LBE570:
 2643              	.LBE569:
 2644              	.LBE568:
 2645              	.LBE572:
 2646              		.loc 1 717 3 is_stmt 1 view .LVU822
 2647              		.loc 1 717 10 is_stmt 0 view .LVU823
 2648 007c 31C0     		xorl	%eax, %eax
 2649              	.L102:
 2650              		.loc 1 718 1 view .LVU824
 2651 007e 5B       		popl	%ebx
 2652              		.cfi_remember_state
 2653              		.cfi_restore 3
 2654              		.cfi_def_cfa_offset 12
 2655 007f 5E       		popl	%esi
 2656              		.cfi_restore 6
 2657              		.cfi_def_cfa_offset 8
 2658 0080 5F       		popl	%edi
 2659              		.cfi_restore 7
 2660              		.cfi_def_cfa_offset 4
 2661 0081 C3       		ret
 2662              	.LVL109:
 2663              		.p2align 4,,10
 2664 0082 8DB60000 		.p2align 3
 2664      0000
 2665              	.L114:
 2666              		.cfi_restore_state
 2667              		.loc 1 699 5 is_stmt 1 view .LVU825
 2668              		.loc 1 699 11 is_stmt 0 view .LVU826
 2669 0088 83EC08   		subl	$8, %esp
 2670              		.cfi_def_cfa_offset 24
 2671 008b FF742420 		pushl	32(%esp)
 2672              		.cfi_def_cfa_offset 28
 2673 008f 53       		pushl	%ebx
 2674              		.cfi_def_cfa_offset 32
 2675 0090 E8FCFFFF 		call	obqGetEmptyBufferTimeoutS
 2675      FF
 2676              	.LVL110:
 2677              		.loc 1 700 5 is_stmt 1 view .LVU827
 2678              		.loc 1 700 8 is_stmt 0 view .LVU828
 2679 0095 83C410   		addl	$16, %esp
 2680              		.cfi_def_cfa_offset 16
 2681 0098 85C0     		testl	%eax, %eax
 2682 009a 750C     		jne	.L104
 2683 009c 8B4328   		movl	40(%ebx), %eax
 2684              	.LVL111:
 2685              		.loc 1 700 8 view .LVU829
 2686 009f EB87     		jmp	.L103
 2687              	.LVL112:
 2688              		.p2align 4,,10
GAS LISTING /tmp/cccyco2T.s 			page 50


 2689 00a1 8DB42600 		.p2align 3
 2689      000000
 2690              	.L104:
 2691              		.loc 1 701 7 is_stmt 1 view .LVU830
 2692              	.LBB573:
 2693              	.LBI573:
 2694              		.loc 2 520 20 view .LVU831
 2695              	.LBE573:
 2696              		.loc 2 522 3 view .LVU832
 2697              	.LBB578:
 2698              	.LBB574:
 2699              	.LBI574:
 2700              		.loc 5 365 20 view .LVU833
 2701              	.LBB575:
 2702              		.loc 5 367 22 view .LVU834
 2703              		.loc 5 368 33 view .LVU835
 2704              		.loc 5 374 3 view .LVU836
 2705              		.loc 5 374 3 view .LVU837
 2706              		.loc 5 378 3 view .LVU838
 2707              	.LBB576:
 2708              	.LBI576:
 2709              		.loc 6 371 20 view .LVU839
 2710              	.LBB577:
 2711              		.loc 6 373 3 view .LVU840
 2712              		.loc 6 373 16 is_stmt 0 view .LVU841
 2713 00a8 C7060000 		movl	$0, (%esi)
 2713      0000
 2714              	.LBE577:
 2715              	.LBE576:
 2716              	.LBE575:
 2717              	.LBE574:
 2718              	.LBE578:
 2719              		.loc 1 702 7 is_stmt 1 view .LVU842
 2720              		.loc 1 702 14 is_stmt 0 view .LVU843
 2721 00ae EBCE     		jmp	.L102
 2722              		.cfi_endproc
 2723              	.LFE251:
 2724              		.size	obqPutTimeout, .-obqPutTimeout
 2725              		.section	.text.obqWriteTimeout,"ax",@progbits
 2726              		.p2align 4,,15
 2727              		.globl	obqWriteTimeout
 2728              		.type	obqWriteTimeout, @function
 2729              	obqWriteTimeout:
 2730              	.LVL113:
 2731              	.LFB252:
 2732              		.loc 1 742 57 is_stmt 1 view -0
 2733              		.cfi_startproc
 2734              		.loc 1 743 3 view .LVU845
 2735              		.loc 1 744 3 view .LVU846
 2736              		.loc 1 746 3 view .LVU847
 2737              		.loc 1 746 3 view .LVU848
 2738              		.loc 1 748 3 view .LVU849
 2739              	.LBB579:
 2740              	.LBI579:
 2741              		.loc 2 509 20 view .LVU850
 2742              	.LBE579:
 2743              		.loc 2 511 3 view .LVU851
GAS LISTING /tmp/cccyco2T.s 			page 51


 2744              	.LBB590:
 2745              	.LBB580:
 2746              	.LBI580:
 2747              		.loc 5 353 20 view .LVU852
 2748              	.LBE580:
 2749              	.LBE590:
 2750              		.loc 5 355 3 view .LVU853
 2751              	.LBB591:
 2752              	.LBB587:
 2753              	.LBB581:
 2754              	.LBI581:
 2755              		.loc 6 362 20 view .LVU854
 2756              	.LBB582:
 2757              		.loc 6 364 3 view .LVU855
 2758 0000 E8FCFFFF 		call	__x86.get_pc_thunk.ax
 2758      FF
 2759 0005 05010000 		addl	$_GLOBAL_OFFSET_TABLE_, %eax
 2759      00
 2760              	.LBE582:
 2761              	.LBE581:
 2762              	.LBE587:
 2763              	.LBE591:
 2764              		.loc 1 742 57 is_stmt 0 view .LVU856
 2765 000a 55       		pushl	%ebp
 2766              		.cfi_def_cfa_offset 8
 2767              		.cfi_offset 5, -8
 2768              		.loc 1 743 10 view .LVU857
 2769 000b 31ED     		xorl	%ebp, %ebp
 2770              		.loc 1 742 57 view .LVU858
 2771 000d 57       		pushl	%edi
 2772              		.cfi_def_cfa_offset 12
 2773              		.cfi_offset 7, -12
 2774 000e 56       		pushl	%esi
 2775              		.cfi_def_cfa_offset 16
 2776              		.cfi_offset 6, -16
 2777 000f 53       		pushl	%ebx
 2778              		.cfi_def_cfa_offset 20
 2779              		.cfi_offset 3, -20
 2780 0010 83EC2C   		subl	$44, %esp
 2781              		.cfi_def_cfa_offset 64
 2782              	.LBB592:
 2783              	.LBB588:
 2784              	.LBB585:
 2785              	.LBB583:
 2786              		.loc 6 364 16 view .LVU859
 2787 0013 8B880000 		movl	port_irq_sts@GOT(%eax), %ecx
 2787      0000
 2788              	.LBE583:
 2789              	.LBE585:
 2790              	.LBE588:
 2791              	.LBE592:
 2792              		.loc 1 742 57 view .LVU860
 2793 0019 8B742440 		movl	64(%esp), %esi
 2794 001d 8B7C2444 		movl	68(%esp), %edi
 2795 0021 89442410 		movl	%eax, 16(%esp)
 2796              	.LBB593:
 2797              	.LBB594:
GAS LISTING /tmp/cccyco2T.s 			page 52


 2798              	.LBB595:
 2799              		.loc 7 118 19 view .LVU861
 2800 0025 8B800000 		movl	ch@GOT(%eax), %eax
 2800      0000
 2801              	.LBE595:
 2802              	.LBE594:
 2803              	.LBE593:
 2804              	.LBB598:
 2805              	.LBB589:
 2806              	.LBB586:
 2807              	.LBB584:
 2808              		.loc 6 364 16 view .LVU862
 2809 002b 894C2408 		movl	%ecx, 8(%esp)
 2810 002f C7010100 		movl	$1, (%ecx)
 2810      0000
 2811              	.LBE584:
 2812              	.LBE586:
 2813              	.LBE589:
 2814              	.LBE598:
 2815              		.loc 5 356 34 is_stmt 1 view .LVU863
 2816              		.loc 5 357 20 view .LVU864
 2817              		.loc 1 751 3 view .LVU865
 2818              	.LBB599:
 2819              	.LBI593:
 2820              		.loc 2 634 25 view .LVU866
 2821              	.LBE599:
 2822              		.loc 2 636 3 view .LVU867
 2823              	.LBB600:
 2824              	.LBB597:
 2825              	.LBI594:
 2826              		.loc 7 115 25 view .LVU868
 2827              	.LBB596:
 2828              		.loc 7 118 3 view .LVU869
 2829              		.loc 7 118 19 is_stmt 0 view .LVU870
 2830 0035 8944241C 		movl	%eax, 28(%esp)
 2831 0039 0FB74028 		movzwl	40(%eax), %eax
 2832              	.LVL114:
 2833              		.loc 7 118 19 view .LVU871
 2834              	.LBE596:
 2835              	.LBE597:
 2836              	.LBE600:
 2837              	.LBB601:
 2838              	.LBI601:
 2839              		.loc 2 648 25 is_stmt 1 view .LVU872
 2840              	.LBE601:
 2841              		.loc 2 651 3 view .LVU873
 2842              	.LBB604:
 2843              	.LBB602:
 2844              	.LBI602:
 2845              		.loc 8 472 25 view .LVU874
 2846              	.LBB603:
 2847              		.loc 8 476 3 view .LVU875
 2848              		.loc 8 476 3 view .LVU876
 2849              		.loc 8 479 3 view .LVU877
 2850              		.loc 8 479 18 is_stmt 0 view .LVU878
 2851 003d 66034424 		addw	76(%esp), %ax
 2851      4C
GAS LISTING /tmp/cccyco2T.s 			page 53


 2852              	.LVL115:
 2853              		.loc 8 479 18 view .LVU879
 2854 0042 66894424 		movw	%ax, 26(%esp)
 2854      1A
 2855              	.LVL116:
 2856              		.loc 8 479 18 view .LVU880
 2857              	.LBE603:
 2858              	.LBE602:
 2859              	.LBE604:
 2860              	.LBB605:
 2861              	.LBB606:
 2862              		.loc 1 762 38 view .LVU881
 2863 0047 8B44244C 		movl	76(%esp), %eax
 2864              	.LVL117:
 2865              		.loc 1 762 38 view .LVU882
 2866 004b 83E801   		subl	$1, %eax
 2867 004e 89442414 		movl	%eax, 20(%esp)
 2868 0052 E9CB0000 		jmp	.L129
 2868      00
 2869              	.LVL118:
 2870 0057 8DB42600 		.p2align 4,,10
 2870      00000066 
 2870      90
 2871              		.p2align 3
 2872              	.L135:
 2873              		.loc 1 762 38 view .LVU883
 2874              	.LBE606:
 2875              		.loc 1 796 7 is_stmt 1 view .LVU884
 2876              	.LBB630:
 2877              	.LBI630:
 2878              		.loc 9 31 1 view .LVU885
 2879              	.LBB631:
 2880              		.loc 9 34 3 view .LVU886
 2881              		.loc 9 34 10 is_stmt 0 view .LVU887
 2882 0060 8B17     		movl	(%edi), %edx
 2883              	.LVL119:
 2884              		.loc 9 34 10 view .LVU888
 2885              	.LBE631:
 2886              	.LBE630:
 2887              		.loc 1 799 17 view .LVU889
 2888 0062 83C540   		addl	$64, %ebp
 2889              	.LVL120:
 2890              		.loc 1 797 17 view .LVU890
 2891 0065 83C740   		addl	$64, %edi
 2892              	.LVL121:
 2893              	.LBB633:
 2894              	.LBB632:
 2895              		.loc 9 34 10 view .LVU891
 2896 0068 8910     		movl	%edx, (%eax)
 2897              	.LVL122:
 2898              		.loc 9 34 10 view .LVU892
 2899 006a 8B57C4   		movl	-60(%edi), %edx
 2900 006d 895004   		movl	%edx, 4(%eax)
 2901 0070 8B57C8   		movl	-56(%edi), %edx
 2902 0073 895008   		movl	%edx, 8(%eax)
 2903 0076 8B57CC   		movl	-52(%edi), %edx
 2904 0079 89500C   		movl	%edx, 12(%eax)
GAS LISTING /tmp/cccyco2T.s 			page 54


 2905 007c 8B57D0   		movl	-48(%edi), %edx
 2906 007f 895010   		movl	%edx, 16(%eax)
 2907 0082 8B57D4   		movl	-44(%edi), %edx
 2908 0085 895014   		movl	%edx, 20(%eax)
 2909 0088 8B57D8   		movl	-40(%edi), %edx
 2910 008b 895018   		movl	%edx, 24(%eax)
 2911 008e 8B57DC   		movl	-36(%edi), %edx
 2912 0091 89501C   		movl	%edx, 28(%eax)
 2913 0094 8B57E0   		movl	-32(%edi), %edx
 2914 0097 895020   		movl	%edx, 32(%eax)
 2915 009a 8B57E4   		movl	-28(%edi), %edx
 2916 009d 895024   		movl	%edx, 36(%eax)
 2917 00a0 8B57E8   		movl	-24(%edi), %edx
 2918 00a3 895028   		movl	%edx, 40(%eax)
 2919 00a6 8B57EC   		movl	-20(%edi), %edx
 2920 00a9 89502C   		movl	%edx, 44(%eax)
 2921 00ac 8B57F0   		movl	-16(%edi), %edx
 2922 00af 895030   		movl	%edx, 48(%eax)
 2923 00b2 8B57F4   		movl	-12(%edi), %edx
 2924 00b5 895034   		movl	%edx, 52(%eax)
 2925 00b8 8B57F8   		movl	-8(%edi), %edx
 2926 00bb 895038   		movl	%edx, 56(%eax)
 2927 00be 8B57FC   		movl	-4(%edi), %edx
 2928 00c1 89503C   		movl	%edx, 60(%eax)
 2929              	.LVL123:
 2930              		.loc 9 34 10 view .LVU893
 2931              	.LBE632:
 2932              	.LBE633:
 2933              		.loc 1 797 7 is_stmt 1 view .LVU894
 2934              		.loc 1 798 7 view .LVU895
 2935              		.loc 1 798 17 is_stmt 0 view .LVU896
 2936 00c4 8B4628   		movl	40(%esi), %eax
 2937 00c7 83C040   		addl	$64, %eax
 2938 00ca 894628   		movl	%eax, 40(%esi)
 2939              		.loc 1 799 7 is_stmt 1 view .LVU897
 2940              	.LVL124:
 2941              	.L123:
 2942              		.loc 1 809 5 view .LVU898
 2943              		.loc 1 809 8 is_stmt 0 view .LVU899
 2944 00cd 39462C   		cmpl	%eax, 44(%esi)
 2945 00d0 773C     		ja	.L125
 2946              		.loc 1 810 7 is_stmt 1 view .LVU900
 2947              	.LVL125:
 2948              	.LBB634:
 2949              	.LBI634:
 2950              		.loc 1 646 6 view .LVU901
 2951              	.LBB635:
 2952              		.loc 1 648 23 view .LVU902
 2953              		.loc 1 649 3 view .LVU903
 2954              		.loc 1 649 3 view .LVU904
 2955              		.loc 1 650 3 view .LVU905
 2956              		.loc 1 650 3 view .LVU906
 2957              		.loc 1 653 3 view .LVU907
 2958              	.LBE635:
 2959              	.LBE634:
 2960              		.loc 1 810 7 is_stmt 0 view .LVU908
 2961 00d2 8B4E1C   		movl	28(%esi), %ecx
GAS LISTING /tmp/cccyco2T.s 			page 55


 2962              	.LBB638:
 2963              	.LBB636:
 2964              		.loc 1 653 19 view .LVU909
 2965 00d5 8B4610   		movl	16(%esi), %eax
 2966              	.LBE636:
 2967              	.LBE638:
 2968              		.loc 1 810 7 view .LVU910
 2969 00d8 8D51FC   		leal	-4(%ecx), %edx
 2970              	.LVL126:
 2971              	.LBB639:
 2972              	.LBB637:
 2973              		.loc 1 653 29 view .LVU911
 2974 00db 8910     		movl	%edx, (%eax)
 2975              		.loc 1 656 3 is_stmt 1 view .LVU912
 2976              		.loc 1 656 7 is_stmt 0 view .LVU913
 2977 00dd 8B560C   		movl	12(%esi), %edx
 2978              	.LVL127:
 2979              		.loc 1 657 16 view .LVU914
 2980 00e0 03461C   		addl	28(%esi), %eax
 2981              	.LVL128:
 2982              		.loc 1 656 17 view .LVU915
 2983 00e3 83EA01   		subl	$1, %edx
 2984              		.loc 1 657 16 view .LVU916
 2985 00e6 894610   		movl	%eax, 16(%esi)
 2986              	.LVL129:
 2987              		.loc 1 656 17 view .LVU917
 2988 00e9 89560C   		movl	%edx, 12(%esi)
 2989              		.loc 1 657 3 is_stmt 1 view .LVU918
 2990              		.loc 1 658 3 view .LVU919
 2991              		.loc 1 658 6 is_stmt 0 view .LVU920
 2992 00ec 3B4618   		cmpl	24(%esi), %eax
 2993 00ef 7206     		jb	.L126
 2994              		.loc 1 659 5 is_stmt 1 view .LVU921
 2995              		.loc 1 659 18 is_stmt 0 view .LVU922
 2996 00f1 8B4624   		movl	36(%esi), %eax
 2997 00f4 894610   		movl	%eax, 16(%esi)
 2998              	.L126:
 2999              		.loc 1 663 3 is_stmt 1 view .LVU923
 3000              		.loc 1 666 11 is_stmt 0 view .LVU924
 3001 00f7 8B4630   		movl	48(%esi), %eax
 3002              		.loc 1 663 13 view .LVU925
 3003 00fa C7462800 		movl	$0, 40(%esi)
 3003      000000
 3004              		.loc 1 666 3 is_stmt 1 view .LVU926
 3005              		.loc 1 666 6 is_stmt 0 view .LVU927
 3006 0101 85C0     		testl	%eax, %eax
 3007 0103 7409     		je	.L125
 3008              		.loc 1 667 5 is_stmt 1 view .LVU928
 3009 0105 83EC0C   		subl	$12, %esp
 3010              		.cfi_def_cfa_offset 76
 3011 0108 56       		pushl	%esi
 3012              		.cfi_def_cfa_offset 80
 3013 0109 FFD0     		call	*%eax
 3014              	.LVL130:
 3015              		.loc 1 667 5 is_stmt 0 view .LVU929
 3016 010b 83C410   		addl	$16, %esp
 3017              		.cfi_def_cfa_offset 64
GAS LISTING /tmp/cccyco2T.s 			page 56


 3018              	.LVL131:
 3019              	.L125:
 3020              		.loc 1 667 5 view .LVU930
 3021              	.LBE637:
 3022              	.LBE639:
 3023              		.loc 1 814 5 is_stmt 1 view .LVU931
 3024              	.LBB640:
 3025              	.LBI640:
 3026              		.loc 2 520 20 view .LVU932
 3027              	.LBE640:
 3028              	.LBE605:
 3029              		.loc 2 522 3 view .LVU933
 3030              	.LBB669:
 3031              	.LBB653:
 3032              	.LBB641:
 3033              	.LBI641:
 3034              		.loc 5 365 20 view .LVU934
 3035              	.LBB642:
 3036              		.loc 5 367 22 view .LVU935
 3037              		.loc 5 368 33 view .LVU936
 3038              		.loc 5 374 3 view .LVU937
 3039              		.loc 5 374 3 view .LVU938
 3040              		.loc 5 378 3 view .LVU939
 3041              	.LBB643:
 3042              	.LBI643:
 3043              		.loc 6 371 20 view .LVU940
 3044              	.LBB644:
 3045              		.loc 6 373 3 view .LVU941
 3046              	.LBE644:
 3047              	.LBE643:
 3048              	.LBE642:
 3049              	.LBE641:
 3050              	.LBE653:
 3051              		.loc 1 815 5 view .LVU942
 3052              	.LBB654:
 3053              	.LBB651:
 3054              	.LBB649:
 3055              	.LBB647:
 3056              	.LBB645:
 3057              		.loc 6 373 16 is_stmt 0 view .LVU943
 3058 010e 8B442408 		movl	8(%esp), %eax
 3059              	.LBE645:
 3060              	.LBE647:
 3061              	.LBE649:
 3062              	.LBE651:
 3063              	.LBE654:
 3064              		.loc 1 815 8 view .LVU944
 3065 0112 3B6C2448 		cmpl	72(%esp), %ebp
 3066 0116 0F83B400 		jnb	.L128
 3066      0000
 3067              		.loc 1 818 5 is_stmt 1 view .LVU945
 3068              	.LBB655:
 3069              	.LBI655:
 3070              		.loc 2 509 20 view .LVU946
 3071              	.LBE655:
 3072              	.LBE669:
 3073              		.loc 2 511 3 view .LVU947
GAS LISTING /tmp/cccyco2T.s 			page 57


 3074              	.LBB670:
 3075              	.LBB660:
 3076              	.LBB656:
 3077              	.LBI656:
 3078              		.loc 5 353 20 view .LVU948
 3079              	.LBE656:
 3080              	.LBE660:
 3081              	.LBE670:
 3082              		.loc 5 355 3 view .LVU949
 3083              	.LBB671:
 3084              	.LBB661:
 3085              	.LBB659:
 3086              	.LBB657:
 3087              	.LBI657:
 3088              		.loc 6 362 20 view .LVU950
 3089              	.LBB658:
 3090              		.loc 6 364 3 view .LVU951
 3091              		.loc 6 364 16 is_stmt 0 view .LVU952
 3092 011c C7000100 		movl	$1, (%eax)
 3092      0000
 3093              	.LBE658:
 3094              	.LBE657:
 3095              	.LBE659:
 3096              	.LBE661:
 3097              	.LBE671:
 3098              		.loc 5 356 34 is_stmt 1 view .LVU953
 3099              		.loc 5 357 20 view .LVU954
 3100              	.LVL132:
 3101              	.L129:
 3102              		.loc 1 753 3 view .LVU955
 3103              	.LBB672:
 3104              		.loc 1 754 5 view .LVU956
 3105              		.loc 1 757 5 view .LVU957
 3106              		.loc 1 757 13 is_stmt 0 view .LVU958
 3107 0122 8B4628   		movl	40(%esi), %eax
 3108              		.loc 1 757 8 view .LVU959
 3109 0125 85C0     		testl	%eax, %eax
 3110 0127 7447     		je	.L134
 3111              	.L116:
 3112              		.loc 1 787 5 is_stmt 1 view .LVU960
 3113              		.loc 1 787 10 is_stmt 0 view .LVU961
 3114 0129 8B562C   		movl	44(%esi), %edx
 3115              		.loc 1 788 19 view .LVU962
 3116 012c 8B5C2448 		movl	72(%esp), %ebx
 3117              		.loc 1 787 10 view .LVU963
 3118 0130 29C2     		subl	%eax, %edx
 3119              	.LVL133:
 3120              		.loc 1 788 5 is_stmt 1 view .LVU964
 3121              		.loc 1 788 19 is_stmt 0 view .LVU965
 3122 0132 29EB     		subl	%ebp, %ebx
 3123 0134 39D3     		cmpl	%edx, %ebx
 3124 0136 0F46D3   		cmovbe	%ebx, %edx
 3125              	.LVL134:
 3126              		.loc 1 794 5 is_stmt 1 view .LVU966
 3127              		.loc 1 794 8 is_stmt 0 view .LVU967
 3128 0139 83FA40   		cmpl	$64, %edx
 3129 013c 0F871EFF 		ja	.L135
GAS LISTING /tmp/cccyco2T.s 			page 58


 3129      FFFF
 3130              		.loc 1 802 7 is_stmt 1 view .LVU968
 3131              	.LVL135:
 3132              	.LBB662:
 3133              	.LBI662:
 3134              		.loc 9 31 1 view .LVU969
 3135              	.LBB663:
 3136              		.loc 9 34 3 view .LVU970
 3137              		.loc 9 34 10 is_stmt 0 view .LVU971
 3138 0142 83EC04   		subl	$4, %esp
 3139              		.cfi_def_cfa_offset 68
 3140 0145 52       		pushl	%edx
 3141              		.cfi_def_cfa_offset 72
 3142 0146 89542414 		movl	%edx, 20(%esp)
 3143 014a 57       		pushl	%edi
 3144              		.cfi_def_cfa_offset 76
 3145              	.LVL136:
 3146              		.loc 9 34 10 view .LVU972
 3147 014b 50       		pushl	%eax
 3148              		.cfi_def_cfa_offset 80
 3149 014c 8B5C2420 		movl	32(%esp), %ebx
 3150 0150 E8FCFFFF 		call	memcpy@PLT
 3150      FF
 3151              	.LVL137:
 3152              		.loc 9 34 10 view .LVU973
 3153              	.LBE663:
 3154              	.LBE662:
 3155              		.loc 1 803 7 is_stmt 1 view .LVU974
 3156              		.loc 1 803 17 is_stmt 0 view .LVU975
 3157 0155 8B54241C 		movl	28(%esp), %edx
 3158              		.loc 1 804 17 view .LVU976
 3159 0159 8B4628   		movl	40(%esi), %eax
 3160              		.loc 1 805 17 view .LVU977
 3161 015c 83C410   		addl	$16, %esp
 3162              		.cfi_def_cfa_offset 64
 3163              		.loc 1 804 17 view .LVU978
 3164 015f 01D0     		addl	%edx, %eax
 3165              		.loc 1 803 17 view .LVU979
 3166 0161 01D7     		addl	%edx, %edi
 3167              	.LVL138:
 3168              		.loc 1 804 7 is_stmt 1 view .LVU980
 3169              		.loc 1 805 17 is_stmt 0 view .LVU981
 3170 0163 01D5     		addl	%edx, %ebp
 3171              	.LVL139:
 3172              		.loc 1 804 17 view .LVU982
 3173 0165 894628   		movl	%eax, 40(%esi)
 3174              		.loc 1 805 7 is_stmt 1 view .LVU983
 3175              	.LVL140:
 3176              		.loc 1 805 7 is_stmt 0 view .LVU984
 3177 0168 E960FFFF 		jmp	.L123
 3177      FF
 3178              	.LVL141:
 3179 016d 8D7600   		.p2align 4,,10
 3180              		.p2align 3
 3181              	.L134:
 3182              	.LBB664:
 3183              		.loc 1 758 7 is_stmt 1 view .LVU985
GAS LISTING /tmp/cccyco2T.s 			page 59


 3184              		.loc 1 762 7 view .LVU986
 3185              		.loc 1 762 10 is_stmt 0 view .LVU987
 3186 0170 837C2414 		cmpl	$-3, 20(%esp)
 3186      FD
 3187 0175 7731     		ja	.L136
 3188              	.LBB607:
 3189              		.loc 1 766 9 is_stmt 1 view .LVU988
 3190              	.LBB608:
 3191              	.LBI608:
 3192              		.loc 2 634 25 view .LVU989
 3193              	.LBE608:
 3194              	.LBE607:
 3195              	.LBE664:
 3196              	.LBE672:
 3197              		.loc 2 636 3 view .LVU990
 3198              	.LBB673:
 3199              	.LBB665:
 3200              	.LBB622:
 3201              	.LBB613:
 3202              	.LBB609:
 3203              	.LBI609:
 3204              		.loc 7 115 25 view .LVU991
 3205              	.LBB610:
 3206              		.loc 7 118 3 view .LVU992
 3207              		.loc 7 118 19 is_stmt 0 view .LVU993
 3208 0177 8B44241C 		movl	28(%esp), %eax
 3209              	.LBE610:
 3210              	.LBE609:
 3211              	.LBE613:
 3212              	.LBB614:
 3213              	.LBB615:
 3214              	.LBB616:
 3215              		.loc 8 495 26 view .LVU994
 3216 017b 0FB74C24 		movzwl	26(%esp), %ecx
 3216      1A
 3217              	.LBE616:
 3218              	.LBE615:
 3219              	.LBE614:
 3220              	.LBB619:
 3221              	.LBB612:
 3222              	.LBB611:
 3223              		.loc 7 118 19 view .LVU995
 3224 0180 0FB74028 		movzwl	40(%eax), %eax
 3225              	.LVL142:
 3226              		.loc 7 118 19 view .LVU996
 3227              	.LBE611:
 3228              	.LBE612:
 3229              	.LBE619:
 3230              	.LBB620:
 3231              	.LBI614:
 3232              		.loc 2 663 29 is_stmt 1 view .LVU997
 3233              	.LBE620:
 3234              	.LBE622:
 3235              	.LBE665:
 3236              	.LBE673:
 3237              		.loc 2 665 3 view .LVU998
 3238              	.LBB674:
GAS LISTING /tmp/cccyco2T.s 			page 60


 3239              	.LBB666:
 3240              	.LBB623:
 3241              	.LBB621:
 3242              	.LBB618:
 3243              	.LBI615:
 3244              		.loc 8 491 29 view .LVU999
 3245              	.LBB617:
 3246              		.loc 8 495 3 view .LVU1000
 3247              		.loc 8 495 26 is_stmt 0 view .LVU1001
 3248 0184 29C1     		subl	%eax, %ecx
 3249              	.LVL143:
 3250              		.loc 8 495 26 view .LVU1002
 3251 0186 0FB7C1   		movzwl	%cx, %eax
 3252              	.LVL144:
 3253              		.loc 8 495 26 view .LVU1003
 3254              	.LBE617:
 3255              	.LBE618:
 3256              	.LBE621:
 3257              		.loc 1 772 9 is_stmt 1 view .LVU1004
 3258              		.loc 1 772 12 is_stmt 0 view .LVU1005
 3259 0189 3944244C 		cmpl	%eax, 76(%esp)
 3260 018d 722D     		jb	.L121
 3261              		.loc 1 776 9 is_stmt 1 view .LVU1006
 3262              		.loc 1 776 15 is_stmt 0 view .LVU1007
 3263 018f 83EC08   		subl	$8, %esp
 3264              		.cfi_def_cfa_offset 72
 3265 0192 50       		pushl	%eax
 3266              		.cfi_def_cfa_offset 76
 3267 0193 56       		pushl	%esi
 3268              		.cfi_def_cfa_offset 80
 3269 0194 E8FCFFFF 		call	obqGetEmptyBufferTimeoutS
 3269      FF
 3270              	.LVL145:
 3271              		.loc 1 776 15 view .LVU1008
 3272 0199 83C410   		addl	$16, %esp
 3273              		.cfi_def_cfa_offset 64
 3274              		.loc 1 776 15 view .LVU1009
 3275              	.LBE623:
 3276              		.loc 1 780 7 is_stmt 1 view .LVU1010
 3277              		.loc 1 780 10 is_stmt 0 view .LVU1011
 3278 019c 85C0     		testl	%eax, %eax
 3279 019e 751C     		jne	.L121
 3280              	.L137:
 3281              		.loc 1 780 10 view .LVU1012
 3282 01a0 8B4628   		movl	40(%esi), %eax
 3283              	.LVL146:
 3284              		.loc 1 780 10 view .LVU1013
 3285 01a3 EB84     		jmp	.L116
 3286              		.p2align 4,,10
 3287 01a5 8D7600   		.p2align 3
 3288              	.L136:
 3289              		.loc 1 763 9 is_stmt 1 view .LVU1014
 3290              		.loc 1 763 15 is_stmt 0 view .LVU1015
 3291 01a8 83EC08   		subl	$8, %esp
 3292              		.cfi_def_cfa_offset 72
 3293 01ab FF742454 		pushl	84(%esp)
 3294              		.cfi_def_cfa_offset 76
GAS LISTING /tmp/cccyco2T.s 			page 61


 3295 01af 56       		pushl	%esi
 3296              		.cfi_def_cfa_offset 80
 3297 01b0 E8FCFFFF 		call	obqGetEmptyBufferTimeoutS
 3297      FF
 3298              	.LVL147:
 3299              		.loc 1 763 15 view .LVU1016
 3300 01b5 83C410   		addl	$16, %esp
 3301              		.cfi_def_cfa_offset 64
 3302              		.loc 1 780 7 is_stmt 1 view .LVU1017
 3303              		.loc 1 780 10 is_stmt 0 view .LVU1018
 3304 01b8 85C0     		testl	%eax, %eax
 3305 01ba 74E4     		je	.L137
 3306              	.LVL148:
 3307              	.L121:
 3308              		.loc 1 781 9 is_stmt 1 view .LVU1019
 3309              	.LBB624:
 3310              	.LBI624:
 3311              		.loc 2 520 20 view .LVU1020
 3312              	.LBE624:
 3313              	.LBE666:
 3314              	.LBE674:
 3315              		.loc 2 522 3 view .LVU1021
 3316              	.LBB675:
 3317              	.LBB667:
 3318              	.LBB629:
 3319              	.LBB625:
 3320              	.LBI625:
 3321              		.loc 5 365 20 view .LVU1022
 3322              	.LBB626:
 3323              		.loc 5 367 22 view .LVU1023
 3324              		.loc 5 368 33 view .LVU1024
 3325              		.loc 5 374 3 view .LVU1025
 3326              		.loc 5 374 3 view .LVU1026
 3327              		.loc 5 378 3 view .LVU1027
 3328              	.LBB627:
 3329              	.LBI627:
 3330              		.loc 6 371 20 view .LVU1028
 3331              	.LBB628:
 3332              		.loc 6 373 3 view .LVU1029
 3333              		.loc 6 373 16 is_stmt 0 view .LVU1030
 3334 01bc 8B442408 		movl	8(%esp), %eax
 3335 01c0 C7000000 		movl	$0, (%eax)
 3335      0000
 3336              	.LBE628:
 3337              	.LBE627:
 3338              	.LBE626:
 3339              	.LBE625:
 3340              	.LBE629:
 3341              		.loc 1 782 9 is_stmt 1 view .LVU1031
 3342              	.LBE667:
 3343              	.LBE675:
 3344              		.loc 1 820 1 is_stmt 0 view .LVU1032
 3345 01c6 83C42C   		addl	$44, %esp
 3346              		.cfi_remember_state
 3347              		.cfi_def_cfa_offset 20
 3348 01c9 89E8     		movl	%ebp, %eax
 3349 01cb 5B       		popl	%ebx
GAS LISTING /tmp/cccyco2T.s 			page 62


 3350              		.cfi_restore 3
 3351              		.cfi_def_cfa_offset 16
 3352 01cc 5E       		popl	%esi
 3353              		.cfi_restore 6
 3354              		.cfi_def_cfa_offset 12
 3355 01cd 5F       		popl	%edi
 3356              		.cfi_restore 7
 3357              		.cfi_def_cfa_offset 8
 3358              	.LVL149:
 3359              		.loc 1 820 1 view .LVU1033
 3360 01ce 5D       		popl	%ebp
 3361              		.cfi_restore 5
 3362              		.cfi_def_cfa_offset 4
 3363              	.LVL150:
 3364              		.loc 1 820 1 view .LVU1034
 3365 01cf C3       		ret
 3366              	.LVL151:
 3367              		.p2align 4,,10
 3368              		.p2align 3
 3369              	.L128:
 3370              		.cfi_restore_state
 3371              	.LBB676:
 3372              	.LBB668:
 3373              	.LBB652:
 3374              	.LBB650:
 3375              	.LBB648:
 3376              	.LBB646:
 3377              		.loc 6 373 16 view .LVU1035
 3378 01d0 C7000000 		movl	$0, (%eax)
 3378      0000
 3379              	.LBE646:
 3380              	.LBE648:
 3381              	.LBE650:
 3382              	.LBE652:
 3383              	.LBE668:
 3384              	.LBE676:
 3385              		.loc 1 820 1 view .LVU1036
 3386 01d6 83C42C   		addl	$44, %esp
 3387              		.cfi_def_cfa_offset 20
 3388 01d9 89E8     		movl	%ebp, %eax
 3389 01db 5B       		popl	%ebx
 3390              		.cfi_restore 3
 3391              		.cfi_def_cfa_offset 16
 3392 01dc 5E       		popl	%esi
 3393              		.cfi_restore 6
 3394              		.cfi_def_cfa_offset 12
 3395 01dd 5F       		popl	%edi
 3396              		.cfi_restore 7
 3397              		.cfi_def_cfa_offset 8
 3398              	.LVL152:
 3399              		.loc 1 820 1 view .LVU1037
 3400 01de 5D       		popl	%ebp
 3401              		.cfi_restore 5
 3402              		.cfi_def_cfa_offset 4
 3403              	.LVL153:
 3404              		.loc 1 820 1 view .LVU1038
 3405 01df C3       		ret
GAS LISTING /tmp/cccyco2T.s 			page 63


 3406              		.cfi_endproc
 3407              	.LFE252:
 3408              		.size	obqWriteTimeout, .-obqWriteTimeout
 3409              		.section	.text.obqTryFlushI,"ax",@progbits
 3410              		.p2align 4,,15
 3411              		.globl	obqTryFlushI
 3412              		.type	obqTryFlushI, @function
 3413              	obqTryFlushI:
 3414              	.LVL154:
 3415              	.LFB253:
 3416              		.loc 1 835 49 is_stmt 1 view -0
 3417              		.cfi_startproc
 3418              		.loc 1 837 23 view .LVU1040
 3419              		.loc 1 841 3 view .LVU1041
 3420              		.loc 1 835 49 is_stmt 0 view .LVU1042
 3421 0000 53       		pushl	%ebx
 3422              		.cfi_def_cfa_offset 8
 3423              		.cfi_offset 3, -8
 3424              		.loc 1 835 49 view .LVU1043
 3425 0001 8B542408 		movl	8(%esp), %edx
 3426              		.loc 1 862 10 view .LVU1044
 3427 0005 31C0     		xorl	%eax, %eax
 3428              		.loc 1 841 7 view .LVU1045
 3429 0007 8B4A10   		movl	16(%edx), %ecx
 3430 000a 3B4A14   		cmpl	20(%edx), %ecx
 3431 000d 7409     		je	.L147
 3432              	.L138:
 3433              		.loc 1 863 1 view .LVU1046
 3434 000f 5B       		popl	%ebx
 3435              		.cfi_remember_state
 3436              		.cfi_restore 3
 3437              		.cfi_def_cfa_offset 4
 3438 0010 C3       		ret
 3439              		.p2align 4,,10
 3440 0011 8DB42600 		.p2align 3
 3440      000000
 3441              	.L147:
 3442              		.cfi_restore_state
 3443              		.loc 1 841 7 discriminator 1 view .LVU1047
 3444 0018 8B5A0C   		movl	12(%edx), %ebx
 3445 001b 85DB     		testl	%ebx, %ebx
 3446 001d 74F0     		je	.L138
 3447              		.loc 1 841 33 view .LVU1048
 3448 001f 8B5A28   		movl	40(%edx), %ebx
 3449              		.loc 1 841 25 view .LVU1049
 3450 0022 85DB     		testl	%ebx, %ebx
 3451 0024 74E9     		je	.L138
 3452              	.LBB677:
 3453              		.loc 1 842 5 is_stmt 1 view .LVU1050
 3454              		.loc 1 842 12 is_stmt 0 view .LVU1051
 3455 0026 83EB04   		subl	$4, %ebx
 3456              	.LVL155:
 3457              		.loc 1 844 5 is_stmt 1 view .LVU1052
 3458              		.loc 1 844 8 is_stmt 0 view .LVU1053
 3459 0029 29CB     		subl	%ecx, %ebx
 3460              	.LVL156:
 3461              		.loc 1 844 8 view .LVU1054
GAS LISTING /tmp/cccyco2T.s 			page 64


 3462 002b 74E2     		je	.L138
 3463              		.loc 1 847 7 is_stmt 1 view .LVU1055
 3464              		.loc 1 847 33 is_stmt 0 view .LVU1056
 3465 002d 8919     		movl	%ebx, (%ecx)
 3466              		.loc 1 850 7 is_stmt 1 view .LVU1057
 3467              		.loc 1 850 11 is_stmt 0 view .LVU1058
 3468 002f 8B420C   		movl	12(%edx), %eax
 3469              		.loc 1 851 20 view .LVU1059
 3470 0032 034A1C   		addl	28(%edx), %ecx
 3471              		.loc 1 850 21 view .LVU1060
 3472 0035 83E801   		subl	$1, %eax
 3473              		.loc 1 851 20 view .LVU1061
 3474 0038 894A10   		movl	%ecx, 16(%edx)
 3475              		.loc 1 850 21 view .LVU1062
 3476 003b 89420C   		movl	%eax, 12(%edx)
 3477              		.loc 1 851 7 is_stmt 1 view .LVU1063
 3478              		.loc 1 852 7 view .LVU1064
 3479              		.loc 1 852 10 is_stmt 0 view .LVU1065
 3480 003e 3B4A18   		cmpl	24(%edx), %ecx
 3481 0041 7206     		jb	.L141
 3482              		.loc 1 853 9 is_stmt 1 view .LVU1066
 3483              		.loc 1 853 22 is_stmt 0 view .LVU1067
 3484 0043 8B4224   		movl	36(%edx), %eax
 3485 0046 894210   		movl	%eax, 16(%edx)
 3486              	.L141:
 3487              		.loc 1 857 7 is_stmt 1 view .LVU1068
 3488              		.loc 1 857 17 is_stmt 0 view .LVU1069
 3489 0049 C7422800 		movl	$0, 40(%edx)
 3489      000000
 3490              		.loc 1 859 7 is_stmt 1 view .LVU1070
 3491              		.loc 1 859 14 is_stmt 0 view .LVU1071
 3492 0050 B8010000 		movl	$1, %eax
 3492      00
 3493              	.LBE677:
 3494              		.loc 1 863 1 view .LVU1072
 3495 0055 5B       		popl	%ebx
 3496              		.cfi_restore 3
 3497              		.cfi_def_cfa_offset 4
 3498              	.LVL157:
 3499              		.loc 1 863 1 view .LVU1073
 3500 0056 C3       		ret
 3501              		.cfi_endproc
 3502              	.LFE253:
 3503              		.size	obqTryFlushI, .-obqTryFlushI
 3504              		.section	.text.obqFlush,"ax",@progbits
 3505              		.p2align 4,,15
 3506              		.globl	obqFlush
 3507              		.type	obqFlush, @function
 3508              	obqFlush:
 3509              	.LVL158:
 3510              	.LFB254:
 3511              		.loc 1 872 45 is_stmt 1 view -0
 3512              		.cfi_startproc
 3513              		.loc 1 874 3 view .LVU1075
 3514              	.LBB678:
 3515              	.LBI678:
 3516              		.loc 2 509 20 view .LVU1076
GAS LISTING /tmp/cccyco2T.s 			page 65


 3517              	.LBE678:
 3518              		.loc 2 511 3 view .LVU1077
 3519              	.LBB689:
 3520              	.LBB679:
 3521              	.LBI679:
 3522              		.loc 5 353 20 view .LVU1078
 3523              	.LBE679:
 3524              	.LBE689:
 3525              		.loc 5 355 3 view .LVU1079
 3526              	.LBB690:
 3527              	.LBB686:
 3528              	.LBB680:
 3529              	.LBI680:
 3530              		.loc 6 362 20 view .LVU1080
 3531              	.LBB681:
 3532              		.loc 6 364 3 view .LVU1081
 3533 0000 E8FCFFFF 		call	__x86.get_pc_thunk.ax
 3533      FF
 3534 0005 05010000 		addl	$_GLOBAL_OFFSET_TABLE_, %eax
 3534      00
 3535              	.LBE681:
 3536              	.LBE680:
 3537              	.LBE686:
 3538              	.LBE690:
 3539              		.loc 1 872 45 is_stmt 0 view .LVU1082
 3540 000a 53       		pushl	%ebx
 3541              		.cfi_def_cfa_offset 8
 3542              		.cfi_offset 3, -8
 3543 000b 83EC08   		subl	$8, %esp
 3544              		.cfi_def_cfa_offset 16
 3545              		.loc 1 872 45 view .LVU1083
 3546 000e 8B542410 		movl	16(%esp), %edx
 3547              	.LBB691:
 3548              	.LBB687:
 3549              	.LBB684:
 3550              	.LBB682:
 3551              		.loc 6 364 16 view .LVU1084
 3552 0012 8B980000 		movl	port_irq_sts@GOT(%eax), %ebx
 3552      0000
 3553              	.LBE682:
 3554              	.LBE684:
 3555              	.LBE687:
 3556              	.LBE691:
 3557              		.loc 1 877 11 view .LVU1085
 3558 0018 8B4228   		movl	40(%edx), %eax
 3559              	.LBB692:
 3560              	.LBB688:
 3561              	.LBB685:
 3562              	.LBB683:
 3563              		.loc 6 364 16 view .LVU1086
 3564 001b C7030100 		movl	$1, (%ebx)
 3564      0000
 3565              	.LBE683:
 3566              	.LBE685:
 3567              	.LBE688:
 3568              	.LBE692:
 3569              		.loc 5 356 34 is_stmt 1 view .LVU1087
GAS LISTING /tmp/cccyco2T.s 			page 66


 3570              		.loc 5 357 20 view .LVU1088
 3571              		.loc 1 877 3 view .LVU1089
 3572              		.loc 1 877 6 is_stmt 0 view .LVU1090
 3573 0021 85C0     		testl	%eax, %eax
 3574 0023 7437     		je	.L150
 3575              	.LBB693:
 3576              		.loc 1 878 5 is_stmt 1 view .LVU1091
 3577              		.loc 1 878 52 is_stmt 0 view .LVU1092
 3578 0025 8B4A10   		movl	16(%edx), %ecx
 3579              		.loc 1 878 12 view .LVU1093
 3580 0028 83E804   		subl	$4, %eax
 3581              	.LVL159:
 3582              		.loc 1 880 5 is_stmt 1 view .LVU1094
 3583              		.loc 1 880 8 is_stmt 0 view .LVU1095
 3584 002b 29C8     		subl	%ecx, %eax
 3585              	.LVL160:
 3586              		.loc 1 880 8 view .LVU1096
 3587 002d 742D     		je	.L150
 3588              		.loc 1 881 7 is_stmt 1 view .LVU1097
 3589              	.LVL161:
 3590              	.LBB694:
 3591              	.LBI694:
 3592              		.loc 1 646 6 view .LVU1098
 3593              	.LBB695:
 3594              		.loc 1 648 23 view .LVU1099
 3595              		.loc 1 649 3 view .LVU1100
 3596              		.loc 1 649 3 view .LVU1101
 3597              		.loc 1 650 3 view .LVU1102
 3598              		.loc 1 650 3 view .LVU1103
 3599              		.loc 1 653 3 view .LVU1104
 3600              		.loc 1 653 29 is_stmt 0 view .LVU1105
 3601 002f 8901     		movl	%eax, (%ecx)
 3602              		.loc 1 656 3 is_stmt 1 view .LVU1106
 3603              		.loc 1 656 7 is_stmt 0 view .LVU1107
 3604 0031 8B420C   		movl	12(%edx), %eax
 3605              	.LVL162:
 3606              		.loc 1 657 16 view .LVU1108
 3607 0034 034A1C   		addl	28(%edx), %ecx
 3608              	.LVL163:
 3609              		.loc 1 656 17 view .LVU1109
 3610 0037 83E801   		subl	$1, %eax
 3611              		.loc 1 657 16 view .LVU1110
 3612 003a 894A10   		movl	%ecx, 16(%edx)
 3613              	.LVL164:
 3614              		.loc 1 656 17 view .LVU1111
 3615 003d 89420C   		movl	%eax, 12(%edx)
 3616              		.loc 1 657 3 is_stmt 1 view .LVU1112
 3617              		.loc 1 658 3 view .LVU1113
 3618              		.loc 1 658 6 is_stmt 0 view .LVU1114
 3619 0040 3B4A18   		cmpl	24(%edx), %ecx
 3620 0043 732B     		jnb	.L160
 3621              	.L152:
 3622              		.loc 1 663 3 is_stmt 1 view .LVU1115
 3623              		.loc 1 666 11 is_stmt 0 view .LVU1116
 3624 0045 8B4230   		movl	48(%edx), %eax
 3625              		.loc 1 663 13 view .LVU1117
 3626 0048 C7422800 		movl	$0, 40(%edx)
GAS LISTING /tmp/cccyco2T.s 			page 67


 3626      000000
 3627              		.loc 1 666 3 is_stmt 1 view .LVU1118
 3628              		.loc 1 666 6 is_stmt 0 view .LVU1119
 3629 004f 85C0     		testl	%eax, %eax
 3630 0051 7409     		je	.L150
 3631              		.loc 1 667 5 is_stmt 1 view .LVU1120
 3632 0053 83EC0C   		subl	$12, %esp
 3633              		.cfi_def_cfa_offset 28
 3634 0056 52       		pushl	%edx
 3635              		.cfi_def_cfa_offset 32
 3636 0057 FFD0     		call	*%eax
 3637              	.LVL165:
 3638              		.loc 1 667 5 is_stmt 0 view .LVU1121
 3639 0059 83C410   		addl	$16, %esp
 3640              		.cfi_def_cfa_offset 16
 3641              	.LVL166:
 3642              	.L150:
 3643              		.loc 1 667 5 view .LVU1122
 3644              	.LBE695:
 3645              	.LBE694:
 3646              	.LBE693:
 3647              		.loc 1 885 3 is_stmt 1 view .LVU1123
 3648              	.LBB698:
 3649              	.LBI698:
 3650              		.loc 2 520 20 view .LVU1124
 3651              	.LBE698:
 3652              		.loc 2 522 3 view .LVU1125
 3653              	.LBB703:
 3654              	.LBB699:
 3655              	.LBI699:
 3656              		.loc 5 365 20 view .LVU1126
 3657              	.LBB700:
 3658              		.loc 5 367 22 view .LVU1127
 3659              		.loc 5 368 33 view .LVU1128
 3660              		.loc 5 374 3 view .LVU1129
 3661              		.loc 5 374 3 view .LVU1130
 3662              		.loc 5 378 3 view .LVU1131
 3663              	.LBB701:
 3664              	.LBI701:
 3665              		.loc 6 371 20 view .LVU1132
 3666              	.LBB702:
 3667              		.loc 6 373 3 view .LVU1133
 3668              		.loc 6 373 16 is_stmt 0 view .LVU1134
 3669 005c C7030000 		movl	$0, (%ebx)
 3669      0000
 3670              	.LBE702:
 3671              	.LBE701:
 3672              	.LBE700:
 3673              	.LBE699:
 3674              	.LBE703:
 3675              		.loc 1 886 1 view .LVU1135
 3676 0062 83C408   		addl	$8, %esp
 3677              		.cfi_remember_state
 3678              		.cfi_def_cfa_offset 8
 3679 0065 5B       		popl	%ebx
 3680              		.cfi_restore 3
 3681              		.cfi_def_cfa_offset 4
GAS LISTING /tmp/cccyco2T.s 			page 68


 3682 0066 C3       		ret
 3683              	.LVL167:
 3684 0067 8DB42600 		.p2align 4,,10
 3684      00000066 
 3684      90
 3685              		.p2align 3
 3686              	.L160:
 3687              		.cfi_restore_state
 3688              	.LBB704:
 3689              	.LBB697:
 3690              	.LBB696:
 3691              		.loc 1 659 5 is_stmt 1 view .LVU1136
 3692              		.loc 1 659 18 is_stmt 0 view .LVU1137
 3693 0070 8B4224   		movl	36(%edx), %eax
 3694 0073 894210   		movl	%eax, 16(%edx)
 3695 0076 EBCD     		jmp	.L152
 3696              	.LBE696:
 3697              	.LBE697:
 3698              	.LBE704:
 3699              		.cfi_endproc
 3700              	.LFE254:
 3701              		.size	obqFlush, .-obqFlush
 3702              		.section	.text.__x86.get_pc_thunk.ax,"axG",@progbits,__x86.get_pc_thunk.ax,comdat
 3703              		.globl	__x86.get_pc_thunk.ax
 3704              		.hidden	__x86.get_pc_thunk.ax
 3705              		.type	__x86.get_pc_thunk.ax, @function
 3706              	__x86.get_pc_thunk.ax:
 3707              	.LFB257:
 3708              		.cfi_startproc
 3709 0000 8B0424   		movl	(%esp), %eax
 3710 0003 C3       		ret
 3711              		.cfi_endproc
 3712              	.LFE257:
 3713              		.section	.text.__x86.get_pc_thunk.dx,"axG",@progbits,__x86.get_pc_thunk.dx,comdat
 3714              		.globl	__x86.get_pc_thunk.dx
 3715              		.hidden	__x86.get_pc_thunk.dx
 3716              		.type	__x86.get_pc_thunk.dx, @function
 3717              	__x86.get_pc_thunk.dx:
 3718              	.LFB258:
 3719              		.cfi_startproc
 3720 0000 8B1424   		movl	(%esp), %edx
 3721 0003 C3       		ret
 3722              		.cfi_endproc
 3723              	.LFE258:
 3724              		.section	.text.__x86.get_pc_thunk.bx,"axG",@progbits,__x86.get_pc_thunk.bx,comdat
 3725              		.globl	__x86.get_pc_thunk.bx
 3726              		.hidden	__x86.get_pc_thunk.bx
 3727              		.type	__x86.get_pc_thunk.bx, @function
 3728              	__x86.get_pc_thunk.bx:
 3729              	.LFB259:
 3730              		.cfi_startproc
 3731 0000 8B1C24   		movl	(%esp), %ebx
 3732 0003 C3       		ret
 3733              		.cfi_endproc
 3734              	.LFE259:
 3735              		.text
 3736              	.Letext0:
GAS LISTING /tmp/cccyco2T.s 			page 69


 3737              		.file 10 "/usr/lib/gcc/x86_64-linux-gnu/8/include/stddef.h"
 3738              		.file 11 "/usr/include/i386-linux-gnu/bits/types.h"
 3739              		.file 12 "/usr/include/i386-linux-gnu/bits/stdint-intn.h"
 3740              		.file 13 "/usr/include/i386-linux-gnu/bits/stdint-uintn.h"
 3741              		.file 14 "../../../os/common/ports/SIMIA32/compilers/GCC/chtypes.h"
 3742              		.file 15 "../../../os/rt/include/chsystypes.h"
 3743              		.file 16 "../../../os/rt/include/chtm.h"
 3744              		.file 17 "../../../os/rt/include/chsem.h"
 3745              		.file 18 "../../../os/rt/include/chmtx.h"
 3746              		.file 19 "../../../os/rt/include/chregistry.h"
 3747              		.file 20 "../../../os/rt/include/chevents.h"
 3748              		.file 21 "../../../os/common/oslib/include/chmemcore.h"
 3749              		.file 22 "../../../os/common/oslib/include/chmempools.h"
 3750              		.file 23 "../../../os/common/oslib/include/chfactory.h"
 3751              		.file 24 "/usr/include/netinet/in.h"
 3752              		.file 25 "/usr/include/unistd.h"
 3753              		.file 26 "/usr/include/i386-linux-gnu/bits/getopt_core.h"
 3754              		.file 27 "/usr/include/i386-linux-gnu/bits/types/struct_FILE.h"
 3755              		.file 28 "/usr/include/i386-linux-gnu/bits/types/FILE.h"
 3756              		.file 29 "/usr/include/stdio.h"
 3757              		.file 30 "/usr/include/i386-linux-gnu/bits/sys_errlist.h"
 3758              		.file 31 "../../../os/hal/include/hal_buffers.h"
 3759              		.file 32 "../../../os/hal/include/hal_queues.h"
 3760              		.file 33 "../../../os/hal/ports/simulator/hal_pal_lld.h"
 3761              		.file 34 "../../../os/hal/include/hal_serial.h"
 3762              		.file 35 "../../../os/hal/ports/simulator/posix/hal_serial_lld.h"
 3763              		.file 36 "<built-in>"
 3764              		.section	.debug_info,"",@progbits
 3765              	.Ldebug_info0:
 3766 0000 582B0000 		.long	0x2b58
 3767 0004 0400     		.value	0x4
 3768 0006 00000000 		.long	.Ldebug_abbrev0
 3769 000a 04       		.byte	0x4
 3770 000b 01       		.uleb128 0x1
 3771 000c F2060000 		.long	.LASF314
 3772 0010 0C       		.byte	0xc
 3773 0011 520B0000 		.long	.LASF315
 3774 0015 BF0A0000 		.long	.LASF316
 3775 0019 18070000 		.long	.Ldebug_ranges0+0x718
 3776 001d 00000000 		.long	0
 3777 0021 00000000 		.long	.Ldebug_line0
 3778 0025 02       		.uleb128 0x2
 3779 0026 08000000 		.long	.LASF10
 3780 002a 0A       		.byte	0xa
 3781 002b D8       		.byte	0xd8
 3782 002c 17       		.byte	0x17
 3783 002d 36000000 		.long	0x36
 3784 0031 03       		.uleb128 0x3
 3785 0032 25000000 		.long	0x25
 3786 0036 04       		.uleb128 0x4
 3787 0037 04       		.byte	0x4
 3788 0038 07       		.byte	0x7
 3789 0039 D1070000 		.long	.LASF0
 3790 003d 04       		.uleb128 0x4
 3791 003e 02       		.byte	0x2
 3792 003f 07       		.byte	0x7
 3793 0040 920D0000 		.long	.LASF1
GAS LISTING /tmp/cccyco2T.s 			page 70


 3794 0044 05       		.uleb128 0x5
 3795 0045 04       		.byte	0x4
 3796 0046 05       		.byte	0x5
 3797 0047 696E7400 		.string	"int"
 3798 004b 06       		.uleb128 0x6
 3799 004c 04       		.byte	0x4
 3800 004d 62000000 		.long	0x62
 3801 0051 03       		.uleb128 0x3
 3802 0052 4B000000 		.long	0x4b
 3803 0056 07       		.uleb128 0x7
 3804 0057 4B000000 		.long	0x4b
 3805 005b 04       		.uleb128 0x4
 3806 005c 01       		.byte	0x1
 3807 005d 06       		.byte	0x6
 3808 005e 62030000 		.long	.LASF2
 3809 0062 07       		.uleb128 0x7
 3810 0063 5B000000 		.long	0x5b
 3811 0067 04       		.uleb128 0x4
 3812 0068 04       		.byte	0x4
 3813 0069 05       		.byte	0x5
 3814 006a E9010000 		.long	.LASF3
 3815 006e 04       		.uleb128 0x4
 3816 006f 08       		.byte	0x8
 3817 0070 05       		.byte	0x5
 3818 0071 62060000 		.long	.LASF4
 3819 0075 04       		.uleb128 0x4
 3820 0076 0C       		.byte	0xc
 3821 0077 04       		.byte	0x4
 3822 0078 CF080000 		.long	.LASF5
 3823 007c 04       		.uleb128 0x4
 3824 007d 10       		.byte	0x10
 3825 007e 04       		.byte	0x4
 3826 007f 580D0000 		.long	.LASF6
 3827 0083 04       		.uleb128 0x4
 3828 0084 01       		.byte	0x1
 3829 0085 08       		.byte	0x8
 3830 0086 01030000 		.long	.LASF7
 3831 008a 04       		.uleb128 0x4
 3832 008b 04       		.byte	0x4
 3833 008c 07       		.byte	0x7
 3834 008d FB040000 		.long	.LASF8
 3835 0091 04       		.uleb128 0x4
 3836 0092 01       		.byte	0x1
 3837 0093 06       		.byte	0x6
 3838 0094 BD020000 		.long	.LASF9
 3839 0098 02       		.uleb128 0x2
 3840 0099 9D010000 		.long	.LASF11
 3841 009d 0B       		.byte	0xb
 3842 009e 26       		.byte	0x26
 3843 009f 17       		.byte	0x17
 3844 00a0 83000000 		.long	0x83
 3845 00a4 04       		.uleb128 0x4
 3846 00a5 02       		.byte	0x2
 3847 00a6 05       		.byte	0x5
 3848 00a7 DF0B0000 		.long	.LASF12
 3849 00ab 02       		.uleb128 0x2
 3850 00ac 7B030000 		.long	.LASF13
GAS LISTING /tmp/cccyco2T.s 			page 71


 3851 00b0 0B       		.byte	0xb
 3852 00b1 28       		.byte	0x28
 3853 00b2 1C       		.byte	0x1c
 3854 00b3 3D000000 		.long	0x3d
 3855 00b7 02       		.uleb128 0x2
 3856 00b8 140E0000 		.long	.LASF14
 3857 00bc 0B       		.byte	0xb
 3858 00bd 29       		.byte	0x29
 3859 00be 14       		.byte	0x14
 3860 00bf 44000000 		.long	0x44
 3861 00c3 02       		.uleb128 0x2
 3862 00c4 44060000 		.long	.LASF15
 3863 00c8 0B       		.byte	0xb
 3864 00c9 2A       		.byte	0x2a
 3865 00ca 16       		.byte	0x16
 3866 00cb 36000000 		.long	0x36
 3867 00cf 04       		.uleb128 0x4
 3868 00d0 08       		.byte	0x8
 3869 00d1 07       		.byte	0x7
 3870 00d2 94090000 		.long	.LASF16
 3871 00d6 02       		.uleb128 0x2
 3872 00d7 85050000 		.long	.LASF17
 3873 00db 0B       		.byte	0xb
 3874 00dc 42       		.byte	0x42
 3875 00dd 25       		.byte	0x25
 3876 00de 6E000000 		.long	0x6e
 3877 00e2 02       		.uleb128 0x2
 3878 00e3 D0090000 		.long	.LASF18
 3879 00e7 0B       		.byte	0xb
 3880 00e8 98       		.byte	0x98
 3881 00e9 19       		.byte	0x19
 3882 00ea 67000000 		.long	0x67
 3883 00ee 02       		.uleb128 0x2
 3884 00ef 080B0000 		.long	.LASF19
 3885 00f3 0B       		.byte	0xb
 3886 00f4 99       		.byte	0x99
 3887 00f5 1B       		.byte	0x1b
 3888 00f6 D6000000 		.long	0xd6
 3889 00fa 08       		.uleb128 0x8
 3890 00fb 04       		.byte	0x4
 3891 00fc 09       		.uleb128 0x9
 3892 00fd FA000000 		.long	0xfa
 3893 0101 06       		.uleb128 0x6
 3894 0102 04       		.byte	0x4
 3895 0103 5B000000 		.long	0x5b
 3896 0107 02       		.uleb128 0x2
 3897 0108 7D000000 		.long	.LASF20
 3898 010c 0C       		.byte	0xc
 3899 010d 1A       		.byte	0x1a
 3900 010e 13       		.byte	0x13
 3901 010f B7000000 		.long	0xb7
 3902 0113 02       		.uleb128 0x2
 3903 0114 D0020000 		.long	.LASF21
 3904 0118 0D       		.byte	0xd
 3905 0119 18       		.byte	0x18
 3906 011a 13       		.byte	0x13
 3907 011b 98000000 		.long	0x98
GAS LISTING /tmp/cccyco2T.s 			page 72


 3908 011f 07       		.uleb128 0x7
 3909 0120 13010000 		.long	0x113
 3910 0124 02       		.uleb128 0x2
 3911 0125 C7090000 		.long	.LASF22
 3912 0129 0D       		.byte	0xd
 3913 012a 19       		.byte	0x19
 3914 012b 14       		.byte	0x14
 3915 012c AB000000 		.long	0xab
 3916 0130 02       		.uleb128 0x2
 3917 0131 290D0000 		.long	.LASF23
 3918 0135 0D       		.byte	0xd
 3919 0136 1A       		.byte	0x1a
 3920 0137 14       		.byte	0x14
 3921 0138 C3000000 		.long	0xc3
 3922 013c 02       		.uleb128 0x2
 3923 013d F4070000 		.long	.LASF24
 3924 0141 0E       		.byte	0xe
 3925 0142 45       		.byte	0x45
 3926 0143 1D       		.byte	0x1d
 3927 0144 30010000 		.long	0x130
 3928 0148 02       		.uleb128 0x2
 3929 0149 3A030000 		.long	.LASF25
 3930 014d 0E       		.byte	0xe
 3931 014e 47       		.byte	0x47
 3932 014f 1D       		.byte	0x1d
 3933 0150 30010000 		.long	0x130
 3934 0154 02       		.uleb128 0x2
 3935 0155 220B0000 		.long	.LASF26
 3936 0159 0E       		.byte	0xe
 3937 015a 48       		.byte	0x48
 3938 015b 1D       		.byte	0x1d
 3939 015c 13010000 		.long	0x113
 3940 0160 02       		.uleb128 0x2
 3941 0161 3F020000 		.long	.LASF27
 3942 0165 0E       		.byte	0xe
 3943 0166 49       		.byte	0x49
 3944 0167 1D       		.byte	0x1d
 3945 0168 13010000 		.long	0x113
 3946 016c 02       		.uleb128 0x2
 3947 016d B80C0000 		.long	.LASF28
 3948 0171 0E       		.byte	0xe
 3949 0172 4A       		.byte	0x4a
 3950 0173 1D       		.byte	0x1d
 3951 0174 13010000 		.long	0x113
 3952 0178 02       		.uleb128 0x2
 3953 0179 57000000 		.long	.LASF29
 3954 017d 0E       		.byte	0xe
 3955 017e 4C       		.byte	0x4c
 3956 017f 1D       		.byte	0x1d
 3957 0180 30010000 		.long	0x130
 3958 0184 02       		.uleb128 0x2
 3959 0185 E1090000 		.long	.LASF30
 3960 0189 0E       		.byte	0xe
 3961 018a 4D       		.byte	0x4d
 3962 018b 1D       		.byte	0x1d
 3963 018c 07010000 		.long	0x107
 3964 0190 02       		.uleb128 0x2
GAS LISTING /tmp/cccyco2T.s 			page 73


 3965 0191 EF020000 		.long	.LASF31
 3966 0195 0E       		.byte	0xe
 3967 0196 4F       		.byte	0x4f
 3968 0197 1D       		.byte	0x1d
 3969 0198 30010000 		.long	0x130
 3970 019c 02       		.uleb128 0x2
 3971 019d FD090000 		.long	.LASF32
 3972 01a1 0E       		.byte	0xe
 3973 01a2 50       		.byte	0x50
 3974 01a3 1D       		.byte	0x1d
 3975 01a4 30010000 		.long	0x130
 3976 01a8 02       		.uleb128 0x2
 3977 01a9 55040000 		.long	.LASF33
 3978 01ad 0E       		.byte	0xe
 3979 01ae 51       		.byte	0x51
 3980 01af 1D       		.byte	0x1d
 3981 01b0 07010000 		.long	0x107
 3982 01b4 02       		.uleb128 0x2
 3983 01b5 D4050000 		.long	.LASF34
 3984 01b9 0E       		.byte	0xe
 3985 01ba 52       		.byte	0x52
 3986 01bb 1D       		.byte	0x1d
 3987 01bc 30010000 		.long	0x130
 3988 01c0 02       		.uleb128 0x2
 3989 01c1 C1080000 		.long	.LASF35
 3990 01c5 0F       		.byte	0xf
 3991 01c6 34       		.byte	0x34
 3992 01c7 1A       		.byte	0x1a
 3993 01c8 CC010000 		.long	0x1cc
 3994 01cc 0A       		.uleb128 0xa
 3995 01cd 37050000 		.long	.LASF53
 3996 01d1 44       		.byte	0x44
 3997 01d2 04       		.byte	0x4
 3998 01d3 8E       		.byte	0x8e
 3999 01d4 08       		.byte	0x8
 4000 01d5 BC020000 		.long	0x2bc
 4001 01d9 0B       		.uleb128 0xb
 4002 01da 350A0000 		.long	.LASF36
 4003 01de 04       		.byte	0x4
 4004 01df 8F       		.byte	0x8f
 4005 01e0 19       		.byte	0x19
 4006 01e1 F5020000 		.long	0x2f5
 4007 01e5 00       		.byte	0
 4008 01e6 0B       		.uleb128 0xb
 4009 01e7 6C010000 		.long	.LASF37
 4010 01eb 04       		.byte	0x4
 4011 01ec 90       		.byte	0x90
 4012 01ed 19       		.byte	0x19
 4013 01ee 78010000 		.long	0x178
 4014 01f2 08       		.byte	0x8
 4015 01f3 0C       		.uleb128 0xc
 4016 01f4 63747800 		.string	"ctx"
 4017 01f8 04       		.byte	0x4
 4018 01f9 91       		.byte	0x91
 4019 01fa 19       		.byte	0x19
 4020 01fb 9C050000 		.long	0x59c
 4021 01ff 0C       		.byte	0xc
GAS LISTING /tmp/cccyco2T.s 			page 74


 4022 0200 0B       		.uleb128 0xb
 4023 0201 040D0000 		.long	.LASF38
 4024 0205 04       		.byte	0x4
 4025 0206 93       		.byte	0x93
 4026 0207 1A       		.byte	0x1a
 4027 0208 C8020000 		.long	0x2c8
 4028 020c 10       		.byte	0x10
 4029 020d 0B       		.uleb128 0xb
 4030 020e B5050000 		.long	.LASF39
 4031 0212 04       		.byte	0x4
 4032 0213 94       		.byte	0x94
 4033 0214 1A       		.byte	0x1a
 4034 0215 C8020000 		.long	0x2c8
 4035 0219 14       		.byte	0x14
 4036 021a 0B       		.uleb128 0xb
 4037 021b 970B0000 		.long	.LASF40
 4038 021f 04       		.byte	0x4
 4039 0220 9B       		.byte	0x9b
 4040 0221 1A       		.byte	0x1a
 4041 0222 4B000000 		.long	0x4b
 4042 0226 18       		.byte	0x18
 4043 0227 0B       		.uleb128 0xb
 4044 0228 9D0A0000 		.long	.LASF41
 4045 022c 04       		.byte	0x4
 4046 022d A4       		.byte	0xa4
 4047 022e 1A       		.byte	0x1a
 4048 022f DA060000 		.long	0x6da
 4049 0233 1C       		.byte	0x1c
 4050 0234 0B       		.uleb128 0xb
 4051 0235 19010000 		.long	.LASF42
 4052 0239 04       		.byte	0x4
 4053 023a A9       		.byte	0xa9
 4054 023b 19       		.byte	0x19
 4055 023c 60010000 		.long	0x160
 4056 0240 20       		.byte	0x20
 4057 0241 0B       		.uleb128 0xb
 4058 0242 B9030000 		.long	.LASF43
 4059 0246 04       		.byte	0x4
 4060 0247 AD       		.byte	0xad
 4061 0248 19       		.byte	0x19
 4062 0249 54010000 		.long	0x154
 4063 024d 21       		.byte	0x21
 4064 024e 0B       		.uleb128 0xb
 4065 024f 300A0000 		.long	.LASF44
 4066 0253 04       		.byte	0x4
 4067 0254 B2       		.byte	0xb2
 4068 0255 19       		.byte	0x19
 4069 0256 6C010000 		.long	0x16c
 4070 025a 22       		.byte	0x22
 4071 025b 0D       		.uleb128 0xd
 4072 025c 7500     		.string	"u"
 4073 025e 04       		.byte	0x4
 4074 025f 0301     		.value	0x103
 4075 0261 19       		.byte	0x19
 4076 0262 00060000 		.long	0x600
 4077 0266 24       		.byte	0x24
 4078 0267 0E       		.uleb128 0xe
GAS LISTING /tmp/cccyco2T.s 			page 75


 4079 0268 8F0C0000 		.long	.LASF45
 4080 026c 04       		.byte	0x4
 4081 026d 0801     		.value	0x108
 4082 026f 19       		.byte	0x19
 4083 0270 CE020000 		.long	0x2ce
 4084 0274 28       		.byte	0x28
 4085 0275 0E       		.uleb128 0xe
 4086 0276 040C0000 		.long	.LASF46
 4087 027a 04       		.byte	0x4
 4088 027b 0E01     		.value	0x10e
 4089 027d 19       		.byte	0x19
 4090 027e F5020000 		.long	0x2f5
 4091 0282 2C       		.byte	0x2c
 4092 0283 0E       		.uleb128 0xe
 4093 0284 48020000 		.long	.LASF47
 4094 0288 04       		.byte	0x4
 4095 0289 1401     		.value	0x114
 4096 028b 19       		.byte	0x19
 4097 028c 90010000 		.long	0x190
 4098 0290 34       		.byte	0x34
 4099 0291 0E       		.uleb128 0xe
 4100 0292 5A060000 		.long	.LASF48
 4101 0296 04       		.byte	0x4
 4102 0297 1B01     		.value	0x11b
 4103 0299 1A       		.byte	0x1a
 4104 029a D4060000 		.long	0x6d4
 4105 029e 38       		.byte	0x38
 4106 029f 0E       		.uleb128 0xe
 4107 02a0 CB050000 		.long	.LASF49
 4108 02a4 04       		.byte	0x4
 4109 02a5 1F01     		.value	0x11f
 4110 02a7 19       		.byte	0x19
 4111 02a8 78010000 		.long	0x178
 4112 02ac 3C       		.byte	0x3c
 4113 02ad 0E       		.uleb128 0xe
 4114 02ae EC030000 		.long	.LASF50
 4115 02b2 04       		.byte	0x4
 4116 02b3 2601     		.value	0x126
 4117 02b5 1A       		.byte	0x1a
 4118 02b6 FA000000 		.long	0xfa
 4119 02ba 40       		.byte	0x40
 4120 02bb 00       		.byte	0
 4121 02bc 02       		.uleb128 0x2
 4122 02bd EF080000 		.long	.LASF51
 4123 02c1 0F       		.byte	0xf
 4124 02c2 39       		.byte	0x39
 4125 02c3 14       		.byte	0x14
 4126 02c4 C8020000 		.long	0x2c8
 4127 02c8 06       		.uleb128 0x6
 4128 02c9 04       		.byte	0x4
 4129 02ca C0010000 		.long	0x1c0
 4130 02ce 02       		.uleb128 0x2
 4131 02cf DA0C0000 		.long	.LASF52
 4132 02d3 0F       		.byte	0xf
 4133 02d4 3E       		.byte	0x3e
 4134 02d5 20       		.byte	0x20
 4135 02d6 DA020000 		.long	0x2da
GAS LISTING /tmp/cccyco2T.s 			page 76


 4136 02da 0A       		.uleb128 0xa
 4137 02db 14060000 		.long	.LASF54
 4138 02df 04       		.byte	0x4
 4139 02e0 04       		.byte	0x4
 4140 02e1 7C       		.byte	0x7c
 4141 02e2 08       		.byte	0x8
 4142 02e3 F5020000 		.long	0x2f5
 4143 02e7 0B       		.uleb128 0xb
 4144 02e8 8A0E0000 		.long	.LASF55
 4145 02ec 04       		.byte	0x4
 4146 02ed 7D       		.byte	0x7d
 4147 02ee 1A       		.byte	0x1a
 4148 02ef C8020000 		.long	0x2c8
 4149 02f3 00       		.byte	0
 4150 02f4 00       		.byte	0
 4151 02f5 02       		.uleb128 0x2
 4152 02f6 51020000 		.long	.LASF56
 4153 02fa 0F       		.byte	0xf
 4154 02fb 45       		.byte	0x45
 4155 02fc 21       		.byte	0x21
 4156 02fd 01030000 		.long	0x301
 4157 0301 0A       		.uleb128 0xa
 4158 0302 E7090000 		.long	.LASF57
 4159 0306 08       		.byte	0x8
 4160 0307 04       		.byte	0x4
 4161 0308 83       		.byte	0x83
 4162 0309 08       		.byte	0x8
 4163 030a 29030000 		.long	0x329
 4164 030e 0B       		.uleb128 0xb
 4165 030f 8A0E0000 		.long	.LASF55
 4166 0313 04       		.byte	0x4
 4167 0314 84       		.byte	0x84
 4168 0315 1A       		.byte	0x1a
 4169 0316 C8020000 		.long	0x2c8
 4170 031a 00       		.byte	0
 4171 031b 0B       		.uleb128 0xb
 4172 031c 8F0E0000 		.long	.LASF58
 4173 0320 04       		.byte	0x4
 4174 0321 85       		.byte	0x85
 4175 0322 1A       		.byte	0x1a
 4176 0323 C8020000 		.long	0x2c8
 4177 0327 04       		.byte	0x4
 4178 0328 00       		.byte	0
 4179 0329 02       		.uleb128 0x2
 4180 032a A8050000 		.long	.LASF59
 4181 032e 0F       		.byte	0xf
 4182 032f 4C       		.byte	0x4c
 4183 0330 1E       		.byte	0x1e
 4184 0331 35030000 		.long	0x335
 4185 0335 0F       		.uleb128 0xf
 4186 0336 AF040000 		.long	.LASF60
 4187 033a 1C       		.byte	0x1c
 4188 033b 04       		.byte	0x4
 4189 033c 5E01     		.value	0x15e
 4190 033e 08       		.byte	0x8
 4191 033f 98030000 		.long	0x398
 4192 0343 0E       		.uleb128 0xe
GAS LISTING /tmp/cccyco2T.s 			page 77


 4193 0344 350A0000 		.long	.LASF36
 4194 0348 04       		.byte	0x4
 4195 0349 5F01     		.value	0x15f
 4196 034b 19       		.byte	0x19
 4197 034c F5020000 		.long	0x2f5
 4198 0350 00       		.byte	0
 4199 0351 0E       		.uleb128 0xe
 4200 0352 6C010000 		.long	.LASF37
 4201 0356 04       		.byte	0x4
 4202 0357 6001     		.value	0x160
 4203 0359 19       		.byte	0x19
 4204 035a 78010000 		.long	0x178
 4205 035e 08       		.byte	0x8
 4206 035f 0D       		.uleb128 0xd
 4207 0360 63747800 		.string	"ctx"
 4208 0364 04       		.byte	0x4
 4209 0365 6201     		.value	0x162
 4210 0367 19       		.byte	0x19
 4211 0368 9C050000 		.long	0x59c
 4212 036c 0C       		.byte	0xc
 4213 036d 0E       		.uleb128 0xe
 4214 036e 040D0000 		.long	.LASF38
 4215 0372 04       		.byte	0x4
 4216 0373 6501     		.value	0x165
 4217 0375 1A       		.byte	0x1a
 4218 0376 C8020000 		.long	0x2c8
 4219 037a 10       		.byte	0x10
 4220 037b 0E       		.uleb128 0xe
 4221 037c B5050000 		.long	.LASF39
 4222 0380 04       		.byte	0x4
 4223 0381 6601     		.value	0x166
 4224 0383 1A       		.byte	0x1a
 4225 0384 C8020000 		.long	0x2c8
 4226 0388 14       		.byte	0x14
 4227 0389 0E       		.uleb128 0xe
 4228 038a 46080000 		.long	.LASF61
 4229 038e 04       		.byte	0x4
 4230 038f 6901     		.value	0x169
 4231 0391 1A       		.byte	0x1a
 4232 0392 C8020000 		.long	0x2c8
 4233 0396 18       		.byte	0x18
 4234 0397 00       		.byte	0
 4235 0398 02       		.uleb128 0x2
 4236 0399 9D000000 		.long	.LASF62
 4237 039d 0F       		.byte	0xf
 4238 039e 51       		.byte	0x51
 4239 039f 10       		.byte	0x10
 4240 03a0 A4030000 		.long	0x3a4
 4241 03a4 06       		.uleb128 0x6
 4242 03a5 04       		.byte	0x4
 4243 03a6 AA030000 		.long	0x3aa
 4244 03aa 10       		.uleb128 0x10
 4245 03ab B5030000 		.long	0x3b5
 4246 03af 11       		.uleb128 0x11
 4247 03b0 FA000000 		.long	0xfa
 4248 03b4 00       		.byte	0
 4249 03b5 02       		.uleb128 0x2
GAS LISTING /tmp/cccyco2T.s 			page 78


 4250 03b6 98050000 		.long	.LASF63
 4251 03ba 0F       		.byte	0xf
 4252 03bb 56       		.byte	0x56
 4253 03bc 21       		.byte	0x21
 4254 03bd C1030000 		.long	0x3c1
 4255 03c1 0F       		.uleb128 0xf
 4256 03c2 66090000 		.long	.LASF64
 4257 03c6 14       		.byte	0x14
 4258 03c7 04       		.byte	0x4
 4259 03c8 3901     		.value	0x139
 4260 03ca 08       		.byte	0x8
 4261 03cb 16040000 		.long	0x416
 4262 03cf 0E       		.uleb128 0xe
 4263 03d0 8A0E0000 		.long	.LASF55
 4264 03d4 04       		.byte	0x4
 4265 03d5 3A01     		.value	0x13a
 4266 03d7 1A       		.byte	0x1a
 4267 03d8 E0060000 		.long	0x6e0
 4268 03dc 00       		.byte	0
 4269 03dd 0E       		.uleb128 0xe
 4270 03de 8F0E0000 		.long	.LASF58
 4271 03e2 04       		.byte	0x4
 4272 03e3 3B01     		.value	0x13b
 4273 03e5 1A       		.byte	0x1a
 4274 03e6 E0060000 		.long	0x6e0
 4275 03ea 04       		.byte	0x4
 4276 03eb 0E       		.uleb128 0xe
 4277 03ec 1D0A0000 		.long	.LASF65
 4278 03f0 04       		.byte	0x4
 4279 03f1 3C01     		.value	0x13c
 4280 03f3 19       		.byte	0x19
 4281 03f4 03050000 		.long	0x503
 4282 03f8 08       		.byte	0x8
 4283 03f9 0E       		.uleb128 0xe
 4284 03fa F60B0000 		.long	.LASF66
 4285 03fe 04       		.byte	0x4
 4286 03ff 3D01     		.value	0x13d
 4287 0401 19       		.byte	0x19
 4288 0402 98030000 		.long	0x398
 4289 0406 0C       		.byte	0xc
 4290 0407 0D       		.uleb128 0xd
 4291 0408 70617200 		.string	"par"
 4292 040c 04       		.byte	0x4
 4293 040d 3F01     		.value	0x13f
 4294 040f 1A       		.byte	0x1a
 4295 0410 FA000000 		.long	0xfa
 4296 0414 10       		.byte	0x10
 4297 0415 00       		.byte	0
 4298 0416 02       		.uleb128 0x2
 4299 0417 4F050000 		.long	.LASF67
 4300 041b 0F       		.byte	0xf
 4301 041c 5B       		.byte	0x5b
 4302 041d 28       		.byte	0x28
 4303 041e 22040000 		.long	0x422
 4304 0422 0F       		.uleb128 0xf
 4305 0423 C4000000 		.long	.LASF68
 4306 0427 10       		.byte	0x10
GAS LISTING /tmp/cccyco2T.s 			page 79


 4307 0428 04       		.byte	0x4
 4308 0429 4901     		.value	0x149
 4309 042b 08       		.byte	0x8
 4310 042c 69040000 		.long	0x469
 4311 0430 0E       		.uleb128 0xe
 4312 0431 8A0E0000 		.long	.LASF55
 4313 0435 04       		.byte	0x4
 4314 0436 4A01     		.value	0x14a
 4315 0438 1A       		.byte	0x1a
 4316 0439 E0060000 		.long	0x6e0
 4317 043d 00       		.byte	0
 4318 043e 0E       		.uleb128 0xe
 4319 043f 8F0E0000 		.long	.LASF58
 4320 0443 04       		.byte	0x4
 4321 0444 4C01     		.value	0x14c
 4322 0446 1A       		.byte	0x1a
 4323 0447 E0060000 		.long	0x6e0
 4324 044b 04       		.byte	0x4
 4325 044c 0E       		.uleb128 0xe
 4326 044d 1D0A0000 		.long	.LASF65
 4327 0451 04       		.byte	0x4
 4328 0452 4E01     		.value	0x14e
 4329 0454 19       		.byte	0x19
 4330 0455 03050000 		.long	0x503
 4331 0459 08       		.byte	0x8
 4332 045a 0E       		.uleb128 0xe
 4333 045b AD010000 		.long	.LASF69
 4334 045f 04       		.byte	0x4
 4335 0460 5001     		.value	0x150
 4336 0462 19       		.byte	0x19
 4337 0463 FE040000 		.long	0x4fe
 4338 0467 0C       		.byte	0xc
 4339 0468 00       		.byte	0
 4340 0469 02       		.uleb128 0x2
 4341 046a 43030000 		.long	.LASF70
 4342 046e 0F       		.byte	0xf
 4343 046f 60       		.byte	0x60
 4344 0470 20       		.byte	0x20
 4345 0471 75040000 		.long	0x475
 4346 0475 0F       		.uleb128 0xf
 4347 0476 290C0000 		.long	.LASF71
 4348 047a 04       		.byte	0x4
 4349 047b 04       		.byte	0x4
 4350 047c 7001     		.value	0x170
 4351 047e 08       		.byte	0x8
 4352 047f 92040000 		.long	0x492
 4353 0483 0E       		.uleb128 0xe
 4354 0484 24030000 		.long	.LASF72
 4355 0488 04       		.byte	0x4
 4356 0489 7801     		.value	0x178
 4357 048b 24       		.byte	0x24
 4358 048c 51000000 		.long	0x51
 4359 0490 00       		.byte	0
 4360 0491 00       		.byte	0
 4361 0492 02       		.uleb128 0x2
 4362 0493 CA0D0000 		.long	.LASF73
 4363 0497 0F       		.byte	0xf
GAS LISTING /tmp/cccyco2T.s 			page 80


 4364 0498 65       		.byte	0x65
 4365 0499 1A       		.byte	0x1a
 4366 049a 9E040000 		.long	0x49e
 4367 049e 0F       		.uleb128 0xf
 4368 049f FA0C0000 		.long	.LASF74
 4369 04a3 78       		.byte	0x78
 4370 04a4 04       		.byte	0x4
 4371 04a5 9001     		.value	0x190
 4372 04a7 08       		.byte	0x8
 4373 04a8 F2040000 		.long	0x4f2
 4374 04ac 0E       		.uleb128 0xe
 4375 04ad 1C0B0000 		.long	.LASF75
 4376 04b1 04       		.byte	0x4
 4377 04b2 9401     		.value	0x194
 4378 04b4 19       		.byte	0x19
 4379 04b5 29030000 		.long	0x329
 4380 04b9 00       		.byte	0
 4381 04ba 0E       		.uleb128 0xe
 4382 04bb 880C0000 		.long	.LASF76
 4383 04bf 04       		.byte	0x4
 4384 04c0 9801     		.value	0x198
 4385 04c2 19       		.byte	0x19
 4386 04c3 16040000 		.long	0x416
 4387 04c7 1C       		.byte	0x1c
 4388 04c8 0D       		.uleb128 0xd
 4389 04c9 64626700 		.string	"dbg"
 4390 04cd 04       		.byte	0x4
 4391 04ce 9C01     		.value	0x19c
 4392 04d0 19       		.byte	0x19
 4393 04d1 69040000 		.long	0x469
 4394 04d5 2C       		.byte	0x2c
 4395 04d6 0E       		.uleb128 0xe
 4396 04d7 600A0000 		.long	.LASF77
 4397 04db 04       		.byte	0x4
 4398 04dc A001     		.value	0x1a0
 4399 04de 19       		.byte	0x19
 4400 04df C0010000 		.long	0x1c0
 4401 04e3 30       		.byte	0x30
 4402 04e4 0D       		.uleb128 0xd
 4403 04e5 746D00   		.string	"tm"
 4404 04e8 04       		.byte	0x4
 4405 04e9 A501     		.value	0x1a5
 4406 04eb 19       		.byte	0x19
 4407 04ec F4050000 		.long	0x5f4
 4408 04f0 74       		.byte	0x74
 4409 04f1 00       		.byte	0
 4410 04f2 02       		.uleb128 0x2
 4411 04f3 3B000000 		.long	.LASF78
 4412 04f7 08       		.byte	0x8
 4413 04f8 8E       		.byte	0x8e
 4414 04f9 12       		.byte	0x12
 4415 04fa 24010000 		.long	0x124
 4416 04fe 03       		.uleb128 0x3
 4417 04ff F2040000 		.long	0x4f2
 4418 0503 02       		.uleb128 0x2
 4419 0504 7D060000 		.long	.LASF79
 4420 0508 08       		.byte	0x8
GAS LISTING /tmp/cccyco2T.s 			page 81


 4421 0509 98       		.byte	0x98
 4422 050a 12       		.byte	0x12
 4423 050b 30010000 		.long	0x130
 4424 050f 12       		.uleb128 0x12
 4425 0510 10       		.byte	0x10
 4426 0511 06       		.byte	0x6
 4427 0512 91       		.byte	0x91
 4428 0513 09       		.byte	0x9
 4429 0514 24050000 		.long	0x524
 4430 0518 0C       		.uleb128 0xc
 4431 0519 6100     		.string	"a"
 4432 051b 06       		.byte	0x6
 4433 051c 92       		.byte	0x92
 4434 051d 0B       		.byte	0xb
 4435 051e 24050000 		.long	0x524
 4436 0522 00       		.byte	0
 4437 0523 00       		.byte	0
 4438 0524 13       		.uleb128 0x13
 4439 0525 13010000 		.long	0x113
 4440 0529 34050000 		.long	0x534
 4441 052d 14       		.uleb128 0x14
 4442 052e 36000000 		.long	0x36
 4443 0532 0F       		.byte	0xf
 4444 0533 00       		.byte	0
 4445 0534 15       		.uleb128 0x15
 4446 0535 DB030000 		.long	.LASF317
 4447 0539 06       		.byte	0x6
 4448 053a 93       		.byte	0x93
 4449 053b 03       		.byte	0x3
 4450 053c 0F050000 		.long	0x50f
 4451 0540 10       		.byte	0x10
 4452 0541 02       		.uleb128 0x2
 4453 0542 AC0D0000 		.long	.LASF80
 4454 0546 06       		.byte	0x6
 4455 0547 98       		.byte	0x98
 4456 0548 0F       		.byte	0xf
 4457 0549 FA000000 		.long	0xfa
 4458 054d 0A       		.uleb128 0xa
 4459 054e 19090000 		.long	.LASF81
 4460 0552 14       		.byte	0x14
 4461 0553 06       		.byte	0x6
 4462 0554 A7       		.byte	0xa7
 4463 0555 08       		.byte	0x8
 4464 0556 9C050000 		.long	0x59c
 4465 055a 0C       		.uleb128 0xc
 4466 055b 65627800 		.string	"ebx"
 4467 055f 06       		.byte	0x6
 4468 0560 A8       		.byte	0xa8
 4469 0561 0B       		.byte	0xb
 4470 0562 41050000 		.long	0x541
 4471 0566 00       		.byte	0
 4472 0567 0C       		.uleb128 0xc
 4473 0568 65646900 		.string	"edi"
 4474 056c 06       		.byte	0x6
 4475 056d A9       		.byte	0xa9
 4476 056e 0B       		.byte	0xb
 4477 056f 41050000 		.long	0x541
GAS LISTING /tmp/cccyco2T.s 			page 82


 4478 0573 04       		.byte	0x4
 4479 0574 0C       		.uleb128 0xc
 4480 0575 65736900 		.string	"esi"
 4481 0579 06       		.byte	0x6
 4482 057a AA       		.byte	0xaa
 4483 057b 0B       		.byte	0xb
 4484 057c 41050000 		.long	0x541
 4485 0580 08       		.byte	0x8
 4486 0581 0C       		.uleb128 0xc
 4487 0582 65627000 		.string	"ebp"
 4488 0586 06       		.byte	0x6
 4489 0587 AB       		.byte	0xab
 4490 0588 0B       		.byte	0xb
 4491 0589 41050000 		.long	0x541
 4492 058d 0C       		.byte	0xc
 4493 058e 0C       		.uleb128 0xc
 4494 058f 65697000 		.string	"eip"
 4495 0593 06       		.byte	0x6
 4496 0594 AC       		.byte	0xac
 4497 0595 0B       		.byte	0xb
 4498 0596 41050000 		.long	0x541
 4499 059a 10       		.byte	0x10
 4500 059b 00       		.byte	0
 4501 059c 0A       		.uleb128 0xa
 4502 059d C00C0000 		.long	.LASF82
 4503 05a1 04       		.byte	0x4
 4504 05a2 06       		.byte	0x6
 4505 05a3 B4       		.byte	0xb4
 4506 05a4 08       		.byte	0x8
 4507 05a5 B6050000 		.long	0x5b6
 4508 05a9 0C       		.uleb128 0xc
 4509 05aa 737000   		.string	"sp"
 4510 05ad 06       		.byte	0x6
 4511 05ae B5       		.byte	0xb5
 4512 05af 17       		.byte	0x17
 4513 05b0 B6050000 		.long	0x5b6
 4514 05b4 00       		.byte	0
 4515 05b5 00       		.byte	0
 4516 05b6 06       		.uleb128 0x6
 4517 05b7 04       		.byte	0x4
 4518 05b8 4D050000 		.long	0x54d
 4519 05bc 16       		.uleb128 0x16
 4520 05bd 62080000 		.long	.LASF84
 4521 05c1 06       		.byte	0x6
 4522 05c2 1E01     		.value	0x11e
 4523 05c4 0D       		.byte	0xd
 4524 05c5 C9050000 		.long	0x5c9
 4525 05c9 04       		.uleb128 0x4
 4526 05ca 01       		.byte	0x1
 4527 05cb 02       		.byte	0x2
 4528 05cc 5C030000 		.long	.LASF83
 4529 05d0 16       		.uleb128 0x16
 4530 05d1 92030000 		.long	.LASF85
 4531 05d5 06       		.byte	0x6
 4532 05d6 1F01     		.value	0x11f
 4533 05d8 11       		.byte	0x11
 4534 05d9 48010000 		.long	0x148
GAS LISTING /tmp/cccyco2T.s 			page 83


 4535 05dd 12       		.uleb128 0x12
 4536 05de 04       		.byte	0x4
 4537 05df 10       		.byte	0x10
 4538 05e0 38       		.byte	0x38
 4539 05e1 09       		.byte	0x9
 4540 05e2 F4050000 		.long	0x5f4
 4541 05e6 0B       		.uleb128 0xb
 4542 05e7 55080000 		.long	.LASF86
 4543 05eb 10       		.byte	0x10
 4544 05ec 3C       		.byte	0x3c
 4545 05ed 19       		.byte	0x19
 4546 05ee 3C010000 		.long	0x13c
 4547 05f2 00       		.byte	0
 4548 05f3 00       		.byte	0
 4549 05f4 02       		.uleb128 0x2
 4550 05f5 7E0B0000 		.long	.LASF87
 4551 05f9 10       		.byte	0x10
 4552 05fa 3D       		.byte	0x3d
 4553 05fb 03       		.byte	0x3
 4554 05fc DD050000 		.long	0x5dd
 4555 0600 17       		.uleb128 0x17
 4556 0601 04       		.byte	0x4
 4557 0602 04       		.byte	0x4
 4558 0603 C6       		.byte	0xc6
 4559 0604 03       		.byte	0x3
 4560 0605 6B060000 		.long	0x66b
 4561 0609 18       		.uleb128 0x18
 4562 060a 830D0000 		.long	.LASF88
 4563 060e 04       		.byte	0x4
 4564 060f CD       		.byte	0xcd
 4565 0610 19       		.byte	0x19
 4566 0611 84010000 		.long	0x184
 4567 0615 18       		.uleb128 0x18
 4568 0616 94010000 		.long	.LASF89
 4569 061a 04       		.byte	0x4
 4570 061b D4       		.byte	0xd4
 4571 061c 19       		.byte	0x19
 4572 061d 84010000 		.long	0x184
 4573 0621 18       		.uleb128 0x18
 4574 0622 8B030000 		.long	.LASF90
 4575 0626 04       		.byte	0x4
 4576 0627 DB       		.byte	0xdb
 4577 0628 1A       		.byte	0x1a
 4578 0629 FA000000 		.long	0xfa
 4579 062d 18       		.uleb128 0x18
 4580 062e FB020000 		.long	.LASF91
 4581 0632 04       		.byte	0x4
 4582 0633 E2       		.byte	0xe2
 4583 0634 1A       		.byte	0x1a
 4584 0635 6B060000 		.long	0x66b
 4585 0639 18       		.uleb128 0x18
 4586 063a 02090000 		.long	.LASF92
 4587 063e 04       		.byte	0x4
 4588 063f E7       		.byte	0xe7
 4589 0640 19       		.byte	0x19
 4590 0641 84010000 		.long	0x184
 4591 0645 18       		.uleb128 0x18
GAS LISTING /tmp/cccyco2T.s 			page 84


 4592 0646 34000000 		.long	.LASF93
 4593 064a 04       		.byte	0x4
 4594 064b F0       		.byte	0xf0
 4595 064c 1A       		.byte	0x1a
 4596 064d 99060000 		.long	0x699
 4597 0651 18       		.uleb128 0x18
 4598 0652 92040000 		.long	.LASF94
 4599 0656 04       		.byte	0x4
 4600 0657 F9       		.byte	0xf9
 4601 0658 1A       		.byte	0x1a
 4602 0659 D4060000 		.long	0x6d4
 4603 065d 19       		.uleb128 0x19
 4604 065e C9020000 		.long	.LASF95
 4605 0662 04       		.byte	0x4
 4606 0663 0101     		.value	0x101
 4607 0665 19       		.byte	0x19
 4608 0666 90010000 		.long	0x190
 4609 066a 00       		.byte	0
 4610 066b 06       		.uleb128 0x6
 4611 066c 04       		.byte	0x4
 4612 066d BC020000 		.long	0x2bc
 4613 0671 0A       		.uleb128 0xa
 4614 0672 2A050000 		.long	.LASF96
 4615 0676 0C       		.byte	0xc
 4616 0677 11       		.byte	0x11
 4617 0678 34       		.byte	0x34
 4618 0679 10       		.byte	0x10
 4619 067a 99060000 		.long	0x699
 4620 067e 0B       		.uleb128 0xb
 4621 067f 350A0000 		.long	.LASF36
 4622 0683 11       		.byte	0x11
 4623 0684 35       		.byte	0x35
 4624 0685 19       		.byte	0x19
 4625 0686 F5020000 		.long	0x2f5
 4626 068a 00       		.byte	0
 4627 068b 0C       		.uleb128 0xc
 4628 068c 636E7400 		.string	"cnt"
 4629 0690 11       		.byte	0x11
 4630 0691 37       		.byte	0x37
 4631 0692 19       		.byte	0x19
 4632 0693 A8010000 		.long	0x1a8
 4633 0697 08       		.byte	0x8
 4634 0698 00       		.byte	0
 4635 0699 06       		.uleb128 0x6
 4636 069a 04       		.byte	0x4
 4637 069b 71060000 		.long	0x671
 4638 069f 0A       		.uleb128 0xa
 4639 06a0 FB0B0000 		.long	.LASF97
 4640 06a4 10       		.byte	0x10
 4641 06a5 12       		.byte	0x12
 4642 06a6 39       		.byte	0x39
 4643 06a7 08       		.byte	0x8
 4644 06a8 D4060000 		.long	0x6d4
 4645 06ac 0B       		.uleb128 0xb
 4646 06ad 350A0000 		.long	.LASF36
 4647 06b1 12       		.byte	0x12
 4648 06b2 3A       		.byte	0x3a
GAS LISTING /tmp/cccyco2T.s 			page 85


 4649 06b3 19       		.byte	0x19
 4650 06b4 F5020000 		.long	0x2f5
 4651 06b8 00       		.byte	0
 4652 06b9 0B       		.uleb128 0xb
 4653 06ba 51000000 		.long	.LASF98
 4654 06be 12       		.byte	0x12
 4655 06bf 3C       		.byte	0x3c
 4656 06c0 1A       		.byte	0x1a
 4657 06c1 C8020000 		.long	0x2c8
 4658 06c5 08       		.byte	0x8
 4659 06c6 0B       		.uleb128 0xb
 4660 06c7 8A0E0000 		.long	.LASF55
 4661 06cb 12       		.byte	0x12
 4662 06cc 3E       		.byte	0x3e
 4663 06cd 1A       		.byte	0x1a
 4664 06ce 38080000 		.long	0x838
 4665 06d2 0C       		.byte	0xc
 4666 06d3 00       		.byte	0
 4667 06d4 06       		.uleb128 0x6
 4668 06d5 04       		.byte	0x4
 4669 06d6 9F060000 		.long	0x69f
 4670 06da 06       		.uleb128 0x6
 4671 06db 04       		.byte	0x4
 4672 06dc 34050000 		.long	0x534
 4673 06e0 06       		.uleb128 0x6
 4674 06e1 04       		.byte	0x4
 4675 06e2 B5030000 		.long	0x3b5
 4676 06e6 1A       		.uleb128 0x1a
 4677 06e7 636800   		.string	"ch"
 4678 06ea 04       		.byte	0x4
 4679 06eb C701     		.value	0x1c7
 4680 06ed 14       		.byte	0x14
 4681 06ee 92040000 		.long	0x492
 4682 06f2 1B       		.uleb128 0x1b
 4683 06f3 34050000 		.long	0x534
 4684 06f7 10       		.byte	0x10
 4685 06f8 FE060000 		.long	0x6fe
 4686 06fc 1C       		.uleb128 0x1c
 4687 06fd 00       		.byte	0
 4688 06fe 16       		.uleb128 0x16
 4689 06ff 65050000 		.long	.LASF99
 4690 0703 05       		.byte	0x5
 4691 0704 1701     		.value	0x117
 4692 0706 13       		.byte	0x13
 4693 0707 F2060000 		.long	0x6f2
 4694 070b 12       		.uleb128 0x12
 4695 070c 16       		.byte	0x16
 4696 070d 13       		.byte	0x13
 4697 070e 34       		.byte	0x34
 4698 070f 09       		.byte	0x9
 4699 0710 FF070000 		.long	0x7ff
 4700 0714 0B       		.uleb128 0xb
 4701 0715 A00E0000 		.long	.LASF100
 4702 0719 13       		.byte	0x13
 4703 071a 35       		.byte	0x35
 4704 071b 0D       		.byte	0xd
 4705 071c FF070000 		.long	0x7ff
GAS LISTING /tmp/cccyco2T.s 			page 86


 4706 0720 00       		.byte	0
 4707 0721 0B       		.uleb128 0xb
 4708 0722 2F020000 		.long	.LASF101
 4709 0726 13       		.byte	0x13
 4710 0727 36       		.byte	0x36
 4711 0728 0D       		.byte	0xd
 4712 0729 13010000 		.long	0x113
 4713 072d 04       		.byte	0x4
 4714 072e 0B       		.uleb128 0xb
 4715 072f 8F090000 		.long	.LASF102
 4716 0733 13       		.byte	0x13
 4717 0734 37       		.byte	0x37
 4718 0735 0D       		.byte	0xd
 4719 0736 13010000 		.long	0x113
 4720 073a 05       		.byte	0x5
 4721 073b 0B       		.uleb128 0xb
 4722 073c 7B0A0000 		.long	.LASF103
 4723 0740 13       		.byte	0x13
 4724 0741 38       		.byte	0x38
 4725 0742 0D       		.byte	0xd
 4726 0743 24010000 		.long	0x124
 4727 0747 06       		.byte	0x6
 4728 0748 0B       		.uleb128 0xb
 4729 0749 18040000 		.long	.LASF104
 4730 074d 13       		.byte	0x13
 4731 074e 39       		.byte	0x39
 4732 074f 0D       		.byte	0xd
 4733 0750 13010000 		.long	0x113
 4734 0754 08       		.byte	0x8
 4735 0755 0B       		.uleb128 0xb
 4736 0756 0B0E0000 		.long	.LASF105
 4737 075a 13       		.byte	0x13
 4738 075b 3A       		.byte	0x3a
 4739 075c 0D       		.byte	0xd
 4740 075d 13010000 		.long	0x113
 4741 0761 09       		.byte	0x9
 4742 0762 0B       		.uleb128 0xb
 4743 0763 0D050000 		.long	.LASF106
 4744 0767 13       		.byte	0x13
 4745 0768 3B       		.byte	0x3b
 4746 0769 0D       		.byte	0xd
 4747 076a 13010000 		.long	0x113
 4748 076e 0A       		.byte	0xa
 4749 076f 0B       		.uleb128 0xb
 4750 0770 0F000000 		.long	.LASF107
 4751 0774 13       		.byte	0x13
 4752 0775 3C       		.byte	0x3c
 4753 0776 0D       		.byte	0xd
 4754 0777 13010000 		.long	0x113
 4755 077b 0B       		.byte	0xb
 4756 077c 0B       		.uleb128 0xb
 4757 077d 00000000 		.long	.LASF108
 4758 0781 13       		.byte	0x13
 4759 0782 3D       		.byte	0x3d
 4760 0783 0D       		.byte	0xd
 4761 0784 13010000 		.long	0x113
 4762 0788 0C       		.byte	0xc
GAS LISTING /tmp/cccyco2T.s 			page 87


 4763 0789 0B       		.uleb128 0xb
 4764 078a C7070000 		.long	.LASF109
 4765 078e 13       		.byte	0x13
 4766 078f 3E       		.byte	0x3e
 4767 0790 0D       		.byte	0xd
 4768 0791 13010000 		.long	0x113
 4769 0795 0D       		.byte	0xd
 4770 0796 0B       		.uleb128 0xb
 4771 0797 5B010000 		.long	.LASF110
 4772 079b 13       		.byte	0x13
 4773 079c 3F       		.byte	0x3f
 4774 079d 0D       		.byte	0xd
 4775 079e 13010000 		.long	0x113
 4776 07a2 0E       		.byte	0xe
 4777 07a3 0B       		.uleb128 0xb
 4778 07a4 D8090000 		.long	.LASF111
 4779 07a8 13       		.byte	0x13
 4780 07a9 40       		.byte	0x40
 4781 07aa 0D       		.byte	0xd
 4782 07ab 13010000 		.long	0x113
 4783 07af 0F       		.byte	0xf
 4784 07b0 0B       		.uleb128 0xb
 4785 07b1 F2050000 		.long	.LASF112
 4786 07b5 13       		.byte	0x13
 4787 07b6 41       		.byte	0x41
 4788 07b7 0D       		.byte	0xd
 4789 07b8 13010000 		.long	0x113
 4790 07bc 10       		.byte	0x10
 4791 07bd 0B       		.uleb128 0xb
 4792 07be E5040000 		.long	.LASF113
 4793 07c2 13       		.byte	0x13
 4794 07c3 42       		.byte	0x42
 4795 07c4 0D       		.byte	0xd
 4796 07c5 13010000 		.long	0x113
 4797 07c9 11       		.byte	0x11
 4798 07ca 0B       		.uleb128 0xb
 4799 07cb 650E0000 		.long	.LASF114
 4800 07cf 13       		.byte	0x13
 4801 07d0 43       		.byte	0x43
 4802 07d1 0D       		.byte	0xd
 4803 07d2 13010000 		.long	0x113
 4804 07d6 12       		.byte	0x12
 4805 07d7 0B       		.uleb128 0xb
 4806 07d8 B0030000 		.long	.LASF115
 4807 07dc 13       		.byte	0x13
 4808 07dd 44       		.byte	0x44
 4809 07de 0D       		.byte	0xd
 4810 07df 13010000 		.long	0x113
 4811 07e3 13       		.byte	0x13
 4812 07e4 0B       		.uleb128 0xb
 4813 07e5 45000000 		.long	.LASF116
 4814 07e9 13       		.byte	0x13
 4815 07ea 45       		.byte	0x45
 4816 07eb 0D       		.byte	0xd
 4817 07ec 13010000 		.long	0x113
 4818 07f0 14       		.byte	0x14
 4819 07f1 0B       		.uleb128 0xb
GAS LISTING /tmp/cccyco2T.s 			page 88


 4820 07f2 4C040000 		.long	.LASF117
 4821 07f6 13       		.byte	0x13
 4822 07f7 46       		.byte	0x46
 4823 07f8 0D       		.byte	0xd
 4824 07f9 13010000 		.long	0x113
 4825 07fd 15       		.byte	0x15
 4826 07fe 00       		.byte	0
 4827 07ff 13       		.uleb128 0x13
 4828 0800 5B000000 		.long	0x5b
 4829 0804 0F080000 		.long	0x80f
 4830 0808 14       		.uleb128 0x14
 4831 0809 36000000 		.long	0x36
 4832 080d 03       		.byte	0x3
 4833 080e 00       		.byte	0
 4834 080f 02       		.uleb128 0x2
 4835 0810 D60D0000 		.long	.LASF118
 4836 0814 13       		.byte	0x13
 4837 0815 47       		.byte	0x47
 4838 0816 03       		.byte	0x3
 4839 0817 0B070000 		.long	0x70b
 4840 081b 07       		.uleb128 0x7
 4841 081c 0F080000 		.long	0x80f
 4842 0820 1D       		.uleb128 0x1d
 4843 0821 5F000000 		.long	.LASF119
 4844 0825 13       		.byte	0x13
 4845 0826 6C       		.byte	0x6c
 4846 0827 1D       		.byte	0x1d
 4847 0828 1B080000 		.long	0x81b
 4848 082c 02       		.uleb128 0x2
 4849 082d A50C0000 		.long	.LASF120
 4850 0831 12       		.byte	0x12
 4851 0832 34       		.byte	0x34
 4852 0833 19       		.byte	0x19
 4853 0834 9F060000 		.long	0x69f
 4854 0838 06       		.uleb128 0x6
 4855 0839 04       		.byte	0x4
 4856 083a 2C080000 		.long	0x82c
 4857 083e 02       		.uleb128 0x2
 4858 083f 07040000 		.long	.LASF121
 4859 0843 14       		.byte	0x14
 4860 0844 34       		.byte	0x34
 4861 0845 1F       		.byte	0x1f
 4862 0846 4A080000 		.long	0x84a
 4863 084a 0A       		.uleb128 0xa
 4864 084b 740D0000 		.long	.LASF122
 4865 084f 14       		.byte	0x14
 4866 0850 14       		.byte	0x14
 4867 0851 39       		.byte	0x39
 4868 0852 08       		.byte	0x8
 4869 0853 99080000 		.long	0x899
 4870 0857 0B       		.uleb128 0xb
 4871 0858 8A0E0000 		.long	.LASF55
 4872 085c 14       		.byte	0x14
 4873 085d 3A       		.byte	0x3a
 4874 085e 1A       		.byte	0x1a
 4875 085f 99080000 		.long	0x899
 4876 0863 00       		.byte	0
GAS LISTING /tmp/cccyco2T.s 			page 89


 4877 0864 0B       		.uleb128 0xb
 4878 0865 A60B0000 		.long	.LASF123
 4879 0869 14       		.byte	0x14
 4880 086a 3D       		.byte	0x3d
 4881 086b 1A       		.byte	0x1a
 4882 086c C8020000 		.long	0x2c8
 4883 0870 04       		.byte	0x4
 4884 0871 0B       		.uleb128 0xb
 4885 0872 830E0000 		.long	.LASF124
 4886 0876 14       		.byte	0x14
 4887 0877 3F       		.byte	0x3f
 4888 0878 19       		.byte	0x19
 4889 0879 90010000 		.long	0x190
 4890 087d 08       		.byte	0x8
 4891 087e 0B       		.uleb128 0xb
 4892 087f B9030000 		.long	.LASF43
 4893 0883 14       		.byte	0x14
 4894 0884 41       		.byte	0x41
 4895 0885 19       		.byte	0x19
 4896 0886 9C010000 		.long	0x19c
 4897 088a 0C       		.byte	0xc
 4898 088b 0B       		.uleb128 0xb
 4899 088c E8080000 		.long	.LASF125
 4900 0890 14       		.byte	0x14
 4901 0891 43       		.byte	0x43
 4902 0892 19       		.byte	0x19
 4903 0893 9C010000 		.long	0x19c
 4904 0897 10       		.byte	0x10
 4905 0898 00       		.byte	0
 4906 0899 06       		.uleb128 0x6
 4907 089a 04       		.byte	0x4
 4908 089b 3E080000 		.long	0x83e
 4909 089f 0A       		.uleb128 0xa
 4910 08a0 E90B0000 		.long	.LASF126
 4911 08a4 04       		.byte	0x4
 4912 08a5 14       		.byte	0x14
 4913 08a6 4A       		.byte	0x4a
 4914 08a7 10       		.byte	0x10
 4915 08a8 BA080000 		.long	0x8ba
 4916 08ac 0B       		.uleb128 0xb
 4917 08ad 8A0E0000 		.long	.LASF55
 4918 08b1 14       		.byte	0x14
 4919 08b2 4B       		.byte	0x4b
 4920 08b3 1A       		.byte	0x1a
 4921 08b4 99080000 		.long	0x899
 4922 08b8 00       		.byte	0
 4923 08b9 00       		.byte	0
 4924 08ba 02       		.uleb128 0x2
 4925 08bb E3060000 		.long	.LASF127
 4926 08bf 14       		.byte	0x14
 4927 08c0 4E       		.byte	0x4e
 4928 08c1 03       		.byte	0x3
 4929 08c2 9F080000 		.long	0x89f
 4930 08c6 02       		.uleb128 0x2
 4931 08c7 AF080000 		.long	.LASF128
 4932 08cb 15       		.byte	0x15
 4933 08cc 4B       		.byte	0x4b
GAS LISTING /tmp/cccyco2T.s 			page 90


 4934 08cd 11       		.byte	0x11
 4935 08ce D2080000 		.long	0x8d2
 4936 08d2 06       		.uleb128 0x6
 4937 08d3 04       		.byte	0x4
 4938 08d4 D8080000 		.long	0x8d8
 4939 08d8 1E       		.uleb128 0x1e
 4940 08d9 FA000000 		.long	0xfa
 4941 08dd EC080000 		.long	0x8ec
 4942 08e1 11       		.uleb128 0x11
 4943 08e2 25000000 		.long	0x25
 4944 08e6 11       		.uleb128 0x11
 4945 08e7 36000000 		.long	0x36
 4946 08eb 00       		.byte	0
 4947 08ec 12       		.uleb128 0x12
 4948 08ed 08       		.byte	0x8
 4949 08ee 15       		.byte	0x15
 4950 08ef 55       		.byte	0x55
 4951 08f0 09       		.byte	0x9
 4952 08f1 10090000 		.long	0x910
 4953 08f5 0B       		.uleb128 0xb
 4954 08f6 D6040000 		.long	.LASF129
 4955 08fa 15       		.byte	0x15
 4956 08fb 59       		.byte	0x59
 4957 08fc 0C       		.byte	0xc
 4958 08fd 10090000 		.long	0x910
 4959 0901 00       		.byte	0
 4960 0902 0B       		.uleb128 0xb
 4961 0903 18000000 		.long	.LASF130
 4962 0907 15       		.byte	0x15
 4963 0908 5D       		.byte	0x5d
 4964 0909 0C       		.byte	0xc
 4965 090a 10090000 		.long	0x910
 4966 090e 04       		.byte	0x4
 4967 090f 00       		.byte	0
 4968 0910 06       		.uleb128 0x6
 4969 0911 04       		.byte	0x4
 4970 0912 13010000 		.long	0x113
 4971 0916 02       		.uleb128 0x2
 4972 0917 AA020000 		.long	.LASF131
 4973 091b 15       		.byte	0x15
 4974 091c 5E       		.byte	0x5e
 4975 091d 03       		.byte	0x3
 4976 091e EC080000 		.long	0x8ec
 4977 0922 1D       		.uleb128 0x1d
 4978 0923 5A0E0000 		.long	.LASF132
 4979 0927 15       		.byte	0x15
 4980 0928 69       		.byte	0x69
 4981 0929 12       		.byte	0x12
 4982 092a 16090000 		.long	0x916
 4983 092e 0A       		.uleb128 0xa
 4984 092f 08060000 		.long	.LASF133
 4985 0933 04       		.byte	0x4
 4986 0934 16       		.byte	0x16
 4987 0935 3C       		.byte	0x3c
 4988 0936 08       		.byte	0x8
 4989 0937 49090000 		.long	0x949
 4990 093b 0B       		.uleb128 0xb
GAS LISTING /tmp/cccyco2T.s 			page 91


 4991 093c 8A0E0000 		.long	.LASF55
 4992 0940 16       		.byte	0x16
 4993 0941 3D       		.byte	0x3d
 4994 0942 1A       		.byte	0x1a
 4995 0943 49090000 		.long	0x949
 4996 0947 00       		.byte	0
 4997 0948 00       		.byte	0
 4998 0949 06       		.uleb128 0x6
 4999 094a 04       		.byte	0x4
 5000 094b 2E090000 		.long	0x92e
 5001 094f 12       		.uleb128 0x12
 5002 0950 10       		.byte	0x10
 5003 0951 16       		.byte	0x16
 5004 0952 44       		.byte	0x44
 5005 0953 09       		.byte	0x9
 5006 0954 8D090000 		.long	0x98d
 5007 0958 0B       		.uleb128 0xb
 5008 0959 8A0E0000 		.long	.LASF55
 5009 095d 16       		.byte	0x16
 5010 095e 45       		.byte	0x45
 5011 095f 1A       		.byte	0x1a
 5012 0960 49090000 		.long	0x949
 5013 0964 00       		.byte	0
 5014 0965 0B       		.uleb128 0xb
 5015 0966 7C0C0000 		.long	.LASF134
 5016 096a 16       		.byte	0x16
 5017 096b 46       		.byte	0x46
 5018 096c 19       		.byte	0x19
 5019 096d 25000000 		.long	0x25
 5020 0971 04       		.byte	0x4
 5021 0972 0B       		.uleb128 0xb
 5022 0973 73070000 		.long	.LASF135
 5023 0977 16       		.byte	0x16
 5024 0978 48       		.byte	0x48
 5025 0979 19       		.byte	0x19
 5026 097a 36000000 		.long	0x36
 5027 097e 08       		.byte	0x8
 5028 097f 0B       		.uleb128 0xb
 5029 0980 68000000 		.long	.LASF136
 5030 0984 16       		.byte	0x16
 5031 0985 49       		.byte	0x49
 5032 0986 19       		.byte	0x19
 5033 0987 C6080000 		.long	0x8c6
 5034 098b 0C       		.byte	0xc
 5035 098c 00       		.byte	0
 5036 098d 02       		.uleb128 0x2
 5037 098e B10A0000 		.long	.LASF137
 5038 0992 16       		.byte	0x16
 5039 0993 4B       		.byte	0x4b
 5040 0994 03       		.byte	0x3
 5041 0995 4F090000 		.long	0x94f
 5042 0999 0A       		.uleb128 0xa
 5043 099a F5000000 		.long	.LASF138
 5044 099e 10       		.byte	0x10
 5045 099f 17       		.byte	0x17
 5046 09a0 97       		.byte	0x97
 5047 09a1 10       		.byte	0x10
GAS LISTING /tmp/cccyco2T.s 			page 92


 5048 09a2 CE090000 		.long	0x9ce
 5049 09a6 0B       		.uleb128 0xb
 5050 09a7 8A0E0000 		.long	.LASF55
 5051 09ab 17       		.byte	0x17
 5052 09ac 9B       		.byte	0x9b
 5053 09ad 1A       		.byte	0x1a
 5054 09ae CE090000 		.long	0x9ce
 5055 09b2 00       		.byte	0
 5056 09b3 0B       		.uleb128 0xb
 5057 09b4 300A0000 		.long	.LASF44
 5058 09b8 17       		.byte	0x17
 5059 09b9 9F       		.byte	0x9f
 5060 09ba 19       		.byte	0x19
 5061 09bb B4010000 		.long	0x1b4
 5062 09bf 04       		.byte	0x4
 5063 09c0 0B       		.uleb128 0xb
 5064 09c1 970B0000 		.long	.LASF40
 5065 09c5 17       		.byte	0x17
 5066 09c6 A1       		.byte	0xa1
 5067 09c7 19       		.byte	0x19
 5068 09c8 D4090000 		.long	0x9d4
 5069 09cc 08       		.byte	0x8
 5070 09cd 00       		.byte	0
 5071 09ce 06       		.uleb128 0x6
 5072 09cf 04       		.byte	0x4
 5073 09d0 99090000 		.long	0x999
 5074 09d4 13       		.uleb128 0x13
 5075 09d5 5B000000 		.long	0x5b
 5076 09d9 E4090000 		.long	0x9e4
 5077 09dd 14       		.uleb128 0x14
 5078 09de 36000000 		.long	0x36
 5079 09e2 07       		.byte	0x7
 5080 09e3 00       		.byte	0
 5081 09e4 02       		.uleb128 0x2
 5082 09e5 970C0000 		.long	.LASF139
 5083 09e9 17       		.byte	0x17
 5084 09ea A5       		.byte	0xa5
 5085 09eb 03       		.byte	0x3
 5086 09ec 99090000 		.long	0x999
 5087 09f0 0A       		.uleb128 0xa
 5088 09f1 940E0000 		.long	.LASF140
 5089 09f5 04       		.byte	0x4
 5090 09f6 17       		.byte	0x17
 5091 09f7 AA       		.byte	0xaa
 5092 09f8 10       		.byte	0x10
 5093 09f9 0B0A0000 		.long	0xa0b
 5094 09fd 0B       		.uleb128 0xb
 5095 09fe 8A0E0000 		.long	.LASF55
 5096 0a02 17       		.byte	0x17
 5097 0a03 AB       		.byte	0xab
 5098 0a04 1A       		.byte	0x1a
 5099 0a05 0B0A0000 		.long	0xa0b
 5100 0a09 00       		.byte	0
 5101 0a0a 00       		.byte	0
 5102 0a0b 06       		.uleb128 0x6
 5103 0a0c 04       		.byte	0x4
 5104 0a0d E4090000 		.long	0x9e4
GAS LISTING /tmp/cccyco2T.s 			page 93


 5105 0a11 02       		.uleb128 0x2
 5106 0a12 390C0000 		.long	.LASF141
 5107 0a16 17       		.byte	0x17
 5108 0a17 AC       		.byte	0xac
 5109 0a18 03       		.byte	0x3
 5110 0a19 F0090000 		.long	0x9f0
 5111 0a1d 0F       		.uleb128 0xf
 5112 0a1e 8B060000 		.long	.LASF142
 5113 0a22 44       		.byte	0x44
 5114 0a23 17       		.byte	0x17
 5115 0a24 1501     		.value	0x115
 5116 0a26 10       		.byte	0x10
 5117 0a27 9C0A0000 		.long	0xa9c
 5118 0a2b 0D       		.uleb128 0xd
 5119 0a2c 6D747800 		.string	"mtx"
 5120 0a30 17       		.byte	0x17
 5121 0a31 1A01     		.value	0x11a
 5122 0a33 19       		.byte	0x19
 5123 0a34 2C080000 		.long	0x82c
 5124 0a38 00       		.byte	0
 5125 0a39 0E       		.uleb128 0xe
 5126 0a3a 38010000 		.long	.LASF143
 5127 0a3e 17       		.byte	0x17
 5128 0a3f 2101     		.value	0x121
 5129 0a41 19       		.byte	0x19
 5130 0a42 110A0000 		.long	0xa11
 5131 0a46 10       		.byte	0x10
 5132 0a47 0E       		.uleb128 0xe
 5133 0a48 70020000 		.long	.LASF144
 5134 0a4c 17       		.byte	0x17
 5135 0a4d 2501     		.value	0x125
 5136 0a4f 19       		.byte	0x19
 5137 0a50 8D090000 		.long	0x98d
 5138 0a54 14       		.byte	0x14
 5139 0a55 0E       		.uleb128 0xe
 5140 0a56 37090000 		.long	.LASF145
 5141 0a5a 17       		.byte	0x17
 5142 0a5b 2A01     		.value	0x12a
 5143 0a5d 19       		.byte	0x19
 5144 0a5e 110A0000 		.long	0xa11
 5145 0a62 24       		.byte	0x24
 5146 0a63 0E       		.uleb128 0xe
 5147 0a64 67030000 		.long	.LASF146
 5148 0a68 17       		.byte	0x17
 5149 0a69 3001     		.value	0x130
 5150 0a6b 19       		.byte	0x19
 5151 0a6c 110A0000 		.long	0xa11
 5152 0a70 28       		.byte	0x28
 5153 0a71 0E       		.uleb128 0xe
 5154 0a72 BD040000 		.long	.LASF147
 5155 0a76 17       		.byte	0x17
 5156 0a77 3401     		.value	0x134
 5157 0a79 19       		.byte	0x19
 5158 0a7a 8D090000 		.long	0x98d
 5159 0a7e 2C       		.byte	0x2c
 5160 0a7f 0E       		.uleb128 0xe
 5161 0a80 570A0000 		.long	.LASF148
GAS LISTING /tmp/cccyco2T.s 			page 94


 5162 0a84 17       		.byte	0x17
 5163 0a85 3A01     		.value	0x13a
 5164 0a87 19       		.byte	0x19
 5165 0a88 110A0000 		.long	0xa11
 5166 0a8c 3C       		.byte	0x3c
 5167 0a8d 0E       		.uleb128 0xe
 5168 0a8e 8E050000 		.long	.LASF149
 5169 0a92 17       		.byte	0x17
 5170 0a93 4001     		.value	0x140
 5171 0a95 19       		.byte	0x19
 5172 0a96 110A0000 		.long	0xa11
 5173 0a9a 40       		.byte	0x40
 5174 0a9b 00       		.byte	0
 5175 0a9c 1F       		.uleb128 0x1f
 5176 0a9d 25090000 		.long	.LASF150
 5177 0aa1 17       		.byte	0x17
 5178 0aa2 4201     		.value	0x142
 5179 0aa4 03       		.byte	0x3
 5180 0aa5 1D0A0000 		.long	0xa1d
 5181 0aa9 16       		.uleb128 0x16
 5182 0aaa 4C0A0000 		.long	.LASF151
 5183 0aae 17       		.byte	0x17
 5184 0aaf 4D01     		.value	0x14d
 5185 0ab1 1A       		.byte	0x1a
 5186 0ab2 9C0A0000 		.long	0xa9c
 5187 0ab6 13       		.uleb128 0x13
 5188 0ab7 5B000000 		.long	0x5b
 5189 0abb C60A0000 		.long	0xac6
 5190 0abf 14       		.uleb128 0x14
 5191 0ac0 36000000 		.long	0x36
 5192 0ac4 27       		.byte	0x27
 5193 0ac5 00       		.byte	0
 5194 0ac6 17       		.uleb128 0x17
 5195 0ac7 10       		.byte	0x10
 5196 0ac8 18       		.byte	0x18
 5197 0ac9 D5       		.byte	0xd5
 5198 0aca 05       		.byte	0x5
 5199 0acb F40A0000 		.long	0xaf4
 5200 0acf 18       		.uleb128 0x18
 5201 0ad0 4F060000 		.long	.LASF152
 5202 0ad4 18       		.byte	0x18
 5203 0ad5 D7       		.byte	0xd7
 5204 0ad6 0A       		.byte	0xa
 5205 0ad7 24050000 		.long	0x524
 5206 0adb 18       		.uleb128 0x18
 5207 0adc 0A0D0000 		.long	.LASF153
 5208 0ae0 18       		.byte	0x18
 5209 0ae1 D8       		.byte	0xd8
 5210 0ae2 0B       		.byte	0xb
 5211 0ae3 F40A0000 		.long	0xaf4
 5212 0ae7 18       		.uleb128 0x18
 5213 0ae8 340E0000 		.long	.LASF154
 5214 0aec 18       		.byte	0x18
 5215 0aed D9       		.byte	0xd9
 5216 0aee 0B       		.byte	0xb
 5217 0aef 040B0000 		.long	0xb04
 5218 0af3 00       		.byte	0
GAS LISTING /tmp/cccyco2T.s 			page 95


 5219 0af4 13       		.uleb128 0x13
 5220 0af5 24010000 		.long	0x124
 5221 0af9 040B0000 		.long	0xb04
 5222 0afd 14       		.uleb128 0x14
 5223 0afe 36000000 		.long	0x36
 5224 0b02 07       		.byte	0x7
 5225 0b03 00       		.byte	0
 5226 0b04 13       		.uleb128 0x13
 5227 0b05 30010000 		.long	0x130
 5228 0b09 140B0000 		.long	0xb14
 5229 0b0d 14       		.uleb128 0x14
 5230 0b0e 36000000 		.long	0x36
 5231 0b12 03       		.byte	0x3
 5232 0b13 00       		.byte	0
 5233 0b14 0A       		.uleb128 0xa
 5234 0b15 8D080000 		.long	.LASF155
 5235 0b19 10       		.byte	0x10
 5236 0b1a 18       		.byte	0x18
 5237 0b1b D3       		.byte	0xd3
 5238 0b1c 08       		.byte	0x8
 5239 0b1d 2F0B0000 		.long	0xb2f
 5240 0b21 0B       		.uleb128 0xb
 5241 0b22 8F0B0000 		.long	.LASF156
 5242 0b26 18       		.byte	0x18
 5243 0b27 DA       		.byte	0xda
 5244 0b28 09       		.byte	0x9
 5245 0b29 C60A0000 		.long	0xac6
 5246 0b2d 00       		.byte	0
 5247 0b2e 00       		.byte	0
 5248 0b2f 07       		.uleb128 0x7
 5249 0b30 140B0000 		.long	0xb14
 5250 0b34 1D       		.uleb128 0x1d
 5251 0b35 40040000 		.long	.LASF157
 5252 0b39 18       		.byte	0x18
 5253 0b3a E3       		.byte	0xe3
 5254 0b3b 1E       		.byte	0x1e
 5255 0b3c 2F0B0000 		.long	0xb2f
 5256 0b40 1D       		.uleb128 0x1d
 5257 0b41 B3000000 		.long	.LASF158
 5258 0b45 18       		.byte	0x18
 5259 0b46 E4       		.byte	0xe4
 5260 0b47 1E       		.byte	0x1e
 5261 0b48 2F0B0000 		.long	0xb2f
 5262 0b4c 06       		.uleb128 0x6
 5263 0b4d 04       		.byte	0x4
 5264 0b4e 01010000 		.long	0x101
 5265 0b52 16       		.uleb128 0x16
 5266 0b53 DA010000 		.long	.LASF159
 5267 0b57 19       		.byte	0x19
 5268 0b58 1F02     		.value	0x21f
 5269 0b5a 0F       		.byte	0xf
 5270 0b5b 4C0B0000 		.long	0xb4c
 5271 0b5f 1D       		.uleb128 0x1d
 5272 0b60 6D0D0000 		.long	.LASF160
 5273 0b64 1A       		.byte	0x1a
 5274 0b65 24       		.byte	0x24
 5275 0b66 0E       		.byte	0xe
GAS LISTING /tmp/cccyco2T.s 			page 96


 5276 0b67 01010000 		.long	0x101
 5277 0b6b 1D       		.uleb128 0x1d
 5278 0b6c DE040000 		.long	.LASF161
 5279 0b70 1A       		.byte	0x1a
 5280 0b71 32       		.byte	0x32
 5281 0b72 0C       		.byte	0xc
 5282 0b73 44000000 		.long	0x44
 5283 0b77 1D       		.uleb128 0x1d
 5284 0b78 450A0000 		.long	.LASF162
 5285 0b7c 1A       		.byte	0x1a
 5286 0b7d 37       		.byte	0x37
 5287 0b7e 0C       		.byte	0xc
 5288 0b7f 44000000 		.long	0x44
 5289 0b83 1D       		.uleb128 0x1d
 5290 0b84 81090000 		.long	.LASF163
 5291 0b88 1A       		.byte	0x1a
 5292 0b89 3B       		.byte	0x3b
 5293 0b8a 0C       		.byte	0xc
 5294 0b8b 44000000 		.long	0x44
 5295 0b8f 0A       		.uleb128 0xa
 5296 0b90 D8020000 		.long	.LASF164
 5297 0b94 94       		.byte	0x94
 5298 0b95 1B       		.byte	0x1b
 5299 0b96 31       		.byte	0x31
 5300 0b97 08       		.byte	0x8
 5301 0b98 160D0000 		.long	0xd16
 5302 0b9c 0B       		.uleb128 0xb
 5303 0b9d 4E080000 		.long	.LASF165
 5304 0ba1 1B       		.byte	0x1b
 5305 0ba2 33       		.byte	0x33
 5306 0ba3 07       		.byte	0x7
 5307 0ba4 44000000 		.long	0x44
 5308 0ba8 00       		.byte	0
 5309 0ba9 0B       		.uleb128 0xb
 5310 0baa CE030000 		.long	.LASF166
 5311 0bae 1B       		.byte	0x1b
 5312 0baf 36       		.byte	0x36
 5313 0bb0 09       		.byte	0x9
 5314 0bb1 01010000 		.long	0x101
 5315 0bb5 04       		.byte	0x4
 5316 0bb6 0B       		.uleb128 0xb
 5317 0bb7 CD0C0000 		.long	.LASF167
 5318 0bbb 1B       		.byte	0x1b
 5319 0bbc 37       		.byte	0x37
 5320 0bbd 09       		.byte	0x9
 5321 0bbe 01010000 		.long	0x101
 5322 0bc2 08       		.byte	0x8
 5323 0bc3 0B       		.uleb128 0xb
 5324 0bc4 41050000 		.long	.LASF168
 5325 0bc8 1B       		.byte	0x1b
 5326 0bc9 38       		.byte	0x38
 5327 0bca 09       		.byte	0x9
 5328 0bcb 01010000 		.long	0x101
 5329 0bcf 0C       		.byte	0xc
 5330 0bd0 0B       		.uleb128 0xb
 5331 0bd1 04010000 		.long	.LASF169
 5332 0bd5 1B       		.byte	0x1b
GAS LISTING /tmp/cccyco2T.s 			page 97


 5333 0bd6 39       		.byte	0x39
 5334 0bd7 09       		.byte	0x9
 5335 0bd8 01010000 		.long	0x101
 5336 0bdc 10       		.byte	0x10
 5337 0bdd 0B       		.uleb128 0xb
 5338 0bde E00D0000 		.long	.LASF170
 5339 0be2 1B       		.byte	0x1b
 5340 0be3 3A       		.byte	0x3a
 5341 0be4 09       		.byte	0x9
 5342 0be5 01010000 		.long	0x101
 5343 0be9 14       		.byte	0x14
 5344 0bea 0B       		.uleb128 0xb
 5345 0beb D5060000 		.long	.LASF171
 5346 0bef 1B       		.byte	0x1b
 5347 0bf0 3B       		.byte	0x3b
 5348 0bf1 09       		.byte	0x9
 5349 0bf2 01010000 		.long	0x101
 5350 0bf6 18       		.byte	0x18
 5351 0bf7 0B       		.uleb128 0xb
 5352 0bf8 BA070000 		.long	.LASF172
 5353 0bfc 1B       		.byte	0x1b
 5354 0bfd 3C       		.byte	0x3c
 5355 0bfe 09       		.byte	0x9
 5356 0bff 01010000 		.long	0x101
 5357 0c03 1C       		.byte	0x1c
 5358 0c04 0B       		.uleb128 0xb
 5359 0c05 3D0B0000 		.long	.LASF173
 5360 0c09 1B       		.byte	0x1b
 5361 0c0a 3D       		.byte	0x3d
 5362 0c0b 09       		.byte	0x9
 5363 0c0c 01010000 		.long	0x101
 5364 0c10 20       		.byte	0x20
 5365 0c11 0B       		.uleb128 0xb
 5366 0c12 2A010000 		.long	.LASF174
 5367 0c16 1B       		.byte	0x1b
 5368 0c17 40       		.byte	0x40
 5369 0c18 09       		.byte	0x9
 5370 0c19 01010000 		.long	0x101
 5371 0c1d 24       		.byte	0x24
 5372 0c1e 0B       		.uleb128 0xb
 5373 0c1f 830A0000 		.long	.LASF175
 5374 0c23 1B       		.byte	0x1b
 5375 0c24 41       		.byte	0x41
 5376 0c25 09       		.byte	0x9
 5377 0c26 01010000 		.long	0x101
 5378 0c2a 28       		.byte	0x28
 5379 0c2b 0B       		.uleb128 0xb
 5380 0c2c A6000000 		.long	.LASF176
 5381 0c30 1B       		.byte	0x1b
 5382 0c31 42       		.byte	0x42
 5383 0c32 09       		.byte	0x9
 5384 0c33 01010000 		.long	0x101
 5385 0c37 2C       		.byte	0x2c
 5386 0c38 0B       		.uleb128 0xb
 5387 0c39 20040000 		.long	.LASF177
 5388 0c3d 1B       		.byte	0x1b
 5389 0c3e 44       		.byte	0x44
GAS LISTING /tmp/cccyco2T.s 			page 98


 5390 0c3f 16       		.byte	0x16
 5391 0c40 2F0D0000 		.long	0xd2f
 5392 0c44 30       		.byte	0x30
 5393 0c45 0B       		.uleb128 0xb
 5394 0c46 65010000 		.long	.LASF178
 5395 0c4a 1B       		.byte	0x1b
 5396 0c4b 46       		.byte	0x46
 5397 0c4c 14       		.byte	0x14
 5398 0c4d 350D0000 		.long	0xd35
 5399 0c51 34       		.byte	0x34
 5400 0c52 0B       		.uleb128 0xb
 5401 0c53 420D0000 		.long	.LASF179
 5402 0c57 1B       		.byte	0x1b
 5403 0c58 48       		.byte	0x48
 5404 0c59 07       		.byte	0x7
 5405 0c5a 44000000 		.long	0x44
 5406 0c5e 38       		.byte	0x38
 5407 0c5f 0B       		.uleb128 0xb
 5408 0c60 22050000 		.long	.LASF180
 5409 0c64 1B       		.byte	0x1b
 5410 0c65 49       		.byte	0x49
 5411 0c66 07       		.byte	0x7
 5412 0c67 44000000 		.long	0x44
 5413 0c6b 3C       		.byte	0x3c
 5414 0c6c 0B       		.uleb128 0xb
 5415 0c6d 11080000 		.long	.LASF181
 5416 0c71 1B       		.byte	0x1b
 5417 0c72 4A       		.byte	0x4a
 5418 0c73 0B       		.byte	0xb
 5419 0c74 E2000000 		.long	0xe2
 5420 0c78 40       		.byte	0x40
 5421 0c79 0B       		.uleb128 0xb
 5422 0c7a 7F010000 		.long	.LASF182
 5423 0c7e 1B       		.byte	0x1b
 5424 0c7f 4D       		.byte	0x4d
 5425 0c80 12       		.byte	0x12
 5426 0c81 3D000000 		.long	0x3d
 5427 0c85 44       		.byte	0x44
 5428 0c86 0B       		.uleb128 0xb
 5429 0c87 1A0C0000 		.long	.LASF183
 5430 0c8b 1B       		.byte	0x1b
 5431 0c8c 4E       		.byte	0x4e
 5432 0c8d 0F       		.byte	0xf
 5433 0c8e 91000000 		.long	0x91
 5434 0c92 46       		.byte	0x46
 5435 0c93 0B       		.uleb128 0xb
 5436 0c94 930A0000 		.long	.LASF184
 5437 0c98 1B       		.byte	0x1b
 5438 0c99 4F       		.byte	0x4f
 5439 0c9a 08       		.byte	0x8
 5440 0c9b 3B0D0000 		.long	0xd3b
 5441 0c9f 47       		.byte	0x47
 5442 0ca0 0B       		.uleb128 0xb
 5443 0ca1 1F010000 		.long	.LASF185
 5444 0ca5 1B       		.byte	0x1b
 5445 0ca6 51       		.byte	0x51
 5446 0ca7 0F       		.byte	0xf
GAS LISTING /tmp/cccyco2T.s 			page 99


 5447 0ca8 4B0D0000 		.long	0xd4b
 5448 0cac 48       		.byte	0x48
 5449 0cad 0B       		.uleb128 0xb
 5450 0cae C6040000 		.long	.LASF186
 5451 0cb2 1B       		.byte	0x1b
 5452 0cb3 59       		.byte	0x59
 5453 0cb4 0D       		.byte	0xd
 5454 0cb5 EE000000 		.long	0xee
 5455 0cb9 4C       		.byte	0x4c
 5456 0cba 0B       		.uleb128 0xb
 5457 0cbb 84080000 		.long	.LASF187
 5458 0cbf 1B       		.byte	0x1b
 5459 0cc0 5B       		.byte	0x5b
 5460 0cc1 17       		.byte	0x17
 5461 0cc2 560D0000 		.long	0xd56
 5462 0cc6 54       		.byte	0x54
 5463 0cc7 0B       		.uleb128 0xb
 5464 0cc8 620D0000 		.long	.LASF188
 5465 0ccc 1B       		.byte	0x1b
 5466 0ccd 5C       		.byte	0x5c
 5467 0cce 19       		.byte	0x19
 5468 0ccf 610D0000 		.long	0xd61
 5469 0cd3 58       		.byte	0x58
 5470 0cd4 0B       		.uleb128 0xb
 5471 0cd5 16030000 		.long	.LASF189
 5472 0cd9 1B       		.byte	0x1b
 5473 0cda 5D       		.byte	0x5d
 5474 0cdb 14       		.byte	0x14
 5475 0cdc 350D0000 		.long	0xd35
 5476 0ce0 5C       		.byte	0x5c
 5477 0ce1 0B       		.uleb128 0xb
 5478 0ce2 230A0000 		.long	.LASF190
 5479 0ce6 1B       		.byte	0x1b
 5480 0ce7 5E       		.byte	0x5e
 5481 0ce8 09       		.byte	0x9
 5482 0ce9 FA000000 		.long	0xfa
 5483 0ced 60       		.byte	0x60
 5484 0cee 0B       		.uleb128 0xb
 5485 0cef 1D080000 		.long	.LASF191
 5486 0cf3 1B       		.byte	0x1b
 5487 0cf4 5F       		.byte	0x5f
 5488 0cf5 0A       		.byte	0xa
 5489 0cf6 25000000 		.long	0x25
 5490 0cfa 64       		.byte	0x64
 5491 0cfb 0B       		.uleb128 0xb
 5492 0cfc 5C080000 		.long	.LASF192
 5493 0d00 1B       		.byte	0x1b
 5494 0d01 60       		.byte	0x60
 5495 0d02 07       		.byte	0x7
 5496 0d03 44000000 		.long	0x44
 5497 0d07 68       		.byte	0x68
 5498 0d08 0B       		.uleb128 0xb
 5499 0d09 7C050000 		.long	.LASF193
 5500 0d0d 1B       		.byte	0x1b
 5501 0d0e 62       		.byte	0x62
 5502 0d0f 08       		.byte	0x8
 5503 0d10 B60A0000 		.long	0xab6
GAS LISTING /tmp/cccyco2T.s 			page 100


 5504 0d14 6C       		.byte	0x6c
 5505 0d15 00       		.byte	0
 5506 0d16 02       		.uleb128 0x2
 5507 0d17 E4010000 		.long	.LASF194
 5508 0d1b 1C       		.byte	0x1c
 5509 0d1c 07       		.byte	0x7
 5510 0d1d 19       		.byte	0x19
 5511 0d1e 8F0B0000 		.long	0xb8f
 5512 0d22 20       		.uleb128 0x20
 5513 0d23 70030000 		.long	.LASF318
 5514 0d27 1B       		.byte	0x1b
 5515 0d28 2B       		.byte	0x2b
 5516 0d29 0E       		.byte	0xe
 5517 0d2a 21       		.uleb128 0x21
 5518 0d2b 34020000 		.long	.LASF195
 5519 0d2f 06       		.uleb128 0x6
 5520 0d30 04       		.byte	0x4
 5521 0d31 2A0D0000 		.long	0xd2a
 5522 0d35 06       		.uleb128 0x6
 5523 0d36 04       		.byte	0x4
 5524 0d37 8F0B0000 		.long	0xb8f
 5525 0d3b 13       		.uleb128 0x13
 5526 0d3c 5B000000 		.long	0x5b
 5527 0d40 4B0D0000 		.long	0xd4b
 5528 0d44 14       		.uleb128 0x14
 5529 0d45 36000000 		.long	0x36
 5530 0d49 00       		.byte	0
 5531 0d4a 00       		.byte	0
 5532 0d4b 06       		.uleb128 0x6
 5533 0d4c 04       		.byte	0x4
 5534 0d4d 220D0000 		.long	0xd22
 5535 0d51 21       		.uleb128 0x21
 5536 0d52 71000000 		.long	.LASF196
 5537 0d56 06       		.uleb128 0x6
 5538 0d57 04       		.byte	0x4
 5539 0d58 510D0000 		.long	0xd51
 5540 0d5c 21       		.uleb128 0x21
 5541 0d5d E1020000 		.long	.LASF197
 5542 0d61 06       		.uleb128 0x6
 5543 0d62 04       		.byte	0x4
 5544 0d63 5C0D0000 		.long	0xd5c
 5545 0d67 1D       		.uleb128 0x1d
 5546 0d68 E6030000 		.long	.LASF198
 5547 0d6c 1D       		.byte	0x1d
 5548 0d6d 89       		.byte	0x89
 5549 0d6e 0E       		.byte	0xe
 5550 0d6f 730D0000 		.long	0xd73
 5551 0d73 06       		.uleb128 0x6
 5552 0d74 04       		.byte	0x4
 5553 0d75 160D0000 		.long	0xd16
 5554 0d79 1D       		.uleb128 0x1d
 5555 0d7a A50D0000 		.long	.LASF199
 5556 0d7e 1D       		.byte	0x1d
 5557 0d7f 8A       		.byte	0x8a
 5558 0d80 0E       		.byte	0xe
 5559 0d81 730D0000 		.long	0xd73
 5560 0d85 1D       		.uleb128 0x1d
GAS LISTING /tmp/cccyco2T.s 			page 101


 5561 0d86 D80B0000 		.long	.LASF200
 5562 0d8a 1D       		.byte	0x1d
 5563 0d8b 8B       		.byte	0x8b
 5564 0d8c 0E       		.byte	0xe
 5565 0d8d 730D0000 		.long	0xd73
 5566 0d91 1D       		.uleb128 0x1d
 5567 0d92 8B010000 		.long	.LASF201
 5568 0d96 1E       		.byte	0x1e
 5569 0d97 1A       		.byte	0x1a
 5570 0d98 0C       		.byte	0xc
 5571 0d99 44000000 		.long	0x44
 5572 0d9d 13       		.uleb128 0x13
 5573 0d9e 56000000 		.long	0x56
 5574 0da2 A80D0000 		.long	0xda8
 5575 0da6 1C       		.uleb128 0x1c
 5576 0da7 00       		.byte	0
 5577 0da8 07       		.uleb128 0x7
 5578 0da9 9D0D0000 		.long	0xd9d
 5579 0dad 1D       		.uleb128 0x1d
 5580 0dae FB030000 		.long	.LASF202
 5581 0db2 1E       		.byte	0x1e
 5582 0db3 1B       		.byte	0x1b
 5583 0db4 1A       		.byte	0x1a
 5584 0db5 A80D0000 		.long	0xda8
 5585 0db9 1E       		.uleb128 0x1e
 5586 0dba 25000000 		.long	0x25
 5587 0dbe D20D0000 		.long	0xdd2
 5588 0dc2 11       		.uleb128 0x11
 5589 0dc3 FA000000 		.long	0xfa
 5590 0dc7 11       		.uleb128 0x11
 5591 0dc8 D20D0000 		.long	0xdd2
 5592 0dcc 11       		.uleb128 0x11
 5593 0dcd 25000000 		.long	0x25
 5594 0dd1 00       		.byte	0
 5595 0dd2 06       		.uleb128 0x6
 5596 0dd3 04       		.byte	0x4
 5597 0dd4 1F010000 		.long	0x11f
 5598 0dd8 06       		.uleb128 0x6
 5599 0dd9 04       		.byte	0x4
 5600 0dda B90D0000 		.long	0xdb9
 5601 0dde 1E       		.uleb128 0x1e
 5602 0ddf 25000000 		.long	0x25
 5603 0de3 F70D0000 		.long	0xdf7
 5604 0de7 11       		.uleb128 0x11
 5605 0de8 FA000000 		.long	0xfa
 5606 0dec 11       		.uleb128 0x11
 5607 0ded 10090000 		.long	0x910
 5608 0df1 11       		.uleb128 0x11
 5609 0df2 25000000 		.long	0x25
 5610 0df6 00       		.byte	0
 5611 0df7 06       		.uleb128 0x6
 5612 0df8 04       		.byte	0x4
 5613 0df9 DE0D0000 		.long	0xdde
 5614 0dfd 1E       		.uleb128 0x1e
 5615 0dfe 84010000 		.long	0x184
 5616 0e02 110E0000 		.long	0xe11
 5617 0e06 11       		.uleb128 0x11
GAS LISTING /tmp/cccyco2T.s 			page 102


 5618 0e07 FA000000 		.long	0xfa
 5619 0e0b 11       		.uleb128 0x11
 5620 0e0c 13010000 		.long	0x113
 5621 0e10 00       		.byte	0
 5622 0e11 06       		.uleb128 0x6
 5623 0e12 04       		.byte	0x4
 5624 0e13 FD0D0000 		.long	0xdfd
 5625 0e17 1E       		.uleb128 0x1e
 5626 0e18 84010000 		.long	0x184
 5627 0e1c 260E0000 		.long	0xe26
 5628 0e20 11       		.uleb128 0x11
 5629 0e21 FA000000 		.long	0xfa
 5630 0e25 00       		.byte	0
 5631 0e26 06       		.uleb128 0x6
 5632 0e27 04       		.byte	0x4
 5633 0e28 170E0000 		.long	0xe17
 5634 0e2c 1E       		.uleb128 0x1e
 5635 0e2d 84010000 		.long	0x184
 5636 0e31 450E0000 		.long	0xe45
 5637 0e35 11       		.uleb128 0x11
 5638 0e36 FA000000 		.long	0xfa
 5639 0e3a 11       		.uleb128 0x11
 5640 0e3b 13010000 		.long	0x113
 5641 0e3f 11       		.uleb128 0x11
 5642 0e40 03050000 		.long	0x503
 5643 0e44 00       		.byte	0
 5644 0e45 06       		.uleb128 0x6
 5645 0e46 04       		.byte	0x4
 5646 0e47 2C0E0000 		.long	0xe2c
 5647 0e4b 1E       		.uleb128 0x1e
 5648 0e4c 84010000 		.long	0x184
 5649 0e50 5F0E0000 		.long	0xe5f
 5650 0e54 11       		.uleb128 0x11
 5651 0e55 FA000000 		.long	0xfa
 5652 0e59 11       		.uleb128 0x11
 5653 0e5a 03050000 		.long	0x503
 5654 0e5e 00       		.byte	0
 5655 0e5f 06       		.uleb128 0x6
 5656 0e60 04       		.byte	0x4
 5657 0e61 4B0E0000 		.long	0xe4b
 5658 0e65 1E       		.uleb128 0x1e
 5659 0e66 25000000 		.long	0x25
 5660 0e6a 830E0000 		.long	0xe83
 5661 0e6e 11       		.uleb128 0x11
 5662 0e6f FA000000 		.long	0xfa
 5663 0e73 11       		.uleb128 0x11
 5664 0e74 D20D0000 		.long	0xdd2
 5665 0e78 11       		.uleb128 0x11
 5666 0e79 25000000 		.long	0x25
 5667 0e7d 11       		.uleb128 0x11
 5668 0e7e 03050000 		.long	0x503
 5669 0e82 00       		.byte	0
 5670 0e83 06       		.uleb128 0x6
 5671 0e84 04       		.byte	0x4
 5672 0e85 650E0000 		.long	0xe65
 5673 0e89 1E       		.uleb128 0x1e
 5674 0e8a 25000000 		.long	0x25
GAS LISTING /tmp/cccyco2T.s 			page 103


 5675 0e8e A70E0000 		.long	0xea7
 5676 0e92 11       		.uleb128 0x11
 5677 0e93 FA000000 		.long	0xfa
 5678 0e97 11       		.uleb128 0x11
 5679 0e98 10090000 		.long	0x910
 5680 0e9c 11       		.uleb128 0x11
 5681 0e9d 25000000 		.long	0x25
 5682 0ea1 11       		.uleb128 0x11
 5683 0ea2 03050000 		.long	0x503
 5684 0ea6 00       		.byte	0
 5685 0ea7 06       		.uleb128 0x6
 5686 0ea8 04       		.byte	0x4
 5687 0ea9 890E0000 		.long	0xe89
 5688 0ead 1E       		.uleb128 0x1e
 5689 0eae 84010000 		.long	0x184
 5690 0eb2 C60E0000 		.long	0xec6
 5691 0eb6 11       		.uleb128 0x11
 5692 0eb7 FA000000 		.long	0xfa
 5693 0ebb 11       		.uleb128 0x11
 5694 0ebc 36000000 		.long	0x36
 5695 0ec0 11       		.uleb128 0x11
 5696 0ec1 FA000000 		.long	0xfa
 5697 0ec5 00       		.byte	0
 5698 0ec6 06       		.uleb128 0x6
 5699 0ec7 04       		.byte	0x4
 5700 0ec8 AD0E0000 		.long	0xead
 5701 0ecc 02       		.uleb128 0x2
 5702 0ecd 0A0A0000 		.long	.LASF203
 5703 0ed1 1F       		.byte	0x1f
 5704 0ed2 2F       		.byte	0x2f
 5705 0ed3 21       		.byte	0x21
 5706 0ed4 D80E0000 		.long	0xed8
 5707 0ed8 0A       		.uleb128 0xa
 5708 0ed9 E90C0000 		.long	.LASF204
 5709 0edd 38       		.byte	0x38
 5710 0ede 1F       		.byte	0x1f
 5711 0edf 3B       		.byte	0x3b
 5712 0ee0 08       		.byte	0x8
 5713 0ee1 8E0F0000 		.long	0xf8e
 5714 0ee5 0B       		.uleb128 0xb
 5715 0ee6 8F0C0000 		.long	.LASF45
 5716 0eea 1F       		.byte	0x1f
 5717 0eeb 3F       		.byte	0x3f
 5718 0eec 19       		.byte	0x19
 5719 0eed F5020000 		.long	0x2f5
 5720 0ef1 00       		.byte	0
 5721 0ef2 0B       		.uleb128 0xb
 5722 0ef3 740B0000 		.long	.LASF205
 5723 0ef7 1F       		.byte	0x1f
 5724 0ef8 43       		.byte	0x43
 5725 0ef9 19       		.byte	0x19
 5726 0efa C9050000 		.long	0x5c9
 5727 0efe 08       		.byte	0x8
 5728 0eff 0B       		.uleb128 0xb
 5729 0f00 3D080000 		.long	.LASF206
 5730 0f04 1F       		.byte	0x1f
 5731 0f05 47       		.byte	0x47
GAS LISTING /tmp/cccyco2T.s 			page 104


 5732 0f06 19       		.byte	0x19
 5733 0f07 31000000 		.long	0x31
 5734 0f0b 0C       		.byte	0xc
 5735 0f0c 0B       		.uleb128 0xb
 5736 0f0d 7D080000 		.long	.LASF207
 5737 0f11 1F       		.byte	0x1f
 5738 0f12 4B       		.byte	0x4b
 5739 0f13 1A       		.byte	0x1a
 5740 0f14 10090000 		.long	0x910
 5741 0f18 10       		.byte	0x10
 5742 0f19 0B       		.uleb128 0xb
 5743 0f1a 5B040000 		.long	.LASF208
 5744 0f1e 1F       		.byte	0x1f
 5745 0f1f 4F       		.byte	0x4f
 5746 0f20 1A       		.byte	0x1a
 5747 0f21 10090000 		.long	0x910
 5748 0f25 14       		.byte	0x14
 5749 0f26 0B       		.uleb128 0xb
 5750 0f27 BC080000 		.long	.LASF209
 5751 0f2b 1F       		.byte	0x1f
 5752 0f2c 53       		.byte	0x53
 5753 0f2d 1A       		.byte	0x1a
 5754 0f2e 10090000 		.long	0x910
 5755 0f32 18       		.byte	0x18
 5756 0f33 0B       		.uleb128 0xb
 5757 0f34 C1090000 		.long	.LASF210
 5758 0f38 1F       		.byte	0x1f
 5759 0f39 5A       		.byte	0x5a
 5760 0f3a 19       		.byte	0x19
 5761 0f3b 25000000 		.long	0x25
 5762 0f3f 1C       		.byte	0x1c
 5763 0f40 0C       		.uleb128 0xc
 5764 0f41 626E00   		.string	"bn"
 5765 0f44 1F       		.byte	0x1f
 5766 0f45 5E       		.byte	0x5e
 5767 0f46 19       		.byte	0x19
 5768 0f47 25000000 		.long	0x25
 5769 0f4b 20       		.byte	0x20
 5770 0f4c 0B       		.uleb128 0xb
 5771 0f4d 3C060000 		.long	.LASF211
 5772 0f51 1F       		.byte	0x1f
 5773 0f52 62       		.byte	0x62
 5774 0f53 1A       		.byte	0x1a
 5775 0f54 10090000 		.long	0x910
 5776 0f58 24       		.byte	0x24
 5777 0f59 0C       		.uleb128 0xc
 5778 0f5a 70747200 		.string	"ptr"
 5779 0f5e 1F       		.byte	0x1f
 5780 0f5f 67       		.byte	0x67
 5781 0f60 1A       		.byte	0x1a
 5782 0f61 10090000 		.long	0x910
 5783 0f65 28       		.byte	0x28
 5784 0f66 0C       		.uleb128 0xc
 5785 0f67 746F7000 		.string	"top"
 5786 0f6b 1F       		.byte	0x1f
 5787 0f6c 6B       		.byte	0x6b
 5788 0f6d 1A       		.byte	0x1a
GAS LISTING /tmp/cccyco2T.s 			page 105


 5789 0f6e 10090000 		.long	0x910
 5790 0f72 2C       		.byte	0x2c
 5791 0f73 0B       		.uleb128 0xb
 5792 0f74 88090000 		.long	.LASF212
 5793 0f78 1F       		.byte	0x1f
 5794 0f79 6F       		.byte	0x6f
 5795 0f7a 19       		.byte	0x19
 5796 0f7b 8E0F0000 		.long	0xf8e
 5797 0f7f 30       		.byte	0x30
 5798 0f80 0B       		.uleb128 0xb
 5799 0f81 77050000 		.long	.LASF213
 5800 0f85 1F       		.byte	0x1f
 5801 0f86 73       		.byte	0x73
 5802 0f87 1A       		.byte	0x1a
 5803 0f88 FA000000 		.long	0xfa
 5804 0f8c 34       		.byte	0x34
 5805 0f8d 00       		.byte	0
 5806 0f8e 02       		.uleb128 0x2
 5807 0f8f 06080000 		.long	.LASF214
 5808 0f93 1F       		.byte	0x1f
 5809 0f94 36       		.byte	0x36
 5810 0f95 10       		.byte	0x10
 5811 0f96 9A0F0000 		.long	0xf9a
 5812 0f9a 06       		.uleb128 0x6
 5813 0f9b 04       		.byte	0x4
 5814 0f9c A00F0000 		.long	0xfa0
 5815 0fa0 10       		.uleb128 0x10
 5816 0fa1 AB0F0000 		.long	0xfab
 5817 0fa5 11       		.uleb128 0x11
 5818 0fa6 AB0F0000 		.long	0xfab
 5819 0faa 00       		.byte	0
 5820 0fab 06       		.uleb128 0x6
 5821 0fac 04       		.byte	0x4
 5822 0fad CC0E0000 		.long	0xecc
 5823 0fb1 02       		.uleb128 0x2
 5824 0fb2 DE070000 		.long	.LASF215
 5825 0fb6 1F       		.byte	0x1f
 5826 0fb7 79       		.byte	0x79
 5827 0fb8 1C       		.byte	0x1c
 5828 0fb9 CC0E0000 		.long	0xecc
 5829 0fbd 02       		.uleb128 0x2
 5830 0fbe B30D0000 		.long	.LASF216
 5831 0fc2 1F       		.byte	0x1f
 5832 0fc3 7E       		.byte	0x7e
 5833 0fc4 1C       		.byte	0x1c
 5834 0fc5 CC0E0000 		.long	0xecc
 5835 0fc9 02       		.uleb128 0x2
 5836 0fca 4B0C0000 		.long	.LASF217
 5837 0fce 20       		.byte	0x20
 5838 0fcf 3A       		.byte	0x3a
 5839 0fd0 19       		.byte	0x19
 5840 0fd1 D50F0000 		.long	0xfd5
 5841 0fd5 0A       		.uleb128 0xa
 5842 0fd6 B4020000 		.long	.LASF218
 5843 0fda 24       		.byte	0x24
 5844 0fdb 20       		.byte	0x20
 5845 0fdc 4B       		.byte	0x4b
GAS LISTING /tmp/cccyco2T.s 			page 106


 5846 0fdd 08       		.byte	0x8
 5847 0fde 4B100000 		.long	0x104b
 5848 0fe2 0B       		.uleb128 0xb
 5849 0fe3 120B0000 		.long	.LASF219
 5850 0fe7 20       		.byte	0x20
 5851 0fe8 4C       		.byte	0x4c
 5852 0fe9 19       		.byte	0x19
 5853 0fea F5020000 		.long	0x2f5
 5854 0fee 00       		.byte	0
 5855 0fef 0B       		.uleb128 0xb
 5856 0ff0 3B0A0000 		.long	.LASF220
 5857 0ff4 20       		.byte	0x20
 5858 0ff5 4D       		.byte	0x4d
 5859 0ff6 19       		.byte	0x19
 5860 0ff7 31000000 		.long	0x31
 5861 0ffb 08       		.byte	0x8
 5862 0ffc 0B       		.uleb128 0xb
 5863 0ffd BB010000 		.long	.LASF221
 5864 1001 20       		.byte	0x20
 5865 1002 4E       		.byte	0x4e
 5866 1003 1A       		.byte	0x1a
 5867 1004 10090000 		.long	0x910
 5868 1008 0C       		.byte	0xc
 5869 1009 0B       		.uleb128 0xb
 5870 100a A7010000 		.long	.LASF222
 5871 100e 20       		.byte	0x20
 5872 100f 4F       		.byte	0x4f
 5873 1010 1A       		.byte	0x1a
 5874 1011 10090000 		.long	0x910
 5875 1015 10       		.byte	0x10
 5876 1016 0B       		.uleb128 0xb
 5877 1017 8A0D0000 		.long	.LASF223
 5878 101b 20       		.byte	0x20
 5879 101c 51       		.byte	0x51
 5880 101d 1A       		.byte	0x1a
 5881 101e 10090000 		.long	0x910
 5882 1022 14       		.byte	0x14
 5883 1023 0B       		.uleb128 0xb
 5884 1024 07020000 		.long	.LASF224
 5885 1028 20       		.byte	0x20
 5886 1029 52       		.byte	0x52
 5887 102a 1A       		.byte	0x1a
 5888 102b 10090000 		.long	0x910
 5889 102f 18       		.byte	0x18
 5890 1030 0B       		.uleb128 0xb
 5891 1031 D1010000 		.long	.LASF225
 5892 1035 20       		.byte	0x20
 5893 1036 53       		.byte	0x53
 5894 1037 19       		.byte	0x19
 5895 1038 4B100000 		.long	0x104b
 5896 103c 1C       		.byte	0x1c
 5897 103d 0B       		.uleb128 0xb
 5898 103e 0F030000 		.long	.LASF226
 5899 1042 20       		.byte	0x20
 5900 1043 54       		.byte	0x54
 5901 1044 1A       		.byte	0x1a
 5902 1045 FA000000 		.long	0xfa
GAS LISTING /tmp/cccyco2T.s 			page 107


 5903 1049 20       		.byte	0x20
 5904 104a 00       		.byte	0
 5905 104b 02       		.uleb128 0x2
 5906 104c 93070000 		.long	.LASF227
 5907 1050 20       		.byte	0x20
 5908 1051 41       		.byte	0x41
 5909 1052 10       		.byte	0x10
 5910 1053 57100000 		.long	0x1057
 5911 1057 06       		.uleb128 0x6
 5912 1058 04       		.byte	0x4
 5913 1059 5D100000 		.long	0x105d
 5914 105d 10       		.uleb128 0x10
 5915 105e 68100000 		.long	0x1068
 5916 1062 11       		.uleb128 0x11
 5917 1063 68100000 		.long	0x1068
 5918 1067 00       		.byte	0
 5919 1068 06       		.uleb128 0x6
 5920 1069 04       		.byte	0x4
 5921 106a C90F0000 		.long	0xfc9
 5922 106e 02       		.uleb128 0x2
 5923 106f 4A0D0000 		.long	.LASF228
 5924 1073 20       		.byte	0x20
 5925 1074 61       		.byte	0x61
 5926 1075 14       		.byte	0x14
 5927 1076 C90F0000 		.long	0xfc9
 5928 107a 02       		.uleb128 0x2
 5929 107b FC0D0000 		.long	.LASF229
 5930 107f 20       		.byte	0x20
 5931 1080 6D       		.byte	0x6d
 5932 1081 14       		.byte	0x14
 5933 1082 C90F0000 		.long	0xfc9
 5934 1086 12       		.uleb128 0x12
 5935 1087 0C       		.byte	0xc
 5936 1088 21       		.byte	0x21
 5937 1089 2E       		.byte	0x2e
 5938 108a 09       		.byte	0x9
 5939 108b B7100000 		.long	0x10b7
 5940 108f 0B       		.uleb128 0xb
 5941 1090 9E060000 		.long	.LASF230
 5942 1094 21       		.byte	0x21
 5943 1095 33       		.byte	0x33
 5944 1096 15       		.byte	0x15
 5945 1097 30010000 		.long	0x130
 5946 109b 00       		.byte	0
 5947 109c 0C       		.uleb128 0xc
 5948 109d 70696E00 		.string	"pin"
 5949 10a1 21       		.byte	0x21
 5950 10a2 39       		.byte	0x39
 5951 10a3 15       		.byte	0x15
 5952 10a4 30010000 		.long	0x130
 5953 10a8 04       		.byte	0x4
 5954 10a9 0C       		.uleb128 0xc
 5955 10aa 64697200 		.string	"dir"
 5956 10ae 21       		.byte	0x21
 5957 10af 3E       		.byte	0x3e
 5958 10b0 15       		.byte	0x15
 5959 10b1 30010000 		.long	0x130
GAS LISTING /tmp/cccyco2T.s 			page 108


 5960 10b5 08       		.byte	0x8
 5961 10b6 00       		.byte	0
 5962 10b7 02       		.uleb128 0x2
 5963 10b8 0A090000 		.long	.LASF231
 5964 10bc 21       		.byte	0x21
 5965 10bd 3F       		.byte	0x3f
 5966 10be 03       		.byte	0x3
 5967 10bf 86100000 		.long	0x1086
 5968 10c3 12       		.uleb128 0x12
 5969 10c4 18       		.byte	0x18
 5970 10c5 21       		.byte	0x21
 5971 10c6 48       		.byte	0x48
 5972 10c7 09       		.byte	0x9
 5973 10c8 E7100000 		.long	0x10e7
 5974 10cc 0B       		.uleb128 0xb
 5975 10cd 68020000 		.long	.LASF232
 5976 10d1 21       		.byte	0x21
 5977 10d2 4C       		.byte	0x4c
 5978 10d3 15       		.byte	0x15
 5979 10d4 B7100000 		.long	0x10b7
 5980 10d8 00       		.byte	0
 5981 10d9 0B       		.uleb128 0xb
 5982 10da CE040000 		.long	.LASF233
 5983 10de 21       		.byte	0x21
 5984 10df 50       		.byte	0x50
 5985 10e0 15       		.byte	0x15
 5986 10e1 B7100000 		.long	0x10b7
 5987 10e5 0C       		.byte	0xc
 5988 10e6 00       		.byte	0
 5989 10e7 02       		.uleb128 0x2
 5990 10e8 690C0000 		.long	.LASF234
 5991 10ec 21       		.byte	0x21
 5992 10ed 51       		.byte	0x51
 5993 10ee 03       		.byte	0x3
 5994 10ef C3100000 		.long	0x10c3
 5995 10f3 07       		.uleb128 0x7
 5996 10f4 E7100000 		.long	0x10e7
 5997 10f8 1D       		.uleb128 0x1d
 5998 10f9 99040000 		.long	.LASF235
 5999 10fd 21       		.byte	0x21
 6000 10fe F8       		.byte	0xf8
 6001 10ff 17       		.byte	0x17
 6002 1100 B7100000 		.long	0x10b7
 6003 1104 1D       		.uleb128 0x1d
 6004 1105 A4040000 		.long	.LASF236
 6005 1109 21       		.byte	0x21
 6006 110a F9       		.byte	0xf9
 6007 110b 17       		.byte	0x17
 6008 110c B7100000 		.long	0x10b7
 6009 1110 1D       		.uleb128 0x1d
 6010 1111 97020000 		.long	.LASF237
 6011 1115 21       		.byte	0x21
 6012 1116 FA       		.byte	0xfa
 6013 1117 18       		.byte	0x18
 6014 1118 F3100000 		.long	0x10f3
 6015 111c 22       		.uleb128 0x22
 6016 111d 07       		.byte	0x7
GAS LISTING /tmp/cccyco2T.s 			page 109


 6017 111e 04       		.byte	0x4
 6018 111f 36000000 		.long	0x36
 6019 1123 22       		.byte	0x22
 6020 1124 58       		.byte	0x58
 6021 1125 0E       		.byte	0xe
 6022 1126 3D110000 		.long	0x113d
 6023 112a 23       		.uleb128 0x23
 6024 112b 52030000 		.long	.LASF238
 6025 112f 00       		.byte	0
 6026 1130 23       		.uleb128 0x23
 6027 1131 1E0E0000 		.long	.LASF239
 6028 1135 01       		.byte	0x1
 6029 1136 23       		.uleb128 0x23
 6030 1137 340B0000 		.long	.LASF240
 6031 113b 02       		.byte	0x2
 6032 113c 00       		.byte	0
 6033 113d 02       		.uleb128 0x2
 6034 113e 2A0B0000 		.long	.LASF241
 6035 1142 22       		.byte	0x22
 6036 1143 5C       		.byte	0x5c
 6037 1144 03       		.byte	0x3
 6038 1145 1C110000 		.long	0x111c
 6039 1149 02       		.uleb128 0x2
 6040 114a A40A0000 		.long	.LASF242
 6041 114e 22       		.byte	0x22
 6042 114f 61       		.byte	0x61
 6043 1150 1D       		.byte	0x1d
 6044 1151 55110000 		.long	0x1155
 6045 1155 0A       		.uleb128 0xa
 6046 1156 A40A0000 		.long	.LASF242
 6047 115a A0       		.byte	0xa0
 6048 115b 22       		.byte	0x22
 6049 115c 7B       		.byte	0x7b
 6050 115d 08       		.byte	0x8
 6051 115e E3110000 		.long	0x11e3
 6052 1162 0C       		.uleb128 0xc
 6053 1163 766D7400 		.string	"vmt"
 6054 1167 22       		.byte	0x22
 6055 1168 7D       		.byte	0x7d
 6056 1169 21       		.byte	0x21
 6057 116a 90120000 		.long	0x1290
 6058 116e 00       		.byte	0
 6059 116f 0B       		.uleb128 0xb
 6060 1170 AF070000 		.long	.LASF243
 6061 1174 22       		.byte	0x22
 6062 1175 7E       		.byte	0x7e
 6063 1176 03       		.byte	0x3
 6064 1177 BA080000 		.long	0x8ba
 6065 117b 04       		.byte	0x4
 6066 117c 0B       		.uleb128 0xb
 6067 117d 19010000 		.long	.LASF42
 6068 1181 22       		.byte	0x22
 6069 1182 7E       		.byte	0x7e
 6070 1183 03       		.byte	0x3
 6071 1184 3D110000 		.long	0x113d
 6072 1188 08       		.byte	0x8
 6073 1189 0B       		.uleb128 0xb
GAS LISTING /tmp/cccyco2T.s 			page 110


 6074 118a 0D0C0000 		.long	.LASF244
 6075 118e 22       		.byte	0x22
 6076 118f 7E       		.byte	0x7e
 6077 1190 03       		.byte	0x3
 6078 1191 6E100000 		.long	0x106e
 6079 1195 0C       		.byte	0xc
 6080 1196 0B       		.uleb128 0xb
 6081 1197 61020000 		.long	.LASF245
 6082 119b 22       		.byte	0x22
 6083 119c 7E       		.byte	0x7e
 6084 119d 03       		.byte	0x3
 6085 119e 7A100000 		.long	0x107a
 6086 11a2 30       		.byte	0x30
 6087 11a3 0C       		.uleb128 0xc
 6088 11a4 696200   		.string	"ib"
 6089 11a7 22       		.byte	0x22
 6090 11a8 7E       		.byte	0x7e
 6091 11a9 03       		.byte	0x3
 6092 11aa 96120000 		.long	0x1296
 6093 11ae 54       		.byte	0x54
 6094 11af 0C       		.uleb128 0xc
 6095 11b0 6F6200   		.string	"ob"
 6096 11b3 22       		.byte	0x22
 6097 11b4 7E       		.byte	0x7e
 6098 11b5 03       		.byte	0x3
 6099 11b6 96120000 		.long	0x1296
 6100 11ba 74       		.byte	0x74
 6101 11bb 0B       		.uleb128 0xb
 6102 11bc DB000000 		.long	.LASF246
 6103 11c0 22       		.byte	0x22
 6104 11c1 7E       		.byte	0x7e
 6105 11c2 03       		.byte	0x3
 6106 11c3 44000000 		.long	0x44
 6107 11c7 94       		.byte	0x94
 6108 11c8 0B       		.uleb128 0xb
 6109 11c9 F2030000 		.long	.LASF247
 6110 11cd 22       		.byte	0x22
 6111 11ce 7E       		.byte	0x7e
 6112 11cf 03       		.byte	0x3
 6113 11d0 44000000 		.long	0x44
 6114 11d4 98       		.byte	0x98
 6115 11d5 0B       		.uleb128 0xb
 6116 11d6 F2010000 		.long	.LASF248
 6117 11da 22       		.byte	0x22
 6118 11db 7E       		.byte	0x7e
 6119 11dc 03       		.byte	0x3
 6120 11dd 4B000000 		.long	0x4b
 6121 11e1 9C       		.byte	0x9c
 6122 11e2 00       		.byte	0
 6123 11e3 24       		.uleb128 0x24
 6124 11e4 53443100 		.string	"SD1"
 6125 11e8 23       		.byte	0x23
 6126 11e9 7A       		.byte	0x7a
 6127 11ea 15       		.byte	0x15
 6128 11eb 49110000 		.long	0x1149
 6129 11ef 24       		.uleb128 0x24
 6130 11f0 53443200 		.string	"SD2"
GAS LISTING /tmp/cccyco2T.s 			page 111


 6131 11f4 23       		.byte	0x23
 6132 11f5 7D       		.byte	0x7d
 6133 11f6 15       		.byte	0x15
 6134 11f7 49110000 		.long	0x1149
 6135 11fb 0A       		.uleb128 0xa
 6136 11fc BB050000 		.long	.LASF249
 6137 1200 28       		.byte	0x28
 6138 1201 22       		.byte	0x22
 6139 1202 70       		.byte	0x70
 6140 1203 08       		.byte	0x8
 6141 1204 8B120000 		.long	0x128b
 6142 1208 0B       		.uleb128 0xb
 6143 1209 320D0000 		.long	.LASF250
 6144 120d 22       		.byte	0x22
 6145 120e 71       		.byte	0x71
 6146 120f 03       		.byte	0x3
 6147 1210 25000000 		.long	0x25
 6148 1214 00       		.byte	0
 6149 1215 0B       		.uleb128 0xb
 6150 1216 EF000000 		.long	.LASF251
 6151 121a 22       		.byte	0x22
 6152 121b 71       		.byte	0x71
 6153 121c 03       		.byte	0x3
 6154 121d D80D0000 		.long	0xdd8
 6155 1221 04       		.byte	0x4
 6156 1222 0B       		.uleb128 0xb
 6157 1223 B5070000 		.long	.LASF252
 6158 1227 22       		.byte	0x22
 6159 1228 71       		.byte	0x71
 6160 1229 03       		.byte	0x3
 6161 122a F70D0000 		.long	0xdf7
 6162 122e 08       		.byte	0x8
 6163 122f 0C       		.uleb128 0xc
 6164 1230 70757400 		.string	"put"
 6165 1234 22       		.byte	0x22
 6166 1235 71       		.byte	0x71
 6167 1236 03       		.byte	0x3
 6168 1237 110E0000 		.long	0xe11
 6169 123b 0C       		.byte	0xc
 6170 123c 0C       		.uleb128 0xc
 6171 123d 67657400 		.string	"get"
 6172 1241 22       		.byte	0x22
 6173 1242 71       		.byte	0x71
 6174 1243 03       		.byte	0x3
 6175 1244 260E0000 		.long	0xe26
 6176 1248 10       		.byte	0x10
 6177 1249 0B       		.uleb128 0xb
 6178 124a 25010000 		.long	.LASF253
 6179 124e 22       		.byte	0x22
 6180 124f 71       		.byte	0x71
 6181 1250 03       		.byte	0x3
 6182 1251 450E0000 		.long	0xe45
 6183 1255 14       		.byte	0x14
 6184 1256 0B       		.uleb128 0xb
 6185 1257 86030000 		.long	.LASF254
 6186 125b 22       		.byte	0x22
 6187 125c 71       		.byte	0x71
GAS LISTING /tmp/cccyco2T.s 			page 112


 6188 125d 03       		.byte	0x3
 6189 125e 5F0E0000 		.long	0xe5f
 6190 1262 18       		.byte	0x18
 6191 1263 0B       		.uleb128 0xb
 6192 1264 85000000 		.long	.LASF255
 6193 1268 22       		.byte	0x22
 6194 1269 71       		.byte	0x71
 6195 126a 03       		.byte	0x3
 6196 126b 830E0000 		.long	0xe83
 6197 126f 1C       		.byte	0x1c
 6198 1270 0B       		.uleb128 0xb
 6199 1271 B5010000 		.long	.LASF256
 6200 1275 22       		.byte	0x22
 6201 1276 71       		.byte	0x71
 6202 1277 03       		.byte	0x3
 6203 1278 A70E0000 		.long	0xea7
 6204 127c 20       		.byte	0x20
 6205 127d 0C       		.uleb128 0xc
 6206 127e 63746C00 		.string	"ctl"
 6207 1282 22       		.byte	0x22
 6208 1283 71       		.byte	0x71
 6209 1284 03       		.byte	0x3
 6210 1285 C60E0000 		.long	0xec6
 6211 1289 24       		.byte	0x24
 6212 128a 00       		.byte	0
 6213 128b 07       		.uleb128 0x7
 6214 128c FB110000 		.long	0x11fb
 6215 1290 06       		.uleb128 0x6
 6216 1291 04       		.byte	0x4
 6217 1292 8B120000 		.long	0x128b
 6218 1296 13       		.uleb128 0x13
 6219 1297 13010000 		.long	0x113
 6220 129b A6120000 		.long	0x12a6
 6221 129f 14       		.uleb128 0x14
 6222 12a0 36000000 		.long	0x36
 6223 12a4 1F       		.byte	0x1f
 6224 12a5 00       		.byte	0
 6225 12a6 25       		.uleb128 0x25
 6226 12a7 730C0000 		.long	.LASF265
 6227 12ab 01       		.byte	0x1
 6228 12ac 6803     		.value	0x368
 6229 12ae 06       		.byte	0x6
 6230 12af 00000000 		.long	.LFB254
 6231 12b3 78000000 		.long	.LFE254-.LFB254
 6232 12b7 01       		.uleb128 0x1
 6233 12b8 9C       		.byte	0x9c
 6234 12b9 A5130000 		.long	0x13a5
 6235 12bd 26       		.uleb128 0x26
 6236 12be CA080000 		.long	.LASF257
 6237 12c2 01       		.byte	0x1
 6238 12c3 6803     		.value	0x368
 6239 12c5 27       		.byte	0x27
 6240 12c6 A5130000 		.long	0x13a5
 6241 12ca 02       		.uleb128 0x2
 6242 12cb 91       		.byte	0x91
 6243 12cc 00       		.sleb128 0
 6244 12cd 27       		.uleb128 0x27
GAS LISTING /tmp/cccyco2T.s 			page 113


 6245 12ce D0060000 		.long	.Ldebug_ranges0+0x6d0
 6246 12d2 1E130000 		.long	0x131e
 6247 12d6 28       		.uleb128 0x28
 6248 12d7 8F090000 		.long	.LASF102
 6249 12db 01       		.byte	0x1
 6250 12dc 6E03     		.value	0x36e
 6251 12de 0C       		.byte	0xc
 6252 12df 25000000 		.long	0x25
 6253 12e3 08000000 		.long	.LLST84
 6254 12e7 00000000 		.long	.LVUS84
 6255 12eb 29       		.uleb128 0x29
 6256 12ec 62190000 		.long	0x1962
 6257 12f0 2F000000 		.long	.LBI694
 6258 12f4 01       		.byte	.LVU1098
 6259 12f5 E8060000 		.long	.Ldebug_ranges0+0x6e8
 6260 12f9 01       		.byte	0x1
 6261 12fa 7103     		.value	0x371
 6262 12fc 07       		.byte	0x7
 6263 12fd 2A       		.uleb128 0x2a
 6264 12fe 7D190000 		.long	0x197d
 6265 1302 4A000000 		.long	.LLST85
 6266 1306 44000000 		.long	.LVUS85
 6267 130a 2A       		.uleb128 0x2a
 6268 130b 70190000 		.long	0x1970
 6269 130f 7C000000 		.long	.LLST86
 6270 1313 76000000 		.long	.LVUS86
 6271 1317 2B       		.uleb128 0x2b
 6272 1318 E8060000 		.long	.Ldebug_ranges0+0x6e8
 6273 131c 00       		.byte	0
 6274 131d 00       		.byte	0
 6275 131e 2C       		.uleb128 0x2c
 6276 131f 32280000 		.long	0x2832
 6277 1323 00000000 		.long	.LBI678
 6278 1327 02       		.byte	.LVU1076
 6279 1328 A0060000 		.long	.Ldebug_ranges0+0x6a0
 6280 132c 01       		.byte	0x1
 6281 132d 6A03     		.value	0x36a
 6282 132f 03       		.byte	0x3
 6283 1330 5A130000 		.long	0x135a
 6284 1334 29       		.uleb128 0x29
 6285 1335 92280000 		.long	0x2892
 6286 1339 00000000 		.long	.LBI679
 6287 133d 04       		.byte	.LVU1078
 6288 133e A8060000 		.long	.Ldebug_ranges0+0x6a8
 6289 1342 02       		.byte	0x2
 6290 1343 FF01     		.value	0x1ff
 6291 1345 03       		.byte	0x3
 6292 1346 2D       		.uleb128 0x2d
 6293 1347 C2280000 		.long	0x28c2
 6294 134b 00000000 		.long	.LBI680
 6295 134f 06       		.byte	.LVU1080
 6296 1350 B0060000 		.long	.Ldebug_ranges0+0x6b0
 6297 1354 05       		.byte	0x5
 6298 1355 6301     		.value	0x163
 6299 1357 03       		.byte	0x3
 6300 1358 00       		.byte	0
 6301 1359 00       		.byte	0
GAS LISTING /tmp/cccyco2T.s 			page 114


 6302 135a 29       		.uleb128 0x29
 6303 135b 28280000 		.long	0x2828
 6304 135f 5C000000 		.long	.LBI698
 6305 1363 02       		.byte	.LVU1124
 6306 1364 00070000 		.long	.Ldebug_ranges0+0x700
 6307 1368 01       		.byte	0x1
 6308 1369 7503     		.value	0x375
 6309 136b 03       		.byte	0x3
 6310 136c 2E       		.uleb128 0x2e
 6311 136d 65280000 		.long	0x2865
 6312 1371 5C000000 		.long	.LBI699
 6313 1375 04       		.byte	.LVU1126
 6314 1376 5C000000 		.long	.LBB699
 6315 137a 06000000 		.long	.LBE699-.LBB699
 6316 137e 02       		.byte	0x2
 6317 137f 0A02     		.value	0x20a
 6318 1381 03       		.byte	0x3
 6319 1382 2F       		.uleb128 0x2f
 6320 1383 5C000000 		.long	.LBB700
 6321 1387 06000000 		.long	.LBE700-.LBB700
 6322 138b 30       		.uleb128 0x30
 6323 138c B8280000 		.long	0x28b8
 6324 1390 5C000000 		.long	.LBI701
 6325 1394 0A       		.byte	.LVU1132
 6326 1395 5C000000 		.long	.LBB701
 6327 1399 06000000 		.long	.LBE701-.LBB701
 6328 139d 05       		.byte	0x5
 6329 139e 7A01     		.value	0x17a
 6330 13a0 03       		.byte	0x3
 6331 13a1 00       		.byte	0
 6332 13a2 00       		.byte	0
 6333 13a3 00       		.byte	0
 6334 13a4 00       		.byte	0
 6335 13a5 06       		.uleb128 0x6
 6336 13a6 04       		.byte	0x4
 6337 13a7 BD0F0000 		.long	0xfbd
 6338 13ab 31       		.uleb128 0x31
 6339 13ac DB080000 		.long	.LASF258
 6340 13b0 01       		.byte	0x1
 6341 13b1 4303     		.value	0x343
 6342 13b3 06       		.byte	0x6
 6343 13b4 C9050000 		.long	0x5c9
 6344 13b8 00000000 		.long	.LFB253
 6345 13bc 57000000 		.long	.LFE253-.LFB253
 6346 13c0 01       		.uleb128 0x1
 6347 13c1 9C       		.byte	0x9c
 6348 13c2 F6130000 		.long	0x13f6
 6349 13c6 26       		.uleb128 0x26
 6350 13c7 CA080000 		.long	.LASF257
 6351 13cb 01       		.byte	0x1
 6352 13cc 4303     		.value	0x343
 6353 13ce 2B       		.byte	0x2b
 6354 13cf A5130000 		.long	0x13a5
 6355 13d3 02       		.uleb128 0x2
 6356 13d4 91       		.byte	0x91
 6357 13d5 00       		.sleb128 0
 6358 13d6 2F       		.uleb128 0x2f
GAS LISTING /tmp/cccyco2T.s 			page 115


 6359 13d7 26000000 		.long	.LBB677
 6360 13db 2F000000 		.long	.LBE677-.LBB677
 6361 13df 28       		.uleb128 0x28
 6362 13e0 8F090000 		.long	.LASF102
 6363 13e4 01       		.byte	0x1
 6364 13e5 4A03     		.value	0x34a
 6365 13e7 0C       		.byte	0xc
 6366 13e8 25000000 		.long	0x25
 6367 13ec AA000000 		.long	.LLST83
 6368 13f0 A6000000 		.long	.LVUS83
 6369 13f4 00       		.byte	0
 6370 13f5 00       		.byte	0
 6371 13f6 32       		.uleb128 0x32
 6372 13f7 6B0A0000 		.long	.LASF259
 6373 13fb 01       		.byte	0x1
 6374 13fc E502     		.value	0x2e5
 6375 13fe 08       		.byte	0x8
 6376 13ff 25000000 		.long	0x25
 6377 1403 00000000 		.long	.LFB252
 6378 1407 E0010000 		.long	.LFE252-.LFB252
 6379 140b 01       		.uleb128 0x1
 6380 140c 9C       		.byte	0x9c
 6381 140d D2170000 		.long	0x17d2
 6382 1411 26       		.uleb128 0x26
 6383 1412 CA080000 		.long	.LASF257
 6384 1416 01       		.byte	0x1
 6385 1417 E502     		.value	0x2e5
 6386 1419 30       		.byte	0x30
 6387 141a A5130000 		.long	0x13a5
 6388 141e 02       		.uleb128 0x2
 6389 141f 91       		.byte	0x91
 6390 1420 00       		.sleb128 0
 6391 1421 33       		.uleb128 0x33
 6392 1422 627000   		.string	"bp"
 6393 1425 01       		.byte	0x1
 6394 1426 E502     		.value	0x2e5
 6395 1428 45       		.byte	0x45
 6396 1429 D20D0000 		.long	0xdd2
 6397 142d D7000000 		.long	.LLST61
 6398 1431 CD000000 		.long	.LVUS61
 6399 1435 34       		.uleb128 0x34
 6400 1436 6E00     		.string	"n"
 6401 1438 01       		.byte	0x1
 6402 1439 E602     		.value	0x2e6
 6403 143b 1F       		.byte	0x1f
 6404 143c 25000000 		.long	0x25
 6405 1440 02       		.uleb128 0x2
 6406 1441 91       		.byte	0x91
 6407 1442 08       		.sleb128 8
 6408 1443 26       		.uleb128 0x26
 6409 1444 79070000 		.long	.LASF260
 6410 1448 01       		.byte	0x1
 6411 1449 E602     		.value	0x2e6
 6412 144b 30       		.byte	0x30
 6413 144c 03050000 		.long	0x503
 6414 1450 02       		.uleb128 0x2
 6415 1451 91       		.byte	0x91
GAS LISTING /tmp/cccyco2T.s 			page 116


 6416 1452 0C       		.sleb128 12
 6417 1453 35       		.uleb128 0x35
 6418 1454 7700     		.string	"w"
 6419 1456 01       		.byte	0x1
 6420 1457 E702     		.value	0x2e7
 6421 1459 0A       		.byte	0xa
 6422 145a 25000000 		.long	0x25
 6423 145e 29010000 		.long	.LLST62
 6424 1462 19010000 		.long	.LVUS62
 6425 1466 28       		.uleb128 0x28
 6426 1467 FF050000 		.long	.LASF261
 6427 146b 01       		.byte	0x1
 6428 146c E802     		.value	0x2e8
 6429 146e 0D       		.byte	0xd
 6430 146f F2040000 		.long	0x4f2
 6431 1473 90010000 		.long	.LLST63
 6432 1477 8C010000 		.long	.LVUS63
 6433 147b 36       		.uleb128 0x36
 6434 147c E6000000 		.long	.LASF264
 6435 1480 E2170000 		.long	0x17e2
 6436 1484 27       		.uleb128 0x27
 6437 1485 10050000 		.long	.Ldebug_ranges0+0x510
 6438 1489 05170000 		.long	0x1705
 6439 148d 28       		.uleb128 0x28
 6440 148e 8F090000 		.long	.LASF102
 6441 1492 01       		.byte	0x1
 6442 1493 F202     		.value	0x2f2
 6443 1495 0C       		.byte	0xc
 6444 1496 25000000 		.long	0x25
 6445 149a B7010000 		.long	.LLST68
 6446 149e AF010000 		.long	.LVUS68
 6447 14a2 27       		.uleb128 0x27
 6448 14a3 60050000 		.long	.Ldebug_ranges0+0x560
 6449 14a7 C7150000 		.long	0x15c7
 6450 14ab 35       		.uleb128 0x35
 6451 14ac 6D736700 		.string	"msg"
 6452 14b0 01       		.byte	0x1
 6453 14b1 F602     		.value	0x2f6
 6454 14b3 0D       		.byte	0xd
 6455 14b4 84010000 		.long	0x184
 6456 14b8 0E020000 		.long	.LLST69
 6457 14bc 0A020000 		.long	.LVUS69
 6458 14c0 27       		.uleb128 0x27
 6459 14c1 90050000 		.long	.Ldebug_ranges0+0x590
 6460 14c5 6F150000 		.long	0x156f
 6461 14c9 28       		.uleb128 0x28
 6462 14ca 70060000 		.long	.LASF262
 6463 14ce 01       		.byte	0x1
 6464 14cf FE02     		.value	0x2fe
 6465 14d1 17       		.byte	0x17
 6466 14d2 03050000 		.long	0x503
 6467 14d6 2E020000 		.long	.LLST70
 6468 14da 2C020000 		.long	.LVUS70
 6469 14de 2C       		.uleb128 0x2c
 6470 14df 1A280000 		.long	0x281a
 6471 14e3 77010000 		.long	.LBI608
 6472 14e7 01       		.byte	.LVU989
GAS LISTING /tmp/cccyco2T.s 			page 117


 6473 14e8 B0050000 		.long	.Ldebug_ranges0+0x5b0
 6474 14ec 01       		.byte	0x1
 6475 14ed FE02     		.value	0x2fe
 6476 14ef 34       		.byte	0x34
 6477 14f0 07150000 		.long	0x1507
 6478 14f4 2D       		.uleb128 0x2d
 6479 14f5 58280000 		.long	0x2858
 6480 14f9 77010000 		.long	.LBI609
 6481 14fd 03       		.byte	.LVU991
 6482 14fe B8050000 		.long	.Ldebug_ranges0+0x5b8
 6483 1502 02       		.byte	0x2
 6484 1503 7C02     		.value	0x27c
 6485 1505 0A       		.byte	0xa
 6486 1506 00       		.byte	0
 6487 1507 2C       		.uleb128 0x2c
 6488 1508 C0270000 		.long	0x27c0
 6489 150c 84010000 		.long	.LBI614
 6490 1510 01       		.byte	.LVU997
 6491 1511 D0050000 		.long	.Ldebug_ranges0+0x5d0
 6492 1515 01       		.byte	0x1
 6493 1516 FE02     		.value	0x2fe
 6494 1518 26       		.byte	0x26
 6495 1519 65150000 		.long	0x1565
 6496 151d 2A       		.uleb128 0x2a
 6497 151e DF270000 		.long	0x27df
 6498 1522 45020000 		.long	.LLST71
 6499 1526 41020000 		.long	.LVUS71
 6500 152a 2A       		.uleb128 0x2a
 6501 152b D2270000 		.long	0x27d2
 6502 152f 66020000 		.long	.LLST72
 6503 1533 64020000 		.long	.LVUS72
 6504 1537 29       		.uleb128 0x29
 6505 1538 CC280000 		.long	0x28cc
 6506 153c 84010000 		.long	.LBI615
 6507 1540 03       		.byte	.LVU999
 6508 1541 F0050000 		.long	.Ldebug_ranges0+0x5f0
 6509 1545 02       		.byte	0x2
 6510 1546 9902     		.value	0x299
 6511 1548 0A       		.byte	0xa
 6512 1549 2A       		.uleb128 0x2a
 6513 154a EB280000 		.long	0x28eb
 6514 154e 7D020000 		.long	.LLST73
 6515 1552 79020000 		.long	.LVUS73
 6516 1556 2A       		.uleb128 0x2a
 6517 1557 DE280000 		.long	0x28de
 6518 155b 9E020000 		.long	.LLST74
 6519 155f 9C020000 		.long	.LVUS74
 6520 1563 00       		.byte	0
 6521 1564 00       		.byte	0
 6522 1565 37       		.uleb128 0x37
 6523 1566 99010000 		.long	.LVL145
 6524 156a 9D1A0000 		.long	0x1a9d
 6525 156e 00       		.byte	0
 6526 156f 2C       		.uleb128 0x2c
 6527 1570 28280000 		.long	0x2828
 6528 1574 BC010000 		.long	.LBI624
 6529 1578 01       		.byte	.LVU1020
GAS LISTING /tmp/cccyco2T.s 			page 118


 6530 1579 08060000 		.long	.Ldebug_ranges0+0x608
 6531 157d 01       		.byte	0x1
 6532 157e 0D03     		.value	0x30d
 6533 1580 09       		.byte	0x9
 6534 1581 BD150000 		.long	0x15bd
 6535 1585 2E       		.uleb128 0x2e
 6536 1586 65280000 		.long	0x2865
 6537 158a BC010000 		.long	.LBI625
 6538 158e 03       		.byte	.LVU1022
 6539 158f BC010000 		.long	.LBB625
 6540 1593 0A000000 		.long	.LBE625-.LBB625
 6541 1597 02       		.byte	0x2
 6542 1598 0A02     		.value	0x20a
 6543 159a 03       		.byte	0x3
 6544 159b 2F       		.uleb128 0x2f
 6545 159c BC010000 		.long	.LBB626
 6546 15a0 0A000000 		.long	.LBE626-.LBB626
 6547 15a4 30       		.uleb128 0x30
 6548 15a5 B8280000 		.long	0x28b8
 6549 15a9 BC010000 		.long	.LBI627
 6550 15ad 09       		.byte	.LVU1028
 6551 15ae BC010000 		.long	.LBB627
 6552 15b2 0A000000 		.long	.LBE627-.LBB627
 6553 15b6 05       		.byte	0x5
 6554 15b7 7A01     		.value	0x17a
 6555 15b9 03       		.byte	0x3
 6556 15ba 00       		.byte	0
 6557 15bb 00       		.byte	0
 6558 15bc 00       		.byte	0
 6559 15bd 37       		.uleb128 0x37
 6560 15be B5010000 		.long	.LVL147
 6561 15c2 9D1A0000 		.long	0x1a9d
 6562 15c6 00       		.byte	0
 6563 15c7 2C       		.uleb128 0x2c
 6564 15c8 44290000 		.long	0x2944
 6565 15cc 60000000 		.long	.LBI630
 6566 15d0 02       		.byte	.LVU885
 6567 15d1 20060000 		.long	.Ldebug_ranges0+0x620
 6568 15d5 01       		.byte	0x1
 6569 15d6 1C03     		.value	0x31c
 6570 15d8 07       		.byte	0x7
 6571 15d9 05160000 		.long	0x1605
 6572 15dd 2A       		.uleb128 0x2a
 6573 15de 6D290000 		.long	0x296d
 6574 15e2 B3020000 		.long	.LLST75
 6575 15e6 B1020000 		.long	.LVUS75
 6576 15ea 2A       		.uleb128 0x2a
 6577 15eb 61290000 		.long	0x2961
 6578 15ef CC020000 		.long	.LLST76
 6579 15f3 C8020000 		.long	.LVUS76
 6580 15f7 2A       		.uleb128 0x2a
 6581 15f8 55290000 		.long	0x2955
 6582 15fc EE020000 		.long	.LLST77
 6583 1600 EC020000 		.long	.LVUS77
 6584 1604 00       		.byte	0
 6585 1605 2C       		.uleb128 0x2c
 6586 1606 62190000 		.long	0x1962
GAS LISTING /tmp/cccyco2T.s 			page 119


 6587 160a D2000000 		.long	.LBI634
 6588 160e 01       		.byte	.LVU901
 6589 160f 38060000 		.long	.Ldebug_ranges0+0x638
 6590 1613 01       		.byte	0x1
 6591 1614 2A03     		.value	0x32a
 6592 1616 07       		.byte	0x7
 6593 1617 3B160000 		.long	0x163b
 6594 161b 2A       		.uleb128 0x2a
 6595 161c 7D190000 		.long	0x197d
 6596 1620 0C030000 		.long	.LLST78
 6597 1624 02030000 		.long	.LVUS78
 6598 1628 2A       		.uleb128 0x2a
 6599 1629 70190000 		.long	0x1970
 6600 162d 57030000 		.long	.LLST79
 6601 1631 55030000 		.long	.LVUS79
 6602 1635 2B       		.uleb128 0x2b
 6603 1636 38060000 		.long	.Ldebug_ranges0+0x638
 6604 163a 00       		.byte	0
 6605 163b 2C       		.uleb128 0x2c
 6606 163c 28280000 		.long	0x2828
 6607 1640 0E010000 		.long	.LBI640
 6608 1644 02       		.byte	.LVU932
 6609 1645 58060000 		.long	.Ldebug_ranges0+0x658
 6610 1649 01       		.byte	0x1
 6611 164a 2E03     		.value	0x32e
 6612 164c 05       		.byte	0x5
 6613 164d 7D160000 		.long	0x167d
 6614 1651 29       		.uleb128 0x29
 6615 1652 65280000 		.long	0x2865
 6616 1656 0E010000 		.long	.LBI641
 6617 165a 04       		.byte	.LVU934
 6618 165b 60060000 		.long	.Ldebug_ranges0+0x660
 6619 165f 02       		.byte	0x2
 6620 1660 0A02     		.value	0x20a
 6621 1662 03       		.byte	0x3
 6622 1663 38       		.uleb128 0x38
 6623 1664 60060000 		.long	.Ldebug_ranges0+0x660
 6624 1668 2D       		.uleb128 0x2d
 6625 1669 B8280000 		.long	0x28b8
 6626 166d 0E010000 		.long	.LBI643
 6627 1671 0A       		.byte	.LVU940
 6628 1672 60060000 		.long	.Ldebug_ranges0+0x660
 6629 1676 05       		.byte	0x5
 6630 1677 7A01     		.value	0x17a
 6631 1679 03       		.byte	0x3
 6632 167a 00       		.byte	0
 6633 167b 00       		.byte	0
 6634 167c 00       		.byte	0
 6635 167d 2C       		.uleb128 0x2c
 6636 167e 32280000 		.long	0x2832
 6637 1682 1C010000 		.long	.LBI655
 6638 1686 01       		.byte	.LVU946
 6639 1687 80060000 		.long	.Ldebug_ranges0+0x680
 6640 168b 01       		.byte	0x1
 6641 168c 3203     		.value	0x332
 6642 168e 05       		.byte	0x5
 6643 168f BD160000 		.long	0x16bd
GAS LISTING /tmp/cccyco2T.s 			page 120


 6644 1693 29       		.uleb128 0x29
 6645 1694 92280000 		.long	0x2892
 6646 1698 1C010000 		.long	.LBI656
 6647 169c 03       		.byte	.LVU948
 6648 169d 88060000 		.long	.Ldebug_ranges0+0x688
 6649 16a1 02       		.byte	0x2
 6650 16a2 FF01     		.value	0x1ff
 6651 16a4 03       		.byte	0x3
 6652 16a5 30       		.uleb128 0x30
 6653 16a6 C2280000 		.long	0x28c2
 6654 16aa 1C010000 		.long	.LBI657
 6655 16ae 05       		.byte	.LVU950
 6656 16af 1C010000 		.long	.LBB657
 6657 16b3 06000000 		.long	.LBE657-.LBB657
 6658 16b7 05       		.byte	0x5
 6659 16b8 6301     		.value	0x163
 6660 16ba 03       		.byte	0x3
 6661 16bb 00       		.byte	0
 6662 16bc 00       		.byte	0
 6663 16bd 2E       		.uleb128 0x2e
 6664 16be 44290000 		.long	0x2944
 6665 16c2 42010000 		.long	.LBI662
 6666 16c6 01       		.byte	.LVU969
 6667 16c7 42010000 		.long	.LBB662
 6668 16cb 13000000 		.long	.LBE662-.LBB662
 6669 16cf 01       		.byte	0x1
 6670 16d0 2203     		.value	0x322
 6671 16d2 07       		.byte	0x7
 6672 16d3 2A       		.uleb128 0x2a
 6673 16d4 6D290000 		.long	0x296d
 6674 16d8 6E030000 		.long	.LLST80
 6675 16dc 6A030000 		.long	.LVUS80
 6676 16e0 2A       		.uleb128 0x2a
 6677 16e1 61290000 		.long	0x2961
 6678 16e5 8F030000 		.long	.LLST81
 6679 16e9 8D030000 		.long	.LVUS81
 6680 16ed 2A       		.uleb128 0x2a
 6681 16ee 55290000 		.long	0x2955
 6682 16f2 A4030000 		.long	.LLST82
 6683 16f6 A2030000 		.long	.LVUS82
 6684 16fa 37       		.uleb128 0x37
 6685 16fb 55010000 		.long	.LVL137
 6686 16ff 2C2B0000 		.long	0x2b2c
 6687 1703 00       		.byte	0
 6688 1704 00       		.byte	0
 6689 1705 2C       		.uleb128 0x2c
 6690 1706 32280000 		.long	0x2832
 6691 170a 00000000 		.long	.LBI579
 6692 170e 06       		.byte	.LVU850
 6693 170f 90040000 		.long	.Ldebug_ranges0+0x490
 6694 1713 01       		.byte	0x1
 6695 1714 EC02     		.value	0x2ec
 6696 1716 03       		.byte	0x3
 6697 1717 41170000 		.long	0x1741
 6698 171b 29       		.uleb128 0x29
 6699 171c 92280000 		.long	0x2892
 6700 1720 00000000 		.long	.LBI580
GAS LISTING /tmp/cccyco2T.s 			page 121


 6701 1724 08       		.byte	.LVU852
 6702 1725 98040000 		.long	.Ldebug_ranges0+0x498
 6703 1729 02       		.byte	0x2
 6704 172a FF01     		.value	0x1ff
 6705 172c 03       		.byte	0x3
 6706 172d 2D       		.uleb128 0x2d
 6707 172e C2280000 		.long	0x28c2
 6708 1732 00000000 		.long	.LBI581
 6709 1736 0A       		.byte	.LVU854
 6710 1737 A0040000 		.long	.Ldebug_ranges0+0x4a0
 6711 173b 05       		.byte	0x5
 6712 173c 6301     		.value	0x163
 6713 173e 03       		.byte	0x3
 6714 173f 00       		.byte	0
 6715 1740 00       		.byte	0
 6716 1741 2C       		.uleb128 0x2c
 6717 1742 1A280000 		.long	0x281a
 6718 1746 35000000 		.long	.LBI593
 6719 174a 03       		.byte	.LVU866
 6720 174b C0040000 		.long	.Ldebug_ranges0+0x4c0
 6721 174f 01       		.byte	0x1
 6722 1750 EF02     		.value	0x2ef
 6723 1752 1B       		.byte	0x1b
 6724 1753 6A170000 		.long	0x176a
 6725 1757 2D       		.uleb128 0x2d
 6726 1758 58280000 		.long	0x2858
 6727 175c 35000000 		.long	.LBI594
 6728 1760 05       		.byte	.LVU868
 6729 1761 E0040000 		.long	.Ldebug_ranges0+0x4e0
 6730 1765 02       		.byte	0x2
 6731 1766 7C02     		.value	0x27c
 6732 1768 0A       		.byte	0xa
 6733 1769 00       		.byte	0
 6734 176a 29       		.uleb128 0x29
 6735 176b ED270000 		.long	0x27ed
 6736 176f 3D000000 		.long	.LBI601
 6737 1773 01       		.byte	.LVU872
 6738 1774 F8040000 		.long	.Ldebug_ranges0+0x4f8
 6739 1778 01       		.byte	0x1
 6740 1779 EF02     		.value	0x2ef
 6741 177b 0E       		.byte	0xe
 6742 177c 2A       		.uleb128 0x2a
 6743 177d 0C280000 		.long	0x280c
 6744 1781 BA030000 		.long	.LLST64
 6745 1785 B8030000 		.long	.LVUS64
 6746 1789 2A       		.uleb128 0x2a
 6747 178a FF270000 		.long	0x27ff
 6748 178e D0030000 		.long	.LLST65
 6749 1792 CE030000 		.long	.LVUS65
 6750 1796 2E       		.uleb128 0x2e
 6751 1797 F9280000 		.long	0x28f9
 6752 179b 3D000000 		.long	.LBI602
 6753 179f 03       		.byte	.LVU874
 6754 17a0 3D000000 		.long	.LBB602
 6755 17a4 0A000000 		.long	.LBE602-.LBB602
 6756 17a8 02       		.byte	0x2
 6757 17a9 8B02     		.value	0x28b
GAS LISTING /tmp/cccyco2T.s 			page 122


 6758 17ab 0A       		.byte	0xa
 6759 17ac 2A       		.uleb128 0x2a
 6760 17ad 18290000 		.long	0x2918
 6761 17b1 E5030000 		.long	.LLST66
 6762 17b5 E3030000 		.long	.LVUS66
 6763 17b9 2A       		.uleb128 0x2a
 6764 17ba 0B290000 		.long	0x290b
 6765 17be FB030000 		.long	.LLST67
 6766 17c2 F9030000 		.long	.LVUS67
 6767 17c6 39       		.uleb128 0x39
 6768 17c7 3D000000 		.long	.LBB603
 6769 17cb 0A000000 		.long	.LBE603-.LBB603
 6770 17cf 00       		.byte	0
 6771 17d0 00       		.byte	0
 6772 17d1 00       		.byte	0
 6773 17d2 13       		.uleb128 0x13
 6774 17d3 62000000 		.long	0x62
 6775 17d7 E2170000 		.long	0x17e2
 6776 17db 14       		.uleb128 0x14
 6777 17dc 36000000 		.long	0x36
 6778 17e0 0F       		.byte	0xf
 6779 17e1 00       		.byte	0
 6780 17e2 07       		.uleb128 0x7
 6781 17e3 D2170000 		.long	0x17d2
 6782 17e7 32       		.uleb128 0x32
 6783 17e8 40090000 		.long	.LASF263
 6784 17ec 01       		.byte	0x1
 6785 17ed B302     		.value	0x2b3
 6786 17ef 07       		.byte	0x7
 6787 17f0 84010000 		.long	0x184
 6788 17f4 00000000 		.long	.LFB251
 6789 17f8 B0000000 		.long	.LFE251-.LFB251
 6790 17fc 01       		.uleb128 0x1
 6791 17fd 9C       		.byte	0x9c
 6792 17fe 62190000 		.long	0x1962
 6793 1802 3A       		.uleb128 0x3a
 6794 1803 CA080000 		.long	.LASF257
 6795 1807 01       		.byte	0x1
 6796 1808 B302     		.value	0x2b3
 6797 180a 2D       		.byte	0x2d
 6798 180b A5130000 		.long	0x13a5
 6799 180f 12040000 		.long	.LLST57
 6800 1813 0E040000 		.long	.LVUS57
 6801 1817 34       		.uleb128 0x34
 6802 1818 6200     		.string	"b"
 6803 181a 01       		.byte	0x1
 6804 181b B302     		.value	0x2b3
 6805 181d 3B       		.byte	0x3b
 6806 181e 13010000 		.long	0x113
 6807 1822 02       		.uleb128 0x2
 6808 1823 91       		.byte	0x91
 6809 1824 04       		.sleb128 4
 6810 1825 26       		.uleb128 0x26
 6811 1826 79070000 		.long	.LASF260
 6812 182a 01       		.byte	0x1
 6813 182b B402     		.value	0x2b4
 6814 182d 23       		.byte	0x23
GAS LISTING /tmp/cccyco2T.s 			page 123


 6815 182e 03050000 		.long	0x503
 6816 1832 02       		.uleb128 0x2
 6817 1833 91       		.byte	0x91
 6818 1834 08       		.sleb128 8
 6819 1835 35       		.uleb128 0x35
 6820 1836 6D736700 		.string	"msg"
 6821 183a 01       		.byte	0x1
 6822 183b B502     		.value	0x2b5
 6823 183d 09       		.byte	0x9
 6824 183e 84010000 		.long	0x184
 6825 1842 35040000 		.long	.LLST58
 6826 1846 31040000 		.long	.LVUS58
 6827 184a 2C       		.uleb128 0x2c
 6828 184b 32280000 		.long	0x2832
 6829 184f 00000000 		.long	.LBI546
 6830 1853 03       		.byte	.LVU758
 6831 1854 10040000 		.long	.Ldebug_ranges0+0x410
 6832 1858 01       		.byte	0x1
 6833 1859 B702     		.value	0x2b7
 6834 185b 03       		.byte	0x3
 6835 185c 86180000 		.long	0x1886
 6836 1860 29       		.uleb128 0x29
 6837 1861 92280000 		.long	0x2892
 6838 1865 00000000 		.long	.LBI547
 6839 1869 05       		.byte	.LVU760
 6840 186a 18040000 		.long	.Ldebug_ranges0+0x418
 6841 186e 02       		.byte	0x2
 6842 186f FF01     		.value	0x1ff
 6843 1871 03       		.byte	0x3
 6844 1872 2D       		.uleb128 0x2d
 6845 1873 C2280000 		.long	0x28c2
 6846 1877 00000000 		.long	.LBI548
 6847 187b 07       		.byte	.LVU762
 6848 187c 20040000 		.long	.Ldebug_ranges0+0x420
 6849 1880 05       		.byte	0x5
 6850 1881 6301     		.value	0x163
 6851 1883 03       		.byte	0x3
 6852 1884 00       		.byte	0
 6853 1885 00       		.byte	0
 6854 1886 2C       		.uleb128 0x2c
 6855 1887 62190000 		.long	0x1962
 6856 188b 3A000000 		.long	.LBI561
 6857 188f 01       		.byte	.LVU780
 6858 1890 40040000 		.long	.Ldebug_ranges0+0x440
 6859 1894 01       		.byte	0x1
 6860 1895 C902     		.value	0x2c9
 6861 1897 05       		.byte	0x5
 6862 1898 BC180000 		.long	0x18bc
 6863 189c 2A       		.uleb128 0x2a
 6864 189d 7D190000 		.long	0x197d
 6865 18a1 5D040000 		.long	.LLST59
 6866 18a5 53040000 		.long	.LVUS59
 6867 18a9 2A       		.uleb128 0x2a
 6868 18aa 70190000 		.long	0x1970
 6869 18ae AE040000 		.long	.LLST60
 6870 18b2 AC040000 		.long	.LVUS60
 6871 18b6 2B       		.uleb128 0x2b
GAS LISTING /tmp/cccyco2T.s 			page 124


 6872 18b7 40040000 		.long	.Ldebug_ranges0+0x440
 6873 18bb 00       		.byte	0
 6874 18bc 2C       		.uleb128 0x2c
 6875 18bd 28280000 		.long	0x2828
 6876 18c1 76000000 		.long	.LBI567
 6877 18c5 02       		.byte	.LVU811
 6878 18c6 60040000 		.long	.Ldebug_ranges0+0x460
 6879 18ca 01       		.byte	0x1
 6880 18cb CC02     		.value	0x2cc
 6881 18cd 03       		.byte	0x3
 6882 18ce 0A190000 		.long	0x190a
 6883 18d2 2E       		.uleb128 0x2e
 6884 18d3 65280000 		.long	0x2865
 6885 18d7 76000000 		.long	.LBI568
 6886 18db 04       		.byte	.LVU813
 6887 18dc 76000000 		.long	.LBB568
 6888 18e0 06000000 		.long	.LBE568-.LBB568
 6889 18e4 02       		.byte	0x2
 6890 18e5 0A02     		.value	0x20a
 6891 18e7 03       		.byte	0x3
 6892 18e8 2F       		.uleb128 0x2f
 6893 18e9 76000000 		.long	.LBB569
 6894 18ed 06000000 		.long	.LBE569-.LBB569
 6895 18f1 30       		.uleb128 0x30
 6896 18f2 B8280000 		.long	0x28b8
 6897 18f6 76000000 		.long	.LBI570
 6898 18fa 0A       		.byte	.LVU819
 6899 18fb 76000000 		.long	.LBB570
 6900 18ff 06000000 		.long	.LBE570-.LBB570
 6901 1903 05       		.byte	0x5
 6902 1904 7A01     		.value	0x17a
 6903 1906 03       		.byte	0x3
 6904 1907 00       		.byte	0
 6905 1908 00       		.byte	0
 6906 1909 00       		.byte	0
 6907 190a 2C       		.uleb128 0x2c
 6908 190b 28280000 		.long	0x2828
 6909 190f A8000000 		.long	.LBI573
 6910 1913 01       		.byte	.LVU831
 6911 1914 78040000 		.long	.Ldebug_ranges0+0x478
 6912 1918 01       		.byte	0x1
 6913 1919 BD02     		.value	0x2bd
 6914 191b 07       		.byte	0x7
 6915 191c 58190000 		.long	0x1958
 6916 1920 2E       		.uleb128 0x2e
 6917 1921 65280000 		.long	0x2865
 6918 1925 A8000000 		.long	.LBI574
 6919 1929 03       		.byte	.LVU833
 6920 192a A8000000 		.long	.LBB574
 6921 192e 06000000 		.long	.LBE574-.LBB574
 6922 1932 02       		.byte	0x2
 6923 1933 0A02     		.value	0x20a
 6924 1935 03       		.byte	0x3
 6925 1936 2F       		.uleb128 0x2f
 6926 1937 A8000000 		.long	.LBB575
 6927 193b 06000000 		.long	.LBE575-.LBB575
 6928 193f 30       		.uleb128 0x30
GAS LISTING /tmp/cccyco2T.s 			page 125


 6929 1940 B8280000 		.long	0x28b8
 6930 1944 A8000000 		.long	.LBI576
 6931 1948 09       		.byte	.LVU839
 6932 1949 A8000000 		.long	.LBB576
 6933 194d 06000000 		.long	.LBE576-.LBB576
 6934 1951 05       		.byte	0x5
 6935 1952 7A01     		.value	0x17a
 6936 1954 03       		.byte	0x3
 6937 1955 00       		.byte	0
 6938 1956 00       		.byte	0
 6939 1957 00       		.byte	0
 6940 1958 37       		.uleb128 0x37
 6941 1959 95000000 		.long	.LVL110
 6942 195d 9D1A0000 		.long	0x1a9d
 6943 1961 00       		.byte	0
 6944 1962 3B       		.uleb128 0x3b
 6945 1963 AB060000 		.long	.LASF277
 6946 1967 01       		.byte	0x1
 6947 1968 8602     		.value	0x286
 6948 196a 06       		.byte	0x6
 6949 196b 01       		.byte	0x1
 6950 196c 94190000 		.long	0x1994
 6951 1970 3C       		.uleb128 0x3c
 6952 1971 CA080000 		.long	.LASF257
 6953 1975 01       		.byte	0x1
 6954 1976 8602     		.value	0x286
 6955 1978 31       		.byte	0x31
 6956 1979 A5130000 		.long	0x13a5
 6957 197d 3C       		.uleb128 0x3c
 6958 197e 8F090000 		.long	.LASF102
 6959 1982 01       		.byte	0x1
 6960 1983 8602     		.value	0x286
 6961 1985 3E       		.byte	0x3e
 6962 1986 25000000 		.long	0x25
 6963 198a 36       		.uleb128 0x36
 6964 198b E6000000 		.long	.LASF264
 6965 198f A4190000 		.long	0x19a4
 6966 1993 00       		.byte	0
 6967 1994 13       		.uleb128 0x13
 6968 1995 62000000 		.long	0x62
 6969 1999 A4190000 		.long	0x19a4
 6970 199d 14       		.uleb128 0x14
 6971 199e 36000000 		.long	0x36
 6972 19a2 12       		.byte	0x12
 6973 19a3 00       		.byte	0
 6974 19a4 07       		.uleb128 0x7
 6975 19a5 94190000 		.long	0x1994
 6976 19a9 25       		.uleb128 0x25
 6977 19aa 79020000 		.long	.LASF266
 6978 19ae 01       		.byte	0x1
 6979 19af 7602     		.value	0x276
 6980 19b1 06       		.byte	0x6
 6981 19b2 00000000 		.long	.LFB249
 6982 19b6 64000000 		.long	.LFE249-.LFB249
 6983 19ba 01       		.uleb128 0x1
 6984 19bb 9C       		.byte	0x9c
 6985 19bc 9D1A0000 		.long	0x1a9d
GAS LISTING /tmp/cccyco2T.s 			page 126


 6986 19c0 26       		.uleb128 0x26
 6987 19c1 CA080000 		.long	.LASF257
 6988 19c5 01       		.byte	0x1
 6989 19c6 7602     		.value	0x276
 6990 19c8 30       		.byte	0x30
 6991 19c9 A5130000 		.long	0x13a5
 6992 19cd 02       		.uleb128 0x2
 6993 19ce 91       		.byte	0x91
 6994 19cf 00       		.sleb128 0
 6995 19d0 26       		.uleb128 0x26
 6996 19d1 8F090000 		.long	.LASF102
 6997 19d5 01       		.byte	0x1
 6998 19d6 7602     		.value	0x276
 6999 19d8 3D       		.byte	0x3d
 7000 19d9 25000000 		.long	0x25
 7001 19dd 02       		.uleb128 0x2
 7002 19de 91       		.byte	0x91
 7003 19df 04       		.sleb128 4
 7004 19e0 2C       		.uleb128 0x2c
 7005 19e1 32280000 		.long	0x2832
 7006 19e5 00000000 		.long	.LBI519
 7007 19e9 02       		.byte	.LVU670
 7008 19ea A8030000 		.long	.Ldebug_ranges0+0x3a8
 7009 19ee 01       		.byte	0x1
 7010 19ef 7802     		.value	0x278
 7011 19f1 03       		.byte	0x3
 7012 19f2 1C1A0000 		.long	0x1a1c
 7013 19f6 29       		.uleb128 0x29
 7014 19f7 92280000 		.long	0x2892
 7015 19fb 00000000 		.long	.LBI520
 7016 19ff 04       		.byte	.LVU672
 7017 1a00 B0030000 		.long	.Ldebug_ranges0+0x3b0
 7018 1a04 02       		.byte	0x2
 7019 1a05 FF01     		.value	0x1ff
 7020 1a07 03       		.byte	0x3
 7021 1a08 2D       		.uleb128 0x2d
 7022 1a09 C2280000 		.long	0x28c2
 7023 1a0d 00000000 		.long	.LBI521
 7024 1a11 06       		.byte	.LVU674
 7025 1a12 B8030000 		.long	.Ldebug_ranges0+0x3b8
 7026 1a16 05       		.byte	0x5
 7027 1a17 6301     		.value	0x163
 7028 1a19 03       		.byte	0x3
 7029 1a1a 00       		.byte	0
 7030 1a1b 00       		.byte	0
 7031 1a1c 2C       		.uleb128 0x2c
 7032 1a1d 62190000 		.long	0x1962
 7033 1a21 26000000 		.long	.LBI532
 7034 1a25 03       		.byte	.LVU685
 7035 1a26 D8030000 		.long	.Ldebug_ranges0+0x3d8
 7036 1a2a 01       		.byte	0x1
 7037 1a2b 7902     		.value	0x279
 7038 1a2d 03       		.byte	0x3
 7039 1a2e 521A0000 		.long	0x1a52
 7040 1a32 2A       		.uleb128 0x2a
 7041 1a33 7D190000 		.long	0x197d
 7042 1a37 C6040000 		.long	.LLST54
GAS LISTING /tmp/cccyco2T.s 			page 127


 7043 1a3b C2040000 		.long	.LVUS54
 7044 1a3f 2A       		.uleb128 0x2a
 7045 1a40 70190000 		.long	0x1970
 7046 1a44 E9040000 		.long	.LLST55
 7047 1a48 E5040000 		.long	.LVUS55
 7048 1a4c 2B       		.uleb128 0x2b
 7049 1a4d D8030000 		.long	.Ldebug_ranges0+0x3d8
 7050 1a51 00       		.byte	0
 7051 1a52 29       		.uleb128 0x29
 7052 1a53 28280000 		.long	0x2828
 7053 1a57 59000000 		.long	.LBI540
 7054 1a5b 02       		.byte	.LVU713
 7055 1a5c F8030000 		.long	.Ldebug_ranges0+0x3f8
 7056 1a60 01       		.byte	0x1
 7057 1a61 7A02     		.value	0x27a
 7058 1a63 03       		.byte	0x3
 7059 1a64 2E       		.uleb128 0x2e
 7060 1a65 65280000 		.long	0x2865
 7061 1a69 59000000 		.long	.LBI541
 7062 1a6d 04       		.byte	.LVU715
 7063 1a6e 59000000 		.long	.LBB541
 7064 1a72 06000000 		.long	.LBE541-.LBB541
 7065 1a76 02       		.byte	0x2
 7066 1a77 0A02     		.value	0x20a
 7067 1a79 03       		.byte	0x3
 7068 1a7a 2F       		.uleb128 0x2f
 7069 1a7b 59000000 		.long	.LBB542
 7070 1a7f 06000000 		.long	.LBE542-.LBB542
 7071 1a83 30       		.uleb128 0x30
 7072 1a84 B8280000 		.long	0x28b8
 7073 1a88 59000000 		.long	.LBI543
 7074 1a8c 0A       		.byte	.LVU721
 7075 1a8d 59000000 		.long	.LBB543
 7076 1a91 06000000 		.long	.LBE543-.LBB543
 7077 1a95 05       		.byte	0x5
 7078 1a96 7A01     		.value	0x17a
 7079 1a98 03       		.byte	0x3
 7080 1a99 00       		.byte	0
 7081 1a9a 00       		.byte	0
 7082 1a9b 00       		.byte	0
 7083 1a9c 00       		.byte	0
 7084 1a9d 3D       		.uleb128 0x3d
 7085 1a9e 62040000 		.long	.LASF280
 7086 1aa2 01       		.byte	0x1
 7087 1aa3 5502     		.value	0x255
 7088 1aa5 07       		.byte	0x7
 7089 1aa6 84010000 		.long	0x184
 7090 1aaa 01       		.byte	0x1
 7091 1aab E21A0000 		.long	0x1ae2
 7092 1aaf 3C       		.uleb128 0x3c
 7093 1ab0 CA080000 		.long	.LASF257
 7094 1ab4 01       		.byte	0x1
 7095 1ab5 5502     		.value	0x255
 7096 1ab7 39       		.byte	0x39
 7097 1ab8 A5130000 		.long	0x13a5
 7098 1abc 3C       		.uleb128 0x3c
 7099 1abd 79070000 		.long	.LASF260
GAS LISTING /tmp/cccyco2T.s 			page 128


 7100 1ac1 01       		.byte	0x1
 7101 1ac2 5602     		.value	0x256
 7102 1ac4 2F       		.byte	0x2f
 7103 1ac5 03050000 		.long	0x503
 7104 1ac9 36       		.uleb128 0x36
 7105 1aca E6000000 		.long	.LASF264
 7106 1ace F21A0000 		.long	0x1af2
 7107 1ad2 3E       		.uleb128 0x3e
 7108 1ad3 3F       		.uleb128 0x3f
 7109 1ad4 6D736700 		.string	"msg"
 7110 1ad8 01       		.byte	0x1
 7111 1ad9 5E02     		.value	0x25e
 7112 1adb 0B       		.byte	0xb
 7113 1adc 84010000 		.long	0x184
 7114 1ae0 00       		.byte	0
 7115 1ae1 00       		.byte	0
 7116 1ae2 13       		.uleb128 0x13
 7117 1ae3 62000000 		.long	0x62
 7118 1ae7 F21A0000 		.long	0x1af2
 7119 1aeb 14       		.uleb128 0x14
 7120 1aec 36000000 		.long	0x36
 7121 1af0 19       		.byte	0x19
 7122 1af1 00       		.byte	0
 7123 1af2 07       		.uleb128 0x7
 7124 1af3 E21A0000 		.long	0x1ae2
 7125 1af7 31       		.uleb128 0x31
 7126 1af8 24080000 		.long	.LASF267
 7127 1afc 01       		.byte	0x1
 7128 1afd 3502     		.value	0x235
 7129 1aff 07       		.byte	0x7
 7130 1b00 84010000 		.long	0x184
 7131 1b04 00000000 		.long	.LFB247
 7132 1b08 32000000 		.long	.LFE247-.LFB247
 7133 1b0c 01       		.uleb128 0x1
 7134 1b0d 9C       		.byte	0x9c
 7135 1b0e DB1B0000 		.long	0x1bdb
 7136 1b12 26       		.uleb128 0x26
 7137 1b13 CA080000 		.long	.LASF257
 7138 1b17 01       		.byte	0x1
 7139 1b18 3502     		.value	0x235
 7140 1b1a 38       		.byte	0x38
 7141 1b1b A5130000 		.long	0x13a5
 7142 1b1f 02       		.uleb128 0x2
 7143 1b20 91       		.byte	0x91
 7144 1b21 00       		.sleb128 0
 7145 1b22 26       		.uleb128 0x26
 7146 1b23 79070000 		.long	.LASF260
 7147 1b27 01       		.byte	0x1
 7148 1b28 3602     		.value	0x236
 7149 1b2a 2F       		.byte	0x2f
 7150 1b2b 03050000 		.long	0x503
 7151 1b2f 02       		.uleb128 0x2
 7152 1b30 91       		.byte	0x91
 7153 1b31 04       		.sleb128 4
 7154 1b32 35       		.uleb128 0x35
 7155 1b33 6D736700 		.string	"msg"
 7156 1b37 01       		.byte	0x1
GAS LISTING /tmp/cccyco2T.s 			page 129


 7157 1b38 3702     		.value	0x237
 7158 1b3a 09       		.byte	0x9
 7159 1b3b 84010000 		.long	0x184
 7160 1b3f 0A050000 		.long	.LLST53
 7161 1b43 08050000 		.long	.LVUS53
 7162 1b47 2C       		.uleb128 0x2c
 7163 1b48 32280000 		.long	0x2832
 7164 1b4c 00000000 		.long	.LBI502
 7165 1b50 03       		.byte	.LVU641
 7166 1b51 68030000 		.long	.Ldebug_ranges0+0x368
 7167 1b55 01       		.byte	0x1
 7168 1b56 3902     		.value	0x239
 7169 1b58 03       		.byte	0x3
 7170 1b59 831B0000 		.long	0x1b83
 7171 1b5d 29       		.uleb128 0x29
 7172 1b5e 92280000 		.long	0x2892
 7173 1b62 00000000 		.long	.LBI503
 7174 1b66 05       		.byte	.LVU643
 7175 1b67 70030000 		.long	.Ldebug_ranges0+0x370
 7176 1b6b 02       		.byte	0x2
 7177 1b6c FF01     		.value	0x1ff
 7178 1b6e 03       		.byte	0x3
 7179 1b6f 2D       		.uleb128 0x2d
 7180 1b70 C2280000 		.long	0x28c2
 7181 1b74 00000000 		.long	.LBI504
 7182 1b78 07       		.byte	.LVU645
 7183 1b79 78030000 		.long	.Ldebug_ranges0+0x378
 7184 1b7d 05       		.byte	0x5
 7185 1b7e 6301     		.value	0x163
 7186 1b80 03       		.byte	0x3
 7187 1b81 00       		.byte	0
 7188 1b82 00       		.byte	0
 7189 1b83 2C       		.uleb128 0x2c
 7190 1b84 28280000 		.long	0x2828
 7191 1b88 27000000 		.long	.LBI513
 7192 1b8c 01       		.byte	.LVU655
 7193 1b8d 90030000 		.long	.Ldebug_ranges0+0x390
 7194 1b91 01       		.byte	0x1
 7195 1b92 3B02     		.value	0x23b
 7196 1b94 03       		.byte	0x3
 7197 1b95 D11B0000 		.long	0x1bd1
 7198 1b99 2E       		.uleb128 0x2e
 7199 1b9a 65280000 		.long	0x2865
 7200 1b9e 27000000 		.long	.LBI514
 7201 1ba2 03       		.byte	.LVU657
 7202 1ba3 27000000 		.long	.LBB514
 7203 1ba7 06000000 		.long	.LBE514-.LBB514
 7204 1bab 02       		.byte	0x2
 7205 1bac 0A02     		.value	0x20a
 7206 1bae 03       		.byte	0x3
 7207 1baf 2F       		.uleb128 0x2f
 7208 1bb0 27000000 		.long	.LBB515
 7209 1bb4 06000000 		.long	.LBE515-.LBB515
 7210 1bb8 30       		.uleb128 0x30
 7211 1bb9 B8280000 		.long	0x28b8
 7212 1bbd 27000000 		.long	.LBI516
 7213 1bc1 09       		.byte	.LVU663
GAS LISTING /tmp/cccyco2T.s 			page 130


 7214 1bc2 27000000 		.long	.LBB516
 7215 1bc6 06000000 		.long	.LBE516-.LBB516
 7216 1bca 05       		.byte	0x5
 7217 1bcb 7A01     		.value	0x17a
 7218 1bcd 03       		.byte	0x3
 7219 1bce 00       		.byte	0
 7220 1bcf 00       		.byte	0
 7221 1bd0 00       		.byte	0
 7222 1bd1 37       		.uleb128 0x37
 7223 1bd2 27000000 		.long	.LVL92
 7224 1bd6 9D1A0000 		.long	0x1a9d
 7225 1bda 00       		.byte	0
 7226 1bdb 40       		.uleb128 0x40
 7227 1bdc DB050000 		.long	.LASF268
 7228 1be0 01       		.byte	0x1
 7229 1be1 1002     		.value	0x210
 7230 1be3 06       		.byte	0x6
 7231 1be4 00000000 		.long	.LFB246
 7232 1be8 40000000 		.long	.LFE246-.LFB246
 7233 1bec 01       		.uleb128 0x1
 7234 1bed 9C       		.byte	0x9c
 7235 1bee 461C0000 		.long	0x1c46
 7236 1bf2 26       		.uleb128 0x26
 7237 1bf3 CA080000 		.long	.LASF257
 7238 1bf7 01       		.byte	0x1
 7239 1bf8 1002     		.value	0x210
 7240 1bfa 35       		.byte	0x35
 7241 1bfb A5130000 		.long	0x13a5
 7242 1bff 02       		.uleb128 0x2
 7243 1c00 91       		.byte	0x91
 7244 1c01 00       		.sleb128 0
 7245 1c02 36       		.uleb128 0x36
 7246 1c03 E6000000 		.long	.LASF264
 7247 1c07 561C0000 		.long	0x1c56
 7248 1c0b 2E       		.uleb128 0x2e
 7249 1c0c 4E270000 		.long	0x274e
 7250 1c10 30000000 		.long	.LBI486
 7251 1c14 01       		.byte	.LVU600
 7252 1c15 30000000 		.long	.LBB486
 7253 1c19 0B000000 		.long	.LBE486-.LBB486
 7254 1c1d 01       		.byte	0x1
 7255 1c1e 1D02     		.value	0x21d
 7256 1c20 03       		.byte	0x3
 7257 1c21 2A       		.uleb128 0x2a
 7258 1c22 69270000 		.long	0x2769
 7259 1c26 1F050000 		.long	.LLST46
 7260 1c2a 1D050000 		.long	.LVUS46
 7261 1c2e 2A       		.uleb128 0x2a
 7262 1c2f 5C270000 		.long	0x275c
 7263 1c33 37050000 		.long	.LLST47
 7264 1c37 33050000 		.long	.LVUS47
 7265 1c3b 37       		.uleb128 0x37
 7266 1c3c 3B000000 		.long	.LVL84
 7267 1c40 372B0000 		.long	0x2b37
 7268 1c44 00       		.byte	0
 7269 1c45 00       		.byte	0
 7270 1c46 13       		.uleb128 0x13
GAS LISTING /tmp/cccyco2T.s 			page 131


 7271 1c47 62000000 		.long	0x62
 7272 1c4b 561C0000 		.long	0x1c56
 7273 1c4f 14       		.uleb128 0x14
 7274 1c50 36000000 		.long	0x36
 7275 1c54 16       		.byte	0x16
 7276 1c55 00       		.byte	0
 7277 1c56 07       		.uleb128 0x7
 7278 1c57 461C0000 		.long	0x1c46
 7279 1c5b 31       		.uleb128 0x31
 7280 1c5c 9D070000 		.long	.LASF269
 7281 1c60 01       		.byte	0x1
 7282 1c61 FA01     		.value	0x1fa
 7283 1c63 0A       		.byte	0xa
 7284 1c64 10090000 		.long	0x910
 7285 1c68 00000000 		.long	.LFB245
 7286 1c6c 2A000000 		.long	.LFE245-.LFB245
 7287 1c70 01       		.uleb128 0x1
 7288 1c71 9C       		.byte	0x9c
 7289 1c72 9C1C0000 		.long	0x1c9c
 7290 1c76 3A       		.uleb128 0x3a
 7291 1c77 CA080000 		.long	.LASF257
 7292 1c7b 01       		.byte	0x1
 7293 1c7c FA01     		.value	0x1fa
 7294 1c7e 34       		.byte	0x34
 7295 1c7f A5130000 		.long	0x13a5
 7296 1c83 5C050000 		.long	.LLST45
 7297 1c87 56050000 		.long	.LVUS45
 7298 1c8b 26       		.uleb128 0x26
 7299 1c8c 13010000 		.long	.LASF270
 7300 1c90 01       		.byte	0x1
 7301 1c91 FB01     		.value	0x1fb
 7302 1c93 24       		.byte	0x24
 7303 1c94 9C1C0000 		.long	0x1c9c
 7304 1c98 02       		.uleb128 0x2
 7305 1c99 91       		.byte	0x91
 7306 1c9a 04       		.sleb128 4
 7307 1c9b 00       		.byte	0
 7308 1c9c 06       		.uleb128 0x6
 7309 1c9d 04       		.byte	0x4
 7310 1c9e 25000000 		.long	0x25
 7311 1ca2 40       		.uleb128 0x40
 7312 1ca3 FC070000 		.long	.LASF271
 7313 1ca7 01       		.byte	0x1
 7314 1ca8 E301     		.value	0x1e3
 7315 1caa 06       		.byte	0x6
 7316 1cab 00000000 		.long	.LFB244
 7317 1caf 3D000000 		.long	.LFE244-.LFB244
 7318 1cb3 01       		.uleb128 0x1
 7319 1cb4 9C       		.byte	0x9c
 7320 1cb5 041D0000 		.long	0x1d04
 7321 1cb9 26       		.uleb128 0x26
 7322 1cba CA080000 		.long	.LASF257
 7323 1cbe 01       		.byte	0x1
 7324 1cbf E301     		.value	0x1e3
 7325 1cc1 28       		.byte	0x28
 7326 1cc2 A5130000 		.long	0x13a5
 7327 1cc6 02       		.uleb128 0x2
GAS LISTING /tmp/cccyco2T.s 			page 132


 7328 1cc7 91       		.byte	0x91
 7329 1cc8 00       		.sleb128 0
 7330 1cc9 2E       		.uleb128 0x2e
 7331 1cca 1F270000 		.long	0x271f
 7332 1cce 30000000 		.long	.LBI484
 7333 1cd2 03       		.byte	.LVU565
 7334 1cd3 30000000 		.long	.LBB484
 7335 1cd7 08000000 		.long	.LBE484-.LBB484
 7336 1cdb 01       		.byte	0x1
 7337 1cdc EC01     		.value	0x1ec
 7338 1cde 03       		.byte	0x3
 7339 1cdf 2A       		.uleb128 0x2a
 7340 1ce0 3A270000 		.long	0x273a
 7341 1ce4 89050000 		.long	.LLST43
 7342 1ce8 87050000 		.long	.LVUS43
 7343 1cec 2A       		.uleb128 0x2a
 7344 1ced 2D270000 		.long	0x272d
 7345 1cf1 A2050000 		.long	.LLST44
 7346 1cf5 9E050000 		.long	.LVUS44
 7347 1cf9 37       		.uleb128 0x37
 7348 1cfa 38000000 		.long	.LVL78
 7349 1cfe 432B0000 		.long	0x2b43
 7350 1d02 00       		.byte	0
 7351 1d03 00       		.byte	0
 7352 1d04 40       		.uleb128 0x40
 7353 1d05 260E0000 		.long	.LASF272
 7354 1d09 01       		.byte	0x1
 7355 1d0a C401     		.value	0x1c4
 7356 1d0c 06       		.byte	0x6
 7357 1d0d 00000000 		.long	.LFB243
 7358 1d11 5C000000 		.long	.LFE243-.LFB243
 7359 1d15 01       		.uleb128 0x1
 7360 1d16 9C       		.byte	0x9c
 7361 1d17 F21D0000 		.long	0x1df2
 7362 1d1b 26       		.uleb128 0x26
 7363 1d1c CA080000 		.long	.LASF257
 7364 1d20 01       		.byte	0x1
 7365 1d21 C401     		.value	0x1c4
 7366 1d23 2C       		.byte	0x2c
 7367 1d24 A5130000 		.long	0x13a5
 7368 1d28 02       		.uleb128 0x2
 7369 1d29 91       		.byte	0x91
 7370 1d2a 00       		.sleb128 0
 7371 1d2b 26       		.uleb128 0x26
 7372 1d2c 740B0000 		.long	.LASF205
 7373 1d30 01       		.byte	0x1
 7374 1d31 C401     		.value	0x1c4
 7375 1d33 37       		.byte	0x37
 7376 1d34 C9050000 		.long	0x5c9
 7377 1d38 02       		.uleb128 0x2
 7378 1d39 91       		.byte	0x91
 7379 1d3a 04       		.sleb128 4
 7380 1d3b 34       		.uleb128 0x34
 7381 1d3c 627000   		.string	"bp"
 7382 1d3f 01       		.byte	0x1
 7383 1d40 C401     		.value	0x1c4
 7384 1d42 4B       		.byte	0x4b
GAS LISTING /tmp/cccyco2T.s 			page 133


 7385 1d43 10090000 		.long	0x910
 7386 1d47 02       		.uleb128 0x2
 7387 1d48 91       		.byte	0x91
 7388 1d49 08       		.sleb128 8
 7389 1d4a 26       		.uleb128 0x26
 7390 1d4b 8F090000 		.long	.LASF102
 7391 1d4f 01       		.byte	0x1
 7392 1d50 C501     		.value	0x1c5
 7393 1d52 1B       		.byte	0x1b
 7394 1d53 25000000 		.long	0x25
 7395 1d57 02       		.uleb128 0x2
 7396 1d58 91       		.byte	0x91
 7397 1d59 0C       		.sleb128 12
 7398 1d5a 34       		.uleb128 0x34
 7399 1d5b 6E00     		.string	"n"
 7400 1d5d 01       		.byte	0x1
 7401 1d5e C501     		.value	0x1c5
 7402 1d60 28       		.byte	0x28
 7403 1d61 25000000 		.long	0x25
 7404 1d65 02       		.uleb128 0x2
 7405 1d66 91       		.byte	0x91
 7406 1d67 10       		.sleb128 16
 7407 1d68 26       		.uleb128 0x26
 7408 1d69 F8090000 		.long	.LASF273
 7409 1d6d 01       		.byte	0x1
 7410 1d6e C501     		.value	0x1c5
 7411 1d70 36       		.byte	0x36
 7412 1d71 8E0F0000 		.long	0xf8e
 7413 1d75 02       		.uleb128 0x2
 7414 1d76 91       		.byte	0x91
 7415 1d77 14       		.sleb128 20
 7416 1d78 26       		.uleb128 0x26
 7417 1d79 77050000 		.long	.LASF213
 7418 1d7d 01       		.byte	0x1
 7419 1d7e C501     		.value	0x1c5
 7420 1d80 42       		.byte	0x42
 7421 1d81 FA000000 		.long	0xfa
 7422 1d85 02       		.uleb128 0x2
 7423 1d86 91       		.byte	0x91
 7424 1d87 18       		.sleb128 24
 7425 1d88 36       		.uleb128 0x36
 7426 1d89 E6000000 		.long	.LASF264
 7427 1d8d 021E0000 		.long	0x1e02
 7428 1d91 29       		.uleb128 0x29
 7429 1d92 A4270000 		.long	0x27a4
 7430 1d96 06000000 		.long	.LBI469
 7431 1d9a 00       		.byte	.LVU504
 7432 1d9b 20030000 		.long	.Ldebug_ranges0+0x320
 7433 1d9f 01       		.byte	0x1
 7434 1da0 C901     		.value	0x1c9
 7435 1da2 03       		.byte	0x3
 7436 1da3 2A       		.uleb128 0x2a
 7437 1da4 B2270000 		.long	0x27b2
 7438 1da8 C3050000 		.long	.LLST40
 7439 1dac C1050000 		.long	.LVUS40
 7440 1db0 29       		.uleb128 0x29
 7441 1db1 3C280000 		.long	0x283c
GAS LISTING /tmp/cccyco2T.s 			page 134


 7442 1db5 06000000 		.long	.LBI470
 7443 1db9 02       		.byte	.LVU506
 7444 1dba 28030000 		.long	.Ldebug_ranges0+0x328
 7445 1dbe 02       		.byte	0x2
 7446 1dbf 2203     		.value	0x322
 7447 1dc1 03       		.byte	0x3
 7448 1dc2 2A       		.uleb128 0x2a
 7449 1dc3 4A280000 		.long	0x284a
 7450 1dc7 D9050000 		.long	.LLST41
 7451 1dcb D7050000 		.long	.LVUS41
 7452 1dcf 29       		.uleb128 0x29
 7453 1dd0 9C280000 		.long	0x289c
 7454 1dd4 06000000 		.long	.LBI471
 7455 1dd8 04       		.byte	.LVU508
 7456 1dd9 30030000 		.long	.Ldebug_ranges0+0x330
 7457 1ddd 03       		.byte	0x3
 7458 1dde 8A01     		.value	0x18a
 7459 1de0 03       		.byte	0x3
 7460 1de1 2A       		.uleb128 0x2a
 7461 1de2 AA280000 		.long	0x28aa
 7462 1de6 EF050000 		.long	.LLST42
 7463 1dea ED050000 		.long	.LVUS42
 7464 1dee 00       		.byte	0
 7465 1def 00       		.byte	0
 7466 1df0 00       		.byte	0
 7467 1df1 00       		.byte	0
 7468 1df2 13       		.uleb128 0x13
 7469 1df3 62000000 		.long	0x62
 7470 1df7 021E0000 		.long	0x1e02
 7471 1dfb 14       		.uleb128 0x14
 7472 1dfc 36000000 		.long	0x36
 7473 1e00 0D       		.byte	0xd
 7474 1e01 00       		.byte	0
 7475 1e02 07       		.uleb128 0x7
 7476 1e03 F21D0000 		.long	0x1df2
 7477 1e07 32       		.uleb128 0x32
 7478 1e08 BF030000 		.long	.LASF274
 7479 1e0c 01       		.byte	0x1
 7480 1e0d 6601     		.value	0x166
 7481 1e0f 08       		.byte	0x8
 7482 1e10 25000000 		.long	0x25
 7483 1e14 00000000 		.long	.LFB242
 7484 1e18 F0010000 		.long	.LFE242-.LFB242
 7485 1e1c 01       		.uleb128 0x1
 7486 1e1d 9C       		.byte	0x9c
 7487 1e1e DE210000 		.long	0x21de
 7488 1e22 26       		.uleb128 0x26
 7489 1e23 78080000 		.long	.LASF275
 7490 1e27 01       		.byte	0x1
 7491 1e28 6601     		.value	0x166
 7492 1e2a 2E       		.byte	0x2e
 7493 1e2b DE210000 		.long	0x21de
 7494 1e2f 02       		.uleb128 0x2
 7495 1e30 91       		.byte	0x91
 7496 1e31 00       		.sleb128 0
 7497 1e32 33       		.uleb128 0x33
 7498 1e33 627000   		.string	"bp"
GAS LISTING /tmp/cccyco2T.s 			page 135


 7499 1e36 01       		.byte	0x1
 7500 1e37 6601     		.value	0x166
 7501 1e39 3D       		.byte	0x3d
 7502 1e3a 10090000 		.long	0x910
 7503 1e3e 0D060000 		.long	.LLST19
 7504 1e42 03060000 		.long	.LVUS19
 7505 1e46 34       		.uleb128 0x34
 7506 1e47 6E00     		.string	"n"
 7507 1e49 01       		.byte	0x1
 7508 1e4a 6701     		.value	0x167
 7509 1e4c 1E       		.byte	0x1e
 7510 1e4d 25000000 		.long	0x25
 7511 1e51 02       		.uleb128 0x2
 7512 1e52 91       		.byte	0x91
 7513 1e53 08       		.sleb128 8
 7514 1e54 26       		.uleb128 0x26
 7515 1e55 79070000 		.long	.LASF260
 7516 1e59 01       		.byte	0x1
 7517 1e5a 6701     		.value	0x167
 7518 1e5c 2F       		.byte	0x2f
 7519 1e5d 03050000 		.long	0x503
 7520 1e61 02       		.uleb128 0x2
 7521 1e62 91       		.byte	0x91
 7522 1e63 0C       		.sleb128 12
 7523 1e64 35       		.uleb128 0x35
 7524 1e65 7200     		.string	"r"
 7525 1e67 01       		.byte	0x1
 7526 1e68 6801     		.value	0x168
 7527 1e6a 0A       		.byte	0xa
 7528 1e6b 25000000 		.long	0x25
 7529 1e6f 5F060000 		.long	.LLST20
 7530 1e73 4F060000 		.long	.LVUS20
 7531 1e77 28       		.uleb128 0x28
 7532 1e78 FF050000 		.long	.LASF261
 7533 1e7c 01       		.byte	0x1
 7534 1e7d 6901     		.value	0x169
 7535 1e7f 0D       		.byte	0xd
 7536 1e80 F2040000 		.long	0x4f2
 7537 1e84 C6060000 		.long	.LLST21
 7538 1e88 C2060000 		.long	.LVUS21
 7539 1e8c 36       		.uleb128 0x36
 7540 1e8d E6000000 		.long	.LASF264
 7541 1e91 F4210000 		.long	0x21f4
 7542 1e95 27       		.uleb128 0x27
 7543 1e96 B0010000 		.long	.Ldebug_ranges0+0x1b0
 7544 1e9a 11210000 		.long	0x2111
 7545 1e9e 28       		.uleb128 0x28
 7546 1e9f 8F090000 		.long	.LASF102
 7547 1ea3 01       		.byte	0x1
 7548 1ea4 7301     		.value	0x173
 7549 1ea6 0C       		.byte	0xc
 7550 1ea7 25000000 		.long	0x25
 7551 1eab ED060000 		.long	.LLST26
 7552 1eaf E5060000 		.long	.LVUS26
 7553 1eb3 27       		.uleb128 0x27
 7554 1eb4 00020000 		.long	.Ldebug_ranges0+0x200
 7555 1eb8 D81F0000 		.long	0x1fd8
GAS LISTING /tmp/cccyco2T.s 			page 136


 7556 1ebc 35       		.uleb128 0x35
 7557 1ebd 6D736700 		.string	"msg"
 7558 1ec1 01       		.byte	0x1
 7559 1ec2 7701     		.value	0x177
 7560 1ec4 0D       		.byte	0xd
 7561 1ec5 84010000 		.long	0x184
 7562 1ec9 44070000 		.long	.LLST27
 7563 1ecd 40070000 		.long	.LVUS27
 7564 1ed1 27       		.uleb128 0x27
 7565 1ed2 30020000 		.long	.Ldebug_ranges0+0x230
 7566 1ed6 801F0000 		.long	0x1f80
 7567 1eda 28       		.uleb128 0x28
 7568 1edb 70060000 		.long	.LASF262
 7569 1edf 01       		.byte	0x1
 7570 1ee0 7F01     		.value	0x17f
 7571 1ee2 17       		.byte	0x17
 7572 1ee3 03050000 		.long	0x503
 7573 1ee7 64070000 		.long	.LLST28
 7574 1eeb 62070000 		.long	.LVUS28
 7575 1eef 2C       		.uleb128 0x2c
 7576 1ef0 1A280000 		.long	0x281a
 7577 1ef4 77010000 		.long	.LBI404
 7578 1ef8 01       		.byte	.LVU448
 7579 1ef9 50020000 		.long	.Ldebug_ranges0+0x250
 7580 1efd 01       		.byte	0x1
 7581 1efe 7F01     		.value	0x17f
 7582 1f00 34       		.byte	0x34
 7583 1f01 181F0000 		.long	0x1f18
 7584 1f05 2D       		.uleb128 0x2d
 7585 1f06 58280000 		.long	0x2858
 7586 1f0a 77010000 		.long	.LBI405
 7587 1f0e 03       		.byte	.LVU450
 7588 1f0f 58020000 		.long	.Ldebug_ranges0+0x258
 7589 1f13 02       		.byte	0x2
 7590 1f14 7C02     		.value	0x27c
 7591 1f16 0A       		.byte	0xa
 7592 1f17 00       		.byte	0
 7593 1f18 2C       		.uleb128 0x2c
 7594 1f19 C0270000 		.long	0x27c0
 7595 1f1d 84010000 		.long	.LBI410
 7596 1f21 01       		.byte	.LVU456
 7597 1f22 70020000 		.long	.Ldebug_ranges0+0x270
 7598 1f26 01       		.byte	0x1
 7599 1f27 7F01     		.value	0x17f
 7600 1f29 26       		.byte	0x26
 7601 1f2a 761F0000 		.long	0x1f76
 7602 1f2e 2A       		.uleb128 0x2a
 7603 1f2f DF270000 		.long	0x27df
 7604 1f33 7B070000 		.long	.LLST29
 7605 1f37 77070000 		.long	.LVUS29
 7606 1f3b 2A       		.uleb128 0x2a
 7607 1f3c D2270000 		.long	0x27d2
 7608 1f40 9C070000 		.long	.LLST30
 7609 1f44 9A070000 		.long	.LVUS30
 7610 1f48 29       		.uleb128 0x29
 7611 1f49 CC280000 		.long	0x28cc
 7612 1f4d 84010000 		.long	.LBI411
GAS LISTING /tmp/cccyco2T.s 			page 137


 7613 1f51 03       		.byte	.LVU458
 7614 1f52 90020000 		.long	.Ldebug_ranges0+0x290
 7615 1f56 02       		.byte	0x2
 7616 1f57 9902     		.value	0x299
 7617 1f59 0A       		.byte	0xa
 7618 1f5a 2A       		.uleb128 0x2a
 7619 1f5b EB280000 		.long	0x28eb
 7620 1f5f B3070000 		.long	.LLST31
 7621 1f63 AF070000 		.long	.LVUS31
 7622 1f67 2A       		.uleb128 0x2a
 7623 1f68 DE280000 		.long	0x28de
 7624 1f6c D4070000 		.long	.LLST32
 7625 1f70 D2070000 		.long	.LVUS32
 7626 1f74 00       		.byte	0
 7627 1f75 00       		.byte	0
 7628 1f76 37       		.uleb128 0x37
 7629 1f77 99010000 		.long	.LVL64
 7630 1f7b 01240000 		.long	0x2401
 7631 1f7f 00       		.byte	0
 7632 1f80 2C       		.uleb128 0x2c
 7633 1f81 28280000 		.long	0x2828
 7634 1f85 C4010000 		.long	.LBI420
 7635 1f89 01       		.byte	.LVU479
 7636 1f8a A8020000 		.long	.Ldebug_ranges0+0x2a8
 7637 1f8e 01       		.byte	0x1
 7638 1f8f 8E01     		.value	0x18e
 7639 1f91 09       		.byte	0x9
 7640 1f92 CE1F0000 		.long	0x1fce
 7641 1f96 2E       		.uleb128 0x2e
 7642 1f97 65280000 		.long	0x2865
 7643 1f9b C4010000 		.long	.LBI421
 7644 1f9f 03       		.byte	.LVU481
 7645 1fa0 C4010000 		.long	.LBB421
 7646 1fa4 0A000000 		.long	.LBE421-.LBB421
 7647 1fa8 02       		.byte	0x2
 7648 1fa9 0A02     		.value	0x20a
 7649 1fab 03       		.byte	0x3
 7650 1fac 2F       		.uleb128 0x2f
 7651 1fad C4010000 		.long	.LBB422
 7652 1fb1 0A000000 		.long	.LBE422-.LBB422
 7653 1fb5 30       		.uleb128 0x30
 7654 1fb6 B8280000 		.long	0x28b8
 7655 1fba C4010000 		.long	.LBI423
 7656 1fbe 09       		.byte	.LVU487
 7657 1fbf C4010000 		.long	.LBB423
 7658 1fc3 0A000000 		.long	.LBE423-.LBB423
 7659 1fc7 05       		.byte	0x5
 7660 1fc8 7A01     		.value	0x17a
 7661 1fca 03       		.byte	0x3
 7662 1fcb 00       		.byte	0
 7663 1fcc 00       		.byte	0
 7664 1fcd 00       		.byte	0
 7665 1fce 37       		.uleb128 0x37
 7666 1fcf BD010000 		.long	.LVL66
 7667 1fd3 01240000 		.long	0x2401
 7668 1fd7 00       		.byte	0
 7669 1fd8 2C       		.uleb128 0x2c
GAS LISTING /tmp/cccyco2T.s 			page 138


 7670 1fd9 44290000 		.long	0x2944
 7671 1fdd 60000000 		.long	.LBI426
 7672 1fe1 02       		.byte	.LVU354
 7673 1fe2 C0020000 		.long	.Ldebug_ranges0+0x2c0
 7674 1fe6 01       		.byte	0x1
 7675 1fe7 9D01     		.value	0x19d
 7676 1fe9 07       		.byte	0x7
 7677 1fea 16200000 		.long	0x2016
 7678 1fee 2A       		.uleb128 0x2a
 7679 1fef 6D290000 		.long	0x296d
 7680 1ff3 E9070000 		.long	.LLST33
 7681 1ff7 E7070000 		.long	.LVUS33
 7682 1ffb 2A       		.uleb128 0x2a
 7683 1ffc 61290000 		.long	0x2961
 7684 2000 00080000 		.long	.LLST34
 7685 2004 FE070000 		.long	.LVUS34
 7686 2008 2A       		.uleb128 0x2a
 7687 2009 55290000 		.long	0x2955
 7688 200d 18080000 		.long	.LLST35
 7689 2011 14080000 		.long	.LVUS35
 7690 2015 00       		.byte	0
 7691 2016 41       		.uleb128 0x41
 7692 2017 07230000 		.long	0x2307
 7693 201b D3000000 		.long	.LBI430
 7694 201f 01       		.byte	.LVU370
 7695 2020 D3000000 		.long	.LBB430
 7696 2024 34000000 		.long	.LBE430-.LBB430
 7697 2028 01       		.byte	0x1
 7698 2029 AB01     		.value	0x1ab
 7699 202b 07       		.byte	0x7
 7700 202c 47200000 		.long	0x2047
 7701 2030 2A       		.uleb128 0x2a
 7702 2031 15230000 		.long	0x2315
 7703 2035 3A080000 		.long	.LLST36
 7704 2039 38080000 		.long	.LVUS36
 7705 203d 39       		.uleb128 0x39
 7706 203e D3000000 		.long	.LBB431
 7707 2042 34000000 		.long	.LBE431-.LBB431
 7708 2046 00       		.byte	0
 7709 2047 2C       		.uleb128 0x2c
 7710 2048 28280000 		.long	0x2828
 7711 204c 07010000 		.long	.LBI432
 7712 2050 02       		.byte	.LVU391
 7713 2051 D8020000 		.long	.Ldebug_ranges0+0x2d8
 7714 2055 01       		.byte	0x1
 7715 2056 AF01     		.value	0x1af
 7716 2058 05       		.byte	0x5
 7717 2059 89200000 		.long	0x2089
 7718 205d 29       		.uleb128 0x29
 7719 205e 65280000 		.long	0x2865
 7720 2062 07010000 		.long	.LBI433
 7721 2066 04       		.byte	.LVU393
 7722 2067 E0020000 		.long	.Ldebug_ranges0+0x2e0
 7723 206b 02       		.byte	0x2
 7724 206c 0A02     		.value	0x20a
 7725 206e 03       		.byte	0x3
 7726 206f 38       		.uleb128 0x38
GAS LISTING /tmp/cccyco2T.s 			page 139


 7727 2070 E0020000 		.long	.Ldebug_ranges0+0x2e0
 7728 2074 2D       		.uleb128 0x2d
 7729 2075 B8280000 		.long	0x28b8
 7730 2079 07010000 		.long	.LBI435
 7731 207d 0A       		.byte	.LVU399
 7732 207e E0020000 		.long	.Ldebug_ranges0+0x2e0
 7733 2082 05       		.byte	0x5
 7734 2083 7A01     		.value	0x17a
 7735 2085 03       		.byte	0x3
 7736 2086 00       		.byte	0
 7737 2087 00       		.byte	0
 7738 2088 00       		.byte	0
 7739 2089 2C       		.uleb128 0x2c
 7740 208a 32280000 		.long	0x2832
 7741 208e 15010000 		.long	.LBI447
 7742 2092 01       		.byte	.LVU405
 7743 2093 00030000 		.long	.Ldebug_ranges0+0x300
 7744 2097 01       		.byte	0x1
 7745 2098 B301     		.value	0x1b3
 7746 209a 05       		.byte	0x5
 7747 209b C9200000 		.long	0x20c9
 7748 209f 29       		.uleb128 0x29
 7749 20a0 92280000 		.long	0x2892
 7750 20a4 15010000 		.long	.LBI448
 7751 20a8 03       		.byte	.LVU407
 7752 20a9 08030000 		.long	.Ldebug_ranges0+0x308
 7753 20ad 02       		.byte	0x2
 7754 20ae FF01     		.value	0x1ff
 7755 20b0 03       		.byte	0x3
 7756 20b1 30       		.uleb128 0x30
 7757 20b2 C2280000 		.long	0x28c2
 7758 20b6 15010000 		.long	.LBI449
 7759 20ba 05       		.byte	.LVU409
 7760 20bb 15010000 		.long	.LBB449
 7761 20bf 06000000 		.long	.LBE449-.LBB449
 7762 20c3 05       		.byte	0x5
 7763 20c4 6301     		.value	0x163
 7764 20c6 03       		.byte	0x3
 7765 20c7 00       		.byte	0
 7766 20c8 00       		.byte	0
 7767 20c9 2E       		.uleb128 0x2e
 7768 20ca 44290000 		.long	0x2944
 7769 20ce 3B010000 		.long	.LBI454
 7770 20d2 01       		.byte	.LVU428
 7771 20d3 3B010000 		.long	.LBB454
 7772 20d7 13000000 		.long	.LBE454-.LBB454
 7773 20db 01       		.byte	0x1
 7774 20dc A301     		.value	0x1a3
 7775 20de 07       		.byte	0x7
 7776 20df 2A       		.uleb128 0x2a
 7777 20e0 6D290000 		.long	0x296d
 7778 20e4 51080000 		.long	.LLST37
 7779 20e8 4D080000 		.long	.LVUS37
 7780 20ec 2A       		.uleb128 0x2a
 7781 20ed 61290000 		.long	0x2961
 7782 20f1 72080000 		.long	.LLST38
 7783 20f5 70080000 		.long	.LVUS38
GAS LISTING /tmp/cccyco2T.s 			page 140


 7784 20f9 2A       		.uleb128 0x2a
 7785 20fa 55290000 		.long	0x2955
 7786 20fe 88080000 		.long	.LLST39
 7787 2102 86080000 		.long	.LVUS39
 7788 2106 37       		.uleb128 0x37
 7789 2107 4E010000 		.long	.LVL56
 7790 210b 2C2B0000 		.long	0x2b2c
 7791 210f 00       		.byte	0
 7792 2110 00       		.byte	0
 7793 2111 2C       		.uleb128 0x2c
 7794 2112 32280000 		.long	0x2832
 7795 2116 00000000 		.long	.LBI375
 7796 211a 06       		.byte	.LVU319
 7797 211b 30010000 		.long	.Ldebug_ranges0+0x130
 7798 211f 01       		.byte	0x1
 7799 2120 6D01     		.value	0x16d
 7800 2122 03       		.byte	0x3
 7801 2123 4D210000 		.long	0x214d
 7802 2127 29       		.uleb128 0x29
 7803 2128 92280000 		.long	0x2892
 7804 212c 00000000 		.long	.LBI376
 7805 2130 08       		.byte	.LVU321
 7806 2131 38010000 		.long	.Ldebug_ranges0+0x138
 7807 2135 02       		.byte	0x2
 7808 2136 FF01     		.value	0x1ff
 7809 2138 03       		.byte	0x3
 7810 2139 2D       		.uleb128 0x2d
 7811 213a C2280000 		.long	0x28c2
 7812 213e 00000000 		.long	.LBI377
 7813 2142 0A       		.byte	.LVU323
 7814 2143 40010000 		.long	.Ldebug_ranges0+0x140
 7815 2147 05       		.byte	0x5
 7816 2148 6301     		.value	0x163
 7817 214a 03       		.byte	0x3
 7818 214b 00       		.byte	0
 7819 214c 00       		.byte	0
 7820 214d 2C       		.uleb128 0x2c
 7821 214e 1A280000 		.long	0x281a
 7822 2152 35000000 		.long	.LBI389
 7823 2156 03       		.byte	.LVU335
 7824 2157 60010000 		.long	.Ldebug_ranges0+0x160
 7825 215b 01       		.byte	0x1
 7826 215c 7001     		.value	0x170
 7827 215e 1B       		.byte	0x1b
 7828 215f 76210000 		.long	0x2176
 7829 2163 2D       		.uleb128 0x2d
 7830 2164 58280000 		.long	0x2858
 7831 2168 35000000 		.long	.LBI390
 7832 216c 05       		.byte	.LVU337
 7833 216d 80010000 		.long	.Ldebug_ranges0+0x180
 7834 2171 02       		.byte	0x2
 7835 2172 7C02     		.value	0x27c
 7836 2174 0A       		.byte	0xa
 7837 2175 00       		.byte	0
 7838 2176 29       		.uleb128 0x29
 7839 2177 ED270000 		.long	0x27ed
 7840 217b 3D000000 		.long	.LBI397
GAS LISTING /tmp/cccyco2T.s 			page 141


 7841 217f 01       		.byte	.LVU341
 7842 2180 98010000 		.long	.Ldebug_ranges0+0x198
 7843 2184 01       		.byte	0x1
 7844 2185 7001     		.value	0x170
 7845 2187 0E       		.byte	0xe
 7846 2188 2A       		.uleb128 0x2a
 7847 2189 0C280000 		.long	0x280c
 7848 218d 9D080000 		.long	.LLST22
 7849 2191 9B080000 		.long	.LVUS22
 7850 2195 2A       		.uleb128 0x2a
 7851 2196 FF270000 		.long	0x27ff
 7852 219a B3080000 		.long	.LLST23
 7853 219e B1080000 		.long	.LVUS23
 7854 21a2 2E       		.uleb128 0x2e
 7855 21a3 F9280000 		.long	0x28f9
 7856 21a7 3D000000 		.long	.LBI398
 7857 21ab 03       		.byte	.LVU343
 7858 21ac 3D000000 		.long	.LBB398
 7859 21b0 0A000000 		.long	.LBE398-.LBB398
 7860 21b4 02       		.byte	0x2
 7861 21b5 8B02     		.value	0x28b
 7862 21b7 0A       		.byte	0xa
 7863 21b8 2A       		.uleb128 0x2a
 7864 21b9 18290000 		.long	0x2918
 7865 21bd C8080000 		.long	.LLST24
 7866 21c1 C6080000 		.long	.LVUS24
 7867 21c5 2A       		.uleb128 0x2a
 7868 21c6 0B290000 		.long	0x290b
 7869 21ca DE080000 		.long	.LLST25
 7870 21ce DC080000 		.long	.LVUS25
 7871 21d2 39       		.uleb128 0x39
 7872 21d3 3D000000 		.long	.LBB399
 7873 21d7 0A000000 		.long	.LBE399-.LBB399
 7874 21db 00       		.byte	0
 7875 21dc 00       		.byte	0
 7876 21dd 00       		.byte	0
 7877 21de 06       		.uleb128 0x6
 7878 21df 04       		.byte	0x4
 7879 21e0 B10F0000 		.long	0xfb1
 7880 21e4 13       		.uleb128 0x13
 7881 21e5 62000000 		.long	0x62
 7882 21e9 F4210000 		.long	0x21f4
 7883 21ed 14       		.uleb128 0x14
 7884 21ee 36000000 		.long	0x36
 7885 21f2 0E       		.byte	0xe
 7886 21f3 00       		.byte	0
 7887 21f4 07       		.uleb128 0x7
 7888 21f5 E4210000 		.long	0x21e4
 7889 21f9 32       		.uleb128 0x32
 7890 21fa 750E0000 		.long	.LASF276
 7891 21fe 01       		.byte	0x1
 7892 21ff 3501     		.value	0x135
 7893 2201 07       		.byte	0x7
 7894 2202 84010000 		.long	0x184
 7895 2206 00000000 		.long	.LFB241
 7896 220a 93000000 		.long	.LFE241-.LFB241
 7897 220e 01       		.uleb128 0x1
GAS LISTING /tmp/cccyco2T.s 			page 142


 7898 220f 9C       		.byte	0x9c
 7899 2210 07230000 		.long	0x2307
 7900 2214 3A       		.uleb128 0x3a
 7901 2215 78080000 		.long	.LASF275
 7902 2219 01       		.byte	0x1
 7903 221a 3501     		.value	0x135
 7904 221c 2C       		.byte	0x2c
 7905 221d DE210000 		.long	0x21de
 7906 2221 F5080000 		.long	.LLST16
 7907 2225 F1080000 		.long	.LVUS16
 7908 2229 26       		.uleb128 0x26
 7909 222a 79070000 		.long	.LASF260
 7910 222e 01       		.byte	0x1
 7911 222f 3501     		.value	0x135
 7912 2231 40       		.byte	0x40
 7913 2232 03050000 		.long	0x503
 7914 2236 02       		.uleb128 0x2
 7915 2237 91       		.byte	0x91
 7916 2238 04       		.sleb128 4
 7917 2239 35       		.uleb128 0x35
 7918 223a 6D736700 		.string	"msg"
 7919 223e 01       		.byte	0x1
 7920 223f 3601     		.value	0x136
 7921 2241 09       		.byte	0x9
 7922 2242 84010000 		.long	0x184
 7923 2246 1A090000 		.long	.LLST17
 7924 224a 14090000 		.long	.LVUS17
 7925 224e 2C       		.uleb128 0x2c
 7926 224f 32280000 		.long	0x2832
 7927 2253 00000000 		.long	.LBI351
 7928 2257 03       		.byte	.LVU248
 7929 2258 E8000000 		.long	.Ldebug_ranges0+0xe8
 7930 225c 01       		.byte	0x1
 7931 225d 3801     		.value	0x138
 7932 225f 03       		.byte	0x3
 7933 2260 8A220000 		.long	0x228a
 7934 2264 29       		.uleb128 0x29
 7935 2265 92280000 		.long	0x2892
 7936 2269 00000000 		.long	.LBI352
 7937 226d 05       		.byte	.LVU250
 7938 226e F0000000 		.long	.Ldebug_ranges0+0xf0
 7939 2272 02       		.byte	0x2
 7940 2273 FF01     		.value	0x1ff
 7941 2275 03       		.byte	0x3
 7942 2276 2D       		.uleb128 0x2d
 7943 2277 C2280000 		.long	0x28c2
 7944 227b 00000000 		.long	.LBI353
 7945 227f 07       		.byte	.LVU252
 7946 2280 F8000000 		.long	.Ldebug_ranges0+0xf8
 7947 2284 05       		.byte	0x5
 7948 2285 6301     		.value	0x163
 7949 2287 03       		.byte	0x3
 7950 2288 00       		.byte	0
 7951 2289 00       		.byte	0
 7952 228a 41       		.uleb128 0x41
 7953 228b 07230000 		.long	0x2307
 7954 228f 32000000 		.long	.LBI362
GAS LISTING /tmp/cccyco2T.s 			page 143


 7955 2293 01       		.byte	.LVU269
 7956 2294 32000000 		.long	.LBB362
 7957 2298 34000000 		.long	.LBE362-.LBB362
 7958 229c 01       		.byte	0x1
 7959 229d 4A01     		.value	0x14a
 7960 229f 05       		.byte	0x5
 7961 22a0 BB220000 		.long	0x22bb
 7962 22a4 2A       		.uleb128 0x2a
 7963 22a5 15230000 		.long	0x2315
 7964 22a9 45090000 		.long	.LLST18
 7965 22ad 43090000 		.long	.LVUS18
 7966 22b1 39       		.uleb128 0x39
 7967 22b2 32000000 		.long	.LBB363
 7968 22b6 34000000 		.long	.LBE363-.LBB363
 7969 22ba 00       		.byte	0
 7970 22bb 2C       		.uleb128 0x2c
 7971 22bc 28280000 		.long	0x2828
 7972 22c0 66000000 		.long	.LBI364
 7973 22c4 02       		.byte	.LVU292
 7974 22c5 10010000 		.long	.Ldebug_ranges0+0x110
 7975 22c9 01       		.byte	0x1
 7976 22ca 4D01     		.value	0x14d
 7977 22cc 03       		.byte	0x3
 7978 22cd FD220000 		.long	0x22fd
 7979 22d1 29       		.uleb128 0x29
 7980 22d2 65280000 		.long	0x2865
 7981 22d6 66000000 		.long	.LBI365
 7982 22da 04       		.byte	.LVU294
 7983 22db 18010000 		.long	.Ldebug_ranges0+0x118
 7984 22df 02       		.byte	0x2
 7985 22e0 0A02     		.value	0x20a
 7986 22e2 03       		.byte	0x3
 7987 22e3 38       		.uleb128 0x38
 7988 22e4 18010000 		.long	.Ldebug_ranges0+0x118
 7989 22e8 2D       		.uleb128 0x2d
 7990 22e9 B8280000 		.long	0x28b8
 7991 22ed 66000000 		.long	.LBI367
 7992 22f1 0A       		.byte	.LVU300
 7993 22f2 18010000 		.long	.Ldebug_ranges0+0x118
 7994 22f6 05       		.byte	0x5
 7995 22f7 7A01     		.value	0x17a
 7996 22f9 03       		.byte	0x3
 7997 22fa 00       		.byte	0
 7998 22fb 00       		.byte	0
 7999 22fc 00       		.byte	0
 8000 22fd 37       		.uleb128 0x37
 8001 22fe 85000000 		.long	.LVL34
 8002 2302 01240000 		.long	0x2401
 8003 2306 00       		.byte	0
 8004 2307 3B       		.uleb128 0x3b
 8005 2308 29040000 		.long	.LASF278
 8006 230c 01       		.byte	0x1
 8007 230d 0D01     		.value	0x10d
 8008 230f 08       		.byte	0x8
 8009 2310 01       		.byte	0x1
 8010 2311 2C230000 		.long	0x232c
 8011 2315 3C       		.uleb128 0x3c
GAS LISTING /tmp/cccyco2T.s 			page 144


 8012 2316 78080000 		.long	.LASF275
 8013 231a 01       		.byte	0x1
 8014 231b 0D01     		.value	0x10d
 8015 231d 36       		.byte	0x36
 8016 231e DE210000 		.long	0x21de
 8017 2322 36       		.uleb128 0x36
 8018 2323 E6000000 		.long	.LASF264
 8019 2327 561C0000 		.long	0x1c56
 8020 232b 00       		.byte	0
 8021 232c 42       		.uleb128 0x42
 8022 232d AB090000 		.long	.LASF279
 8023 2331 01       		.byte	0x1
 8024 2332 FE       		.byte	0xfe
 8025 2333 06       		.byte	0x6
 8026 2334 00000000 		.long	.LFB239
 8027 2338 5E000000 		.long	.LFE239-.LFB239
 8028 233c 01       		.uleb128 0x1
 8029 233d 9C       		.byte	0x9c
 8030 233e 01240000 		.long	0x2401
 8031 2342 43       		.uleb128 0x43
 8032 2343 78080000 		.long	.LASF275
 8033 2347 01       		.byte	0x1
 8034 2348 FE       		.byte	0xfe
 8035 2349 33       		.byte	0x33
 8036 234a DE210000 		.long	0x21de
 8037 234e 02       		.uleb128 0x2
 8038 234f 91       		.byte	0x91
 8039 2350 00       		.sleb128 0
 8040 2351 2C       		.uleb128 0x2c
 8041 2352 32280000 		.long	0x2832
 8042 2356 00000000 		.long	.LBI326
 8043 235a 02       		.byte	.LVU175
 8044 235b 88000000 		.long	.Ldebug_ranges0+0x88
 8045 235f 01       		.byte	0x1
 8046 2360 0001     		.value	0x100
 8047 2362 03       		.byte	0x3
 8048 2363 8D230000 		.long	0x238d
 8049 2367 29       		.uleb128 0x29
 8050 2368 92280000 		.long	0x2892
 8051 236c 00000000 		.long	.LBI327
 8052 2370 04       		.byte	.LVU177
 8053 2371 90000000 		.long	.Ldebug_ranges0+0x90
 8054 2375 02       		.byte	0x2
 8055 2376 FF01     		.value	0x1ff
 8056 2378 03       		.byte	0x3
 8057 2379 2D       		.uleb128 0x2d
 8058 237a C2280000 		.long	0x28c2
 8059 237e 00000000 		.long	.LBI328
 8060 2382 06       		.byte	.LVU179
 8061 2383 98000000 		.long	.Ldebug_ranges0+0x98
 8062 2387 05       		.byte	0x5
 8063 2388 6301     		.value	0x163
 8064 238a 03       		.byte	0x3
 8065 238b 00       		.byte	0
 8066 238c 00       		.byte	0
 8067 238d 2C       		.uleb128 0x2c
 8068 238e 07230000 		.long	0x2307
GAS LISTING /tmp/cccyco2T.s 			page 145


 8069 2392 25000000 		.long	.LBI340
 8070 2396 03       		.byte	.LVU190
 8071 2397 B8000000 		.long	.Ldebug_ranges0+0xb8
 8072 239b 01       		.byte	0x1
 8073 239c 0101     		.value	0x101
 8074 239e 03       		.byte	0x3
 8075 239f B6230000 		.long	0x23b6
 8076 23a3 2A       		.uleb128 0x2a
 8077 23a4 15230000 		.long	0x2315
 8078 23a8 5D090000 		.long	.LLST14
 8079 23ac 59090000 		.long	.LVUS14
 8080 23b0 2B       		.uleb128 0x2b
 8081 23b1 B8000000 		.long	.Ldebug_ranges0+0xb8
 8082 23b5 00       		.byte	0
 8083 23b6 29       		.uleb128 0x29
 8084 23b7 28280000 		.long	0x2828
 8085 23bb 53000000 		.long	.LBI345
 8086 23bf 02       		.byte	.LVU211
 8087 23c0 D0000000 		.long	.Ldebug_ranges0+0xd0
 8088 23c4 01       		.byte	0x1
 8089 23c5 0201     		.value	0x102
 8090 23c7 03       		.byte	0x3
 8091 23c8 2E       		.uleb128 0x2e
 8092 23c9 65280000 		.long	0x2865
 8093 23cd 53000000 		.long	.LBI346
 8094 23d1 04       		.byte	.LVU213
 8095 23d2 53000000 		.long	.LBB346
 8096 23d6 06000000 		.long	.LBE346-.LBB346
 8097 23da 02       		.byte	0x2
 8098 23db 0A02     		.value	0x20a
 8099 23dd 03       		.byte	0x3
 8100 23de 2F       		.uleb128 0x2f
 8101 23df 53000000 		.long	.LBB347
 8102 23e3 06000000 		.long	.LBE347-.LBB347
 8103 23e7 30       		.uleb128 0x30
 8104 23e8 B8280000 		.long	0x28b8
 8105 23ec 53000000 		.long	.LBI348
 8106 23f0 0A       		.byte	.LVU219
 8107 23f1 53000000 		.long	.LBB348
 8108 23f5 06000000 		.long	.LBE348-.LBB348
 8109 23f9 05       		.byte	0x5
 8110 23fa 7A01     		.value	0x17a
 8111 23fc 03       		.byte	0x3
 8112 23fd 00       		.byte	0
 8113 23fe 00       		.byte	0
 8114 23ff 00       		.byte	0
 8115 2400 00       		.byte	0
 8116 2401 44       		.uleb128 0x44
 8117 2402 96080000 		.long	.LASF281
 8118 2406 01       		.byte	0x1
 8119 2407 DE       		.byte	0xde
 8120 2408 09       		.byte	0x9
 8121 2409 84010000 		.long	0x184
 8122 240d 01       		.byte	0x1
 8123 240e 42240000 		.long	0x2442
 8124 2412 45       		.uleb128 0x45
 8125 2413 78080000 		.long	.LASF275
GAS LISTING /tmp/cccyco2T.s 			page 146


 8126 2417 01       		.byte	0x1
 8127 2418 DE       		.byte	0xde
 8128 2419 39       		.byte	0x39
 8129 241a DE210000 		.long	0x21de
 8130 241e 45       		.uleb128 0x45
 8131 241f 79070000 		.long	.LASF260
 8132 2423 01       		.byte	0x1
 8133 2424 DF       		.byte	0xdf
 8134 2425 30       		.byte	0x30
 8135 2426 03050000 		.long	0x503
 8136 242a 36       		.uleb128 0x36
 8137 242b E6000000 		.long	.LASF264
 8138 242f 52240000 		.long	0x2452
 8139 2433 3E       		.uleb128 0x3e
 8140 2434 46       		.uleb128 0x46
 8141 2435 6D736700 		.string	"msg"
 8142 2439 01       		.byte	0x1
 8143 243a E7       		.byte	0xe7
 8144 243b 0B       		.byte	0xb
 8145 243c 84010000 		.long	0x184
 8146 2440 00       		.byte	0
 8147 2441 00       		.byte	0
 8148 2442 13       		.uleb128 0x13
 8149 2443 62000000 		.long	0x62
 8150 2447 52240000 		.long	0x2452
 8151 244b 14       		.uleb128 0x14
 8152 244c 36000000 		.long	0x36
 8153 2450 18       		.byte	0x18
 8154 2451 00       		.byte	0
 8155 2452 07       		.uleb128 0x7
 8156 2453 42240000 		.long	0x2442
 8157 2457 47       		.uleb128 0x47
 8158 2458 24060000 		.long	.LASF282
 8159 245c 01       		.byte	0x1
 8160 245d BE       		.byte	0xbe
 8161 245e 07       		.byte	0x7
 8162 245f 84010000 		.long	0x184
 8163 2463 00000000 		.long	.LFB237
 8164 2467 32000000 		.long	.LFE237-.LFB237
 8165 246b 01       		.uleb128 0x1
 8166 246c 9C       		.byte	0x9c
 8167 246d 35250000 		.long	0x2535
 8168 2471 43       		.uleb128 0x43
 8169 2472 78080000 		.long	.LASF275
 8170 2476 01       		.byte	0x1
 8171 2477 BE       		.byte	0xbe
 8172 2478 36       		.byte	0x36
 8173 2479 DE210000 		.long	0x21de
 8174 247d 02       		.uleb128 0x2
 8175 247e 91       		.byte	0x91
 8176 247f 00       		.sleb128 0
 8177 2480 43       		.uleb128 0x43
 8178 2481 79070000 		.long	.LASF260
 8179 2485 01       		.byte	0x1
 8180 2486 BF       		.byte	0xbf
 8181 2487 2D       		.byte	0x2d
 8182 2488 03050000 		.long	0x503
GAS LISTING /tmp/cccyco2T.s 			page 147


 8183 248c 02       		.uleb128 0x2
 8184 248d 91       		.byte	0x91
 8185 248e 04       		.sleb128 4
 8186 248f 48       		.uleb128 0x48
 8187 2490 6D736700 		.string	"msg"
 8188 2494 01       		.byte	0x1
 8189 2495 C0       		.byte	0xc0
 8190 2496 09       		.byte	0x9
 8191 2497 84010000 		.long	0x184
 8192 249b 7E090000 		.long	.LLST13
 8193 249f 7C090000 		.long	.LVUS13
 8194 24a3 49       		.uleb128 0x49
 8195 24a4 32280000 		.long	0x2832
 8196 24a8 00000000 		.long	.LBI309
 8197 24ac 03       		.byte	.LVU146
 8198 24ad 48000000 		.long	.Ldebug_ranges0+0x48
 8199 24b1 01       		.byte	0x1
 8200 24b2 C2       		.byte	0xc2
 8201 24b3 03       		.byte	0x3
 8202 24b4 DE240000 		.long	0x24de
 8203 24b8 29       		.uleb128 0x29
 8204 24b9 92280000 		.long	0x2892
 8205 24bd 00000000 		.long	.LBI310
 8206 24c1 05       		.byte	.LVU148
 8207 24c2 50000000 		.long	.Ldebug_ranges0+0x50
 8208 24c6 02       		.byte	0x2
 8209 24c7 FF01     		.value	0x1ff
 8210 24c9 03       		.byte	0x3
 8211 24ca 2D       		.uleb128 0x2d
 8212 24cb C2280000 		.long	0x28c2
 8213 24cf 00000000 		.long	.LBI311
 8214 24d3 07       		.byte	.LVU150
 8215 24d4 58000000 		.long	.Ldebug_ranges0+0x58
 8216 24d8 05       		.byte	0x5
 8217 24d9 6301     		.value	0x163
 8218 24db 03       		.byte	0x3
 8219 24dc 00       		.byte	0
 8220 24dd 00       		.byte	0
 8221 24de 49       		.uleb128 0x49
 8222 24df 28280000 		.long	0x2828
 8223 24e3 27000000 		.long	.LBI320
 8224 24e7 01       		.byte	.LVU160
 8225 24e8 70000000 		.long	.Ldebug_ranges0+0x70
 8226 24ec 01       		.byte	0x1
 8227 24ed C4       		.byte	0xc4
 8228 24ee 03       		.byte	0x3
 8229 24ef 2B250000 		.long	0x252b
 8230 24f3 2E       		.uleb128 0x2e
 8231 24f4 65280000 		.long	0x2865
 8232 24f8 27000000 		.long	.LBI321
 8233 24fc 03       		.byte	.LVU162
 8234 24fd 27000000 		.long	.LBB321
 8235 2501 06000000 		.long	.LBE321-.LBB321
 8236 2505 02       		.byte	0x2
 8237 2506 0A02     		.value	0x20a
 8238 2508 03       		.byte	0x3
 8239 2509 2F       		.uleb128 0x2f
GAS LISTING /tmp/cccyco2T.s 			page 148


 8240 250a 27000000 		.long	.LBB322
 8241 250e 06000000 		.long	.LBE322-.LBB322
 8242 2512 30       		.uleb128 0x30
 8243 2513 B8280000 		.long	0x28b8
 8244 2517 27000000 		.long	.LBI323
 8245 251b 09       		.byte	.LVU168
 8246 251c 27000000 		.long	.LBB323
 8247 2520 06000000 		.long	.LBE323-.LBB323
 8248 2524 05       		.byte	0x5
 8249 2525 7A01     		.value	0x17a
 8250 2527 03       		.byte	0x3
 8251 2528 00       		.byte	0
 8252 2529 00       		.byte	0
 8253 252a 00       		.byte	0
 8254 252b 37       		.uleb128 0x37
 8255 252c 27000000 		.long	.LVL19
 8256 2530 01240000 		.long	0x2401
 8257 2534 00       		.byte	0
 8258 2535 4A       		.uleb128 0x4a
 8259 2536 160D0000 		.long	.LASF283
 8260 253a 01       		.byte	0x1
 8261 253b 94       		.byte	0x94
 8262 253c 06       		.byte	0x6
 8263 253d 00000000 		.long	.LFB236
 8264 2541 46000000 		.long	.LFE236-.LFB236
 8265 2545 01       		.uleb128 0x1
 8266 2546 9C       		.byte	0x9c
 8267 2547 AC250000 		.long	0x25ac
 8268 254b 43       		.uleb128 0x43
 8269 254c 78080000 		.long	.LASF275
 8270 2550 01       		.byte	0x1
 8271 2551 94       		.byte	0x94
 8272 2552 30       		.byte	0x30
 8273 2553 DE210000 		.long	0x21de
 8274 2557 02       		.uleb128 0x2
 8275 2558 91       		.byte	0x91
 8276 2559 00       		.sleb128 0
 8277 255a 43       		.uleb128 0x43
 8278 255b 8F090000 		.long	.LASF102
 8279 255f 01       		.byte	0x1
 8280 2560 94       		.byte	0x94
 8281 2561 3D       		.byte	0x3d
 8282 2562 25000000 		.long	0x25
 8283 2566 02       		.uleb128 0x2
 8284 2567 91       		.byte	0x91
 8285 2568 04       		.sleb128 4
 8286 2569 36       		.uleb128 0x36
 8287 256a E6000000 		.long	.LASF264
 8288 256e A4190000 		.long	0x19a4
 8289 2572 4B       		.uleb128 0x4b
 8290 2573 4E270000 		.long	0x274e
 8291 2577 36000000 		.long	.LBI293
 8292 257b 01       		.byte	.LVU105
 8293 257c 36000000 		.long	.LBB293
 8294 2580 0B000000 		.long	.LBE293-.LBB293
 8295 2584 01       		.byte	0x1
 8296 2585 A6       		.byte	0xa6
GAS LISTING /tmp/cccyco2T.s 			page 149


 8297 2586 03       		.byte	0x3
 8298 2587 2A       		.uleb128 0x2a
 8299 2588 69270000 		.long	0x2769
 8300 258c 93090000 		.long	.LLST6
 8301 2590 91090000 		.long	.LVUS6
 8302 2594 2A       		.uleb128 0x2a
 8303 2595 5C270000 		.long	0x275c
 8304 2599 AB090000 		.long	.LLST7
 8305 259d A7090000 		.long	.LVUS7
 8306 25a1 37       		.uleb128 0x37
 8307 25a2 41000000 		.long	.LVL11
 8308 25a6 372B0000 		.long	0x2b37
 8309 25aa 00       		.byte	0
 8310 25ab 00       		.byte	0
 8311 25ac 47       		.uleb128 0x47
 8312 25ad 560C0000 		.long	.LASF284
 8313 25b1 01       		.byte	0x1
 8314 25b2 81       		.byte	0x81
 8315 25b3 0A       		.byte	0xa
 8316 25b4 10090000 		.long	0x910
 8317 25b8 00000000 		.long	.LFB235
 8318 25bc 1A000000 		.long	.LFE235-.LFB235
 8319 25c0 01       		.uleb128 0x1
 8320 25c1 9C       		.byte	0x9c
 8321 25c2 DB250000 		.long	0x25db
 8322 25c6 4C       		.uleb128 0x4c
 8323 25c7 78080000 		.long	.LASF275
 8324 25cb 01       		.byte	0x1
 8325 25cc 81       		.byte	0x81
 8326 25cd 34       		.byte	0x34
 8327 25ce DE210000 		.long	0x21de
 8328 25d2 D0090000 		.long	.LLST5
 8329 25d6 CA090000 		.long	.LVUS5
 8330 25da 00       		.byte	0
 8331 25db 4A       		.uleb128 0x4a
 8332 25dc 77090000 		.long	.LASF285
 8333 25e0 01       		.byte	0x1
 8334 25e1 6B       		.byte	0x6b
 8335 25e2 06       		.byte	0x6
 8336 25e3 00000000 		.long	.LFB234
 8337 25e7 3E000000 		.long	.LFE234-.LFB234
 8338 25eb 01       		.uleb128 0x1
 8339 25ec 9C       		.byte	0x9c
 8340 25ed 3A260000 		.long	0x263a
 8341 25f1 43       		.uleb128 0x43
 8342 25f2 78080000 		.long	.LASF275
 8343 25f6 01       		.byte	0x1
 8344 25f7 6B       		.byte	0x6b
 8345 25f8 27       		.byte	0x27
 8346 25f9 DE210000 		.long	0x21de
 8347 25fd 02       		.uleb128 0x2
 8348 25fe 91       		.byte	0x91
 8349 25ff 00       		.sleb128 0
 8350 2600 4B       		.uleb128 0x4b
 8351 2601 1F270000 		.long	0x271f
 8352 2605 31000000 		.long	.LBI291
 8353 2609 01       		.byte	.LVU66
GAS LISTING /tmp/cccyco2T.s 			page 150


 8354 260a 31000000 		.long	.LBB291
 8355 260e 08000000 		.long	.LBE291-.LBB291
 8356 2612 01       		.byte	0x1
 8357 2613 74       		.byte	0x74
 8358 2614 03       		.byte	0x3
 8359 2615 2A       		.uleb128 0x2a
 8360 2616 3A270000 		.long	0x273a
 8361 261a FD090000 		.long	.LLST3
 8362 261e FB090000 		.long	.LVUS3
 8363 2622 2A       		.uleb128 0x2a
 8364 2623 2D270000 		.long	0x272d
 8365 2627 160A0000 		.long	.LLST4
 8366 262b 120A0000 		.long	.LVUS4
 8367 262f 37       		.uleb128 0x37
 8368 2630 39000000 		.long	.LVL5
 8369 2634 432B0000 		.long	0x2b43
 8370 2638 00       		.byte	0
 8371 2639 00       		.byte	0
 8372 263a 4A       		.uleb128 0x4a
 8373 263b B50B0000 		.long	.LASF286
 8374 263f 01       		.byte	0x1
 8375 2640 4C       		.byte	0x4c
 8376 2641 06       		.byte	0x6
 8377 2642 00000000 		.long	.LFB233
 8378 2646 60000000 		.long	.LFE233-.LFB233
 8379 264a 01       		.uleb128 0x1
 8380 264b 9C       		.byte	0x9c
 8381 264c 1F270000 		.long	0x271f
 8382 2650 43       		.uleb128 0x43
 8383 2651 78080000 		.long	.LASF275
 8384 2655 01       		.byte	0x1
 8385 2656 4C       		.byte	0x4c
 8386 2657 2B       		.byte	0x2b
 8387 2658 DE210000 		.long	0x21de
 8388 265c 02       		.uleb128 0x2
 8389 265d 91       		.byte	0x91
 8390 265e 00       		.sleb128 0
 8391 265f 43       		.uleb128 0x43
 8392 2660 740B0000 		.long	.LASF205
 8393 2664 01       		.byte	0x1
 8394 2665 4C       		.byte	0x4c
 8395 2666 36       		.byte	0x36
 8396 2667 C9050000 		.long	0x5c9
 8397 266b 02       		.uleb128 0x2
 8398 266c 91       		.byte	0x91
 8399 266d 04       		.sleb128 4
 8400 266e 4D       		.uleb128 0x4d
 8401 266f 627000   		.string	"bp"
 8402 2672 01       		.byte	0x1
 8403 2673 4C       		.byte	0x4c
 8404 2674 4A       		.byte	0x4a
 8405 2675 10090000 		.long	0x910
 8406 2679 02       		.uleb128 0x2
 8407 267a 91       		.byte	0x91
 8408 267b 08       		.sleb128 8
 8409 267c 43       		.uleb128 0x43
 8410 267d 8F090000 		.long	.LASF102
GAS LISTING /tmp/cccyco2T.s 			page 151


 8411 2681 01       		.byte	0x1
 8412 2682 4D       		.byte	0x4d
 8413 2683 1B       		.byte	0x1b
 8414 2684 25000000 		.long	0x25
 8415 2688 02       		.uleb128 0x2
 8416 2689 91       		.byte	0x91
 8417 268a 0C       		.sleb128 12
 8418 268b 4D       		.uleb128 0x4d
 8419 268c 6E00     		.string	"n"
 8420 268e 01       		.byte	0x1
 8421 268f 4D       		.byte	0x4d
 8422 2690 28       		.byte	0x28
 8423 2691 25000000 		.long	0x25
 8424 2695 02       		.uleb128 0x2
 8425 2696 91       		.byte	0x91
 8426 2697 10       		.sleb128 16
 8427 2698 43       		.uleb128 0x43
 8428 2699 61090000 		.long	.LASF287
 8429 269d 01       		.byte	0x1
 8430 269e 4D       		.byte	0x4d
 8431 269f 36       		.byte	0x36
 8432 26a0 8E0F0000 		.long	0xf8e
 8433 26a4 02       		.uleb128 0x2
 8434 26a5 91       		.byte	0x91
 8435 26a6 14       		.sleb128 20
 8436 26a7 43       		.uleb128 0x43
 8437 26a8 77050000 		.long	.LASF213
 8438 26ac 01       		.byte	0x1
 8439 26ad 4D       		.byte	0x4d
 8440 26ae 42       		.byte	0x42
 8441 26af FA000000 		.long	0xfa
 8442 26b3 02       		.uleb128 0x2
 8443 26b4 91       		.byte	0x91
 8444 26b5 18       		.sleb128 24
 8445 26b6 36       		.uleb128 0x36
 8446 26b7 E6000000 		.long	.LASF264
 8447 26bb 021E0000 		.long	0x1e02
 8448 26bf 4E       		.uleb128 0x4e
 8449 26c0 A4270000 		.long	0x27a4
 8450 26c4 06000000 		.long	.LBI276
 8451 26c8 00       		.byte	.LVU6
 8452 26c9 00000000 		.long	.Ldebug_ranges0+0
 8453 26cd 01       		.byte	0x1
 8454 26ce 51       		.byte	0x51
 8455 26cf 03       		.byte	0x3
 8456 26d0 2A       		.uleb128 0x2a
 8457 26d1 B2270000 		.long	0x27b2
 8458 26d5 370A0000 		.long	.LLST0
 8459 26d9 350A0000 		.long	.LVUS0
 8460 26dd 29       		.uleb128 0x29
 8461 26de 3C280000 		.long	0x283c
 8462 26e2 06000000 		.long	.LBI277
 8463 26e6 02       		.byte	.LVU8
 8464 26e7 08000000 		.long	.Ldebug_ranges0+0x8
 8465 26eb 02       		.byte	0x2
 8466 26ec 2203     		.value	0x322
 8467 26ee 03       		.byte	0x3
GAS LISTING /tmp/cccyco2T.s 			page 152


 8468 26ef 2A       		.uleb128 0x2a
 8469 26f0 4A280000 		.long	0x284a
 8470 26f4 4D0A0000 		.long	.LLST1
 8471 26f8 4B0A0000 		.long	.LVUS1
 8472 26fc 29       		.uleb128 0x29
 8473 26fd 9C280000 		.long	0x289c
 8474 2701 06000000 		.long	.LBI278
 8475 2705 04       		.byte	.LVU10
 8476 2706 10000000 		.long	.Ldebug_ranges0+0x10
 8477 270a 03       		.byte	0x3
 8478 270b 8A01     		.value	0x18a
 8479 270d 03       		.byte	0x3
 8480 270e 2A       		.uleb128 0x2a
 8481 270f AA280000 		.long	0x28aa
 8482 2713 630A0000 		.long	.LLST2
 8483 2717 610A0000 		.long	.LVUS2
 8484 271b 00       		.byte	0
 8485 271c 00       		.byte	0
 8486 271d 00       		.byte	0
 8487 271e 00       		.byte	0
 8488 271f 4F       		.uleb128 0x4f
 8489 2720 7C040000 		.long	.LASF288
 8490 2724 02       		.byte	0x2
 8491 2725 5703     		.value	0x357
 8492 2727 14       		.byte	0x14
 8493 2728 03       		.byte	0x3
 8494 2729 48270000 		.long	0x2748
 8495 272d 50       		.uleb128 0x50
 8496 272e 74717000 		.string	"tqp"
 8497 2732 02       		.byte	0x2
 8498 2733 5703     		.value	0x357
 8499 2735 3B       		.byte	0x3b
 8500 2736 48270000 		.long	0x2748
 8501 273a 50       		.uleb128 0x50
 8502 273b 6D736700 		.string	"msg"
 8503 273f 02       		.byte	0x2
 8504 2740 5703     		.value	0x357
 8505 2742 46       		.byte	0x46
 8506 2743 84010000 		.long	0x184
 8507 2747 00       		.byte	0
 8508 2748 06       		.uleb128 0x6
 8509 2749 04       		.byte	0x4
 8510 274a F5020000 		.long	0x2f5
 8511 274e 4F       		.uleb128 0x4f
 8512 274f BE060000 		.long	.LASF289
 8513 2753 02       		.byte	0x2
 8514 2754 4A03     		.value	0x34a
 8515 2756 14       		.byte	0x14
 8516 2757 03       		.byte	0x3
 8517 2758 77270000 		.long	0x2777
 8518 275c 50       		.uleb128 0x50
 8519 275d 74717000 		.string	"tqp"
 8520 2761 02       		.byte	0x2
 8521 2762 4A03     		.value	0x34a
 8522 2764 3C       		.byte	0x3c
 8523 2765 48270000 		.long	0x2748
 8524 2769 50       		.uleb128 0x50
GAS LISTING /tmp/cccyco2T.s 			page 153


 8525 276a 6D736700 		.string	"msg"
 8526 276e 02       		.byte	0x2
 8527 276f 4A03     		.value	0x34a
 8528 2771 47       		.byte	0x47
 8529 2772 84010000 		.long	0x184
 8530 2776 00       		.byte	0
 8531 2777 51       		.uleb128 0x51
 8532 2778 41010000 		.long	.LASF291
 8533 277c 02       		.byte	0x2
 8534 277d 3C03     		.value	0x33c
 8535 277f 15       		.byte	0x15
 8536 2780 84010000 		.long	0x184
 8537 2784 03       		.byte	0x3
 8538 2785 A4270000 		.long	0x27a4
 8539 2789 50       		.uleb128 0x50
 8540 278a 74717000 		.string	"tqp"
 8541 278e 02       		.byte	0x2
 8542 278f 3C03     		.value	0x33c
 8543 2791 40       		.byte	0x40
 8544 2792 48270000 		.long	0x2748
 8545 2796 3C       		.uleb128 0x3c
 8546 2797 79070000 		.long	.LASF260
 8547 279b 02       		.byte	0x2
 8548 279c 3D03     		.value	0x33d
 8549 279e 3D       		.byte	0x3d
 8550 279f 03050000 		.long	0x503
 8551 27a3 00       		.byte	0
 8552 27a4 4F       		.uleb128 0x4f
 8553 27a5 400E0000 		.long	.LASF290
 8554 27a9 02       		.byte	0x2
 8555 27aa 2003     		.value	0x320
 8556 27ac 14       		.byte	0x14
 8557 27ad 03       		.byte	0x3
 8558 27ae C0270000 		.long	0x27c0
 8559 27b2 50       		.uleb128 0x50
 8560 27b3 74717000 		.string	"tqp"
 8561 27b7 02       		.byte	0x2
 8562 27b8 2003     		.value	0x320
 8563 27ba 3F       		.byte	0x3f
 8564 27bb 48270000 		.long	0x2748
 8565 27bf 00       		.byte	0
 8566 27c0 51       		.uleb128 0x51
 8567 27c1 EE0D0000 		.long	.LASF292
 8568 27c5 02       		.byte	0x2
 8569 27c6 9702     		.value	0x297
 8570 27c8 1D       		.byte	0x1d
 8571 27c9 03050000 		.long	0x503
 8572 27cd 03       		.byte	0x3
 8573 27ce ED270000 		.long	0x27ed
 8574 27d2 3C       		.uleb128 0x3c
 8575 27d3 140C0000 		.long	.LASF293
 8576 27d7 02       		.byte	0x2
 8577 27d8 9702     		.value	0x297
 8578 27da 35       		.byte	0x35
 8579 27db F2040000 		.long	0x4f2
 8580 27df 50       		.uleb128 0x50
 8581 27e0 656E6400 		.string	"end"
GAS LISTING /tmp/cccyco2T.s 			page 154


 8582 27e4 02       		.byte	0x2
 8583 27e5 9702     		.value	0x297
 8584 27e7 46       		.byte	0x46
 8585 27e8 F2040000 		.long	0x4f2
 8586 27ec 00       		.byte	0
 8587 27ed 51       		.uleb128 0x51
 8588 27ee C4010000 		.long	.LASF294
 8589 27f2 02       		.byte	0x2
 8590 27f3 8802     		.value	0x288
 8591 27f5 19       		.byte	0x19
 8592 27f6 F2040000 		.long	0x4f2
 8593 27fa 03       		.byte	0x3
 8594 27fb 1A280000 		.long	0x281a
 8595 27ff 3C       		.uleb128 0x3c
 8596 2800 AD010000 		.long	.LASF69
 8597 2804 02       		.byte	0x2
 8598 2805 8802     		.value	0x288
 8599 2807 30       		.byte	0x30
 8600 2808 F2040000 		.long	0x4f2
 8601 280c 3C       		.uleb128 0x3c
 8602 280d 490B0000 		.long	.LASF295
 8603 2811 02       		.byte	0x2
 8604 2812 8902     		.value	0x289
 8605 2814 34       		.byte	0x34
 8606 2815 03050000 		.long	0x503
 8607 2819 00       		.byte	0
 8608 281a 52       		.uleb128 0x52
 8609 281b C30B0000 		.long	.LASF299
 8610 281f 02       		.byte	0x2
 8611 2820 7A02     		.value	0x27a
 8612 2822 19       		.byte	0x19
 8613 2823 F2040000 		.long	0x4f2
 8614 2827 03       		.byte	0x3
 8615 2828 53       		.uleb128 0x53
 8616 2829 71010000 		.long	.LASF296
 8617 282d 02       		.byte	0x2
 8618 282e 0802     		.value	0x208
 8619 2830 14       		.byte	0x14
 8620 2831 03       		.byte	0x3
 8621 2832 53       		.uleb128 0x53
 8622 2833 8B020000 		.long	.LASF297
 8623 2837 02       		.byte	0x2
 8624 2838 FD01     		.value	0x1fd
 8625 283a 14       		.byte	0x14
 8626 283b 03       		.byte	0x3
 8627 283c 4F       		.uleb128 0x4f
 8628 283d 1F000000 		.long	.LASF298
 8629 2841 03       		.byte	0x3
 8630 2842 8801     		.value	0x188
 8631 2844 14       		.byte	0x14
 8632 2845 03       		.byte	0x3
 8633 2846 58280000 		.long	0x2858
 8634 284a 50       		.uleb128 0x50
 8635 284b 74717000 		.string	"tqp"
 8636 284f 03       		.byte	0x3
 8637 2850 8801     		.value	0x188
 8638 2852 3A       		.byte	0x3a
GAS LISTING /tmp/cccyco2T.s 			page 155


 8639 2853 48270000 		.long	0x2748
 8640 2857 00       		.byte	0
 8641 2858 54       		.uleb128 0x54
 8642 2859 4E090000 		.long	.LASF300
 8643 285d 07       		.byte	0x7
 8644 285e 73       		.byte	0x73
 8645 285f 19       		.byte	0x19
 8646 2860 F2040000 		.long	0x4f2
 8647 2864 03       		.byte	0x3
 8648 2865 4F       		.uleb128 0x4f
 8649 2866 EF040000 		.long	.LASF301
 8650 286a 05       		.byte	0x5
 8651 286b 6D01     		.value	0x16d
 8652 286d 14       		.byte	0x14
 8653 286e 03       		.byte	0x3
 8654 286f 7D280000 		.long	0x287d
 8655 2873 36       		.uleb128 0x36
 8656 2874 E6000000 		.long	.LASF264
 8657 2878 8D280000 		.long	0x288d
 8658 287c 00       		.byte	0
 8659 287d 13       		.uleb128 0x13
 8660 287e 62000000 		.long	0x62
 8661 2882 8D280000 		.long	0x288d
 8662 2886 14       		.uleb128 0x14
 8663 2887 36000000 		.long	0x36
 8664 288b 0B       		.byte	0xb
 8665 288c 00       		.byte	0
 8666 288d 07       		.uleb128 0x7
 8667 288e 7D280000 		.long	0x287d
 8668 2892 53       		.uleb128 0x53
 8669 2893 18050000 		.long	.LASF302
 8670 2897 05       		.byte	0x5
 8671 2898 6101     		.value	0x161
 8672 289a 14       		.byte	0x14
 8673 289b 03       		.byte	0x3
 8674 289c 4F       		.uleb128 0x4f
 8675 289d AD0C0000 		.long	.LASF303
 8676 28a1 04       		.byte	0x4
 8677 28a2 1902     		.value	0x219
 8678 28a4 14       		.byte	0x14
 8679 28a5 03       		.byte	0x3
 8680 28a6 B8280000 		.long	0x28b8
 8681 28aa 50       		.uleb128 0x50
 8682 28ab 74717000 		.string	"tqp"
 8683 28af 04       		.byte	0x4
 8684 28b0 1902     		.value	0x219
 8685 28b2 30       		.byte	0x30
 8686 28b3 48270000 		.long	0x2748
 8687 28b7 00       		.byte	0
 8688 28b8 53       		.uleb128 0x53
 8689 28b9 FB010000 		.long	.LASF304
 8690 28bd 06       		.byte	0x6
 8691 28be 7301     		.value	0x173
 8692 28c0 14       		.byte	0x14
 8693 28c1 03       		.byte	0x3
 8694 28c2 53       		.uleb128 0x53
 8695 28c3 9C0B0000 		.long	.LASF305
GAS LISTING /tmp/cccyco2T.s 			page 156


 8696 28c7 06       		.byte	0x6
 8697 28c8 6A01     		.value	0x16a
 8698 28ca 14       		.byte	0x14
 8699 28cb 03       		.byte	0x3
 8700 28cc 51       		.uleb128 0x51
 8701 28cd 2E030000 		.long	.LASF306
 8702 28d1 08       		.byte	0x8
 8703 28d2 EB01     		.value	0x1eb
 8704 28d4 1D       		.byte	0x1d
 8705 28d5 03050000 		.long	0x503
 8706 28d9 03       		.byte	0x3
 8707 28da F9280000 		.long	0x28f9
 8708 28de 3C       		.uleb128 0x3c
 8709 28df 140C0000 		.long	.LASF293
 8710 28e3 08       		.byte	0x8
 8711 28e4 EB01     		.value	0x1eb
 8712 28e6 33       		.byte	0x33
 8713 28e7 F2040000 		.long	0x4f2
 8714 28eb 50       		.uleb128 0x50
 8715 28ec 656E6400 		.string	"end"
 8716 28f0 08       		.byte	0x8
 8717 28f1 EB01     		.value	0x1eb
 8718 28f3 44       		.byte	0x44
 8719 28f4 F2040000 		.long	0x4f2
 8720 28f8 00       		.byte	0
 8721 28f9 51       		.uleb128 0x51
 8722 28fa 0F020000 		.long	.LASF307
 8723 28fe 08       		.byte	0x8
 8724 28ff D801     		.value	0x1d8
 8725 2901 19       		.byte	0x19
 8726 2902 F2040000 		.long	0x4f2
 8727 2906 03       		.byte	0x3
 8728 2907 2F290000 		.long	0x292f
 8729 290b 3C       		.uleb128 0x3c
 8730 290c AD010000 		.long	.LASF69
 8731 2910 08       		.byte	0x8
 8732 2911 D801     		.value	0x1d8
 8733 2913 2E       		.byte	0x2e
 8734 2914 F2040000 		.long	0x4f2
 8735 2918 3C       		.uleb128 0x3c
 8736 2919 490B0000 		.long	.LASF295
 8737 291d 08       		.byte	0x8
 8738 291e D901     		.value	0x1d9
 8739 2920 32       		.byte	0x32
 8740 2921 03050000 		.long	0x503
 8741 2925 36       		.uleb128 0x36
 8742 2926 E6000000 		.long	.LASF264
 8743 292a 3F290000 		.long	0x293f
 8744 292e 00       		.byte	0
 8745 292f 13       		.uleb128 0x13
 8746 2930 62000000 		.long	0x62
 8747 2934 3F290000 		.long	0x293f
 8748 2938 14       		.uleb128 0x14
 8749 2939 36000000 		.long	0x36
 8750 293d 0A       		.byte	0xa
 8751 293e 00       		.byte	0
 8752 293f 07       		.uleb128 0x7
GAS LISTING /tmp/cccyco2T.s 			page 157


 8753 2940 2F290000 		.long	0x292f
 8754 2944 55       		.uleb128 0x55
 8755 2945 A4060000 		.long	.LASF319
 8756 2949 09       		.byte	0x9
 8757 294a 1F       		.byte	0x1f
 8758 294b 01       		.byte	0x1
 8759 294c FA000000 		.long	0xfa
 8760 2950 03       		.byte	0x3
 8761 2951 7A290000 		.long	0x297a
 8762 2955 45       		.uleb128 0x45
 8763 2956 440C0000 		.long	.LASF308
 8764 295a 09       		.byte	0x9
 8765 295b 1F       		.byte	0x1f
 8766 295c 01       		.byte	0x1
 8767 295d FC000000 		.long	0xfc
 8768 2961 45       		.uleb128 0x45
 8769 2962 AF0B0000 		.long	.LASF309
 8770 2966 09       		.byte	0x9
 8771 2967 1F       		.byte	0x1f
 8772 2968 01       		.byte	0x1
 8773 2969 80290000 		.long	0x2980
 8774 296d 45       		.uleb128 0x45
 8775 296e 6F0E0000 		.long	.LASF310
 8776 2972 09       		.byte	0x9
 8777 2973 1F       		.byte	0x1f
 8778 2974 01       		.byte	0x1
 8779 2975 25000000 		.long	0x25
 8780 2979 00       		.byte	0
 8781 297a 06       		.uleb128 0x6
 8782 297b 04       		.byte	0x4
 8783 297c 85290000 		.long	0x2985
 8784 2980 09       		.uleb128 0x9
 8785 2981 7A290000 		.long	0x297a
 8786 2985 56       		.uleb128 0x56
 8787 2986 57       		.uleb128 0x57
 8788 2987 01240000 		.long	0x2401
 8789 298b 00000000 		.long	.LFB238
 8790 298f 61000000 		.long	.LFE238-.LFB238
 8791 2993 01       		.uleb128 0x1
 8792 2994 9C       		.byte	0x9c
 8793 2995 332A0000 		.long	0x2a33
 8794 2999 58       		.uleb128 0x58
 8795 299a 12240000 		.long	0x2412
 8796 299e 02       		.uleb128 0x2
 8797 299f 91       		.byte	0x91
 8798 29a0 00       		.sleb128 0
 8799 29a1 58       		.uleb128 0x58
 8800 29a2 1E240000 		.long	0x241e
 8801 29a6 02       		.uleb128 0x2
 8802 29a7 91       		.byte	0x91
 8803 29a8 04       		.sleb128 4
 8804 29a9 27       		.uleb128 0x27
 8805 29aa 30000000 		.long	.Ldebug_ranges0+0x30
 8806 29ae F9290000 		.long	0x29f9
 8807 29b2 59       		.uleb128 0x59
 8808 29b3 34240000 		.long	0x2434
 8809 29b7 790A0000 		.long	.LLST8
GAS LISTING /tmp/cccyco2T.s 			page 158


 8810 29bb 770A0000 		.long	.LVUS8
 8811 29bf 4B       		.uleb128 0x4b
 8812 29c0 77270000 		.long	0x2777
 8813 29c4 26000000 		.long	.LBI304
 8814 29c8 01       		.byte	.LVU119
 8815 29c9 26000000 		.long	.LBB304
 8816 29cd 0A000000 		.long	.LBE304-.LBB304
 8817 29d1 01       		.byte	0x1
 8818 29d2 E7       		.byte	0xe7
 8819 29d3 11       		.byte	0x11
 8820 29d4 2A       		.uleb128 0x2a
 8821 29d5 96270000 		.long	0x2796
 8822 29d9 8E0A0000 		.long	.LLST9
 8823 29dd 8C0A0000 		.long	.LVUS9
 8824 29e1 2A       		.uleb128 0x2a
 8825 29e2 89270000 		.long	0x2789
 8826 29e6 A40A0000 		.long	.LLST10
 8827 29ea A20A0000 		.long	.LVUS10
 8828 29ee 37       		.uleb128 0x37
 8829 29ef 30000000 		.long	.LVL14
 8830 29f3 4F2B0000 		.long	0x2b4f
 8831 29f7 00       		.byte	0
 8832 29f8 00       		.byte	0
 8833 29f9 4B       		.uleb128 0x4b
 8834 29fa 01240000 		.long	0x2401
 8835 29fe 3E000000 		.long	.LBI306
 8836 2a02 00       		.byte	.LVU128
 8837 2a03 3E000000 		.long	.LBB306
 8838 2a07 10000000 		.long	.LBE306-.LBB306
 8839 2a0b 01       		.byte	0x1
 8840 2a0c DE       		.byte	0xde
 8841 2a0d 09       		.byte	0x9
 8842 2a0e 2A       		.uleb128 0x2a
 8843 2a0f 1E240000 		.long	0x241e
 8844 2a13 BA0A0000 		.long	.LLST11
 8845 2a17 B80A0000 		.long	.LVUS11
 8846 2a1b 2A       		.uleb128 0x2a
 8847 2a1c 12240000 		.long	0x2412
 8848 2a20 CF0A0000 		.long	.LLST12
 8849 2a24 CD0A0000 		.long	.LVUS12
 8850 2a28 39       		.uleb128 0x39
 8851 2a29 3E000000 		.long	.LBB307
 8852 2a2d 10000000 		.long	.LBE307-.LBB307
 8853 2a31 00       		.byte	0
 8854 2a32 00       		.byte	0
 8855 2a33 5A       		.uleb128 0x5a
 8856 2a34 07230000 		.long	0x2307
 8857 2a38 00000000 		.long	.LFB240
 8858 2a3c 39000000 		.long	.LFE240-.LFB240
 8859 2a40 01       		.uleb128 0x1
 8860 2a41 9C       		.byte	0x9c
 8861 2a42 542A0000 		.long	0x2a54
 8862 2a46 2A       		.uleb128 0x2a
 8863 2a47 15230000 		.long	0x2315
 8864 2a4b E80A0000 		.long	.LLST15
 8865 2a4f E20A0000 		.long	.LVUS15
 8866 2a53 00       		.byte	0
GAS LISTING /tmp/cccyco2T.s 			page 159


 8867 2a54 57       		.uleb128 0x57
 8868 2a55 9D1A0000 		.long	0x1a9d
 8869 2a59 00000000 		.long	.LFB248
 8870 2a5d 61000000 		.long	.LFE248-.LFB248
 8871 2a61 01       		.uleb128 0x1
 8872 2a62 9C       		.byte	0x9c
 8873 2a63 032B0000 		.long	0x2b03
 8874 2a67 58       		.uleb128 0x58
 8875 2a68 AF1A0000 		.long	0x1aaf
 8876 2a6c 02       		.uleb128 0x2
 8877 2a6d 91       		.byte	0x91
 8878 2a6e 00       		.sleb128 0
 8879 2a6f 58       		.uleb128 0x58
 8880 2a70 BC1A0000 		.long	0x1abc
 8881 2a74 02       		.uleb128 0x2
 8882 2a75 91       		.byte	0x91
 8883 2a76 04       		.sleb128 4
 8884 2a77 27       		.uleb128 0x27
 8885 2a78 50030000 		.long	.Ldebug_ranges0+0x350
 8886 2a7c C82A0000 		.long	0x2ac8
 8887 2a80 59       		.uleb128 0x59
 8888 2a81 D31A0000 		.long	0x1ad3
 8889 2a85 140B0000 		.long	.LLST48
 8890 2a89 120B0000 		.long	.LVUS48
 8891 2a8d 2E       		.uleb128 0x2e
 8892 2a8e 77270000 		.long	0x2777
 8893 2a92 26000000 		.long	.LBI497
 8894 2a96 01       		.byte	.LVU614
 8895 2a97 26000000 		.long	.LBB497
 8896 2a9b 0A000000 		.long	.LBE497-.LBB497
 8897 2a9f 01       		.byte	0x1
 8898 2aa0 5E02     		.value	0x25e
 8899 2aa2 11       		.byte	0x11
 8900 2aa3 2A       		.uleb128 0x2a
 8901 2aa4 96270000 		.long	0x2796
 8902 2aa8 290B0000 		.long	.LLST49
 8903 2aac 270B0000 		.long	.LVUS49
 8904 2ab0 2A       		.uleb128 0x2a
 8905 2ab1 89270000 		.long	0x2789
 8906 2ab5 3F0B0000 		.long	.LLST50
 8907 2ab9 3D0B0000 		.long	.LVUS50
 8908 2abd 37       		.uleb128 0x37
 8909 2abe 30000000 		.long	.LVL87
 8910 2ac2 4F2B0000 		.long	0x2b4f
 8911 2ac6 00       		.byte	0
 8912 2ac7 00       		.byte	0
 8913 2ac8 2E       		.uleb128 0x2e
 8914 2ac9 9D1A0000 		.long	0x1a9d
 8915 2acd 3E000000 		.long	.LBI499
 8916 2ad1 00       		.byte	.LVU623
 8917 2ad2 3E000000 		.long	.LBB499
 8918 2ad6 11000000 		.long	.LBE499-.LBB499
 8919 2ada 01       		.byte	0x1
 8920 2adb 5502     		.value	0x255
 8921 2add 07       		.byte	0x7
 8922 2ade 2A       		.uleb128 0x2a
 8923 2adf BC1A0000 		.long	0x1abc
GAS LISTING /tmp/cccyco2T.s 			page 160


 8924 2ae3 550B0000 		.long	.LLST51
 8925 2ae7 530B0000 		.long	.LVUS51
 8926 2aeb 2A       		.uleb128 0x2a
 8927 2aec AF1A0000 		.long	0x1aaf
 8928 2af0 6A0B0000 		.long	.LLST52
 8929 2af4 680B0000 		.long	.LVUS52
 8930 2af8 39       		.uleb128 0x39
 8931 2af9 3E000000 		.long	.LBB500
 8932 2afd 11000000 		.long	.LBE500-.LBB500
 8933 2b01 00       		.byte	0
 8934 2b02 00       		.byte	0
 8935 2b03 5A       		.uleb128 0x5a
 8936 2b04 62190000 		.long	0x1962
 8937 2b08 00000000 		.long	.LFB250
 8938 2b0c 41000000 		.long	.LFE250-.LFB250
 8939 2b10 01       		.uleb128 0x1
 8940 2b11 9C       		.byte	0x9c
 8941 2b12 2C2B0000 		.long	0x2b2c
 8942 2b16 2A       		.uleb128 0x2a
 8943 2b17 70190000 		.long	0x1970
 8944 2b1b 830B0000 		.long	.LLST56
 8945 2b1f 7D0B0000 		.long	.LVUS56
 8946 2b23 58       		.uleb128 0x58
 8947 2b24 7D190000 		.long	0x197d
 8948 2b28 02       		.uleb128 0x2
 8949 2b29 91       		.byte	0x91
 8950 2b2a 04       		.sleb128 4
 8951 2b2b 00       		.byte	0
 8952 2b2c 5B       		.uleb128 0x5b
 8953 2b2d A4060000 		.long	.LASF319
 8954 2b31 9F030000 		.long	.LASF320
 8955 2b35 24       		.byte	0x24
 8956 2b36 00       		.byte	0
 8957 2b37 5C       		.uleb128 0x5c
 8958 2b38 81070000 		.long	.LASF311
 8959 2b3c 81070000 		.long	.LASF311
 8960 2b40 03       		.byte	0x3
 8961 2b41 FB       		.byte	0xfb
 8962 2b42 08       		.byte	0x8
 8963 2b43 5C       		.uleb128 0x5c
 8964 2b44 8C000000 		.long	.LASF312
 8965 2b48 8C000000 		.long	.LASF312
 8966 2b4c 03       		.byte	0x3
 8967 2b4d FC       		.byte	0xfc
 8968 2b4e 08       		.byte	0x8
 8969 2b4f 5C       		.uleb128 0x5c
 8970 2b50 1A020000 		.long	.LASF313
 8971 2b54 1A020000 		.long	.LASF313
 8972 2b58 03       		.byte	0x3
 8973 2b59 FA       		.byte	0xfa
 8974 2b5a 09       		.byte	0x9
 8975 2b5b 00       		.byte	0
 8976              		.section	.debug_abbrev,"",@progbits
 8977              	.Ldebug_abbrev0:
 8978 0000 01       		.uleb128 0x1
 8979 0001 11       		.uleb128 0x11
 8980 0002 01       		.byte	0x1
GAS LISTING /tmp/cccyco2T.s 			page 161


 8981 0003 25       		.uleb128 0x25
 8982 0004 0E       		.uleb128 0xe
 8983 0005 13       		.uleb128 0x13
 8984 0006 0B       		.uleb128 0xb
 8985 0007 03       		.uleb128 0x3
 8986 0008 0E       		.uleb128 0xe
 8987 0009 1B       		.uleb128 0x1b
 8988 000a 0E       		.uleb128 0xe
 8989 000b 55       		.uleb128 0x55
 8990 000c 17       		.uleb128 0x17
 8991 000d 11       		.uleb128 0x11
 8992 000e 01       		.uleb128 0x1
 8993 000f 10       		.uleb128 0x10
 8994 0010 17       		.uleb128 0x17
 8995 0011 00       		.byte	0
 8996 0012 00       		.byte	0
 8997 0013 02       		.uleb128 0x2
 8998 0014 16       		.uleb128 0x16
 8999 0015 00       		.byte	0
 9000 0016 03       		.uleb128 0x3
 9001 0017 0E       		.uleb128 0xe
 9002 0018 3A       		.uleb128 0x3a
 9003 0019 0B       		.uleb128 0xb
 9004 001a 3B       		.uleb128 0x3b
 9005 001b 0B       		.uleb128 0xb
 9006 001c 39       		.uleb128 0x39
 9007 001d 0B       		.uleb128 0xb
 9008 001e 49       		.uleb128 0x49
 9009 001f 13       		.uleb128 0x13
 9010 0020 00       		.byte	0
 9011 0021 00       		.byte	0
 9012 0022 03       		.uleb128 0x3
 9013 0023 35       		.uleb128 0x35
 9014 0024 00       		.byte	0
 9015 0025 49       		.uleb128 0x49
 9016 0026 13       		.uleb128 0x13
 9017 0027 00       		.byte	0
 9018 0028 00       		.byte	0
 9019 0029 04       		.uleb128 0x4
 9020 002a 24       		.uleb128 0x24
 9021 002b 00       		.byte	0
 9022 002c 0B       		.uleb128 0xb
 9023 002d 0B       		.uleb128 0xb
 9024 002e 3E       		.uleb128 0x3e
 9025 002f 0B       		.uleb128 0xb
 9026 0030 03       		.uleb128 0x3
 9027 0031 0E       		.uleb128 0xe
 9028 0032 00       		.byte	0
 9029 0033 00       		.byte	0
 9030 0034 05       		.uleb128 0x5
 9031 0035 24       		.uleb128 0x24
 9032 0036 00       		.byte	0
 9033 0037 0B       		.uleb128 0xb
 9034 0038 0B       		.uleb128 0xb
 9035 0039 3E       		.uleb128 0x3e
 9036 003a 0B       		.uleb128 0xb
 9037 003b 03       		.uleb128 0x3
GAS LISTING /tmp/cccyco2T.s 			page 162


 9038 003c 08       		.uleb128 0x8
 9039 003d 00       		.byte	0
 9040 003e 00       		.byte	0
 9041 003f 06       		.uleb128 0x6
 9042 0040 0F       		.uleb128 0xf
 9043 0041 00       		.byte	0
 9044 0042 0B       		.uleb128 0xb
 9045 0043 0B       		.uleb128 0xb
 9046 0044 49       		.uleb128 0x49
 9047 0045 13       		.uleb128 0x13
 9048 0046 00       		.byte	0
 9049 0047 00       		.byte	0
 9050 0048 07       		.uleb128 0x7
 9051 0049 26       		.uleb128 0x26
 9052 004a 00       		.byte	0
 9053 004b 49       		.uleb128 0x49
 9054 004c 13       		.uleb128 0x13
 9055 004d 00       		.byte	0
 9056 004e 00       		.byte	0
 9057 004f 08       		.uleb128 0x8
 9058 0050 0F       		.uleb128 0xf
 9059 0051 00       		.byte	0
 9060 0052 0B       		.uleb128 0xb
 9061 0053 0B       		.uleb128 0xb
 9062 0054 00       		.byte	0
 9063 0055 00       		.byte	0
 9064 0056 09       		.uleb128 0x9
 9065 0057 37       		.uleb128 0x37
 9066 0058 00       		.byte	0
 9067 0059 49       		.uleb128 0x49
 9068 005a 13       		.uleb128 0x13
 9069 005b 00       		.byte	0
 9070 005c 00       		.byte	0
 9071 005d 0A       		.uleb128 0xa
 9072 005e 13       		.uleb128 0x13
 9073 005f 01       		.byte	0x1
 9074 0060 03       		.uleb128 0x3
 9075 0061 0E       		.uleb128 0xe
 9076 0062 0B       		.uleb128 0xb
 9077 0063 0B       		.uleb128 0xb
 9078 0064 3A       		.uleb128 0x3a
 9079 0065 0B       		.uleb128 0xb
 9080 0066 3B       		.uleb128 0x3b
 9081 0067 0B       		.uleb128 0xb
 9082 0068 39       		.uleb128 0x39
 9083 0069 0B       		.uleb128 0xb
 9084 006a 01       		.uleb128 0x1
 9085 006b 13       		.uleb128 0x13
 9086 006c 00       		.byte	0
 9087 006d 00       		.byte	0
 9088 006e 0B       		.uleb128 0xb
 9089 006f 0D       		.uleb128 0xd
 9090 0070 00       		.byte	0
 9091 0071 03       		.uleb128 0x3
 9092 0072 0E       		.uleb128 0xe
 9093 0073 3A       		.uleb128 0x3a
 9094 0074 0B       		.uleb128 0xb
GAS LISTING /tmp/cccyco2T.s 			page 163


 9095 0075 3B       		.uleb128 0x3b
 9096 0076 0B       		.uleb128 0xb
 9097 0077 39       		.uleb128 0x39
 9098 0078 0B       		.uleb128 0xb
 9099 0079 49       		.uleb128 0x49
 9100 007a 13       		.uleb128 0x13
 9101 007b 38       		.uleb128 0x38
 9102 007c 0B       		.uleb128 0xb
 9103 007d 00       		.byte	0
 9104 007e 00       		.byte	0
 9105 007f 0C       		.uleb128 0xc
 9106 0080 0D       		.uleb128 0xd
 9107 0081 00       		.byte	0
 9108 0082 03       		.uleb128 0x3
 9109 0083 08       		.uleb128 0x8
 9110 0084 3A       		.uleb128 0x3a
 9111 0085 0B       		.uleb128 0xb
 9112 0086 3B       		.uleb128 0x3b
 9113 0087 0B       		.uleb128 0xb
 9114 0088 39       		.uleb128 0x39
 9115 0089 0B       		.uleb128 0xb
 9116 008a 49       		.uleb128 0x49
 9117 008b 13       		.uleb128 0x13
 9118 008c 38       		.uleb128 0x38
 9119 008d 0B       		.uleb128 0xb
 9120 008e 00       		.byte	0
 9121 008f 00       		.byte	0
 9122 0090 0D       		.uleb128 0xd
 9123 0091 0D       		.uleb128 0xd
 9124 0092 00       		.byte	0
 9125 0093 03       		.uleb128 0x3
 9126 0094 08       		.uleb128 0x8
 9127 0095 3A       		.uleb128 0x3a
 9128 0096 0B       		.uleb128 0xb
 9129 0097 3B       		.uleb128 0x3b
 9130 0098 05       		.uleb128 0x5
 9131 0099 39       		.uleb128 0x39
 9132 009a 0B       		.uleb128 0xb
 9133 009b 49       		.uleb128 0x49
 9134 009c 13       		.uleb128 0x13
 9135 009d 38       		.uleb128 0x38
 9136 009e 0B       		.uleb128 0xb
 9137 009f 00       		.byte	0
 9138 00a0 00       		.byte	0
 9139 00a1 0E       		.uleb128 0xe
 9140 00a2 0D       		.uleb128 0xd
 9141 00a3 00       		.byte	0
 9142 00a4 03       		.uleb128 0x3
 9143 00a5 0E       		.uleb128 0xe
 9144 00a6 3A       		.uleb128 0x3a
 9145 00a7 0B       		.uleb128 0xb
 9146 00a8 3B       		.uleb128 0x3b
 9147 00a9 05       		.uleb128 0x5
 9148 00aa 39       		.uleb128 0x39
 9149 00ab 0B       		.uleb128 0xb
 9150 00ac 49       		.uleb128 0x49
 9151 00ad 13       		.uleb128 0x13
GAS LISTING /tmp/cccyco2T.s 			page 164


 9152 00ae 38       		.uleb128 0x38
 9153 00af 0B       		.uleb128 0xb
 9154 00b0 00       		.byte	0
 9155 00b1 00       		.byte	0
 9156 00b2 0F       		.uleb128 0xf
 9157 00b3 13       		.uleb128 0x13
 9158 00b4 01       		.byte	0x1
 9159 00b5 03       		.uleb128 0x3
 9160 00b6 0E       		.uleb128 0xe
 9161 00b7 0B       		.uleb128 0xb
 9162 00b8 0B       		.uleb128 0xb
 9163 00b9 3A       		.uleb128 0x3a
 9164 00ba 0B       		.uleb128 0xb
 9165 00bb 3B       		.uleb128 0x3b
 9166 00bc 05       		.uleb128 0x5
 9167 00bd 39       		.uleb128 0x39
 9168 00be 0B       		.uleb128 0xb
 9169 00bf 01       		.uleb128 0x1
 9170 00c0 13       		.uleb128 0x13
 9171 00c1 00       		.byte	0
 9172 00c2 00       		.byte	0
 9173 00c3 10       		.uleb128 0x10
 9174 00c4 15       		.uleb128 0x15
 9175 00c5 01       		.byte	0x1
 9176 00c6 27       		.uleb128 0x27
 9177 00c7 19       		.uleb128 0x19
 9178 00c8 01       		.uleb128 0x1
 9179 00c9 13       		.uleb128 0x13
 9180 00ca 00       		.byte	0
 9181 00cb 00       		.byte	0
 9182 00cc 11       		.uleb128 0x11
 9183 00cd 05       		.uleb128 0x5
 9184 00ce 00       		.byte	0
 9185 00cf 49       		.uleb128 0x49
 9186 00d0 13       		.uleb128 0x13
 9187 00d1 00       		.byte	0
 9188 00d2 00       		.byte	0
 9189 00d3 12       		.uleb128 0x12
 9190 00d4 13       		.uleb128 0x13
 9191 00d5 01       		.byte	0x1
 9192 00d6 0B       		.uleb128 0xb
 9193 00d7 0B       		.uleb128 0xb
 9194 00d8 3A       		.uleb128 0x3a
 9195 00d9 0B       		.uleb128 0xb
 9196 00da 3B       		.uleb128 0x3b
 9197 00db 0B       		.uleb128 0xb
 9198 00dc 39       		.uleb128 0x39
 9199 00dd 0B       		.uleb128 0xb
 9200 00de 01       		.uleb128 0x1
 9201 00df 13       		.uleb128 0x13
 9202 00e0 00       		.byte	0
 9203 00e1 00       		.byte	0
 9204 00e2 13       		.uleb128 0x13
 9205 00e3 01       		.uleb128 0x1
 9206 00e4 01       		.byte	0x1
 9207 00e5 49       		.uleb128 0x49
 9208 00e6 13       		.uleb128 0x13
GAS LISTING /tmp/cccyco2T.s 			page 165


 9209 00e7 01       		.uleb128 0x1
 9210 00e8 13       		.uleb128 0x13
 9211 00e9 00       		.byte	0
 9212 00ea 00       		.byte	0
 9213 00eb 14       		.uleb128 0x14
 9214 00ec 21       		.uleb128 0x21
 9215 00ed 00       		.byte	0
 9216 00ee 49       		.uleb128 0x49
 9217 00ef 13       		.uleb128 0x13
 9218 00f0 2F       		.uleb128 0x2f
 9219 00f1 0B       		.uleb128 0xb
 9220 00f2 00       		.byte	0
 9221 00f3 00       		.byte	0
 9222 00f4 15       		.uleb128 0x15
 9223 00f5 16       		.uleb128 0x16
 9224 00f6 00       		.byte	0
 9225 00f7 03       		.uleb128 0x3
 9226 00f8 0E       		.uleb128 0xe
 9227 00f9 3A       		.uleb128 0x3a
 9228 00fa 0B       		.uleb128 0xb
 9229 00fb 3B       		.uleb128 0x3b
 9230 00fc 0B       		.uleb128 0xb
 9231 00fd 39       		.uleb128 0x39
 9232 00fe 0B       		.uleb128 0xb
 9233 00ff 49       		.uleb128 0x49
 9234 0100 13       		.uleb128 0x13
 9235 0101 8801     		.uleb128 0x88
 9236 0103 0B       		.uleb128 0xb
 9237 0104 00       		.byte	0
 9238 0105 00       		.byte	0
 9239 0106 16       		.uleb128 0x16
 9240 0107 34       		.uleb128 0x34
 9241 0108 00       		.byte	0
 9242 0109 03       		.uleb128 0x3
 9243 010a 0E       		.uleb128 0xe
 9244 010b 3A       		.uleb128 0x3a
 9245 010c 0B       		.uleb128 0xb
 9246 010d 3B       		.uleb128 0x3b
 9247 010e 05       		.uleb128 0x5
 9248 010f 39       		.uleb128 0x39
 9249 0110 0B       		.uleb128 0xb
 9250 0111 49       		.uleb128 0x49
 9251 0112 13       		.uleb128 0x13
 9252 0113 3F       		.uleb128 0x3f
 9253 0114 19       		.uleb128 0x19
 9254 0115 3C       		.uleb128 0x3c
 9255 0116 19       		.uleb128 0x19
 9256 0117 00       		.byte	0
 9257 0118 00       		.byte	0
 9258 0119 17       		.uleb128 0x17
 9259 011a 17       		.uleb128 0x17
 9260 011b 01       		.byte	0x1
 9261 011c 0B       		.uleb128 0xb
 9262 011d 0B       		.uleb128 0xb
 9263 011e 3A       		.uleb128 0x3a
 9264 011f 0B       		.uleb128 0xb
 9265 0120 3B       		.uleb128 0x3b
GAS LISTING /tmp/cccyco2T.s 			page 166


 9266 0121 0B       		.uleb128 0xb
 9267 0122 39       		.uleb128 0x39
 9268 0123 0B       		.uleb128 0xb
 9269 0124 01       		.uleb128 0x1
 9270 0125 13       		.uleb128 0x13
 9271 0126 00       		.byte	0
 9272 0127 00       		.byte	0
 9273 0128 18       		.uleb128 0x18
 9274 0129 0D       		.uleb128 0xd
 9275 012a 00       		.byte	0
 9276 012b 03       		.uleb128 0x3
 9277 012c 0E       		.uleb128 0xe
 9278 012d 3A       		.uleb128 0x3a
 9279 012e 0B       		.uleb128 0xb
 9280 012f 3B       		.uleb128 0x3b
 9281 0130 0B       		.uleb128 0xb
 9282 0131 39       		.uleb128 0x39
 9283 0132 0B       		.uleb128 0xb
 9284 0133 49       		.uleb128 0x49
 9285 0134 13       		.uleb128 0x13
 9286 0135 00       		.byte	0
 9287 0136 00       		.byte	0
 9288 0137 19       		.uleb128 0x19
 9289 0138 0D       		.uleb128 0xd
 9290 0139 00       		.byte	0
 9291 013a 03       		.uleb128 0x3
 9292 013b 0E       		.uleb128 0xe
 9293 013c 3A       		.uleb128 0x3a
 9294 013d 0B       		.uleb128 0xb
 9295 013e 3B       		.uleb128 0x3b
 9296 013f 05       		.uleb128 0x5
 9297 0140 39       		.uleb128 0x39
 9298 0141 0B       		.uleb128 0xb
 9299 0142 49       		.uleb128 0x49
 9300 0143 13       		.uleb128 0x13
 9301 0144 00       		.byte	0
 9302 0145 00       		.byte	0
 9303 0146 1A       		.uleb128 0x1a
 9304 0147 34       		.uleb128 0x34
 9305 0148 00       		.byte	0
 9306 0149 03       		.uleb128 0x3
 9307 014a 08       		.uleb128 0x8
 9308 014b 3A       		.uleb128 0x3a
 9309 014c 0B       		.uleb128 0xb
 9310 014d 3B       		.uleb128 0x3b
 9311 014e 05       		.uleb128 0x5
 9312 014f 39       		.uleb128 0x39
 9313 0150 0B       		.uleb128 0xb
 9314 0151 49       		.uleb128 0x49
 9315 0152 13       		.uleb128 0x13
 9316 0153 3F       		.uleb128 0x3f
 9317 0154 19       		.uleb128 0x19
 9318 0155 3C       		.uleb128 0x3c
 9319 0156 19       		.uleb128 0x19
 9320 0157 00       		.byte	0
 9321 0158 00       		.byte	0
 9322 0159 1B       		.uleb128 0x1b
GAS LISTING /tmp/cccyco2T.s 			page 167


 9323 015a 01       		.uleb128 0x1
 9324 015b 01       		.byte	0x1
 9325 015c 49       		.uleb128 0x49
 9326 015d 13       		.uleb128 0x13
 9327 015e 8801     		.uleb128 0x88
 9328 0160 0B       		.uleb128 0xb
 9329 0161 01       		.uleb128 0x1
 9330 0162 13       		.uleb128 0x13
 9331 0163 00       		.byte	0
 9332 0164 00       		.byte	0
 9333 0165 1C       		.uleb128 0x1c
 9334 0166 21       		.uleb128 0x21
 9335 0167 00       		.byte	0
 9336 0168 00       		.byte	0
 9337 0169 00       		.byte	0
 9338 016a 1D       		.uleb128 0x1d
 9339 016b 34       		.uleb128 0x34
 9340 016c 00       		.byte	0
 9341 016d 03       		.uleb128 0x3
 9342 016e 0E       		.uleb128 0xe
 9343 016f 3A       		.uleb128 0x3a
 9344 0170 0B       		.uleb128 0xb
 9345 0171 3B       		.uleb128 0x3b
 9346 0172 0B       		.uleb128 0xb
 9347 0173 39       		.uleb128 0x39
 9348 0174 0B       		.uleb128 0xb
 9349 0175 49       		.uleb128 0x49
 9350 0176 13       		.uleb128 0x13
 9351 0177 3F       		.uleb128 0x3f
 9352 0178 19       		.uleb128 0x19
 9353 0179 3C       		.uleb128 0x3c
 9354 017a 19       		.uleb128 0x19
 9355 017b 00       		.byte	0
 9356 017c 00       		.byte	0
 9357 017d 1E       		.uleb128 0x1e
 9358 017e 15       		.uleb128 0x15
 9359 017f 01       		.byte	0x1
 9360 0180 27       		.uleb128 0x27
 9361 0181 19       		.uleb128 0x19
 9362 0182 49       		.uleb128 0x49
 9363 0183 13       		.uleb128 0x13
 9364 0184 01       		.uleb128 0x1
 9365 0185 13       		.uleb128 0x13
 9366 0186 00       		.byte	0
 9367 0187 00       		.byte	0
 9368 0188 1F       		.uleb128 0x1f
 9369 0189 16       		.uleb128 0x16
 9370 018a 00       		.byte	0
 9371 018b 03       		.uleb128 0x3
 9372 018c 0E       		.uleb128 0xe
 9373 018d 3A       		.uleb128 0x3a
 9374 018e 0B       		.uleb128 0xb
 9375 018f 3B       		.uleb128 0x3b
 9376 0190 05       		.uleb128 0x5
 9377 0191 39       		.uleb128 0x39
 9378 0192 0B       		.uleb128 0xb
 9379 0193 49       		.uleb128 0x49
GAS LISTING /tmp/cccyco2T.s 			page 168


 9380 0194 13       		.uleb128 0x13
 9381 0195 00       		.byte	0
 9382 0196 00       		.byte	0
 9383 0197 20       		.uleb128 0x20
 9384 0198 16       		.uleb128 0x16
 9385 0199 00       		.byte	0
 9386 019a 03       		.uleb128 0x3
 9387 019b 0E       		.uleb128 0xe
 9388 019c 3A       		.uleb128 0x3a
 9389 019d 0B       		.uleb128 0xb
 9390 019e 3B       		.uleb128 0x3b
 9391 019f 0B       		.uleb128 0xb
 9392 01a0 39       		.uleb128 0x39
 9393 01a1 0B       		.uleb128 0xb
 9394 01a2 00       		.byte	0
 9395 01a3 00       		.byte	0
 9396 01a4 21       		.uleb128 0x21
 9397 01a5 13       		.uleb128 0x13
 9398 01a6 00       		.byte	0
 9399 01a7 03       		.uleb128 0x3
 9400 01a8 0E       		.uleb128 0xe
 9401 01a9 3C       		.uleb128 0x3c
 9402 01aa 19       		.uleb128 0x19
 9403 01ab 00       		.byte	0
 9404 01ac 00       		.byte	0
 9405 01ad 22       		.uleb128 0x22
 9406 01ae 04       		.uleb128 0x4
 9407 01af 01       		.byte	0x1
 9408 01b0 3E       		.uleb128 0x3e
 9409 01b1 0B       		.uleb128 0xb
 9410 01b2 0B       		.uleb128 0xb
 9411 01b3 0B       		.uleb128 0xb
 9412 01b4 49       		.uleb128 0x49
 9413 01b5 13       		.uleb128 0x13
 9414 01b6 3A       		.uleb128 0x3a
 9415 01b7 0B       		.uleb128 0xb
 9416 01b8 3B       		.uleb128 0x3b
 9417 01b9 0B       		.uleb128 0xb
 9418 01ba 39       		.uleb128 0x39
 9419 01bb 0B       		.uleb128 0xb
 9420 01bc 01       		.uleb128 0x1
 9421 01bd 13       		.uleb128 0x13
 9422 01be 00       		.byte	0
 9423 01bf 00       		.byte	0
 9424 01c0 23       		.uleb128 0x23
 9425 01c1 28       		.uleb128 0x28
 9426 01c2 00       		.byte	0
 9427 01c3 03       		.uleb128 0x3
 9428 01c4 0E       		.uleb128 0xe
 9429 01c5 1C       		.uleb128 0x1c
 9430 01c6 0B       		.uleb128 0xb
 9431 01c7 00       		.byte	0
 9432 01c8 00       		.byte	0
 9433 01c9 24       		.uleb128 0x24
 9434 01ca 34       		.uleb128 0x34
 9435 01cb 00       		.byte	0
 9436 01cc 03       		.uleb128 0x3
GAS LISTING /tmp/cccyco2T.s 			page 169


 9437 01cd 08       		.uleb128 0x8
 9438 01ce 3A       		.uleb128 0x3a
 9439 01cf 0B       		.uleb128 0xb
 9440 01d0 3B       		.uleb128 0x3b
 9441 01d1 0B       		.uleb128 0xb
 9442 01d2 39       		.uleb128 0x39
 9443 01d3 0B       		.uleb128 0xb
 9444 01d4 49       		.uleb128 0x49
 9445 01d5 13       		.uleb128 0x13
 9446 01d6 3F       		.uleb128 0x3f
 9447 01d7 19       		.uleb128 0x19
 9448 01d8 3C       		.uleb128 0x3c
 9449 01d9 19       		.uleb128 0x19
 9450 01da 00       		.byte	0
 9451 01db 00       		.byte	0
 9452 01dc 25       		.uleb128 0x25
 9453 01dd 2E       		.uleb128 0x2e
 9454 01de 01       		.byte	0x1
 9455 01df 3F       		.uleb128 0x3f
 9456 01e0 19       		.uleb128 0x19
 9457 01e1 03       		.uleb128 0x3
 9458 01e2 0E       		.uleb128 0xe
 9459 01e3 3A       		.uleb128 0x3a
 9460 01e4 0B       		.uleb128 0xb
 9461 01e5 3B       		.uleb128 0x3b
 9462 01e6 05       		.uleb128 0x5
 9463 01e7 39       		.uleb128 0x39
 9464 01e8 0B       		.uleb128 0xb
 9465 01e9 27       		.uleb128 0x27
 9466 01ea 19       		.uleb128 0x19
 9467 01eb 11       		.uleb128 0x11
 9468 01ec 01       		.uleb128 0x1
 9469 01ed 12       		.uleb128 0x12
 9470 01ee 06       		.uleb128 0x6
 9471 01ef 40       		.uleb128 0x40
 9472 01f0 18       		.uleb128 0x18
 9473 01f1 9642     		.uleb128 0x2116
 9474 01f3 19       		.uleb128 0x19
 9475 01f4 01       		.uleb128 0x1
 9476 01f5 13       		.uleb128 0x13
 9477 01f6 00       		.byte	0
 9478 01f7 00       		.byte	0
 9479 01f8 26       		.uleb128 0x26
 9480 01f9 05       		.uleb128 0x5
 9481 01fa 00       		.byte	0
 9482 01fb 03       		.uleb128 0x3
 9483 01fc 0E       		.uleb128 0xe
 9484 01fd 3A       		.uleb128 0x3a
 9485 01fe 0B       		.uleb128 0xb
 9486 01ff 3B       		.uleb128 0x3b
 9487 0200 05       		.uleb128 0x5
 9488 0201 39       		.uleb128 0x39
 9489 0202 0B       		.uleb128 0xb
 9490 0203 49       		.uleb128 0x49
 9491 0204 13       		.uleb128 0x13
 9492 0205 02       		.uleb128 0x2
 9493 0206 18       		.uleb128 0x18
GAS LISTING /tmp/cccyco2T.s 			page 170


 9494 0207 00       		.byte	0
 9495 0208 00       		.byte	0
 9496 0209 27       		.uleb128 0x27
 9497 020a 0B       		.uleb128 0xb
 9498 020b 01       		.byte	0x1
 9499 020c 55       		.uleb128 0x55
 9500 020d 17       		.uleb128 0x17
 9501 020e 01       		.uleb128 0x1
 9502 020f 13       		.uleb128 0x13
 9503 0210 00       		.byte	0
 9504 0211 00       		.byte	0
 9505 0212 28       		.uleb128 0x28
 9506 0213 34       		.uleb128 0x34
 9507 0214 00       		.byte	0
 9508 0215 03       		.uleb128 0x3
 9509 0216 0E       		.uleb128 0xe
 9510 0217 3A       		.uleb128 0x3a
 9511 0218 0B       		.uleb128 0xb
 9512 0219 3B       		.uleb128 0x3b
 9513 021a 05       		.uleb128 0x5
 9514 021b 39       		.uleb128 0x39
 9515 021c 0B       		.uleb128 0xb
 9516 021d 49       		.uleb128 0x49
 9517 021e 13       		.uleb128 0x13
 9518 021f 02       		.uleb128 0x2
 9519 0220 17       		.uleb128 0x17
 9520 0221 B742     		.uleb128 0x2137
 9521 0223 17       		.uleb128 0x17
 9522 0224 00       		.byte	0
 9523 0225 00       		.byte	0
 9524 0226 29       		.uleb128 0x29
 9525 0227 1D       		.uleb128 0x1d
 9526 0228 01       		.byte	0x1
 9527 0229 31       		.uleb128 0x31
 9528 022a 13       		.uleb128 0x13
 9529 022b 52       		.uleb128 0x52
 9530 022c 01       		.uleb128 0x1
 9531 022d B842     		.uleb128 0x2138
 9532 022f 0B       		.uleb128 0xb
 9533 0230 55       		.uleb128 0x55
 9534 0231 17       		.uleb128 0x17
 9535 0232 58       		.uleb128 0x58
 9536 0233 0B       		.uleb128 0xb
 9537 0234 59       		.uleb128 0x59
 9538 0235 05       		.uleb128 0x5
 9539 0236 57       		.uleb128 0x57
 9540 0237 0B       		.uleb128 0xb
 9541 0238 00       		.byte	0
 9542 0239 00       		.byte	0
 9543 023a 2A       		.uleb128 0x2a
 9544 023b 05       		.uleb128 0x5
 9545 023c 00       		.byte	0
 9546 023d 31       		.uleb128 0x31
 9547 023e 13       		.uleb128 0x13
 9548 023f 02       		.uleb128 0x2
 9549 0240 17       		.uleb128 0x17
 9550 0241 B742     		.uleb128 0x2137
GAS LISTING /tmp/cccyco2T.s 			page 171


 9551 0243 17       		.uleb128 0x17
 9552 0244 00       		.byte	0
 9553 0245 00       		.byte	0
 9554 0246 2B       		.uleb128 0x2b
 9555 0247 0B       		.uleb128 0xb
 9556 0248 00       		.byte	0
 9557 0249 55       		.uleb128 0x55
 9558 024a 17       		.uleb128 0x17
 9559 024b 00       		.byte	0
 9560 024c 00       		.byte	0
 9561 024d 2C       		.uleb128 0x2c
 9562 024e 1D       		.uleb128 0x1d
 9563 024f 01       		.byte	0x1
 9564 0250 31       		.uleb128 0x31
 9565 0251 13       		.uleb128 0x13
 9566 0252 52       		.uleb128 0x52
 9567 0253 01       		.uleb128 0x1
 9568 0254 B842     		.uleb128 0x2138
 9569 0256 0B       		.uleb128 0xb
 9570 0257 55       		.uleb128 0x55
 9571 0258 17       		.uleb128 0x17
 9572 0259 58       		.uleb128 0x58
 9573 025a 0B       		.uleb128 0xb
 9574 025b 59       		.uleb128 0x59
 9575 025c 05       		.uleb128 0x5
 9576 025d 57       		.uleb128 0x57
 9577 025e 0B       		.uleb128 0xb
 9578 025f 01       		.uleb128 0x1
 9579 0260 13       		.uleb128 0x13
 9580 0261 00       		.byte	0
 9581 0262 00       		.byte	0
 9582 0263 2D       		.uleb128 0x2d
 9583 0264 1D       		.uleb128 0x1d
 9584 0265 00       		.byte	0
 9585 0266 31       		.uleb128 0x31
 9586 0267 13       		.uleb128 0x13
 9587 0268 52       		.uleb128 0x52
 9588 0269 01       		.uleb128 0x1
 9589 026a B842     		.uleb128 0x2138
 9590 026c 0B       		.uleb128 0xb
 9591 026d 55       		.uleb128 0x55
 9592 026e 17       		.uleb128 0x17
 9593 026f 58       		.uleb128 0x58
 9594 0270 0B       		.uleb128 0xb
 9595 0271 59       		.uleb128 0x59
 9596 0272 05       		.uleb128 0x5
 9597 0273 57       		.uleb128 0x57
 9598 0274 0B       		.uleb128 0xb
 9599 0275 00       		.byte	0
 9600 0276 00       		.byte	0
 9601 0277 2E       		.uleb128 0x2e
 9602 0278 1D       		.uleb128 0x1d
 9603 0279 01       		.byte	0x1
 9604 027a 31       		.uleb128 0x31
 9605 027b 13       		.uleb128 0x13
 9606 027c 52       		.uleb128 0x52
 9607 027d 01       		.uleb128 0x1
GAS LISTING /tmp/cccyco2T.s 			page 172


 9608 027e B842     		.uleb128 0x2138
 9609 0280 0B       		.uleb128 0xb
 9610 0281 11       		.uleb128 0x11
 9611 0282 01       		.uleb128 0x1
 9612 0283 12       		.uleb128 0x12
 9613 0284 06       		.uleb128 0x6
 9614 0285 58       		.uleb128 0x58
 9615 0286 0B       		.uleb128 0xb
 9616 0287 59       		.uleb128 0x59
 9617 0288 05       		.uleb128 0x5
 9618 0289 57       		.uleb128 0x57
 9619 028a 0B       		.uleb128 0xb
 9620 028b 00       		.byte	0
 9621 028c 00       		.byte	0
 9622 028d 2F       		.uleb128 0x2f
 9623 028e 0B       		.uleb128 0xb
 9624 028f 01       		.byte	0x1
 9625 0290 11       		.uleb128 0x11
 9626 0291 01       		.uleb128 0x1
 9627 0292 12       		.uleb128 0x12
 9628 0293 06       		.uleb128 0x6
 9629 0294 00       		.byte	0
 9630 0295 00       		.byte	0
 9631 0296 30       		.uleb128 0x30
 9632 0297 1D       		.uleb128 0x1d
 9633 0298 00       		.byte	0
 9634 0299 31       		.uleb128 0x31
 9635 029a 13       		.uleb128 0x13
 9636 029b 52       		.uleb128 0x52
 9637 029c 01       		.uleb128 0x1
 9638 029d B842     		.uleb128 0x2138
 9639 029f 0B       		.uleb128 0xb
 9640 02a0 11       		.uleb128 0x11
 9641 02a1 01       		.uleb128 0x1
 9642 02a2 12       		.uleb128 0x12
 9643 02a3 06       		.uleb128 0x6
 9644 02a4 58       		.uleb128 0x58
 9645 02a5 0B       		.uleb128 0xb
 9646 02a6 59       		.uleb128 0x59
 9647 02a7 05       		.uleb128 0x5
 9648 02a8 57       		.uleb128 0x57
 9649 02a9 0B       		.uleb128 0xb
 9650 02aa 00       		.byte	0
 9651 02ab 00       		.byte	0
 9652 02ac 31       		.uleb128 0x31
 9653 02ad 2E       		.uleb128 0x2e
 9654 02ae 01       		.byte	0x1
 9655 02af 3F       		.uleb128 0x3f
 9656 02b0 19       		.uleb128 0x19
 9657 02b1 03       		.uleb128 0x3
 9658 02b2 0E       		.uleb128 0xe
 9659 02b3 3A       		.uleb128 0x3a
 9660 02b4 0B       		.uleb128 0xb
 9661 02b5 3B       		.uleb128 0x3b
 9662 02b6 05       		.uleb128 0x5
 9663 02b7 39       		.uleb128 0x39
 9664 02b8 0B       		.uleb128 0xb
GAS LISTING /tmp/cccyco2T.s 			page 173


 9665 02b9 27       		.uleb128 0x27
 9666 02ba 19       		.uleb128 0x19
 9667 02bb 49       		.uleb128 0x49
 9668 02bc 13       		.uleb128 0x13
 9669 02bd 11       		.uleb128 0x11
 9670 02be 01       		.uleb128 0x1
 9671 02bf 12       		.uleb128 0x12
 9672 02c0 06       		.uleb128 0x6
 9673 02c1 40       		.uleb128 0x40
 9674 02c2 18       		.uleb128 0x18
 9675 02c3 9742     		.uleb128 0x2117
 9676 02c5 19       		.uleb128 0x19
 9677 02c6 01       		.uleb128 0x1
 9678 02c7 13       		.uleb128 0x13
 9679 02c8 00       		.byte	0
 9680 02c9 00       		.byte	0
 9681 02ca 32       		.uleb128 0x32
 9682 02cb 2E       		.uleb128 0x2e
 9683 02cc 01       		.byte	0x1
 9684 02cd 3F       		.uleb128 0x3f
 9685 02ce 19       		.uleb128 0x19
 9686 02cf 03       		.uleb128 0x3
 9687 02d0 0E       		.uleb128 0xe
 9688 02d1 3A       		.uleb128 0x3a
 9689 02d2 0B       		.uleb128 0xb
 9690 02d3 3B       		.uleb128 0x3b
 9691 02d4 05       		.uleb128 0x5
 9692 02d5 39       		.uleb128 0x39
 9693 02d6 0B       		.uleb128 0xb
 9694 02d7 27       		.uleb128 0x27
 9695 02d8 19       		.uleb128 0x19
 9696 02d9 49       		.uleb128 0x49
 9697 02da 13       		.uleb128 0x13
 9698 02db 11       		.uleb128 0x11
 9699 02dc 01       		.uleb128 0x1
 9700 02dd 12       		.uleb128 0x12
 9701 02de 06       		.uleb128 0x6
 9702 02df 40       		.uleb128 0x40
 9703 02e0 18       		.uleb128 0x18
 9704 02e1 9642     		.uleb128 0x2116
 9705 02e3 19       		.uleb128 0x19
 9706 02e4 01       		.uleb128 0x1
 9707 02e5 13       		.uleb128 0x13
 9708 02e6 00       		.byte	0
 9709 02e7 00       		.byte	0
 9710 02e8 33       		.uleb128 0x33
 9711 02e9 05       		.uleb128 0x5
 9712 02ea 00       		.byte	0
 9713 02eb 03       		.uleb128 0x3
 9714 02ec 08       		.uleb128 0x8
 9715 02ed 3A       		.uleb128 0x3a
 9716 02ee 0B       		.uleb128 0xb
 9717 02ef 3B       		.uleb128 0x3b
 9718 02f0 05       		.uleb128 0x5
 9719 02f1 39       		.uleb128 0x39
 9720 02f2 0B       		.uleb128 0xb
 9721 02f3 49       		.uleb128 0x49
GAS LISTING /tmp/cccyco2T.s 			page 174


 9722 02f4 13       		.uleb128 0x13
 9723 02f5 02       		.uleb128 0x2
 9724 02f6 17       		.uleb128 0x17
 9725 02f7 B742     		.uleb128 0x2137
 9726 02f9 17       		.uleb128 0x17
 9727 02fa 00       		.byte	0
 9728 02fb 00       		.byte	0
 9729 02fc 34       		.uleb128 0x34
 9730 02fd 05       		.uleb128 0x5
 9731 02fe 00       		.byte	0
 9732 02ff 03       		.uleb128 0x3
 9733 0300 08       		.uleb128 0x8
 9734 0301 3A       		.uleb128 0x3a
 9735 0302 0B       		.uleb128 0xb
 9736 0303 3B       		.uleb128 0x3b
 9737 0304 05       		.uleb128 0x5
 9738 0305 39       		.uleb128 0x39
 9739 0306 0B       		.uleb128 0xb
 9740 0307 49       		.uleb128 0x49
 9741 0308 13       		.uleb128 0x13
 9742 0309 02       		.uleb128 0x2
 9743 030a 18       		.uleb128 0x18
 9744 030b 00       		.byte	0
 9745 030c 00       		.byte	0
 9746 030d 35       		.uleb128 0x35
 9747 030e 34       		.uleb128 0x34
 9748 030f 00       		.byte	0
 9749 0310 03       		.uleb128 0x3
 9750 0311 08       		.uleb128 0x8
 9751 0312 3A       		.uleb128 0x3a
 9752 0313 0B       		.uleb128 0xb
 9753 0314 3B       		.uleb128 0x3b
 9754 0315 05       		.uleb128 0x5
 9755 0316 39       		.uleb128 0x39
 9756 0317 0B       		.uleb128 0xb
 9757 0318 49       		.uleb128 0x49
 9758 0319 13       		.uleb128 0x13
 9759 031a 02       		.uleb128 0x2
 9760 031b 17       		.uleb128 0x17
 9761 031c B742     		.uleb128 0x2137
 9762 031e 17       		.uleb128 0x17
 9763 031f 00       		.byte	0
 9764 0320 00       		.byte	0
 9765 0321 36       		.uleb128 0x36
 9766 0322 34       		.uleb128 0x34
 9767 0323 00       		.byte	0
 9768 0324 03       		.uleb128 0x3
 9769 0325 0E       		.uleb128 0xe
 9770 0326 49       		.uleb128 0x49
 9771 0327 13       		.uleb128 0x13
 9772 0328 34       		.uleb128 0x34
 9773 0329 19       		.uleb128 0x19
 9774 032a 00       		.byte	0
 9775 032b 00       		.byte	0
 9776 032c 37       		.uleb128 0x37
 9777 032d 898201   		.uleb128 0x4109
 9778 0330 00       		.byte	0
GAS LISTING /tmp/cccyco2T.s 			page 175


 9779 0331 11       		.uleb128 0x11
 9780 0332 01       		.uleb128 0x1
 9781 0333 31       		.uleb128 0x31
 9782 0334 13       		.uleb128 0x13
 9783 0335 00       		.byte	0
 9784 0336 00       		.byte	0
 9785 0337 38       		.uleb128 0x38
 9786 0338 0B       		.uleb128 0xb
 9787 0339 01       		.byte	0x1
 9788 033a 55       		.uleb128 0x55
 9789 033b 17       		.uleb128 0x17
 9790 033c 00       		.byte	0
 9791 033d 00       		.byte	0
 9792 033e 39       		.uleb128 0x39
 9793 033f 0B       		.uleb128 0xb
 9794 0340 00       		.byte	0
 9795 0341 11       		.uleb128 0x11
 9796 0342 01       		.uleb128 0x1
 9797 0343 12       		.uleb128 0x12
 9798 0344 06       		.uleb128 0x6
 9799 0345 00       		.byte	0
 9800 0346 00       		.byte	0
 9801 0347 3A       		.uleb128 0x3a
 9802 0348 05       		.uleb128 0x5
 9803 0349 00       		.byte	0
 9804 034a 03       		.uleb128 0x3
 9805 034b 0E       		.uleb128 0xe
 9806 034c 3A       		.uleb128 0x3a
 9807 034d 0B       		.uleb128 0xb
 9808 034e 3B       		.uleb128 0x3b
 9809 034f 05       		.uleb128 0x5
 9810 0350 39       		.uleb128 0x39
 9811 0351 0B       		.uleb128 0xb
 9812 0352 49       		.uleb128 0x49
 9813 0353 13       		.uleb128 0x13
 9814 0354 02       		.uleb128 0x2
 9815 0355 17       		.uleb128 0x17
 9816 0356 B742     		.uleb128 0x2137
 9817 0358 17       		.uleb128 0x17
 9818 0359 00       		.byte	0
 9819 035a 00       		.byte	0
 9820 035b 3B       		.uleb128 0x3b
 9821 035c 2E       		.uleb128 0x2e
 9822 035d 01       		.byte	0x1
 9823 035e 3F       		.uleb128 0x3f
 9824 035f 19       		.uleb128 0x19
 9825 0360 03       		.uleb128 0x3
 9826 0361 0E       		.uleb128 0xe
 9827 0362 3A       		.uleb128 0x3a
 9828 0363 0B       		.uleb128 0xb
 9829 0364 3B       		.uleb128 0x3b
 9830 0365 05       		.uleb128 0x5
 9831 0366 39       		.uleb128 0x39
 9832 0367 0B       		.uleb128 0xb
 9833 0368 27       		.uleb128 0x27
 9834 0369 19       		.uleb128 0x19
 9835 036a 20       		.uleb128 0x20
GAS LISTING /tmp/cccyco2T.s 			page 176


 9836 036b 0B       		.uleb128 0xb
 9837 036c 01       		.uleb128 0x1
 9838 036d 13       		.uleb128 0x13
 9839 036e 00       		.byte	0
 9840 036f 00       		.byte	0
 9841 0370 3C       		.uleb128 0x3c
 9842 0371 05       		.uleb128 0x5
 9843 0372 00       		.byte	0
 9844 0373 03       		.uleb128 0x3
 9845 0374 0E       		.uleb128 0xe
 9846 0375 3A       		.uleb128 0x3a
 9847 0376 0B       		.uleb128 0xb
 9848 0377 3B       		.uleb128 0x3b
 9849 0378 05       		.uleb128 0x5
 9850 0379 39       		.uleb128 0x39
 9851 037a 0B       		.uleb128 0xb
 9852 037b 49       		.uleb128 0x49
 9853 037c 13       		.uleb128 0x13
 9854 037d 00       		.byte	0
 9855 037e 00       		.byte	0
 9856 037f 3D       		.uleb128 0x3d
 9857 0380 2E       		.uleb128 0x2e
 9858 0381 01       		.byte	0x1
 9859 0382 3F       		.uleb128 0x3f
 9860 0383 19       		.uleb128 0x19
 9861 0384 03       		.uleb128 0x3
 9862 0385 0E       		.uleb128 0xe
 9863 0386 3A       		.uleb128 0x3a
 9864 0387 0B       		.uleb128 0xb
 9865 0388 3B       		.uleb128 0x3b
 9866 0389 05       		.uleb128 0x5
 9867 038a 39       		.uleb128 0x39
 9868 038b 0B       		.uleb128 0xb
 9869 038c 27       		.uleb128 0x27
 9870 038d 19       		.uleb128 0x19
 9871 038e 49       		.uleb128 0x49
 9872 038f 13       		.uleb128 0x13
 9873 0390 20       		.uleb128 0x20
 9874 0391 0B       		.uleb128 0xb
 9875 0392 01       		.uleb128 0x1
 9876 0393 13       		.uleb128 0x13
 9877 0394 00       		.byte	0
 9878 0395 00       		.byte	0
 9879 0396 3E       		.uleb128 0x3e
 9880 0397 0B       		.uleb128 0xb
 9881 0398 01       		.byte	0x1
 9882 0399 00       		.byte	0
 9883 039a 00       		.byte	0
 9884 039b 3F       		.uleb128 0x3f
 9885 039c 34       		.uleb128 0x34
 9886 039d 00       		.byte	0
 9887 039e 03       		.uleb128 0x3
 9888 039f 08       		.uleb128 0x8
 9889 03a0 3A       		.uleb128 0x3a
 9890 03a1 0B       		.uleb128 0xb
 9891 03a2 3B       		.uleb128 0x3b
 9892 03a3 05       		.uleb128 0x5
GAS LISTING /tmp/cccyco2T.s 			page 177


 9893 03a4 39       		.uleb128 0x39
 9894 03a5 0B       		.uleb128 0xb
 9895 03a6 49       		.uleb128 0x49
 9896 03a7 13       		.uleb128 0x13
 9897 03a8 00       		.byte	0
 9898 03a9 00       		.byte	0
 9899 03aa 40       		.uleb128 0x40
 9900 03ab 2E       		.uleb128 0x2e
 9901 03ac 01       		.byte	0x1
 9902 03ad 3F       		.uleb128 0x3f
 9903 03ae 19       		.uleb128 0x19
 9904 03af 03       		.uleb128 0x3
 9905 03b0 0E       		.uleb128 0xe
 9906 03b1 3A       		.uleb128 0x3a
 9907 03b2 0B       		.uleb128 0xb
 9908 03b3 3B       		.uleb128 0x3b
 9909 03b4 05       		.uleb128 0x5
 9910 03b5 39       		.uleb128 0x39
 9911 03b6 0B       		.uleb128 0xb
 9912 03b7 27       		.uleb128 0x27
 9913 03b8 19       		.uleb128 0x19
 9914 03b9 11       		.uleb128 0x11
 9915 03ba 01       		.uleb128 0x1
 9916 03bb 12       		.uleb128 0x12
 9917 03bc 06       		.uleb128 0x6
 9918 03bd 40       		.uleb128 0x40
 9919 03be 18       		.uleb128 0x18
 9920 03bf 9742     		.uleb128 0x2117
 9921 03c1 19       		.uleb128 0x19
 9922 03c2 01       		.uleb128 0x1
 9923 03c3 13       		.uleb128 0x13
 9924 03c4 00       		.byte	0
 9925 03c5 00       		.byte	0
 9926 03c6 41       		.uleb128 0x41
 9927 03c7 1D       		.uleb128 0x1d
 9928 03c8 01       		.byte	0x1
 9929 03c9 31       		.uleb128 0x31
 9930 03ca 13       		.uleb128 0x13
 9931 03cb 52       		.uleb128 0x52
 9932 03cc 01       		.uleb128 0x1
 9933 03cd B842     		.uleb128 0x2138
 9934 03cf 0B       		.uleb128 0xb
 9935 03d0 11       		.uleb128 0x11
 9936 03d1 01       		.uleb128 0x1
 9937 03d2 12       		.uleb128 0x12
 9938 03d3 06       		.uleb128 0x6
 9939 03d4 58       		.uleb128 0x58
 9940 03d5 0B       		.uleb128 0xb
 9941 03d6 59       		.uleb128 0x59
 9942 03d7 05       		.uleb128 0x5
 9943 03d8 57       		.uleb128 0x57
 9944 03d9 0B       		.uleb128 0xb
 9945 03da 01       		.uleb128 0x1
 9946 03db 13       		.uleb128 0x13
 9947 03dc 00       		.byte	0
 9948 03dd 00       		.byte	0
 9949 03de 42       		.uleb128 0x42
GAS LISTING /tmp/cccyco2T.s 			page 178


 9950 03df 2E       		.uleb128 0x2e
 9951 03e0 01       		.byte	0x1
 9952 03e1 3F       		.uleb128 0x3f
 9953 03e2 19       		.uleb128 0x19
 9954 03e3 03       		.uleb128 0x3
 9955 03e4 0E       		.uleb128 0xe
 9956 03e5 3A       		.uleb128 0x3a
 9957 03e6 0B       		.uleb128 0xb
 9958 03e7 3B       		.uleb128 0x3b
 9959 03e8 0B       		.uleb128 0xb
 9960 03e9 39       		.uleb128 0x39
 9961 03ea 0B       		.uleb128 0xb
 9962 03eb 27       		.uleb128 0x27
 9963 03ec 19       		.uleb128 0x19
 9964 03ed 11       		.uleb128 0x11
 9965 03ee 01       		.uleb128 0x1
 9966 03ef 12       		.uleb128 0x12
 9967 03f0 06       		.uleb128 0x6
 9968 03f1 40       		.uleb128 0x40
 9969 03f2 18       		.uleb128 0x18
 9970 03f3 9642     		.uleb128 0x2116
 9971 03f5 19       		.uleb128 0x19
 9972 03f6 01       		.uleb128 0x1
 9973 03f7 13       		.uleb128 0x13
 9974 03f8 00       		.byte	0
 9975 03f9 00       		.byte	0
 9976 03fa 43       		.uleb128 0x43
 9977 03fb 05       		.uleb128 0x5
 9978 03fc 00       		.byte	0
 9979 03fd 03       		.uleb128 0x3
 9980 03fe 0E       		.uleb128 0xe
 9981 03ff 3A       		.uleb128 0x3a
 9982 0400 0B       		.uleb128 0xb
 9983 0401 3B       		.uleb128 0x3b
 9984 0402 0B       		.uleb128 0xb
 9985 0403 39       		.uleb128 0x39
 9986 0404 0B       		.uleb128 0xb
 9987 0405 49       		.uleb128 0x49
 9988 0406 13       		.uleb128 0x13
 9989 0407 02       		.uleb128 0x2
 9990 0408 18       		.uleb128 0x18
 9991 0409 00       		.byte	0
 9992 040a 00       		.byte	0
 9993 040b 44       		.uleb128 0x44
 9994 040c 2E       		.uleb128 0x2e
 9995 040d 01       		.byte	0x1
 9996 040e 3F       		.uleb128 0x3f
 9997 040f 19       		.uleb128 0x19
 9998 0410 03       		.uleb128 0x3
 9999 0411 0E       		.uleb128 0xe
 10000 0412 3A       		.uleb128 0x3a
 10001 0413 0B       		.uleb128 0xb
 10002 0414 3B       		.uleb128 0x3b
 10003 0415 0B       		.uleb128 0xb
 10004 0416 39       		.uleb128 0x39
 10005 0417 0B       		.uleb128 0xb
 10006 0418 27       		.uleb128 0x27
GAS LISTING /tmp/cccyco2T.s 			page 179


 10007 0419 19       		.uleb128 0x19
 10008 041a 49       		.uleb128 0x49
 10009 041b 13       		.uleb128 0x13
 10010 041c 20       		.uleb128 0x20
 10011 041d 0B       		.uleb128 0xb
 10012 041e 01       		.uleb128 0x1
 10013 041f 13       		.uleb128 0x13
 10014 0420 00       		.byte	0
 10015 0421 00       		.byte	0
 10016 0422 45       		.uleb128 0x45
 10017 0423 05       		.uleb128 0x5
 10018 0424 00       		.byte	0
 10019 0425 03       		.uleb128 0x3
 10020 0426 0E       		.uleb128 0xe
 10021 0427 3A       		.uleb128 0x3a
 10022 0428 0B       		.uleb128 0xb
 10023 0429 3B       		.uleb128 0x3b
 10024 042a 0B       		.uleb128 0xb
 10025 042b 39       		.uleb128 0x39
 10026 042c 0B       		.uleb128 0xb
 10027 042d 49       		.uleb128 0x49
 10028 042e 13       		.uleb128 0x13
 10029 042f 00       		.byte	0
 10030 0430 00       		.byte	0
 10031 0431 46       		.uleb128 0x46
 10032 0432 34       		.uleb128 0x34
 10033 0433 00       		.byte	0
 10034 0434 03       		.uleb128 0x3
 10035 0435 08       		.uleb128 0x8
 10036 0436 3A       		.uleb128 0x3a
 10037 0437 0B       		.uleb128 0xb
 10038 0438 3B       		.uleb128 0x3b
 10039 0439 0B       		.uleb128 0xb
 10040 043a 39       		.uleb128 0x39
 10041 043b 0B       		.uleb128 0xb
 10042 043c 49       		.uleb128 0x49
 10043 043d 13       		.uleb128 0x13
 10044 043e 00       		.byte	0
 10045 043f 00       		.byte	0
 10046 0440 47       		.uleb128 0x47
 10047 0441 2E       		.uleb128 0x2e
 10048 0442 01       		.byte	0x1
 10049 0443 3F       		.uleb128 0x3f
 10050 0444 19       		.uleb128 0x19
 10051 0445 03       		.uleb128 0x3
 10052 0446 0E       		.uleb128 0xe
 10053 0447 3A       		.uleb128 0x3a
 10054 0448 0B       		.uleb128 0xb
 10055 0449 3B       		.uleb128 0x3b
 10056 044a 0B       		.uleb128 0xb
 10057 044b 39       		.uleb128 0x39
 10058 044c 0B       		.uleb128 0xb
 10059 044d 27       		.uleb128 0x27
 10060 044e 19       		.uleb128 0x19
 10061 044f 49       		.uleb128 0x49
 10062 0450 13       		.uleb128 0x13
 10063 0451 11       		.uleb128 0x11
GAS LISTING /tmp/cccyco2T.s 			page 180


 10064 0452 01       		.uleb128 0x1
 10065 0453 12       		.uleb128 0x12
 10066 0454 06       		.uleb128 0x6
 10067 0455 40       		.uleb128 0x40
 10068 0456 18       		.uleb128 0x18
 10069 0457 9742     		.uleb128 0x2117
 10070 0459 19       		.uleb128 0x19
 10071 045a 01       		.uleb128 0x1
 10072 045b 13       		.uleb128 0x13
 10073 045c 00       		.byte	0
 10074 045d 00       		.byte	0
 10075 045e 48       		.uleb128 0x48
 10076 045f 34       		.uleb128 0x34
 10077 0460 00       		.byte	0
 10078 0461 03       		.uleb128 0x3
 10079 0462 08       		.uleb128 0x8
 10080 0463 3A       		.uleb128 0x3a
 10081 0464 0B       		.uleb128 0xb
 10082 0465 3B       		.uleb128 0x3b
 10083 0466 0B       		.uleb128 0xb
 10084 0467 39       		.uleb128 0x39
 10085 0468 0B       		.uleb128 0xb
 10086 0469 49       		.uleb128 0x49
 10087 046a 13       		.uleb128 0x13
 10088 046b 02       		.uleb128 0x2
 10089 046c 17       		.uleb128 0x17
 10090 046d B742     		.uleb128 0x2137
 10091 046f 17       		.uleb128 0x17
 10092 0470 00       		.byte	0
 10093 0471 00       		.byte	0
 10094 0472 49       		.uleb128 0x49
 10095 0473 1D       		.uleb128 0x1d
 10096 0474 01       		.byte	0x1
 10097 0475 31       		.uleb128 0x31
 10098 0476 13       		.uleb128 0x13
 10099 0477 52       		.uleb128 0x52
 10100 0478 01       		.uleb128 0x1
 10101 0479 B842     		.uleb128 0x2138
 10102 047b 0B       		.uleb128 0xb
 10103 047c 55       		.uleb128 0x55
 10104 047d 17       		.uleb128 0x17
 10105 047e 58       		.uleb128 0x58
 10106 047f 0B       		.uleb128 0xb
 10107 0480 59       		.uleb128 0x59
 10108 0481 0B       		.uleb128 0xb
 10109 0482 57       		.uleb128 0x57
 10110 0483 0B       		.uleb128 0xb
 10111 0484 01       		.uleb128 0x1
 10112 0485 13       		.uleb128 0x13
 10113 0486 00       		.byte	0
 10114 0487 00       		.byte	0
 10115 0488 4A       		.uleb128 0x4a
 10116 0489 2E       		.uleb128 0x2e
 10117 048a 01       		.byte	0x1
 10118 048b 3F       		.uleb128 0x3f
 10119 048c 19       		.uleb128 0x19
 10120 048d 03       		.uleb128 0x3
GAS LISTING /tmp/cccyco2T.s 			page 181


 10121 048e 0E       		.uleb128 0xe
 10122 048f 3A       		.uleb128 0x3a
 10123 0490 0B       		.uleb128 0xb
 10124 0491 3B       		.uleb128 0x3b
 10125 0492 0B       		.uleb128 0xb
 10126 0493 39       		.uleb128 0x39
 10127 0494 0B       		.uleb128 0xb
 10128 0495 27       		.uleb128 0x27
 10129 0496 19       		.uleb128 0x19
 10130 0497 11       		.uleb128 0x11
 10131 0498 01       		.uleb128 0x1
 10132 0499 12       		.uleb128 0x12
 10133 049a 06       		.uleb128 0x6
 10134 049b 40       		.uleb128 0x40
 10135 049c 18       		.uleb128 0x18
 10136 049d 9742     		.uleb128 0x2117
 10137 049f 19       		.uleb128 0x19
 10138 04a0 01       		.uleb128 0x1
 10139 04a1 13       		.uleb128 0x13
 10140 04a2 00       		.byte	0
 10141 04a3 00       		.byte	0
 10142 04a4 4B       		.uleb128 0x4b
 10143 04a5 1D       		.uleb128 0x1d
 10144 04a6 01       		.byte	0x1
 10145 04a7 31       		.uleb128 0x31
 10146 04a8 13       		.uleb128 0x13
 10147 04a9 52       		.uleb128 0x52
 10148 04aa 01       		.uleb128 0x1
 10149 04ab B842     		.uleb128 0x2138
 10150 04ad 0B       		.uleb128 0xb
 10151 04ae 11       		.uleb128 0x11
 10152 04af 01       		.uleb128 0x1
 10153 04b0 12       		.uleb128 0x12
 10154 04b1 06       		.uleb128 0x6
 10155 04b2 58       		.uleb128 0x58
 10156 04b3 0B       		.uleb128 0xb
 10157 04b4 59       		.uleb128 0x59
 10158 04b5 0B       		.uleb128 0xb
 10159 04b6 57       		.uleb128 0x57
 10160 04b7 0B       		.uleb128 0xb
 10161 04b8 00       		.byte	0
 10162 04b9 00       		.byte	0
 10163 04ba 4C       		.uleb128 0x4c
 10164 04bb 05       		.uleb128 0x5
 10165 04bc 00       		.byte	0
 10166 04bd 03       		.uleb128 0x3
 10167 04be 0E       		.uleb128 0xe
 10168 04bf 3A       		.uleb128 0x3a
 10169 04c0 0B       		.uleb128 0xb
 10170 04c1 3B       		.uleb128 0x3b
 10171 04c2 0B       		.uleb128 0xb
 10172 04c3 39       		.uleb128 0x39
 10173 04c4 0B       		.uleb128 0xb
 10174 04c5 49       		.uleb128 0x49
 10175 04c6 13       		.uleb128 0x13
 10176 04c7 02       		.uleb128 0x2
 10177 04c8 17       		.uleb128 0x17
GAS LISTING /tmp/cccyco2T.s 			page 182


 10178 04c9 B742     		.uleb128 0x2137
 10179 04cb 17       		.uleb128 0x17
 10180 04cc 00       		.byte	0
 10181 04cd 00       		.byte	0
 10182 04ce 4D       		.uleb128 0x4d
 10183 04cf 05       		.uleb128 0x5
 10184 04d0 00       		.byte	0
 10185 04d1 03       		.uleb128 0x3
 10186 04d2 08       		.uleb128 0x8
 10187 04d3 3A       		.uleb128 0x3a
 10188 04d4 0B       		.uleb128 0xb
 10189 04d5 3B       		.uleb128 0x3b
 10190 04d6 0B       		.uleb128 0xb
 10191 04d7 39       		.uleb128 0x39
 10192 04d8 0B       		.uleb128 0xb
 10193 04d9 49       		.uleb128 0x49
 10194 04da 13       		.uleb128 0x13
 10195 04db 02       		.uleb128 0x2
 10196 04dc 18       		.uleb128 0x18
 10197 04dd 00       		.byte	0
 10198 04de 00       		.byte	0
 10199 04df 4E       		.uleb128 0x4e
 10200 04e0 1D       		.uleb128 0x1d
 10201 04e1 01       		.byte	0x1
 10202 04e2 31       		.uleb128 0x31
 10203 04e3 13       		.uleb128 0x13
 10204 04e4 52       		.uleb128 0x52
 10205 04e5 01       		.uleb128 0x1
 10206 04e6 B842     		.uleb128 0x2138
 10207 04e8 0B       		.uleb128 0xb
 10208 04e9 55       		.uleb128 0x55
 10209 04ea 17       		.uleb128 0x17
 10210 04eb 58       		.uleb128 0x58
 10211 04ec 0B       		.uleb128 0xb
 10212 04ed 59       		.uleb128 0x59
 10213 04ee 0B       		.uleb128 0xb
 10214 04ef 57       		.uleb128 0x57
 10215 04f0 0B       		.uleb128 0xb
 10216 04f1 00       		.byte	0
 10217 04f2 00       		.byte	0
 10218 04f3 4F       		.uleb128 0x4f
 10219 04f4 2E       		.uleb128 0x2e
 10220 04f5 01       		.byte	0x1
 10221 04f6 03       		.uleb128 0x3
 10222 04f7 0E       		.uleb128 0xe
 10223 04f8 3A       		.uleb128 0x3a
 10224 04f9 0B       		.uleb128 0xb
 10225 04fa 3B       		.uleb128 0x3b
 10226 04fb 05       		.uleb128 0x5
 10227 04fc 39       		.uleb128 0x39
 10228 04fd 0B       		.uleb128 0xb
 10229 04fe 27       		.uleb128 0x27
 10230 04ff 19       		.uleb128 0x19
 10231 0500 20       		.uleb128 0x20
 10232 0501 0B       		.uleb128 0xb
 10233 0502 01       		.uleb128 0x1
 10234 0503 13       		.uleb128 0x13
GAS LISTING /tmp/cccyco2T.s 			page 183


 10235 0504 00       		.byte	0
 10236 0505 00       		.byte	0
 10237 0506 50       		.uleb128 0x50
 10238 0507 05       		.uleb128 0x5
 10239 0508 00       		.byte	0
 10240 0509 03       		.uleb128 0x3
 10241 050a 08       		.uleb128 0x8
 10242 050b 3A       		.uleb128 0x3a
 10243 050c 0B       		.uleb128 0xb
 10244 050d 3B       		.uleb128 0x3b
 10245 050e 05       		.uleb128 0x5
 10246 050f 39       		.uleb128 0x39
 10247 0510 0B       		.uleb128 0xb
 10248 0511 49       		.uleb128 0x49
 10249 0512 13       		.uleb128 0x13
 10250 0513 00       		.byte	0
 10251 0514 00       		.byte	0
 10252 0515 51       		.uleb128 0x51
 10253 0516 2E       		.uleb128 0x2e
 10254 0517 01       		.byte	0x1
 10255 0518 03       		.uleb128 0x3
 10256 0519 0E       		.uleb128 0xe
 10257 051a 3A       		.uleb128 0x3a
 10258 051b 0B       		.uleb128 0xb
 10259 051c 3B       		.uleb128 0x3b
 10260 051d 05       		.uleb128 0x5
 10261 051e 39       		.uleb128 0x39
 10262 051f 0B       		.uleb128 0xb
 10263 0520 27       		.uleb128 0x27
 10264 0521 19       		.uleb128 0x19
 10265 0522 49       		.uleb128 0x49
 10266 0523 13       		.uleb128 0x13
 10267 0524 20       		.uleb128 0x20
 10268 0525 0B       		.uleb128 0xb
 10269 0526 01       		.uleb128 0x1
 10270 0527 13       		.uleb128 0x13
 10271 0528 00       		.byte	0
 10272 0529 00       		.byte	0
 10273 052a 52       		.uleb128 0x52
 10274 052b 2E       		.uleb128 0x2e
 10275 052c 00       		.byte	0
 10276 052d 03       		.uleb128 0x3
 10277 052e 0E       		.uleb128 0xe
 10278 052f 3A       		.uleb128 0x3a
 10279 0530 0B       		.uleb128 0xb
 10280 0531 3B       		.uleb128 0x3b
 10281 0532 05       		.uleb128 0x5
 10282 0533 39       		.uleb128 0x39
 10283 0534 0B       		.uleb128 0xb
 10284 0535 27       		.uleb128 0x27
 10285 0536 19       		.uleb128 0x19
 10286 0537 49       		.uleb128 0x49
 10287 0538 13       		.uleb128 0x13
 10288 0539 20       		.uleb128 0x20
 10289 053a 0B       		.uleb128 0xb
 10290 053b 00       		.byte	0
 10291 053c 00       		.byte	0
GAS LISTING /tmp/cccyco2T.s 			page 184


 10292 053d 53       		.uleb128 0x53
 10293 053e 2E       		.uleb128 0x2e
 10294 053f 00       		.byte	0
 10295 0540 03       		.uleb128 0x3
 10296 0541 0E       		.uleb128 0xe
 10297 0542 3A       		.uleb128 0x3a
 10298 0543 0B       		.uleb128 0xb
 10299 0544 3B       		.uleb128 0x3b
 10300 0545 05       		.uleb128 0x5
 10301 0546 39       		.uleb128 0x39
 10302 0547 0B       		.uleb128 0xb
 10303 0548 27       		.uleb128 0x27
 10304 0549 19       		.uleb128 0x19
 10305 054a 20       		.uleb128 0x20
 10306 054b 0B       		.uleb128 0xb
 10307 054c 00       		.byte	0
 10308 054d 00       		.byte	0
 10309 054e 54       		.uleb128 0x54
 10310 054f 2E       		.uleb128 0x2e
 10311 0550 00       		.byte	0
 10312 0551 03       		.uleb128 0x3
 10313 0552 0E       		.uleb128 0xe
 10314 0553 3A       		.uleb128 0x3a
 10315 0554 0B       		.uleb128 0xb
 10316 0555 3B       		.uleb128 0x3b
 10317 0556 0B       		.uleb128 0xb
 10318 0557 39       		.uleb128 0x39
 10319 0558 0B       		.uleb128 0xb
 10320 0559 27       		.uleb128 0x27
 10321 055a 19       		.uleb128 0x19
 10322 055b 49       		.uleb128 0x49
 10323 055c 13       		.uleb128 0x13
 10324 055d 20       		.uleb128 0x20
 10325 055e 0B       		.uleb128 0xb
 10326 055f 00       		.byte	0
 10327 0560 00       		.byte	0
 10328 0561 55       		.uleb128 0x55
 10329 0562 2E       		.uleb128 0x2e
 10330 0563 01       		.byte	0x1
 10331 0564 3F       		.uleb128 0x3f
 10332 0565 19       		.uleb128 0x19
 10333 0566 03       		.uleb128 0x3
 10334 0567 0E       		.uleb128 0xe
 10335 0568 3A       		.uleb128 0x3a
 10336 0569 0B       		.uleb128 0xb
 10337 056a 3B       		.uleb128 0x3b
 10338 056b 0B       		.uleb128 0xb
 10339 056c 39       		.uleb128 0x39
 10340 056d 0B       		.uleb128 0xb
 10341 056e 27       		.uleb128 0x27
 10342 056f 19       		.uleb128 0x19
 10343 0570 49       		.uleb128 0x49
 10344 0571 13       		.uleb128 0x13
 10345 0572 20       		.uleb128 0x20
 10346 0573 0B       		.uleb128 0xb
 10347 0574 34       		.uleb128 0x34
 10348 0575 19       		.uleb128 0x19
GAS LISTING /tmp/cccyco2T.s 			page 185


 10349 0576 01       		.uleb128 0x1
 10350 0577 13       		.uleb128 0x13
 10351 0578 00       		.byte	0
 10352 0579 00       		.byte	0
 10353 057a 56       		.uleb128 0x56
 10354 057b 26       		.uleb128 0x26
 10355 057c 00       		.byte	0
 10356 057d 00       		.byte	0
 10357 057e 00       		.byte	0
 10358 057f 57       		.uleb128 0x57
 10359 0580 2E       		.uleb128 0x2e
 10360 0581 01       		.byte	0x1
 10361 0582 31       		.uleb128 0x31
 10362 0583 13       		.uleb128 0x13
 10363 0584 11       		.uleb128 0x11
 10364 0585 01       		.uleb128 0x1
 10365 0586 12       		.uleb128 0x12
 10366 0587 06       		.uleb128 0x6
 10367 0588 40       		.uleb128 0x40
 10368 0589 18       		.uleb128 0x18
 10369 058a 9742     		.uleb128 0x2117
 10370 058c 19       		.uleb128 0x19
 10371 058d 01       		.uleb128 0x1
 10372 058e 13       		.uleb128 0x13
 10373 058f 00       		.byte	0
 10374 0590 00       		.byte	0
 10375 0591 58       		.uleb128 0x58
 10376 0592 05       		.uleb128 0x5
 10377 0593 00       		.byte	0
 10378 0594 31       		.uleb128 0x31
 10379 0595 13       		.uleb128 0x13
 10380 0596 02       		.uleb128 0x2
 10381 0597 18       		.uleb128 0x18
 10382 0598 00       		.byte	0
 10383 0599 00       		.byte	0
 10384 059a 59       		.uleb128 0x59
 10385 059b 34       		.uleb128 0x34
 10386 059c 00       		.byte	0
 10387 059d 31       		.uleb128 0x31
 10388 059e 13       		.uleb128 0x13
 10389 059f 02       		.uleb128 0x2
 10390 05a0 17       		.uleb128 0x17
 10391 05a1 B742     		.uleb128 0x2137
 10392 05a3 17       		.uleb128 0x17
 10393 05a4 00       		.byte	0
 10394 05a5 00       		.byte	0
 10395 05a6 5A       		.uleb128 0x5a
 10396 05a7 2E       		.uleb128 0x2e
 10397 05a8 01       		.byte	0x1
 10398 05a9 31       		.uleb128 0x31
 10399 05aa 13       		.uleb128 0x13
 10400 05ab 11       		.uleb128 0x11
 10401 05ac 01       		.uleb128 0x1
 10402 05ad 12       		.uleb128 0x12
 10403 05ae 06       		.uleb128 0x6
 10404 05af 40       		.uleb128 0x40
 10405 05b0 18       		.uleb128 0x18
GAS LISTING /tmp/cccyco2T.s 			page 186


 10406 05b1 01       		.uleb128 0x1
 10407 05b2 13       		.uleb128 0x13
 10408 05b3 00       		.byte	0
 10409 05b4 00       		.byte	0
 10410 05b5 5B       		.uleb128 0x5b
 10411 05b6 2E       		.uleb128 0x2e
 10412 05b7 00       		.byte	0
 10413 05b8 3F       		.uleb128 0x3f
 10414 05b9 19       		.uleb128 0x19
 10415 05ba 3C       		.uleb128 0x3c
 10416 05bb 19       		.uleb128 0x19
 10417 05bc 6E       		.uleb128 0x6e
 10418 05bd 0E       		.uleb128 0xe
 10419 05be 03       		.uleb128 0x3
 10420 05bf 0E       		.uleb128 0xe
 10421 05c0 3A       		.uleb128 0x3a
 10422 05c1 0B       		.uleb128 0xb
 10423 05c2 3B       		.uleb128 0x3b
 10424 05c3 0B       		.uleb128 0xb
 10425 05c4 00       		.byte	0
 10426 05c5 00       		.byte	0
 10427 05c6 5C       		.uleb128 0x5c
 10428 05c7 2E       		.uleb128 0x2e
 10429 05c8 00       		.byte	0
 10430 05c9 3F       		.uleb128 0x3f
 10431 05ca 19       		.uleb128 0x19
 10432 05cb 3C       		.uleb128 0x3c
 10433 05cc 19       		.uleb128 0x19
 10434 05cd 6E       		.uleb128 0x6e
 10435 05ce 0E       		.uleb128 0xe
 10436 05cf 03       		.uleb128 0x3
 10437 05d0 0E       		.uleb128 0xe
 10438 05d1 3A       		.uleb128 0x3a
 10439 05d2 0B       		.uleb128 0xb
 10440 05d3 3B       		.uleb128 0x3b
 10441 05d4 0B       		.uleb128 0xb
 10442 05d5 39       		.uleb128 0x39
 10443 05d6 0B       		.uleb128 0xb
 10444 05d7 00       		.byte	0
 10445 05d8 00       		.byte	0
 10446 05d9 00       		.byte	0
 10447              		.section	.debug_loc,"",@progbits
 10448              	.Ldebug_loc0:
 10449              	.LVUS84:
 10450 0000 00       		.uleb128 .LVU1094
 10451 0001 00       		.uleb128 .LVU1096
 10452 0002 00       		.uleb128 .LVU1096
 10453 0003 00       		.uleb128 .LVU1108
 10454 0004 00       		.uleb128 .LVU1108
 10455 0005 00       		.uleb128 .LVU1109
 10456 0006 00       		.uleb128 .LVU1109
 10457 0007 00       		.uleb128 .LVU1111
 10458              	.LLST84:
 10459 0008 2B000000 		.long	.LVL159
 10460 000c 2D000000 		.long	.LVL160
 10461 0010 0600     		.value	0x6
 10462 0012 70       		.byte	0x70
GAS LISTING /tmp/cccyco2T.s 			page 187


 10463 0013 00       		.sleb128 0
 10464 0014 71       		.byte	0x71
 10465 0015 00       		.sleb128 0
 10466 0016 1C       		.byte	0x1c
 10467 0017 9F       		.byte	0x9f
 10468 0018 2D000000 		.long	.LVL160
 10469 001c 34000000 		.long	.LVL162
 10470 0020 0100     		.value	0x1
 10471 0022 50       		.byte	0x50
 10472 0023 34000000 		.long	.LVL162
 10473 0027 37000000 		.long	.LVL163
 10474 002b 0200     		.value	0x2
 10475 002d 71       		.byte	0x71
 10476 002e 00       		.sleb128 0
 10477 002f 37000000 		.long	.LVL163
 10478 0033 3D000000 		.long	.LVL164
 10479 0037 0300     		.value	0x3
 10480 0039 72       		.byte	0x72
 10481 003a 10       		.sleb128 16
 10482 003b 06       		.byte	0x6
 10483 003c 00000000 		.long	0
 10484 0040 00000000 		.long	0
 10485              	.LVUS85:
 10486 0044 01       		.uleb128 .LVU1098
 10487 0045 00       		.uleb128 .LVU1108
 10488 0046 00       		.uleb128 .LVU1108
 10489 0047 00       		.uleb128 .LVU1109
 10490 0048 00       		.uleb128 .LVU1109
 10491 0049 00       		.uleb128 .LVU1111
 10492              	.LLST85:
 10493 004a 2F000000 		.long	.LVL161
 10494 004e 34000000 		.long	.LVL162
 10495 0052 0100     		.value	0x1
 10496 0054 50       		.byte	0x50
 10497 0055 34000000 		.long	.LVL162
 10498 0059 37000000 		.long	.LVL163
 10499 005d 0200     		.value	0x2
 10500 005f 71       		.byte	0x71
 10501 0060 00       		.sleb128 0
 10502 0061 37000000 		.long	.LVL163
 10503 0065 3D000000 		.long	.LVL164
 10504 0069 0300     		.value	0x3
 10505 006b 72       		.byte	0x72
 10506 006c 10       		.sleb128 16
 10507 006d 06       		.byte	0x6
 10508 006e 00000000 		.long	0
 10509 0072 00000000 		.long	0
 10510              	.LVUS86:
 10511 0076 01       		.uleb128 .LVU1098
 10512 0077 00       		.uleb128 .LVU1121
 10513 0078 00       		.uleb128 .LVU1121
 10514 0079 00       		.uleb128 .LVU1122
 10515 007a 00       		.uleb128 .LVU1136
 10516 007b 00       		.uleb128 0
 10517              	.LLST86:
 10518 007c 2F000000 		.long	.LVL161
 10519 0080 58000000 		.long	.LVL165-1
GAS LISTING /tmp/cccyco2T.s 			page 188


 10520 0084 0100     		.value	0x1
 10521 0086 52       		.byte	0x52
 10522 0087 58000000 		.long	.LVL165-1
 10523 008b 5C000000 		.long	.LVL166
 10524 008f 0200     		.value	0x2
 10525 0091 91       		.byte	0x91
 10526 0092 00       		.sleb128 0
 10527 0093 67000000 		.long	.LVL167
 10528 0097 78000000 		.long	.LFE254
 10529 009b 0100     		.value	0x1
 10530 009d 52       		.byte	0x52
 10531 009e 00000000 		.long	0
 10532 00a2 00000000 		.long	0
 10533              	.LVUS83:
 10534 00a6 00       		.uleb128 .LVU1052
 10535 00a7 00       		.uleb128 .LVU1054
 10536 00a8 00       		.uleb128 .LVU1054
 10537 00a9 00       		.uleb128 .LVU1073
 10538              	.LLST83:
 10539 00aa 29000000 		.long	.LVL155
 10540 00ae 2B000000 		.long	.LVL156
 10541 00b2 0600     		.value	0x6
 10542 00b4 73       		.byte	0x73
 10543 00b5 00       		.sleb128 0
 10544 00b6 71       		.byte	0x71
 10545 00b7 00       		.sleb128 0
 10546 00b8 1C       		.byte	0x1c
 10547 00b9 9F       		.byte	0x9f
 10548 00ba 2B000000 		.long	.LVL156
 10549 00be 56000000 		.long	.LVL157
 10550 00c2 0100     		.value	0x1
 10551 00c4 53       		.byte	0x53
 10552 00c5 00000000 		.long	0
 10553 00c9 00000000 		.long	0
 10554              	.LVUS61:
 10555 00cd 00       		.uleb128 0
 10556 00ce 00       		.uleb128 .LVU883
 10557 00cf 00       		.uleb128 .LVU883
 10558 00d0 00       		.uleb128 .LVU891
 10559 00d1 00       		.uleb128 .LVU891
 10560 00d2 02       		.uleb128 .LVU895
 10561 00d3 02       		.uleb128 .LVU895
 10562 00d4 00       		.uleb128 .LVU1033
 10563 00d5 00       		.uleb128 .LVU1035
 10564 00d6 00       		.uleb128 .LVU1037
 10565              	.LLST61:
 10566 00d7 00000000 		.long	.LVL113
 10567 00db 57000000 		.long	.LVL118
 10568 00df 0200     		.value	0x2
 10569 00e1 91       		.byte	0x91
 10570 00e2 04       		.sleb128 4
 10571 00e3 57000000 		.long	.LVL118
 10572 00e7 68000000 		.long	.LVL121
 10573 00eb 0100     		.value	0x1
 10574 00ed 57       		.byte	0x57
 10575 00ee 68000000 		.long	.LVL121
 10576 00f2 C4000000 		.long	.LVL123
GAS LISTING /tmp/cccyco2T.s 			page 189


 10577 00f6 0300     		.value	0x3
 10578 00f8 77       		.byte	0x77
 10579 00f9 40       		.sleb128 -64
 10580 00fa 9F       		.byte	0x9f
 10581 00fb C4000000 		.long	.LVL123
 10582 00ff CE010000 		.long	.LVL149
 10583 0103 0100     		.value	0x1
 10584 0105 57       		.byte	0x57
 10585 0106 D0010000 		.long	.LVL151
 10586 010a DE010000 		.long	.LVL152
 10587 010e 0100     		.value	0x1
 10588 0110 57       		.byte	0x57
 10589 0111 00000000 		.long	0
 10590 0115 00000000 		.long	0
 10591              	.LVUS62:
 10592 0119 02       		.uleb128 .LVU846
 10593 011a 00       		.uleb128 .LVU883
 10594 011b 00       		.uleb128 .LVU883
 10595 011c 00       		.uleb128 .LVU890
 10596 011d 00       		.uleb128 .LVU890
 10597 011e 01       		.uleb128 .LVU898
 10598 011f 01       		.uleb128 .LVU898
 10599 0120 00       		.uleb128 .LVU982
 10600 0121 01       		.uleb128 .LVU984
 10601 0122 00       		.uleb128 .LVU1034
 10602 0123 00       		.uleb128 .LVU1034
 10603 0124 00       		.uleb128 .LVU1035
 10604 0125 00       		.uleb128 .LVU1035
 10605 0126 00       		.uleb128 .LVU1038
 10606 0127 00       		.uleb128 .LVU1038
 10607 0128 00       		.uleb128 0
 10608              	.LLST62:
 10609 0129 00000000 		.long	.LVL113
 10610 012d 57000000 		.long	.LVL118
 10611 0131 0200     		.value	0x2
 10612 0133 30       		.byte	0x30
 10613 0134 9F       		.byte	0x9f
 10614 0135 57000000 		.long	.LVL118
 10615 0139 65000000 		.long	.LVL120
 10616 013d 0100     		.value	0x1
 10617 013f 55       		.byte	0x55
 10618 0140 65000000 		.long	.LVL120
 10619 0144 CD000000 		.long	.LVL124
 10620 0148 0300     		.value	0x3
 10621 014a 75       		.byte	0x75
 10622 014b 40       		.sleb128 -64
 10623 014c 9F       		.byte	0x9f
 10624 014d CD000000 		.long	.LVL124
 10625 0151 65010000 		.long	.LVL139
 10626 0155 0100     		.value	0x1
 10627 0157 55       		.byte	0x55
 10628 0158 68010000 		.long	.LVL140
 10629 015c CF010000 		.long	.LVL150
 10630 0160 0100     		.value	0x1
 10631 0162 55       		.byte	0x55
 10632 0163 CF010000 		.long	.LVL150
 10633 0167 D0010000 		.long	.LVL151
GAS LISTING /tmp/cccyco2T.s 			page 190


 10634 016b 0100     		.value	0x1
 10635 016d 50       		.byte	0x50
 10636 016e D0010000 		.long	.LVL151
 10637 0172 DF010000 		.long	.LVL153
 10638 0176 0100     		.value	0x1
 10639 0178 55       		.byte	0x55
 10640 0179 DF010000 		.long	.LVL153
 10641 017d E0010000 		.long	.LFE252
 10642 0181 0100     		.value	0x1
 10643 0183 50       		.byte	0x50
 10644 0184 00000000 		.long	0
 10645 0188 00000000 		.long	0
 10646              	.LVUS63:
 10647 018c 00       		.uleb128 .LVU880
 10648 018d 00       		.uleb128 .LVU882
 10649 018e 00       		.uleb128 .LVU882
 10650 018f 00       		.uleb128 0
 10651              	.LLST63:
 10652 0190 47000000 		.long	.LVL116
 10653 0194 4B000000 		.long	.LVL117
 10654 0198 0100     		.value	0x1
 10655 019a 50       		.byte	0x50
 10656 019b 4B000000 		.long	.LVL117
 10657 019f E0010000 		.long	.LFE252
 10658 01a3 0200     		.value	0x2
 10659 01a5 91       		.byte	0x91
 10660 01a6 5A       		.sleb128 -38
 10661 01a7 00000000 		.long	0
 10662 01ab 00000000 		.long	0
 10663              	.LVUS68:
 10664 01af 00       		.uleb128 .LVU883
 10665 01b0 00       		.uleb128 .LVU888
 10666 01b1 00       		.uleb128 .LVU888
 10667 01b2 00       		.uleb128 .LVU892
 10668 01b3 00       		.uleb128 .LVU964
 10669 01b4 00       		.uleb128 .LVU973
 10670 01b5 00       		.uleb128 .LVU973
 10671 01b6 00       		.uleb128 .LVU985
 10672              	.LLST68:
 10673 01b7 57000000 		.long	.LVL118
 10674 01bb 62000000 		.long	.LVL119
 10675 01bf 0100     		.value	0x1
 10676 01c1 52       		.byte	0x52
 10677 01c2 62000000 		.long	.LVL119
 10678 01c6 6A000000 		.long	.LVL122
 10679 01ca 1F00     		.value	0x1f
 10680 01cc 73       		.byte	0x73
 10681 01cd 00       		.sleb128 0
 10682 01ce 76       		.byte	0x76
 10683 01cf 2C       		.sleb128 44
 10684 01d0 06       		.byte	0x6
 10685 01d1 70       		.byte	0x70
 10686 01d2 00       		.sleb128 0
 10687 01d3 1C       		.byte	0x1c
 10688 01d4 73       		.byte	0x73
 10689 01d5 00       		.sleb128 0
 10690 01d6 40       		.byte	0x40
GAS LISTING /tmp/cccyco2T.s 			page 191


 10691 01d7 4B       		.byte	0x4b
 10692 01d8 24       		.byte	0x24
 10693 01d9 22       		.byte	0x22
 10694 01da 76       		.byte	0x76
 10695 01db 2C       		.sleb128 44
 10696 01dc 06       		.byte	0x6
 10697 01dd 70       		.byte	0x70
 10698 01de 00       		.sleb128 0
 10699 01df 1C       		.byte	0x1c
 10700 01e0 40       		.byte	0x40
 10701 01e1 4B       		.byte	0x4b
 10702 01e2 24       		.byte	0x24
 10703 01e3 22       		.byte	0x22
 10704 01e4 2C       		.byte	0x2c
 10705 01e5 28       		.byte	0x28
 10706 01e6 0100     		.value	0x1
 10707 01e8 16       		.byte	0x16
 10708 01e9 13       		.byte	0x13
 10709 01ea 9F       		.byte	0x9f
 10710 01eb 32010000 		.long	.LVL133
 10711 01ef 54010000 		.long	.LVL137-1
 10712 01f3 0100     		.value	0x1
 10713 01f5 52       		.byte	0x52
 10714 01f6 54010000 		.long	.LVL137-1
 10715 01fa 6D010000 		.long	.LVL141
 10716 01fe 0200     		.value	0x2
 10717 0200 91       		.byte	0x91
 10718 0201 4C       		.sleb128 -52
 10719 0202 00000000 		.long	0
 10720 0206 00000000 		.long	0
 10721              	.LVUS69:
 10722 020a 00       		.uleb128 .LVU1008
 10723 020b 00       		.uleb128 .LVU1013
 10724 020c 00       		.uleb128 .LVU1016
 10725 020d 00       		.uleb128 .LVU1019
 10726              	.LLST69:
 10727 020e 99010000 		.long	.LVL145
 10728 0212 A3010000 		.long	.LVL146
 10729 0216 0100     		.value	0x1
 10730 0218 50       		.byte	0x50
 10731 0219 B5010000 		.long	.LVL147
 10732 021d BC010000 		.long	.LVL148
 10733 0221 0100     		.value	0x1
 10734 0223 50       		.byte	0x50
 10735 0224 00000000 		.long	0
 10736 0228 00000000 		.long	0
 10737              	.LVUS70:
 10738 022c 00       		.uleb128 .LVU1003
 10739 022d 00       		.uleb128 .LVU1008
 10740              	.LLST70:
 10741 022e 89010000 		.long	.LVL144
 10742 0232 98010000 		.long	.LVL145-1
 10743 0236 0100     		.value	0x1
 10744 0238 50       		.byte	0x50
 10745 0239 00000000 		.long	0
 10746 023d 00000000 		.long	0
 10747              	.LVUS71:
GAS LISTING /tmp/cccyco2T.s 			page 192


 10748 0241 00       		.uleb128 .LVU996
 10749 0242 00       		.uleb128 .LVU1002
 10750 0243 00       		.uleb128 .LVU1002
 10751 0244 00       		.uleb128 .LVU1003
 10752              	.LLST71:
 10753 0245 84010000 		.long	.LVL142
 10754 0249 86010000 		.long	.LVL143
 10755 024d 0100     		.value	0x1
 10756 024f 51       		.byte	0x51
 10757 0250 86010000 		.long	.LVL143
 10758 0254 89010000 		.long	.LVL144
 10759 0258 0200     		.value	0x2
 10760 025a 91       		.byte	0x91
 10761 025b 5A       		.sleb128 -38
 10762 025c 00000000 		.long	0
 10763 0260 00000000 		.long	0
 10764              	.LVUS72:
 10765 0264 00       		.uleb128 .LVU996
 10766 0265 00       		.uleb128 .LVU1003
 10767              	.LLST72:
 10768 0266 84010000 		.long	.LVL142
 10769 026a 89010000 		.long	.LVL144
 10770 026e 0100     		.value	0x1
 10771 0270 50       		.byte	0x50
 10772 0271 00000000 		.long	0
 10773 0275 00000000 		.long	0
 10774              	.LVUS73:
 10775 0279 03       		.uleb128 .LVU999
 10776 027a 00       		.uleb128 .LVU1002
 10777 027b 00       		.uleb128 .LVU1002
 10778 027c 00       		.uleb128 .LVU1003
 10779              	.LLST73:
 10780 027d 84010000 		.long	.LVL142
 10781 0281 86010000 		.long	.LVL143
 10782 0285 0100     		.value	0x1
 10783 0287 51       		.byte	0x51
 10784 0288 86010000 		.long	.LVL143
 10785 028c 89010000 		.long	.LVL144
 10786 0290 0200     		.value	0x2
 10787 0292 91       		.byte	0x91
 10788 0293 5A       		.sleb128 -38
 10789 0294 00000000 		.long	0
 10790 0298 00000000 		.long	0
 10791              	.LVUS74:
 10792 029c 03       		.uleb128 .LVU999
 10793 029d 00       		.uleb128 .LVU1003
 10794              	.LLST74:
 10795 029e 84010000 		.long	.LVL142
 10796 02a2 89010000 		.long	.LVL144
 10797 02a6 0100     		.value	0x1
 10798 02a8 50       		.byte	0x50
 10799 02a9 00000000 		.long	0
 10800 02ad 00000000 		.long	0
 10801              	.LVUS75:
 10802 02b1 02       		.uleb128 .LVU885
 10803 02b2 00       		.uleb128 .LVU893
 10804              	.LLST75:
GAS LISTING /tmp/cccyco2T.s 			page 193


 10805 02b3 57000000 		.long	.LVL118
 10806 02b7 C4000000 		.long	.LVL123
 10807 02bb 0300     		.value	0x3
 10808 02bd 08       		.byte	0x8
 10809 02be 40       		.byte	0x40
 10810 02bf 9F       		.byte	0x9f
 10811 02c0 00000000 		.long	0
 10812 02c4 00000000 		.long	0
 10813              	.LVUS76:
 10814 02c8 02       		.uleb128 .LVU885
 10815 02c9 00       		.uleb128 .LVU891
 10816 02ca 00       		.uleb128 .LVU891
 10817 02cb 00       		.uleb128 .LVU893
 10818              	.LLST76:
 10819 02cc 57000000 		.long	.LVL118
 10820 02d0 68000000 		.long	.LVL121
 10821 02d4 0100     		.value	0x1
 10822 02d6 57       		.byte	0x57
 10823 02d7 68000000 		.long	.LVL121
 10824 02db C4000000 		.long	.LVL123
 10825 02df 0300     		.value	0x3
 10826 02e1 77       		.byte	0x77
 10827 02e2 40       		.sleb128 -64
 10828 02e3 9F       		.byte	0x9f
 10829 02e4 00000000 		.long	0
 10830 02e8 00000000 		.long	0
 10831              	.LVUS77:
 10832 02ec 02       		.uleb128 .LVU885
 10833 02ed 00       		.uleb128 .LVU892
 10834              	.LLST77:
 10835 02ee 57000000 		.long	.LVL118
 10836 02f2 6A000000 		.long	.LVL122
 10837 02f6 0200     		.value	0x2
 10838 02f8 76       		.byte	0x76
 10839 02f9 28       		.sleb128 40
 10840 02fa 00000000 		.long	0
 10841 02fe 00000000 		.long	0
 10842              	.LVUS78:
 10843 0302 01       		.uleb128 .LVU901
 10844 0303 00       		.uleb128 .LVU911
 10845 0304 00       		.uleb128 .LVU911
 10846 0305 00       		.uleb128 .LVU914
 10847 0306 00       		.uleb128 .LVU914
 10848 0307 00       		.uleb128 .LVU915
 10849 0308 00       		.uleb128 .LVU915
 10850 0309 00       		.uleb128 .LVU917
 10851 030a 00       		.uleb128 .LVU917
 10852 030b 00       		.uleb128 .LVU929
 10853              	.LLST78:
 10854 030c D2000000 		.long	.LVL125
 10855 0310 DB000000 		.long	.LVL126
 10856 0314 0600     		.value	0x6
 10857 0316 76       		.byte	0x76
 10858 0317 1C       		.sleb128 28
 10859 0318 06       		.byte	0x6
 10860 0319 34       		.byte	0x34
 10861 031a 1C       		.byte	0x1c
GAS LISTING /tmp/cccyco2T.s 			page 194


 10862 031b 9F       		.byte	0x9f
 10863 031c DB000000 		.long	.LVL126
 10864 0320 E0000000 		.long	.LVL127
 10865 0324 0100     		.value	0x1
 10866 0326 52       		.byte	0x52
 10867 0327 E0000000 		.long	.LVL127
 10868 032b E3000000 		.long	.LVL128
 10869 032f 0200     		.value	0x2
 10870 0331 70       		.byte	0x70
 10871 0332 00       		.sleb128 0
 10872 0333 E3000000 		.long	.LVL128
 10873 0337 E9000000 		.long	.LVL129
 10874 033b 0300     		.value	0x3
 10875 033d 76       		.byte	0x76
 10876 033e 10       		.sleb128 16
 10877 033f 06       		.byte	0x6
 10878 0340 E9000000 		.long	.LVL129
 10879 0344 0A010000 		.long	.LVL130-1
 10880 0348 0300     		.value	0x3
 10881 034a 71       		.byte	0x71
 10882 034b 7C       		.sleb128 -4
 10883 034c 9F       		.byte	0x9f
 10884 034d 00000000 		.long	0
 10885 0351 00000000 		.long	0
 10886              	.LVUS79:
 10887 0355 01       		.uleb128 .LVU901
 10888 0356 00       		.uleb128 .LVU930
 10889              	.LLST79:
 10890 0357 D2000000 		.long	.LVL125
 10891 035b 0E010000 		.long	.LVL131
 10892 035f 0100     		.value	0x1
 10893 0361 56       		.byte	0x56
 10894 0362 00000000 		.long	0
 10895 0366 00000000 		.long	0
 10896              	.LVUS80:
 10897 036a 01       		.uleb128 .LVU969
 10898 036b 00       		.uleb128 .LVU973
 10899 036c 00       		.uleb128 .LVU973
 10900 036d 00       		.uleb128 .LVU973
 10901              	.LLST80:
 10902 036e 42010000 		.long	.LVL135
 10903 0372 54010000 		.long	.LVL137-1
 10904 0376 0100     		.value	0x1
 10905 0378 52       		.byte	0x52
 10906 0379 54010000 		.long	.LVL137-1
 10907 037d 55010000 		.long	.LVL137
 10908 0381 0200     		.value	0x2
 10909 0383 91       		.byte	0x91
 10910 0384 4C       		.sleb128 -52
 10911 0385 00000000 		.long	0
 10912 0389 00000000 		.long	0
 10913              	.LVUS81:
 10914 038d 01       		.uleb128 .LVU969
 10915 038e 00       		.uleb128 .LVU973
 10916              	.LLST81:
 10917 038f 42010000 		.long	.LVL135
 10918 0393 55010000 		.long	.LVL137
GAS LISTING /tmp/cccyco2T.s 			page 195


 10919 0397 0100     		.value	0x1
 10920 0399 57       		.byte	0x57
 10921 039a 00000000 		.long	0
 10922 039e 00000000 		.long	0
 10923              	.LVUS82:
 10924 03a2 01       		.uleb128 .LVU969
 10925 03a3 00       		.uleb128 .LVU972
 10926              	.LLST82:
 10927 03a4 42010000 		.long	.LVL135
 10928 03a8 4B010000 		.long	.LVL136
 10929 03ac 0200     		.value	0x2
 10930 03ae 76       		.byte	0x76
 10931 03af 28       		.sleb128 40
 10932 03b0 00000000 		.long	0
 10933 03b4 00000000 		.long	0
 10934              	.LVUS64:
 10935 03b8 00       		.uleb128 .LVU871
 10936 03b9 00       		.uleb128 .LVU880
 10937              	.LLST64:
 10938 03ba 3D000000 		.long	.LVL114
 10939 03be 47000000 		.long	.LVL116
 10940 03c2 0200     		.value	0x2
 10941 03c4 91       		.byte	0x91
 10942 03c5 0C       		.sleb128 12
 10943 03c6 00000000 		.long	0
 10944 03ca 00000000 		.long	0
 10945              	.LVUS65:
 10946 03ce 00       		.uleb128 .LVU871
 10947 03cf 00       		.uleb128 .LVU879
 10948              	.LLST65:
 10949 03d0 3D000000 		.long	.LVL114
 10950 03d4 42000000 		.long	.LVL115
 10951 03d8 0100     		.value	0x1
 10952 03da 50       		.byte	0x50
 10953 03db 00000000 		.long	0
 10954 03df 00000000 		.long	0
 10955              	.LVUS66:
 10956 03e3 03       		.uleb128 .LVU874
 10957 03e4 00       		.uleb128 .LVU880
 10958              	.LLST66:
 10959 03e5 3D000000 		.long	.LVL114
 10960 03e9 47000000 		.long	.LVL116
 10961 03ed 0200     		.value	0x2
 10962 03ef 91       		.byte	0x91
 10963 03f0 0C       		.sleb128 12
 10964 03f1 00000000 		.long	0
 10965 03f5 00000000 		.long	0
 10966              	.LVUS67:
 10967 03f9 03       		.uleb128 .LVU874
 10968 03fa 00       		.uleb128 .LVU879
 10969              	.LLST67:
 10970 03fb 3D000000 		.long	.LVL114
 10971 03ff 42000000 		.long	.LVL115
 10972 0403 0100     		.value	0x1
 10973 0405 50       		.byte	0x50
 10974 0406 00000000 		.long	0
 10975 040a 00000000 		.long	0
GAS LISTING /tmp/cccyco2T.s 			page 196


 10976              	.LVUS57:
 10977 040e 00       		.uleb128 0
 10978 040f 00       		.uleb128 .LVU825
 10979 0410 00       		.uleb128 .LVU825
 10980 0411 00       		.uleb128 0
 10981              	.LLST57:
 10982 0412 00000000 		.long	.LVL101
 10983 0416 82000000 		.long	.LVL109
 10984 041a 0200     		.value	0x2
 10985 041c 91       		.byte	0x91
 10986 041d 00       		.sleb128 0
 10987 041e 82000000 		.long	.LVL109
 10988 0422 B0000000 		.long	.LFE251
 10989 0426 0100     		.value	0x1
 10990 0428 53       		.byte	0x53
 10991 0429 00000000 		.long	0
 10992 042d 00000000 		.long	0
 10993              	.LVUS58:
 10994 0431 00       		.uleb128 .LVU827
 10995 0432 00       		.uleb128 .LVU829
 10996 0433 00       		.uleb128 .LVU830
 10997 0434 00       		.uleb128 0
 10998              	.LLST58:
 10999 0435 95000000 		.long	.LVL110
 11000 0439 9F000000 		.long	.LVL111
 11001 043d 0100     		.value	0x1
 11002 043f 50       		.byte	0x50
 11003 0440 A1000000 		.long	.LVL112
 11004 0444 B0000000 		.long	.LFE251
 11005 0448 0100     		.value	0x1
 11006 044a 50       		.byte	0x50
 11007 044b 00000000 		.long	0
 11008 044f 00000000 		.long	0
 11009              	.LVUS59:
 11010 0453 01       		.uleb128 .LVU780
 11011 0454 00       		.uleb128 .LVU790
 11012 0455 00       		.uleb128 .LVU790
 11013 0456 00       		.uleb128 .LVU793
 11014 0457 00       		.uleb128 .LVU793
 11015 0458 00       		.uleb128 .LVU794
 11016 0459 00       		.uleb128 .LVU794
 11017 045a 00       		.uleb128 .LVU796
 11018 045b 00       		.uleb128 .LVU796
 11019 045c 00       		.uleb128 .LVU808
 11020              	.LLST59:
 11021 045d 3A000000 		.long	.LVL102
 11022 0461 43000000 		.long	.LVL103
 11023 0465 0900     		.value	0x9
 11024 0467 91       		.byte	0x91
 11025 0468 00       		.sleb128 0
 11026 0469 06       		.byte	0x6
 11027 046a 23       		.byte	0x23
 11028 046b 1C       		.uleb128 0x1c
 11029 046c 06       		.byte	0x6
 11030 046d 34       		.byte	0x34
 11031 046e 1C       		.byte	0x1c
 11032 046f 9F       		.byte	0x9f
GAS LISTING /tmp/cccyco2T.s 			page 197


 11033 0470 43000000 		.long	.LVL103
 11034 0474 48000000 		.long	.LVL104
 11035 0478 0100     		.value	0x1
 11036 047a 52       		.byte	0x52
 11037 047b 48000000 		.long	.LVL104
 11038 047f 4B000000 		.long	.LVL105
 11039 0483 0200     		.value	0x2
 11040 0485 70       		.byte	0x70
 11041 0486 00       		.sleb128 0
 11042 0487 4B000000 		.long	.LVL105
 11043 048b 51000000 		.long	.LVL106
 11044 048f 0600     		.value	0x6
 11045 0491 91       		.byte	0x91
 11046 0492 00       		.sleb128 0
 11047 0493 06       		.byte	0x6
 11048 0494 23       		.byte	0x23
 11049 0495 10       		.uleb128 0x10
 11050 0496 06       		.byte	0x6
 11051 0497 51000000 		.long	.LVL106
 11052 049b 72000000 		.long	.LVL107-1
 11053 049f 0300     		.value	0x3
 11054 04a1 71       		.byte	0x71
 11055 04a2 7C       		.sleb128 -4
 11056 04a3 9F       		.byte	0x9f
 11057 04a4 00000000 		.long	0
 11058 04a8 00000000 		.long	0
 11059              	.LVUS60:
 11060 04ac 01       		.uleb128 .LVU780
 11061 04ad 00       		.uleb128 .LVU809
 11062              	.LLST60:
 11063 04ae 3A000000 		.long	.LVL102
 11064 04b2 76000000 		.long	.LVL108
 11065 04b6 0200     		.value	0x2
 11066 04b8 91       		.byte	0x91
 11067 04b9 00       		.sleb128 0
 11068 04ba 00000000 		.long	0
 11069 04be 00000000 		.long	0
 11070              	.LVUS54:
 11071 04c2 03       		.uleb128 .LVU685
 11072 04c3 00       		.uleb128 .LVU695
 11073 04c4 00       		.uleb128 .LVU695
 11074 04c5 00       		.uleb128 .LVU711
 11075              	.LLST54:
 11076 04c6 26000000 		.long	.LVL94
 11077 04ca 2B000000 		.long	.LVL95
 11078 04ce 0100     		.value	0x1
 11079 04d0 51       		.byte	0x51
 11080 04d1 2B000000 		.long	.LVL95
 11081 04d5 59000000 		.long	.LVL97
 11082 04d9 0200     		.value	0x2
 11083 04db 91       		.byte	0x91
 11084 04dc 04       		.sleb128 4
 11085 04dd 00000000 		.long	0
 11086 04e1 00000000 		.long	0
 11087              	.LVUS55:
 11088 04e5 03       		.uleb128 .LVU685
 11089 04e6 00       		.uleb128 .LVU710
GAS LISTING /tmp/cccyco2T.s 			page 198


 11090 04e7 00       		.uleb128 .LVU710
 11091 04e8 00       		.uleb128 .LVU711
 11092              	.LLST55:
 11093 04e9 26000000 		.long	.LVL94
 11094 04ed 55000000 		.long	.LVL96-1
 11095 04f1 0100     		.value	0x1
 11096 04f3 50       		.byte	0x50
 11097 04f4 55000000 		.long	.LVL96-1
 11098 04f8 59000000 		.long	.LVL97
 11099 04fc 0200     		.value	0x2
 11100 04fe 91       		.byte	0x91
 11101 04ff 00       		.sleb128 0
 11102 0500 00000000 		.long	0
 11103 0504 00000000 		.long	0
 11104              	.LVUS53:
 11105 0508 00       		.uleb128 .LVU654
 11106 0509 00       		.uleb128 0
 11107              	.LLST53:
 11108 050a 27000000 		.long	.LVL92
 11109 050e 32000000 		.long	.LFE247
 11110 0512 0100     		.value	0x1
 11111 0514 50       		.byte	0x50
 11112 0515 00000000 		.long	0
 11113 0519 00000000 		.long	0
 11114              	.LVUS46:
 11115 051d 01       		.uleb128 .LVU600
 11116 051e 00       		.uleb128 .LVU602
 11117              	.LLST46:
 11118 051f 30000000 		.long	.LVL83
 11119 0523 3B000000 		.long	.LVL84
 11120 0527 0200     		.value	0x2
 11121 0529 30       		.byte	0x30
 11122 052a 9F       		.byte	0x9f
 11123 052b 00000000 		.long	0
 11124 052f 00000000 		.long	0
 11125              	.LVUS47:
 11126 0533 01       		.uleb128 .LVU600
 11127 0534 00       		.uleb128 .LVU602
 11128 0535 00       		.uleb128 .LVU602
 11129 0536 00       		.uleb128 .LVU602
 11130              	.LLST47:
 11131 0537 30000000 		.long	.LVL83
 11132 053b 3A000000 		.long	.LVL84-1
 11133 053f 0100     		.value	0x1
 11134 0541 50       		.byte	0x50
 11135 0542 3A000000 		.long	.LVL84-1
 11136 0546 3B000000 		.long	.LVL84
 11137 054a 0200     		.value	0x2
 11138 054c 91       		.byte	0x91
 11139 054d 00       		.sleb128 0
 11140 054e 00000000 		.long	0
 11141 0552 00000000 		.long	0
 11142              	.LVUS45:
 11143 0556 00       		.uleb128 0
 11144 0557 00       		.uleb128 .LVU581
 11145 0558 00       		.uleb128 .LVU581
 11146 0559 00       		.uleb128 .LVU582
GAS LISTING /tmp/cccyco2T.s 			page 199


 11147 055a 00       		.uleb128 .LVU582
 11148 055b 00       		.uleb128 0
 11149              	.LLST45:
 11150 055c 00000000 		.long	.LVL79
 11151 0560 18000000 		.long	.LVL80
 11152 0564 0200     		.value	0x2
 11153 0566 91       		.byte	0x91
 11154 0567 00       		.sleb128 0
 11155 0568 18000000 		.long	.LVL80
 11156 056c 23000000 		.long	.LVL81
 11157 0570 0100     		.value	0x1
 11158 0572 52       		.byte	0x52
 11159 0573 23000000 		.long	.LVL81
 11160 0577 2A000000 		.long	.LFE245
 11161 057b 0200     		.value	0x2
 11162 057d 91       		.byte	0x91
 11163 057e 00       		.sleb128 0
 11164 057f 00000000 		.long	0
 11165 0583 00000000 		.long	0
 11166              	.LVUS43:
 11167 0587 03       		.uleb128 .LVU565
 11168 0588 00       		.uleb128 .LVU567
 11169              	.LLST43:
 11170 0589 30000000 		.long	.LVL77
 11171 058d 38000000 		.long	.LVL78
 11172 0591 0300     		.value	0x3
 11173 0593 09       		.byte	0x9
 11174 0594 FE       		.byte	0xfe
 11175 0595 9F       		.byte	0x9f
 11176 0596 00000000 		.long	0
 11177 059a 00000000 		.long	0
 11178              	.LVUS44:
 11179 059e 03       		.uleb128 .LVU565
 11180 059f 00       		.uleb128 .LVU567
 11181 05a0 00       		.uleb128 .LVU567
 11182 05a1 00       		.uleb128 .LVU567
 11183              	.LLST44:
 11184 05a2 30000000 		.long	.LVL77
 11185 05a6 37000000 		.long	.LVL78-1
 11186 05aa 0100     		.value	0x1
 11187 05ac 50       		.byte	0x50
 11188 05ad 37000000 		.long	.LVL78-1
 11189 05b1 38000000 		.long	.LVL78
 11190 05b5 0200     		.value	0x2
 11191 05b7 91       		.byte	0x91
 11192 05b8 00       		.sleb128 0
 11193 05b9 00000000 		.long	0
 11194 05bd 00000000 		.long	0
 11195              	.LVUS40:
 11196 05c1 00       		.uleb128 .LVU504
 11197 05c2 00       		.uleb128 .LVU523
 11198              	.LLST40:
 11199 05c3 06000000 		.long	.LVL74
 11200 05c7 2F000000 		.long	.LVL75
 11201 05cb 0200     		.value	0x2
 11202 05cd 91       		.byte	0x91
 11203 05ce 00       		.sleb128 0
GAS LISTING /tmp/cccyco2T.s 			page 200


 11204 05cf 00000000 		.long	0
 11205 05d3 00000000 		.long	0
 11206              	.LVUS41:
 11207 05d7 02       		.uleb128 .LVU506
 11208 05d8 00       		.uleb128 .LVU523
 11209              	.LLST41:
 11210 05d9 06000000 		.long	.LVL74
 11211 05dd 2F000000 		.long	.LVL75
 11212 05e1 0200     		.value	0x2
 11213 05e3 91       		.byte	0x91
 11214 05e4 00       		.sleb128 0
 11215 05e5 00000000 		.long	0
 11216 05e9 00000000 		.long	0
 11217              	.LVUS42:
 11218 05ed 04       		.uleb128 .LVU508
 11219 05ee 00       		.uleb128 .LVU523
 11220              	.LLST42:
 11221 05ef 06000000 		.long	.LVL74
 11222 05f3 2F000000 		.long	.LVL75
 11223 05f7 0200     		.value	0x2
 11224 05f9 91       		.byte	0x91
 11225 05fa 00       		.sleb128 0
 11226 05fb 00000000 		.long	0
 11227 05ff 00000000 		.long	0
 11228              	.LVUS19:
 11229 0603 00       		.uleb128 0
 11230 0604 00       		.uleb128 .LVU352
 11231 0605 00       		.uleb128 .LVU352
 11232 0606 00       		.uleb128 .LVU359
 11233 0607 00       		.uleb128 .LVU359
 11234 0608 02       		.uleb128 .LVU364
 11235 0609 02       		.uleb128 .LVU364
 11236 060a 00       		.uleb128 .LVU492
 11237 060b 00       		.uleb128 .LVU494
 11238 060c 00       		.uleb128 .LVU496
 11239              	.LLST19:
 11240 060d 00000000 		.long	.LVL36
 11241 0611 57000000 		.long	.LVL41
 11242 0615 0200     		.value	0x2
 11243 0617 91       		.byte	0x91
 11244 0618 04       		.sleb128 4
 11245 0619 57000000 		.long	.LVL41
 11246 061d 65000000 		.long	.LVL43
 11247 0621 0100     		.value	0x1
 11248 0623 56       		.byte	0x56
 11249 0624 65000000 		.long	.LVL43
 11250 0628 C5000000 		.long	.LVL46
 11251 062c 0300     		.value	0x3
 11252 062e 76       		.byte	0x76
 11253 062f 40       		.sleb128 -64
 11254 0630 9F       		.byte	0x9f
 11255 0631 C5000000 		.long	.LVL46
 11256 0635 D5010000 		.long	.LVL68
 11257 0639 0100     		.value	0x1
 11258 063b 56       		.byte	0x56
 11259 063c D8010000 		.long	.LVL70
 11260 0640 ED010000 		.long	.LVL71
GAS LISTING /tmp/cccyco2T.s 			page 201


 11261 0644 0100     		.value	0x1
 11262 0646 56       		.byte	0x56
 11263 0647 00000000 		.long	0
 11264 064b 00000000 		.long	0
 11265              	.LVUS20:
 11266 064f 02       		.uleb128 .LVU315
 11267 0650 00       		.uleb128 .LVU352
 11268 0651 00       		.uleb128 .LVU352
 11269 0652 00       		.uleb128 .LVU360
 11270 0653 00       		.uleb128 .LVU360
 11271 0654 01       		.uleb128 .LVU367
 11272 0655 01       		.uleb128 .LVU367
 11273 0656 00       		.uleb128 .LVU441
 11274 0657 01       		.uleb128 .LVU443
 11275 0658 00       		.uleb128 .LVU493
 11276 0659 00       		.uleb128 .LVU493
 11277 065a 00       		.uleb128 .LVU494
 11278 065b 00       		.uleb128 .LVU494
 11279 065c 00       		.uleb128 .LVU497
 11280 065d 00       		.uleb128 .LVU497
 11281 065e 00       		.uleb128 0
 11282              	.LLST20:
 11283 065f 00000000 		.long	.LVL36
 11284 0663 57000000 		.long	.LVL41
 11285 0667 0200     		.value	0x2
 11286 0669 30       		.byte	0x30
 11287 066a 9F       		.byte	0x9f
 11288 066b 57000000 		.long	.LVL41
 11289 066f 68000000 		.long	.LVL44
 11290 0673 0100     		.value	0x1
 11291 0675 55       		.byte	0x55
 11292 0676 68000000 		.long	.LVL44
 11293 067a CE000000 		.long	.LVL47
 11294 067e 0300     		.value	0x3
 11295 0680 75       		.byte	0x75
 11296 0681 40       		.sleb128 -64
 11297 0682 9F       		.byte	0x9f
 11298 0683 CE000000 		.long	.LVL47
 11299 0687 5E010000 		.long	.LVL58
 11300 068b 0100     		.value	0x1
 11301 068d 55       		.byte	0x55
 11302 068e 61010000 		.long	.LVL59
 11303 0692 D7010000 		.long	.LVL69
 11304 0696 0100     		.value	0x1
 11305 0698 55       		.byte	0x55
 11306 0699 D7010000 		.long	.LVL69
 11307 069d D8010000 		.long	.LVL70
 11308 06a1 0100     		.value	0x1
 11309 06a3 50       		.byte	0x50
 11310 06a4 D8010000 		.long	.LVL70
 11311 06a8 EF010000 		.long	.LVL72
 11312 06ac 0100     		.value	0x1
 11313 06ae 55       		.byte	0x55
 11314 06af EF010000 		.long	.LVL72
 11315 06b3 F0010000 		.long	.LFE242
 11316 06b7 0100     		.value	0x1
 11317 06b9 50       		.byte	0x50
GAS LISTING /tmp/cccyco2T.s 			page 202


 11318 06ba 00000000 		.long	0
 11319 06be 00000000 		.long	0
 11320              	.LVUS21:
 11321 06c2 00       		.uleb128 .LVU349
 11322 06c3 00       		.uleb128 .LVU351
 11323 06c4 00       		.uleb128 .LVU351
 11324 06c5 00       		.uleb128 0
 11325              	.LLST21:
 11326 06c6 47000000 		.long	.LVL39
 11327 06ca 4B000000 		.long	.LVL40
 11328 06ce 0100     		.value	0x1
 11329 06d0 50       		.byte	0x50
 11330 06d1 4B000000 		.long	.LVL40
 11331 06d5 F0010000 		.long	.LFE242
 11332 06d9 0200     		.value	0x2
 11333 06db 91       		.byte	0x91
 11334 06dc 5A       		.sleb128 -38
 11335 06dd 00000000 		.long	0
 11336 06e1 00000000 		.long	0
 11337              	.LVUS26:
 11338 06e5 00       		.uleb128 .LVU352
 11339 06e6 00       		.uleb128 .LVU357
 11340 06e7 00       		.uleb128 .LVU357
 11341 06e8 00       		.uleb128 .LVU361
 11342 06e9 00       		.uleb128 .LVU423
 11343 06ea 00       		.uleb128 .LVU432
 11344 06eb 00       		.uleb128 .LVU432
 11345 06ec 00       		.uleb128 .LVU444
 11346              	.LLST26:
 11347 06ed 57000000 		.long	.LVL41
 11348 06f1 62000000 		.long	.LVL42
 11349 06f5 0100     		.value	0x1
 11350 06f7 52       		.byte	0x52
 11351 06f8 62000000 		.long	.LVL42
 11352 06fc 6B000000 		.long	.LVL45
 11353 0700 1F00     		.value	0x1f
 11354 0702 73       		.byte	0x73
 11355 0703 00       		.sleb128 0
 11356 0704 77       		.byte	0x77
 11357 0705 2C       		.sleb128 44
 11358 0706 06       		.byte	0x6
 11359 0707 70       		.byte	0x70
 11360 0708 00       		.sleb128 0
 11361 0709 1C       		.byte	0x1c
 11362 070a 73       		.byte	0x73
 11363 070b 00       		.sleb128 0
 11364 070c 40       		.byte	0x40
 11365 070d 4B       		.byte	0x4b
 11366 070e 24       		.byte	0x24
 11367 070f 22       		.byte	0x22
 11368 0710 77       		.byte	0x77
 11369 0711 2C       		.sleb128 44
 11370 0712 06       		.byte	0x6
 11371 0713 70       		.byte	0x70
 11372 0714 00       		.sleb128 0
 11373 0715 1C       		.byte	0x1c
 11374 0716 40       		.byte	0x40
GAS LISTING /tmp/cccyco2T.s 			page 203


 11375 0717 4B       		.byte	0x4b
 11376 0718 24       		.byte	0x24
 11377 0719 22       		.byte	0x22
 11378 071a 2C       		.byte	0x2c
 11379 071b 28       		.byte	0x28
 11380 071c 0100     		.value	0x1
 11381 071e 16       		.byte	0x16
 11382 071f 13       		.byte	0x13
 11383 0720 9F       		.byte	0x9f
 11384 0721 2B010000 		.long	.LVL52
 11385 0725 4D010000 		.long	.LVL56-1
 11386 0729 0100     		.value	0x1
 11387 072b 52       		.byte	0x52
 11388 072c 4D010000 		.long	.LVL56-1
 11389 0730 66010000 		.long	.LVL60
 11390 0734 0200     		.value	0x2
 11391 0736 91       		.byte	0x91
 11392 0737 4C       		.sleb128 -52
 11393 0738 00000000 		.long	0
 11394 073c 00000000 		.long	0
 11395              	.LVUS27:
 11396 0740 00       		.uleb128 .LVU467
 11397 0741 00       		.uleb128 .LVU472
 11398 0742 00       		.uleb128 .LVU475
 11399 0743 00       		.uleb128 .LVU478
 11400              	.LLST27:
 11401 0744 99010000 		.long	.LVL64
 11402 0748 A3010000 		.long	.LVL65
 11403 074c 0100     		.value	0x1
 11404 074e 50       		.byte	0x50
 11405 074f BD010000 		.long	.LVL66
 11406 0753 C4010000 		.long	.LVL67
 11407 0757 0100     		.value	0x1
 11408 0759 50       		.byte	0x50
 11409 075a 00000000 		.long	0
 11410 075e 00000000 		.long	0
 11411              	.LVUS28:
 11412 0762 00       		.uleb128 .LVU462
 11413 0763 00       		.uleb128 .LVU467
 11414              	.LLST28:
 11415 0764 89010000 		.long	.LVL63
 11416 0768 98010000 		.long	.LVL64-1
 11417 076c 0100     		.value	0x1
 11418 076e 50       		.byte	0x50
 11419 076f 00000000 		.long	0
 11420 0773 00000000 		.long	0
 11421              	.LVUS29:
 11422 0777 00       		.uleb128 .LVU455
 11423 0778 00       		.uleb128 .LVU461
 11424 0779 00       		.uleb128 .LVU461
 11425 077a 00       		.uleb128 .LVU462
 11426              	.LLST29:
 11427 077b 84010000 		.long	.LVL61
 11428 077f 86010000 		.long	.LVL62
 11429 0783 0100     		.value	0x1
 11430 0785 51       		.byte	0x51
 11431 0786 86010000 		.long	.LVL62
GAS LISTING /tmp/cccyco2T.s 			page 204


 11432 078a 89010000 		.long	.LVL63
 11433 078e 0200     		.value	0x2
 11434 0790 91       		.byte	0x91
 11435 0791 5A       		.sleb128 -38
 11436 0792 00000000 		.long	0
 11437 0796 00000000 		.long	0
 11438              	.LVUS30:
 11439 079a 00       		.uleb128 .LVU455
 11440 079b 00       		.uleb128 .LVU462
 11441              	.LLST30:
 11442 079c 84010000 		.long	.LVL61
 11443 07a0 89010000 		.long	.LVL63
 11444 07a4 0100     		.value	0x1
 11445 07a6 50       		.byte	0x50
 11446 07a7 00000000 		.long	0
 11447 07ab 00000000 		.long	0
 11448              	.LVUS31:
 11449 07af 03       		.uleb128 .LVU458
 11450 07b0 00       		.uleb128 .LVU461
 11451 07b1 00       		.uleb128 .LVU461
 11452 07b2 00       		.uleb128 .LVU462
 11453              	.LLST31:
 11454 07b3 84010000 		.long	.LVL61
 11455 07b7 86010000 		.long	.LVL62
 11456 07bb 0100     		.value	0x1
 11457 07bd 51       		.byte	0x51
 11458 07be 86010000 		.long	.LVL62
 11459 07c2 89010000 		.long	.LVL63
 11460 07c6 0200     		.value	0x2
 11461 07c8 91       		.byte	0x91
 11462 07c9 5A       		.sleb128 -38
 11463 07ca 00000000 		.long	0
 11464 07ce 00000000 		.long	0
 11465              	.LVUS32:
 11466 07d2 03       		.uleb128 .LVU458
 11467 07d3 00       		.uleb128 .LVU462
 11468              	.LLST32:
 11469 07d4 84010000 		.long	.LVL61
 11470 07d8 89010000 		.long	.LVL63
 11471 07dc 0100     		.value	0x1
 11472 07de 50       		.byte	0x50
 11473 07df 00000000 		.long	0
 11474 07e3 00000000 		.long	0
 11475              	.LVUS33:
 11476 07e7 02       		.uleb128 .LVU354
 11477 07e8 00       		.uleb128 .LVU362
 11478              	.LLST33:
 11479 07e9 57000000 		.long	.LVL41
 11480 07ed C5000000 		.long	.LVL46
 11481 07f1 0300     		.value	0x3
 11482 07f3 08       		.byte	0x8
 11483 07f4 40       		.byte	0x40
 11484 07f5 9F       		.byte	0x9f
 11485 07f6 00000000 		.long	0
 11486 07fa 00000000 		.long	0
 11487              	.LVUS34:
 11488 07fe 02       		.uleb128 .LVU354
GAS LISTING /tmp/cccyco2T.s 			page 205


 11489 07ff 00       		.uleb128 .LVU361
 11490              	.LLST34:
 11491 0800 57000000 		.long	.LVL41
 11492 0804 6B000000 		.long	.LVL45
 11493 0808 0200     		.value	0x2
 11494 080a 77       		.byte	0x77
 11495 080b 28       		.sleb128 40
 11496 080c 00000000 		.long	0
 11497 0810 00000000 		.long	0
 11498              	.LVUS35:
 11499 0814 02       		.uleb128 .LVU354
 11500 0815 00       		.uleb128 .LVU359
 11501 0816 00       		.uleb128 .LVU359
 11502 0817 00       		.uleb128 .LVU362
 11503              	.LLST35:
 11504 0818 57000000 		.long	.LVL41
 11505 081c 65000000 		.long	.LVL43
 11506 0820 0100     		.value	0x1
 11507 0822 56       		.byte	0x56
 11508 0823 65000000 		.long	.LVL43
 11509 0827 C5000000 		.long	.LVL46
 11510 082b 0300     		.value	0x3
 11511 082d 76       		.byte	0x76
 11512 082e 40       		.sleb128 -64
 11513 082f 9F       		.byte	0x9f
 11514 0830 00000000 		.long	0
 11515 0834 00000000 		.long	0
 11516              	.LVUS36:
 11517 0838 01       		.uleb128 .LVU370
 11518 0839 00       		.uleb128 .LVU389
 11519              	.LLST36:
 11520 083a D3000000 		.long	.LVL48
 11521 083e 07010000 		.long	.LVL50
 11522 0842 0100     		.value	0x1
 11523 0844 57       		.byte	0x57
 11524 0845 00000000 		.long	0
 11525 0849 00000000 		.long	0
 11526              	.LVUS37:
 11527 084d 01       		.uleb128 .LVU428
 11528 084e 00       		.uleb128 .LVU432
 11529 084f 00       		.uleb128 .LVU432
 11530 0850 00       		.uleb128 .LVU432
 11531              	.LLST37:
 11532 0851 3B010000 		.long	.LVL54
 11533 0855 4D010000 		.long	.LVL56-1
 11534 0859 0100     		.value	0x1
 11535 085b 52       		.byte	0x52
 11536 085c 4D010000 		.long	.LVL56-1
 11537 0860 4E010000 		.long	.LVL56
 11538 0864 0200     		.value	0x2
 11539 0866 91       		.byte	0x91
 11540 0867 4C       		.sleb128 -52
 11541 0868 00000000 		.long	0
 11542 086c 00000000 		.long	0
 11543              	.LVUS38:
 11544 0870 01       		.uleb128 .LVU428
 11545 0871 00       		.uleb128 .LVU431
GAS LISTING /tmp/cccyco2T.s 			page 206


 11546              	.LLST38:
 11547 0872 3B010000 		.long	.LVL54
 11548 0876 44010000 		.long	.LVL55
 11549 087a 0200     		.value	0x2
 11550 087c 77       		.byte	0x77
 11551 087d 28       		.sleb128 40
 11552 087e 00000000 		.long	0
 11553 0882 00000000 		.long	0
 11554              	.LVUS39:
 11555 0886 01       		.uleb128 .LVU428
 11556 0887 00       		.uleb128 .LVU432
 11557              	.LLST39:
 11558 0888 3B010000 		.long	.LVL54
 11559 088c 4E010000 		.long	.LVL56
 11560 0890 0100     		.value	0x1
 11561 0892 56       		.byte	0x56
 11562 0893 00000000 		.long	0
 11563 0897 00000000 		.long	0
 11564              	.LVUS22:
 11565 089b 00       		.uleb128 .LVU340
 11566 089c 00       		.uleb128 .LVU349
 11567              	.LLST22:
 11568 089d 3D000000 		.long	.LVL37
 11569 08a1 47000000 		.long	.LVL39
 11570 08a5 0200     		.value	0x2
 11571 08a7 91       		.byte	0x91
 11572 08a8 0C       		.sleb128 12
 11573 08a9 00000000 		.long	0
 11574 08ad 00000000 		.long	0
 11575              	.LVUS23:
 11576 08b1 00       		.uleb128 .LVU340
 11577 08b2 00       		.uleb128 .LVU348
 11578              	.LLST23:
 11579 08b3 3D000000 		.long	.LVL37
 11580 08b7 42000000 		.long	.LVL38
 11581 08bb 0100     		.value	0x1
 11582 08bd 50       		.byte	0x50
 11583 08be 00000000 		.long	0
 11584 08c2 00000000 		.long	0
 11585              	.LVUS24:
 11586 08c6 03       		.uleb128 .LVU343
 11587 08c7 00       		.uleb128 .LVU349
 11588              	.LLST24:
 11589 08c8 3D000000 		.long	.LVL37
 11590 08cc 47000000 		.long	.LVL39
 11591 08d0 0200     		.value	0x2
 11592 08d2 91       		.byte	0x91
 11593 08d3 0C       		.sleb128 12
 11594 08d4 00000000 		.long	0
 11595 08d8 00000000 		.long	0
 11596              	.LVUS25:
 11597 08dc 03       		.uleb128 .LVU343
 11598 08dd 00       		.uleb128 .LVU348
 11599              	.LLST25:
 11600 08de 3D000000 		.long	.LVL37
 11601 08e2 42000000 		.long	.LVL38
 11602 08e6 0100     		.value	0x1
GAS LISTING /tmp/cccyco2T.s 			page 207


 11603 08e8 50       		.byte	0x50
 11604 08e9 00000000 		.long	0
 11605 08ed 00000000 		.long	0
 11606              	.LVUS16:
 11607 08f1 00       		.uleb128 0
 11608 08f2 00       		.uleb128 .LVU307
 11609 08f3 00       		.uleb128 .LVU307
 11610 08f4 00       		.uleb128 0
 11611              	.LLST16:
 11612 08f5 00000000 		.long	.LVL27
 11613 08f9 72000000 		.long	.LVL33
 11614 08fd 0200     		.value	0x2
 11615 08ff 91       		.byte	0x91
 11616 0900 00       		.sleb128 0
 11617 0901 72000000 		.long	.LVL33
 11618 0905 93000000 		.long	.LFE241
 11619 0909 0100     		.value	0x1
 11620 090b 53       		.byte	0x53
 11621 090c 00000000 		.long	0
 11622 0910 00000000 		.long	0
 11623              	.LVUS17:
 11624 0914 00       		.uleb128 .LVU264
 11625 0915 00       		.uleb128 .LVU306
 11626 0916 00       		.uleb128 .LVU306
 11627 0917 00       		.uleb128 .LVU307
 11628 0918 00       		.uleb128 .LVU311
 11629 0919 00       		.uleb128 0
 11630              	.LLST17:
 11631 091a 27000000 		.long	.LVL28
 11632 091e 71000000 		.long	.LVL32
 11633 0922 0100     		.value	0x1
 11634 0924 57       		.byte	0x57
 11635 0925 71000000 		.long	.LVL32
 11636 0929 72000000 		.long	.LVL33
 11637 092d 0100     		.value	0x1
 11638 092f 50       		.byte	0x50
 11639 0930 8A000000 		.long	.LVL35
 11640 0934 93000000 		.long	.LFE241
 11641 0938 0100     		.value	0x1
 11642 093a 50       		.byte	0x50
 11643 093b 00000000 		.long	0
 11644 093f 00000000 		.long	0
 11645              	.LVUS18:
 11646 0943 01       		.uleb128 .LVU269
 11647 0944 00       		.uleb128 .LVU290
 11648              	.LLST18:
 11649 0945 32000000 		.long	.LVL29
 11650 0949 66000000 		.long	.LVL31
 11651 094d 0200     		.value	0x2
 11652 094f 91       		.byte	0x91
 11653 0950 00       		.sleb128 0
 11654 0951 00000000 		.long	0
 11655 0955 00000000 		.long	0
 11656              	.LVUS14:
 11657 0959 03       		.uleb128 .LVU190
 11658 095a 00       		.uleb128 .LVU208
 11659 095b 00       		.uleb128 .LVU208
GAS LISTING /tmp/cccyco2T.s 			page 208


 11660 095c 00       		.uleb128 .LVU209
 11661              	.LLST14:
 11662 095d 25000000 		.long	.LVL21
 11663 0961 4F000000 		.long	.LVL22-1
 11664 0965 0100     		.value	0x1
 11665 0967 50       		.byte	0x50
 11666 0968 4F000000 		.long	.LVL22-1
 11667 096c 53000000 		.long	.LVL23
 11668 0970 0200     		.value	0x2
 11669 0972 91       		.byte	0x91
 11670 0973 00       		.sleb128 0
 11671 0974 00000000 		.long	0
 11672 0978 00000000 		.long	0
 11673              	.LVUS13:
 11674 097c 00       		.uleb128 .LVU159
 11675 097d 00       		.uleb128 0
 11676              	.LLST13:
 11677 097e 27000000 		.long	.LVL19
 11678 0982 32000000 		.long	.LFE237
 11679 0986 0100     		.value	0x1
 11680 0988 50       		.byte	0x50
 11681 0989 00000000 		.long	0
 11682 098d 00000000 		.long	0
 11683              	.LVUS6:
 11684 0991 01       		.uleb128 .LVU105
 11685 0992 00       		.uleb128 .LVU107
 11686              	.LLST6:
 11687 0993 36000000 		.long	.LVL10
 11688 0997 41000000 		.long	.LVL11
 11689 099b 0200     		.value	0x2
 11690 099d 30       		.byte	0x30
 11691 099e 9F       		.byte	0x9f
 11692 099f 00000000 		.long	0
 11693 09a3 00000000 		.long	0
 11694              	.LVUS7:
 11695 09a7 01       		.uleb128 .LVU105
 11696 09a8 00       		.uleb128 .LVU107
 11697 09a9 00       		.uleb128 .LVU107
 11698 09aa 00       		.uleb128 .LVU107
 11699              	.LLST7:
 11700 09ab 36000000 		.long	.LVL10
 11701 09af 40000000 		.long	.LVL11-1
 11702 09b3 0100     		.value	0x1
 11703 09b5 50       		.byte	0x50
 11704 09b6 40000000 		.long	.LVL11-1
 11705 09ba 41000000 		.long	.LVL11
 11706 09be 0200     		.value	0x2
 11707 09c0 91       		.byte	0x91
 11708 09c1 00       		.sleb128 0
 11709 09c2 00000000 		.long	0
 11710 09c6 00000000 		.long	0
 11711              	.LVUS5:
 11712 09ca 00       		.uleb128 0
 11713 09cb 00       		.uleb128 .LVU78
 11714 09cc 00       		.uleb128 .LVU78
 11715 09cd 00       		.uleb128 .LVU79
 11716 09ce 00       		.uleb128 .LVU79
GAS LISTING /tmp/cccyco2T.s 			page 209


 11717 09cf 00       		.uleb128 0
 11718              	.LLST5:
 11719 09d0 00000000 		.long	.LVL6
 11720 09d4 10000000 		.long	.LVL7
 11721 09d8 0200     		.value	0x2
 11722 09da 91       		.byte	0x91
 11723 09db 00       		.sleb128 0
 11724 09dc 10000000 		.long	.LVL7
 11725 09e0 13000000 		.long	.LVL8
 11726 09e4 0100     		.value	0x1
 11727 09e6 52       		.byte	0x52
 11728 09e7 13000000 		.long	.LVL8
 11729 09eb 1A000000 		.long	.LFE235
 11730 09ef 0200     		.value	0x2
 11731 09f1 91       		.byte	0x91
 11732 09f2 00       		.sleb128 0
 11733 09f3 00000000 		.long	0
 11734 09f7 00000000 		.long	0
 11735              	.LVUS3:
 11736 09fb 01       		.uleb128 .LVU66
 11737 09fc 00       		.uleb128 .LVU68
 11738              	.LLST3:
 11739 09fd 31000000 		.long	.LVL4
 11740 0a01 39000000 		.long	.LVL5
 11741 0a05 0300     		.value	0x3
 11742 0a07 09       		.byte	0x9
 11743 0a08 FE       		.byte	0xfe
 11744 0a09 9F       		.byte	0x9f
 11745 0a0a 00000000 		.long	0
 11746 0a0e 00000000 		.long	0
 11747              	.LVUS4:
 11748 0a12 01       		.uleb128 .LVU66
 11749 0a13 00       		.uleb128 .LVU68
 11750 0a14 00       		.uleb128 .LVU68
 11751 0a15 00       		.uleb128 .LVU68
 11752              	.LLST4:
 11753 0a16 31000000 		.long	.LVL4
 11754 0a1a 38000000 		.long	.LVL5-1
 11755 0a1e 0100     		.value	0x1
 11756 0a20 50       		.byte	0x50
 11757 0a21 38000000 		.long	.LVL5-1
 11758 0a25 39000000 		.long	.LVL5
 11759 0a29 0200     		.value	0x2
 11760 0a2b 91       		.byte	0x91
 11761 0a2c 00       		.sleb128 0
 11762 0a2d 00000000 		.long	0
 11763 0a31 00000000 		.long	0
 11764              	.LVUS0:
 11765 0a35 00       		.uleb128 .LVU6
 11766 0a36 00       		.uleb128 .LVU25
 11767              	.LLST0:
 11768 0a37 06000000 		.long	.LVL1
 11769 0a3b 2F000000 		.long	.LVL2
 11770 0a3f 0200     		.value	0x2
 11771 0a41 91       		.byte	0x91
 11772 0a42 00       		.sleb128 0
 11773 0a43 00000000 		.long	0
GAS LISTING /tmp/cccyco2T.s 			page 210


 11774 0a47 00000000 		.long	0
 11775              	.LVUS1:
 11776 0a4b 02       		.uleb128 .LVU8
 11777 0a4c 00       		.uleb128 .LVU25
 11778              	.LLST1:
 11779 0a4d 06000000 		.long	.LVL1
 11780 0a51 2F000000 		.long	.LVL2
 11781 0a55 0200     		.value	0x2
 11782 0a57 91       		.byte	0x91
 11783 0a58 00       		.sleb128 0
 11784 0a59 00000000 		.long	0
 11785 0a5d 00000000 		.long	0
 11786              	.LVUS2:
 11787 0a61 04       		.uleb128 .LVU10
 11788 0a62 00       		.uleb128 .LVU25
 11789              	.LLST2:
 11790 0a63 06000000 		.long	.LVL1
 11791 0a67 2F000000 		.long	.LVL2
 11792 0a6b 0200     		.value	0x2
 11793 0a6d 91       		.byte	0x91
 11794 0a6e 00       		.sleb128 0
 11795 0a6f 00000000 		.long	0
 11796 0a73 00000000 		.long	0
 11797              	.LVUS8:
 11798 0a77 00       		.uleb128 .LVU122
 11799 0a78 00       		.uleb128 .LVU125
 11800              	.LLST8:
 11801 0a79 30000000 		.long	.LVL14
 11802 0a7d 37000000 		.long	.LVL15
 11803 0a81 0100     		.value	0x1
 11804 0a83 50       		.byte	0x50
 11805 0a84 00000000 		.long	0
 11806 0a88 00000000 		.long	0
 11807              	.LVUS9:
 11808 0a8c 01       		.uleb128 .LVU119
 11809 0a8d 00       		.uleb128 .LVU122
 11810              	.LLST9:
 11811 0a8e 26000000 		.long	.LVL13
 11812 0a92 30000000 		.long	.LVL14
 11813 0a96 0200     		.value	0x2
 11814 0a98 91       		.byte	0x91
 11815 0a99 04       		.sleb128 4
 11816 0a9a 00000000 		.long	0
 11817 0a9e 00000000 		.long	0
 11818              	.LVUS10:
 11819 0aa2 01       		.uleb128 .LVU119
 11820 0aa3 00       		.uleb128 .LVU122
 11821              	.LLST10:
 11822 0aa4 26000000 		.long	.LVL13
 11823 0aa8 30000000 		.long	.LVL14
 11824 0aac 0200     		.value	0x2
 11825 0aae 91       		.byte	0x91
 11826 0aaf 00       		.sleb128 0
 11827 0ab0 00000000 		.long	0
 11828 0ab4 00000000 		.long	0
 11829              	.LVUS11:
 11830 0ab8 01       		.uleb128 .LVU129
GAS LISTING /tmp/cccyco2T.s 			page 211


 11831 0ab9 01       		.uleb128 .LVU139
 11832              	.LLST11:
 11833 0aba 3E000000 		.long	.LVL16
 11834 0abe 4C000000 		.long	.LVL17
 11835 0ac2 0100     		.value	0x1
 11836 0ac4 57       		.byte	0x57
 11837 0ac5 00000000 		.long	0
 11838 0ac9 00000000 		.long	0
 11839              	.LVUS12:
 11840 0acd 00       		.uleb128 .LVU128
 11841 0ace 01       		.uleb128 .LVU139
 11842              	.LLST12:
 11843 0acf 3E000000 		.long	.LVL16
 11844 0ad3 4C000000 		.long	.LVL17
 11845 0ad7 0100     		.value	0x1
 11846 0ad9 56       		.byte	0x56
 11847 0ada 00000000 		.long	0
 11848 0ade 00000000 		.long	0
 11849              	.LVUS15:
 11850 0ae2 00       		.uleb128 0
 11851 0ae3 00       		.uleb128 .LVU243
 11852 0ae4 00       		.uleb128 .LVU243
 11853 0ae5 00       		.uleb128 .LVU244
 11854 0ae6 00       		.uleb128 .LVU244
 11855 0ae7 00       		.uleb128 0
 11856              	.LLST15:
 11857 0ae8 00000000 		.long	.LVL24
 11858 0aec 33000000 		.long	.LVL25
 11859 0af0 0200     		.value	0x2
 11860 0af2 91       		.byte	0x91
 11861 0af3 00       		.sleb128 0
 11862 0af4 33000000 		.long	.LVL25
 11863 0af8 34000000 		.long	.LVL26-1
 11864 0afc 0100     		.value	0x1
 11865 0afe 50       		.byte	0x50
 11866 0aff 35000000 		.long	.LVL26
 11867 0b03 39000000 		.long	.LFE240
 11868 0b07 0100     		.value	0x1
 11869 0b09 50       		.byte	0x50
 11870 0b0a 00000000 		.long	0
 11871 0b0e 00000000 		.long	0
 11872              	.LVUS48:
 11873 0b12 00       		.uleb128 .LVU617
 11874 0b13 00       		.uleb128 .LVU620
 11875              	.LLST48:
 11876 0b14 30000000 		.long	.LVL87
 11877 0b18 37000000 		.long	.LVL88
 11878 0b1c 0100     		.value	0x1
 11879 0b1e 50       		.byte	0x50
 11880 0b1f 00000000 		.long	0
 11881 0b23 00000000 		.long	0
 11882              	.LVUS49:
 11883 0b27 01       		.uleb128 .LVU614
 11884 0b28 00       		.uleb128 .LVU617
 11885              	.LLST49:
 11886 0b29 26000000 		.long	.LVL86
 11887 0b2d 30000000 		.long	.LVL87
GAS LISTING /tmp/cccyco2T.s 			page 212


 11888 0b31 0200     		.value	0x2
 11889 0b33 91       		.byte	0x91
 11890 0b34 04       		.sleb128 4
 11891 0b35 00000000 		.long	0
 11892 0b39 00000000 		.long	0
 11893              	.LVUS50:
 11894 0b3d 01       		.uleb128 .LVU614
 11895 0b3e 00       		.uleb128 .LVU617
 11896              	.LLST50:
 11897 0b3f 26000000 		.long	.LVL86
 11898 0b43 30000000 		.long	.LVL87
 11899 0b47 0200     		.value	0x2
 11900 0b49 91       		.byte	0x91
 11901 0b4a 00       		.sleb128 0
 11902 0b4b 00000000 		.long	0
 11903 0b4f 00000000 		.long	0
 11904              	.LVUS51:
 11905 0b53 01       		.uleb128 .LVU624
 11906 0b54 01       		.uleb128 .LVU634
 11907              	.LLST51:
 11908 0b55 3E000000 		.long	.LVL89
 11909 0b59 4D000000 		.long	.LVL90
 11910 0b5d 0100     		.value	0x1
 11911 0b5f 57       		.byte	0x57
 11912 0b60 00000000 		.long	0
 11913 0b64 00000000 		.long	0
 11914              	.LVUS52:
 11915 0b68 00       		.uleb128 .LVU623
 11916 0b69 01       		.uleb128 .LVU634
 11917              	.LLST52:
 11918 0b6a 3E000000 		.long	.LVL89
 11919 0b6e 4D000000 		.long	.LVL90
 11920 0b72 0100     		.value	0x1
 11921 0b74 56       		.byte	0x56
 11922 0b75 00000000 		.long	0
 11923 0b79 00000000 		.long	0
 11924              	.LVUS56:
 11925 0b7d 00       		.uleb128 0
 11926 0b7e 00       		.uleb128 .LVU753
 11927 0b7f 00       		.uleb128 .LVU753
 11928 0b80 00       		.uleb128 .LVU754
 11929 0b81 00       		.uleb128 .LVU754
 11930 0b82 00       		.uleb128 0
 11931              	.LLST56:
 11932 0b83 00000000 		.long	.LVL98
 11933 0b87 39000000 		.long	.LVL99
 11934 0b8b 0200     		.value	0x2
 11935 0b8d 91       		.byte	0x91
 11936 0b8e 00       		.sleb128 0
 11937 0b8f 39000000 		.long	.LVL99
 11938 0b93 3A000000 		.long	.LVL100-1
 11939 0b97 0100     		.value	0x1
 11940 0b99 50       		.byte	0x50
 11941 0b9a 3B000000 		.long	.LVL100
 11942 0b9e 41000000 		.long	.LFE250
 11943 0ba2 0100     		.value	0x1
 11944 0ba4 50       		.byte	0x50
GAS LISTING /tmp/cccyco2T.s 			page 213


 11945 0ba5 00000000 		.long	0
 11946 0ba9 00000000 		.long	0
 11947              		.section	.debug_aranges,"",@progbits
 11948 0000 C4000000 		.long	0xc4
 11949 0004 0200     		.value	0x2
 11950 0006 00000000 		.long	.Ldebug_info0
 11951 000a 04       		.byte	0x4
 11952 000b 00       		.byte	0
 11953 000c 0000     		.value	0
 11954 000e 0000     		.value	0
 11955 0010 00000000 		.long	.LFB233
 11956 0014 60000000 		.long	.LFE233-.LFB233
 11957 0018 00000000 		.long	.LFB234
 11958 001c 3E000000 		.long	.LFE234-.LFB234
 11959 0020 00000000 		.long	.LFB235
 11960 0024 1A000000 		.long	.LFE235-.LFB235
 11961 0028 00000000 		.long	.LFB236
 11962 002c 46000000 		.long	.LFE236-.LFB236
 11963 0030 00000000 		.long	.LFB238
 11964 0034 61000000 		.long	.LFE238-.LFB238
 11965 0038 00000000 		.long	.LFB237
 11966 003c 32000000 		.long	.LFE237-.LFB237
 11967 0040 00000000 		.long	.LFB239
 11968 0044 5E000000 		.long	.LFE239-.LFB239
 11969 0048 00000000 		.long	.LFB240
 11970 004c 39000000 		.long	.LFE240-.LFB240
 11971 0050 00000000 		.long	.LFB241
 11972 0054 93000000 		.long	.LFE241-.LFB241
 11973 0058 00000000 		.long	.LFB242
 11974 005c F0010000 		.long	.LFE242-.LFB242
 11975 0060 00000000 		.long	.LFB243
 11976 0064 5C000000 		.long	.LFE243-.LFB243
 11977 0068 00000000 		.long	.LFB244
 11978 006c 3D000000 		.long	.LFE244-.LFB244
 11979 0070 00000000 		.long	.LFB245
 11980 0074 2A000000 		.long	.LFE245-.LFB245
 11981 0078 00000000 		.long	.LFB246
 11982 007c 40000000 		.long	.LFE246-.LFB246
 11983 0080 00000000 		.long	.LFB248
 11984 0084 61000000 		.long	.LFE248-.LFB248
 11985 0088 00000000 		.long	.LFB247
 11986 008c 32000000 		.long	.LFE247-.LFB247
 11987 0090 00000000 		.long	.LFB249
 11988 0094 64000000 		.long	.LFE249-.LFB249
 11989 0098 00000000 		.long	.LFB250
 11990 009c 41000000 		.long	.LFE250-.LFB250
 11991 00a0 00000000 		.long	.LFB251
 11992 00a4 B0000000 		.long	.LFE251-.LFB251
 11993 00a8 00000000 		.long	.LFB252
 11994 00ac E0010000 		.long	.LFE252-.LFB252
 11995 00b0 00000000 		.long	.LFB253
 11996 00b4 57000000 		.long	.LFE253-.LFB253
 11997 00b8 00000000 		.long	.LFB254
 11998 00bc 78000000 		.long	.LFE254-.LFB254
 11999 00c0 00000000 		.long	0
 12000 00c4 00000000 		.long	0
 12001              		.section	.debug_ranges,"",@progbits
GAS LISTING /tmp/cccyco2T.s 			page 214


 12002              	.Ldebug_ranges0:
 12003 0000 06000000 		.long	.LBB276
 12004 0004 06000000 		.long	.LBE276
 12005 0008 06000000 		.long	.LBB287
 12006 000c 06000000 		.long	.LBE287
 12007 0010 06000000 		.long	.LBB288
 12008 0014 06000000 		.long	.LBE288
 12009 0018 12000000 		.long	.LBB289
 12010 001c 14000000 		.long	.LBE289
 12011 0020 2C000000 		.long	.LBB290
 12012 0024 2F000000 		.long	.LBE290
 12013 0028 00000000 		.long	0
 12014 002c 00000000 		.long	0
 12015 0030 20000000 		.long	.LBB303
 12016 0034 37000000 		.long	.LBE303
 12017 0038 59000000 		.long	.LBB308
 12018 003c 5E000000 		.long	.LBE308
 12019 0040 00000000 		.long	0
 12020 0044 00000000 		.long	0
 12021 0048 00000000 		.long	.LBB309
 12022 004c 00000000 		.long	.LBE309
 12023 0050 00000000 		.long	.LBB317
 12024 0054 00000000 		.long	.LBE317
 12025 0058 00000000 		.long	.LBB318
 12026 005c 0A000000 		.long	.LBE318
 12027 0060 16000000 		.long	.LBB319
 12028 0064 22000000 		.long	.LBE319
 12029 0068 00000000 		.long	0
 12030 006c 00000000 		.long	0
 12031 0070 27000000 		.long	.LBB320
 12032 0074 27000000 		.long	.LBE320
 12033 0078 27000000 		.long	.LBB325
 12034 007c 2D000000 		.long	.LBE325
 12035 0080 00000000 		.long	0
 12036 0084 00000000 		.long	0
 12037 0088 00000000 		.long	.LBB326
 12038 008c 00000000 		.long	.LBE326
 12039 0090 00000000 		.long	.LBB337
 12040 0094 00000000 		.long	.LBE337
 12041 0098 00000000 		.long	.LBB338
 12042 009c 0B000000 		.long	.LBE338
 12043 00a0 13000000 		.long	.LBB339
 12044 00a4 19000000 		.long	.LBE339
 12045 00a8 1F000000 		.long	.LBB343
 12046 00ac 25000000 		.long	.LBE343
 12047 00b0 00000000 		.long	0
 12048 00b4 00000000 		.long	0
 12049 00b8 19000000 		.long	.LBB340
 12050 00bc 1F000000 		.long	.LBE340
 12051 00c0 25000000 		.long	.LBB344
 12052 00c4 53000000 		.long	.LBE344
 12053 00c8 00000000 		.long	0
 12054 00cc 00000000 		.long	0
 12055 00d0 53000000 		.long	.LBB345
 12056 00d4 53000000 		.long	.LBE345
 12057 00d8 53000000 		.long	.LBB350
 12058 00dc 59000000 		.long	.LBE350
GAS LISTING /tmp/cccyco2T.s 			page 215


 12059 00e0 00000000 		.long	0
 12060 00e4 00000000 		.long	0
 12061 00e8 00000000 		.long	.LBB351
 12062 00ec 00000000 		.long	.LBE351
 12063 00f0 00000000 		.long	.LBB359
 12064 00f4 00000000 		.long	.LBE359
 12065 00f8 00000000 		.long	.LBB360
 12066 00fc 0A000000 		.long	.LBE360
 12067 0100 14000000 		.long	.LBB361
 12068 0104 20000000 		.long	.LBE361
 12069 0108 00000000 		.long	0
 12070 010c 00000000 		.long	0
 12071 0110 66000000 		.long	.LBB364
 12072 0114 66000000 		.long	.LBE364
 12073 0118 66000000 		.long	.LBB373
 12074 011c 66000000 		.long	.LBE373
 12075 0120 69000000 		.long	.LBB374
 12076 0124 6F000000 		.long	.LBE374
 12077 0128 00000000 		.long	0
 12078 012c 00000000 		.long	0
 12079 0130 00000000 		.long	.LBB375
 12080 0134 00000000 		.long	.LBE375
 12081 0138 00000000 		.long	.LBB386
 12082 013c 00000000 		.long	.LBE386
 12083 0140 00000000 		.long	.LBB387
 12084 0144 0A000000 		.long	.LBE387
 12085 0148 13000000 		.long	.LBB388
 12086 014c 19000000 		.long	.LBE388
 12087 0150 2B000000 		.long	.LBB394
 12088 0154 35000000 		.long	.LBE394
 12089 0158 00000000 		.long	0
 12090 015c 00000000 		.long	0
 12091 0160 25000000 		.long	.LBB389
 12092 0164 2B000000 		.long	.LBE389
 12093 0168 35000000 		.long	.LBB395
 12094 016c 35000000 		.long	.LBE395
 12095 0170 35000000 		.long	.LBB396
 12096 0174 3D000000 		.long	.LBE396
 12097 0178 00000000 		.long	0
 12098 017c 00000000 		.long	0
 12099 0180 25000000 		.long	.LBB390
 12100 0184 2B000000 		.long	.LBE390
 12101 0188 35000000 		.long	.LBB393
 12102 018c 3D000000 		.long	.LBE393
 12103 0190 00000000 		.long	0
 12104 0194 00000000 		.long	0
 12105 0198 3D000000 		.long	.LBB397
 12106 019c 3D000000 		.long	.LBE397
 12107 01a0 3D000000 		.long	.LBB400
 12108 01a4 47000000 		.long	.LBE400
 12109 01a8 00000000 		.long	0
 12110 01ac 00000000 		.long	0
 12111 01b0 47000000 		.long	.LBB401
 12112 01b4 07010000 		.long	.LBE401
 12113 01b8 07010000 		.long	.LBB461
 12114 01bc 15010000 		.long	.LBE461
 12115 01c0 15010000 		.long	.LBB462
GAS LISTING /tmp/cccyco2T.s 			page 216


 12116 01c4 15010000 		.long	.LBE462
 12117 01c8 15010000 		.long	.LBB463
 12118 01cc 1B010000 		.long	.LBE463
 12119 01d0 1B010000 		.long	.LBB464
 12120 01d4 77010000 		.long	.LBE464
 12121 01d8 77010000 		.long	.LBB465
 12122 01dc 84010000 		.long	.LBE465
 12123 01e0 84010000 		.long	.LBB466
 12124 01e4 C4010000 		.long	.LBE466
 12125 01e8 C4010000 		.long	.LBB467
 12126 01ec CE010000 		.long	.LBE467
 12127 01f0 E0010000 		.long	.LBB468
 12128 01f4 E6010000 		.long	.LBE468
 12129 01f8 00000000 		.long	0
 12130 01fc 00000000 		.long	0
 12131 0200 47000000 		.long	.LBB402
 12132 0204 60000000 		.long	.LBE402
 12133 0208 70010000 		.long	.LBB456
 12134 020c 77010000 		.long	.LBE456
 12135 0210 77010000 		.long	.LBB457
 12136 0214 84010000 		.long	.LBE457
 12137 0218 84010000 		.long	.LBB458
 12138 021c C4010000 		.long	.LBE458
 12139 0220 C4010000 		.long	.LBB459
 12140 0224 CE010000 		.long	.LBE459
 12141 0228 00000000 		.long	0
 12142 022c 00000000 		.long	0
 12143 0230 77010000 		.long	.LBB403
 12144 0234 77010000 		.long	.LBE403
 12145 0238 77010000 		.long	.LBB418
 12146 023c 84010000 		.long	.LBE418
 12147 0240 84010000 		.long	.LBB419
 12148 0244 9C010000 		.long	.LBE419
 12149 0248 00000000 		.long	0
 12150 024c 00000000 		.long	0
 12151 0250 77010000 		.long	.LBB404
 12152 0254 77010000 		.long	.LBE404
 12153 0258 77010000 		.long	.LBB409
 12154 025c 7B010000 		.long	.LBE409
 12155 0260 80010000 		.long	.LBB415
 12156 0264 84010000 		.long	.LBE415
 12157 0268 00000000 		.long	0
 12158 026c 00000000 		.long	0
 12159 0270 7B010000 		.long	.LBB410
 12160 0274 80010000 		.long	.LBE410
 12161 0278 84010000 		.long	.LBB416
 12162 027c 84010000 		.long	.LBE416
 12163 0280 84010000 		.long	.LBB417
 12164 0284 89010000 		.long	.LBE417
 12165 0288 00000000 		.long	0
 12166 028c 00000000 		.long	0
 12167 0290 7B010000 		.long	.LBB411
 12168 0294 80010000 		.long	.LBE411
 12169 0298 84010000 		.long	.LBB414
 12170 029c 89010000 		.long	.LBE414
 12171 02a0 00000000 		.long	0
 12172 02a4 00000000 		.long	0
GAS LISTING /tmp/cccyco2T.s 			page 217


 12173 02a8 C4010000 		.long	.LBB420
 12174 02ac C4010000 		.long	.LBE420
 12175 02b0 C4010000 		.long	.LBB425
 12176 02b4 CE010000 		.long	.LBE425
 12177 02b8 00000000 		.long	0
 12178 02bc 00000000 		.long	0
 12179 02c0 60000000 		.long	.LBB426
 12180 02c4 62000000 		.long	.LBE426
 12181 02c8 68000000 		.long	.LBB429
 12182 02cc C5000000 		.long	.LBE429
 12183 02d0 00000000 		.long	0
 12184 02d4 00000000 		.long	0
 12185 02d8 07010000 		.long	.LBB432
 12186 02dc 07010000 		.long	.LBE432
 12187 02e0 07010000 		.long	.LBB445
 12188 02e4 07010000 		.long	.LBE445
 12189 02e8 07010000 		.long	.LBB446
 12190 02ec 0B010000 		.long	.LBE446
 12191 02f0 E0010000 		.long	.LBB460
 12192 02f4 E6010000 		.long	.LBE460
 12193 02f8 00000000 		.long	0
 12194 02fc 00000000 		.long	0
 12195 0300 15010000 		.long	.LBB447
 12196 0304 15010000 		.long	.LBE447
 12197 0308 15010000 		.long	.LBB452
 12198 030c 15010000 		.long	.LBE452
 12199 0310 15010000 		.long	.LBB453
 12200 0314 1B010000 		.long	.LBE453
 12201 0318 00000000 		.long	0
 12202 031c 00000000 		.long	0
 12203 0320 06000000 		.long	.LBB469
 12204 0324 06000000 		.long	.LBE469
 12205 0328 06000000 		.long	.LBB480
 12206 032c 06000000 		.long	.LBE480
 12207 0330 06000000 		.long	.LBB481
 12208 0334 06000000 		.long	.LBE481
 12209 0338 12000000 		.long	.LBB482
 12210 033c 14000000 		.long	.LBE482
 12211 0340 2C000000 		.long	.LBB483
 12212 0344 2F000000 		.long	.LBE483
 12213 0348 00000000 		.long	0
 12214 034c 00000000 		.long	0
 12215 0350 20000000 		.long	.LBB496
 12216 0354 37000000 		.long	.LBE496
 12217 0358 59000000 		.long	.LBB501
 12218 035c 5E000000 		.long	.LBE501
 12219 0360 00000000 		.long	0
 12220 0364 00000000 		.long	0
 12221 0368 00000000 		.long	.LBB502
 12222 036c 00000000 		.long	.LBE502
 12223 0370 00000000 		.long	.LBB510
 12224 0374 00000000 		.long	.LBE510
 12225 0378 00000000 		.long	.LBB511
 12226 037c 0A000000 		.long	.LBE511
 12227 0380 16000000 		.long	.LBB512
 12228 0384 22000000 		.long	.LBE512
 12229 0388 00000000 		.long	0
GAS LISTING /tmp/cccyco2T.s 			page 218


 12230 038c 00000000 		.long	0
 12231 0390 27000000 		.long	.LBB513
 12232 0394 27000000 		.long	.LBE513
 12233 0398 27000000 		.long	.LBB518
 12234 039c 2D000000 		.long	.LBE518
 12235 03a0 00000000 		.long	0
 12236 03a4 00000000 		.long	0
 12237 03a8 00000000 		.long	.LBB519
 12238 03ac 00000000 		.long	.LBE519
 12239 03b0 00000000 		.long	.LBB530
 12240 03b4 00000000 		.long	.LBE530
 12241 03b8 00000000 		.long	.LBB531
 12242 03bc 0B000000 		.long	.LBE531
 12243 03c0 17000000 		.long	.LBB536
 12244 03c4 1D000000 		.long	.LBE536
 12245 03c8 20000000 		.long	.LBB538
 12246 03cc 26000000 		.long	.LBE538
 12247 03d0 00000000 		.long	0
 12248 03d4 00000000 		.long	0
 12249 03d8 13000000 		.long	.LBB532
 12250 03dc 17000000 		.long	.LBE532
 12251 03e0 1D000000 		.long	.LBB537
 12252 03e4 20000000 		.long	.LBE537
 12253 03e8 26000000 		.long	.LBB539
 12254 03ec 59000000 		.long	.LBE539
 12255 03f0 00000000 		.long	0
 12256 03f4 00000000 		.long	0
 12257 03f8 59000000 		.long	.LBB540
 12258 03fc 59000000 		.long	.LBE540
 12259 0400 59000000 		.long	.LBB545
 12260 0404 5F000000 		.long	.LBE545
 12261 0408 00000000 		.long	0
 12262 040c 00000000 		.long	0
 12263 0410 00000000 		.long	.LBB546
 12264 0414 00000000 		.long	.LBE546
 12265 0418 00000000 		.long	.LBB557
 12266 041c 00000000 		.long	.LBE557
 12267 0420 00000000 		.long	.LBB558
 12268 0424 0A000000 		.long	.LBE558
 12269 0428 15000000 		.long	.LBB559
 12270 042c 1B000000 		.long	.LBE559
 12271 0430 1E000000 		.long	.LBB560
 12272 0434 24000000 		.long	.LBE560
 12273 0438 00000000 		.long	0
 12274 043c 00000000 		.long	0
 12275 0440 3A000000 		.long	.LBB561
 12276 0444 3A000000 		.long	.LBE561
 12277 0448 3D000000 		.long	.LBB565
 12278 044c 40000000 		.long	.LBE565
 12279 0450 43000000 		.long	.LBB566
 12280 0454 76000000 		.long	.LBE566
 12281 0458 00000000 		.long	0
 12282 045c 00000000 		.long	0
 12283 0460 76000000 		.long	.LBB567
 12284 0464 76000000 		.long	.LBE567
 12285 0468 76000000 		.long	.LBB572
 12286 046c 7C000000 		.long	.LBE572
GAS LISTING /tmp/cccyco2T.s 			page 219


 12287 0470 00000000 		.long	0
 12288 0474 00000000 		.long	0
 12289 0478 A8000000 		.long	.LBB573
 12290 047c A8000000 		.long	.LBE573
 12291 0480 A8000000 		.long	.LBB578
 12292 0484 AE000000 		.long	.LBE578
 12293 0488 00000000 		.long	0
 12294 048c 00000000 		.long	0
 12295 0490 00000000 		.long	.LBB579
 12296 0494 00000000 		.long	.LBE579
 12297 0498 00000000 		.long	.LBB590
 12298 049c 00000000 		.long	.LBE590
 12299 04a0 00000000 		.long	.LBB591
 12300 04a4 0A000000 		.long	.LBE591
 12301 04a8 13000000 		.long	.LBB592
 12302 04ac 19000000 		.long	.LBE592
 12303 04b0 2B000000 		.long	.LBB598
 12304 04b4 35000000 		.long	.LBE598
 12305 04b8 00000000 		.long	0
 12306 04bc 00000000 		.long	0
 12307 04c0 25000000 		.long	.LBB593
 12308 04c4 2B000000 		.long	.LBE593
 12309 04c8 35000000 		.long	.LBB599
 12310 04cc 35000000 		.long	.LBE599
 12311 04d0 35000000 		.long	.LBB600
 12312 04d4 3D000000 		.long	.LBE600
 12313 04d8 00000000 		.long	0
 12314 04dc 00000000 		.long	0
 12315 04e0 25000000 		.long	.LBB594
 12316 04e4 2B000000 		.long	.LBE594
 12317 04e8 35000000 		.long	.LBB597
 12318 04ec 3D000000 		.long	.LBE597
 12319 04f0 00000000 		.long	0
 12320 04f4 00000000 		.long	0
 12321 04f8 3D000000 		.long	.LBB601
 12322 04fc 3D000000 		.long	.LBE601
 12323 0500 3D000000 		.long	.LBB604
 12324 0504 47000000 		.long	.LBE604
 12325 0508 00000000 		.long	0
 12326 050c 00000000 		.long	0
 12327 0510 47000000 		.long	.LBB605
 12328 0514 0E010000 		.long	.LBE605
 12329 0518 0E010000 		.long	.LBB669
 12330 051c 1C010000 		.long	.LBE669
 12331 0520 1C010000 		.long	.LBB670
 12332 0524 1C010000 		.long	.LBE670
 12333 0528 1C010000 		.long	.LBB671
 12334 052c 22010000 		.long	.LBE671
 12335 0530 22010000 		.long	.LBB672
 12336 0534 77010000 		.long	.LBE672
 12337 0538 77010000 		.long	.LBB673
 12338 053c 84010000 		.long	.LBE673
 12339 0540 84010000 		.long	.LBB674
 12340 0544 BC010000 		.long	.LBE674
 12341 0548 BC010000 		.long	.LBB675
 12342 054c C6010000 		.long	.LBE675
 12343 0550 D0010000 		.long	.LBB676
GAS LISTING /tmp/cccyco2T.s 			page 220


 12344 0554 D6010000 		.long	.LBE676
 12345 0558 00000000 		.long	0
 12346 055c 00000000 		.long	0
 12347 0560 47000000 		.long	.LBB606
 12348 0564 60000000 		.long	.LBE606
 12349 0568 70010000 		.long	.LBB664
 12350 056c 77010000 		.long	.LBE664
 12351 0570 77010000 		.long	.LBB665
 12352 0574 84010000 		.long	.LBE665
 12353 0578 84010000 		.long	.LBB666
 12354 057c BC010000 		.long	.LBE666
 12355 0580 BC010000 		.long	.LBB667
 12356 0584 C6010000 		.long	.LBE667
 12357 0588 00000000 		.long	0
 12358 058c 00000000 		.long	0
 12359 0590 77010000 		.long	.LBB607
 12360 0594 77010000 		.long	.LBE607
 12361 0598 77010000 		.long	.LBB622
 12362 059c 84010000 		.long	.LBE622
 12363 05a0 84010000 		.long	.LBB623
 12364 05a4 9C010000 		.long	.LBE623
 12365 05a8 00000000 		.long	0
 12366 05ac 00000000 		.long	0
 12367 05b0 77010000 		.long	.LBB608
 12368 05b4 77010000 		.long	.LBE608
 12369 05b8 77010000 		.long	.LBB613
 12370 05bc 7B010000 		.long	.LBE613
 12371 05c0 80010000 		.long	.LBB619
 12372 05c4 84010000 		.long	.LBE619
 12373 05c8 00000000 		.long	0
 12374 05cc 00000000 		.long	0
 12375 05d0 7B010000 		.long	.LBB614
 12376 05d4 80010000 		.long	.LBE614
 12377 05d8 84010000 		.long	.LBB620
 12378 05dc 84010000 		.long	.LBE620
 12379 05e0 84010000 		.long	.LBB621
 12380 05e4 89010000 		.long	.LBE621
 12381 05e8 00000000 		.long	0
 12382 05ec 00000000 		.long	0
 12383 05f0 7B010000 		.long	.LBB615
 12384 05f4 80010000 		.long	.LBE615
 12385 05f8 84010000 		.long	.LBB618
 12386 05fc 89010000 		.long	.LBE618
 12387 0600 00000000 		.long	0
 12388 0604 00000000 		.long	0
 12389 0608 BC010000 		.long	.LBB624
 12390 060c BC010000 		.long	.LBE624
 12391 0610 BC010000 		.long	.LBB629
 12392 0614 C6010000 		.long	.LBE629
 12393 0618 00000000 		.long	0
 12394 061c 00000000 		.long	0
 12395 0620 60000000 		.long	.LBB630
 12396 0624 62000000 		.long	.LBE630
 12397 0628 68000000 		.long	.LBB633
 12398 062c C4000000 		.long	.LBE633
 12399 0630 00000000 		.long	0
 12400 0634 00000000 		.long	0
GAS LISTING /tmp/cccyco2T.s 			page 221


 12401 0638 D2000000 		.long	.LBB634
 12402 063c D2000000 		.long	.LBE634
 12403 0640 D5000000 		.long	.LBB638
 12404 0644 D8000000 		.long	.LBE638
 12405 0648 DB000000 		.long	.LBB639
 12406 064c 0E010000 		.long	.LBE639
 12407 0650 00000000 		.long	0
 12408 0654 00000000 		.long	0
 12409 0658 0E010000 		.long	.LBB640
 12410 065c 0E010000 		.long	.LBE640
 12411 0660 0E010000 		.long	.LBB653
 12412 0664 0E010000 		.long	.LBE653
 12413 0668 0E010000 		.long	.LBB654
 12414 066c 12010000 		.long	.LBE654
 12415 0670 D0010000 		.long	.LBB668
 12416 0674 D6010000 		.long	.LBE668
 12417 0678 00000000 		.long	0
 12418 067c 00000000 		.long	0
 12419 0680 1C010000 		.long	.LBB655
 12420 0684 1C010000 		.long	.LBE655
 12421 0688 1C010000 		.long	.LBB660
 12422 068c 1C010000 		.long	.LBE660
 12423 0690 1C010000 		.long	.LBB661
 12424 0694 22010000 		.long	.LBE661
 12425 0698 00000000 		.long	0
 12426 069c 00000000 		.long	0
 12427 06a0 00000000 		.long	.LBB678
 12428 06a4 00000000 		.long	.LBE678
 12429 06a8 00000000 		.long	.LBB689
 12430 06ac 00000000 		.long	.LBE689
 12431 06b0 00000000 		.long	.LBB690
 12432 06b4 0A000000 		.long	.LBE690
 12433 06b8 12000000 		.long	.LBB691
 12434 06bc 18000000 		.long	.LBE691
 12435 06c0 1B000000 		.long	.LBB692
 12436 06c4 21000000 		.long	.LBE692
 12437 06c8 00000000 		.long	0
 12438 06cc 00000000 		.long	0
 12439 06d0 25000000 		.long	.LBB693
 12440 06d4 5C000000 		.long	.LBE693
 12441 06d8 70000000 		.long	.LBB704
 12442 06dc 78000000 		.long	.LBE704
 12443 06e0 00000000 		.long	0
 12444 06e4 00000000 		.long	0
 12445 06e8 2F000000 		.long	.LBB694
 12446 06ec 5C000000 		.long	.LBE694
 12447 06f0 70000000 		.long	.LBB697
 12448 06f4 78000000 		.long	.LBE697
 12449 06f8 00000000 		.long	0
 12450 06fc 00000000 		.long	0
 12451 0700 5C000000 		.long	.LBB698
 12452 0704 5C000000 		.long	.LBE698
 12453 0708 5C000000 		.long	.LBB703
 12454 070c 62000000 		.long	.LBE703
 12455 0710 00000000 		.long	0
 12456 0714 00000000 		.long	0
 12457 0718 00000000 		.long	.LFB233
GAS LISTING /tmp/cccyco2T.s 			page 222


 12458 071c 60000000 		.long	.LFE233
 12459 0720 00000000 		.long	.LFB234
 12460 0724 3E000000 		.long	.LFE234
 12461 0728 00000000 		.long	.LFB235
 12462 072c 1A000000 		.long	.LFE235
 12463 0730 00000000 		.long	.LFB236
 12464 0734 46000000 		.long	.LFE236
 12465 0738 00000000 		.long	.LFB238
 12466 073c 61000000 		.long	.LFE238
 12467 0740 00000000 		.long	.LFB237
 12468 0744 32000000 		.long	.LFE237
 12469 0748 00000000 		.long	.LFB239
 12470 074c 5E000000 		.long	.LFE239
 12471 0750 00000000 		.long	.LFB240
 12472 0754 39000000 		.long	.LFE240
 12473 0758 00000000 		.long	.LFB241
 12474 075c 93000000 		.long	.LFE241
 12475 0760 00000000 		.long	.LFB242
 12476 0764 F0010000 		.long	.LFE242
 12477 0768 00000000 		.long	.LFB243
 12478 076c 5C000000 		.long	.LFE243
 12479 0770 00000000 		.long	.LFB244
 12480 0774 3D000000 		.long	.LFE244
 12481 0778 00000000 		.long	.LFB245
 12482 077c 2A000000 		.long	.LFE245
 12483 0780 00000000 		.long	.LFB246
 12484 0784 40000000 		.long	.LFE246
 12485 0788 00000000 		.long	.LFB248
 12486 078c 61000000 		.long	.LFE248
 12487 0790 00000000 		.long	.LFB247
 12488 0794 32000000 		.long	.LFE247
 12489 0798 00000000 		.long	.LFB249
 12490 079c 64000000 		.long	.LFE249
 12491 07a0 00000000 		.long	.LFB250
 12492 07a4 41000000 		.long	.LFE250
 12493 07a8 00000000 		.long	.LFB251
 12494 07ac B0000000 		.long	.LFE251
 12495 07b0 00000000 		.long	.LFB252
 12496 07b4 E0010000 		.long	.LFE252
 12497 07b8 00000000 		.long	.LFB253
 12498 07bc 57000000 		.long	.LFE253
 12499 07c0 00000000 		.long	.LFB254
 12500 07c4 78000000 		.long	.LFE254
 12501 07c8 00000000 		.long	0
 12502 07cc 00000000 		.long	0
 12503              		.section	.debug_line,"",@progbits
 12504              	.Ldebug_line0:
 12505 0000 7E160000 		.section	.debug_str,"MS",@progbits,1
 12505      0300B303 
 12505      00000101 
 12505      FB0E0D00 
 12505      01010101 
 12506              	.LASF108:
 12507 0000 6F66665F 		.string	"off_ctx"
 12507      63747800 
 12508              	.LASF10:
 12509 0008 73697A65 		.string	"size_t"
GAS LISTING /tmp/cccyco2T.s 			page 223


 12509      5F7400
 12510              	.LASF107:
 12511 000f 6F66665F 		.string	"off_prio"
 12511      7072696F 
 12511      00
 12512              	.LASF130:
 12513 0018 656E646D 		.string	"endmem"
 12513      656D00
 12514              	.LASF298:
 12515 001f 63685468 		.string	"chThdQueueObjectInit"
 12515      64517565 
 12515      75654F62 
 12515      6A656374 
 12515      496E6974 
 12516              	.LASF93:
 12517 0034 77747365 		.string	"wtsemp"
 12517      6D7000
 12518              	.LASF78:
 12519 003b 73797374 		.string	"systime_t"
 12519      696D655F 
 12519      7400
 12520              	.LASF116:
 12521 0045 6F66665F 		.string	"off_preempt"
 12521      70726565 
 12521      6D707400 
 12522              	.LASF98:
 12523 0051 6F776E65 		.string	"owner"
 12523      7200
 12524              	.LASF29:
 12525 0057 74707269 		.string	"tprio_t"
 12525      6F5F7400 
 12526              	.LASF119:
 12527 005f 63685F64 		.string	"ch_debug"
 12527      65627567 
 12527      00
 12528              	.LASF136:
 12529 0068 70726F76 		.string	"provider"
 12529      69646572 
 12529      00
 12530              	.LASF196:
 12531 0071 5F494F5F 		.string	"_IO_codecvt"
 12531      636F6465 
 12531      63767400 
 12532              	.LASF20:
 12533 007d 696E7433 		.string	"int32_t"
 12533      325F7400 
 12534              	.LASF255:
 12535 0085 77726974 		.string	"writet"
 12535      657400
 12536              	.LASF312:
 12537 008c 63685468 		.string	"chThdDequeueAllI"
 12537      64446571 
 12537      75657565 
 12537      416C6C49 
 12537      00
 12538              	.LASF62:
 12539 009d 76746675 		.string	"vtfunc_t"
GAS LISTING /tmp/cccyco2T.s 			page 224


 12539      6E635F74 
 12539      00
 12540              	.LASF176:
 12541 00a6 5F494F5F 		.string	"_IO_save_end"
 12541      73617665 
 12541      5F656E64 
 12541      00
 12542              	.LASF158:
 12543 00b3 696E3661 		.string	"in6addr_loopback"
 12543      6464725F 
 12543      6C6F6F70 
 12543      6261636B 
 12543      00
 12544              	.LASF68:
 12545 00c4 63685F76 		.string	"ch_virtual_timers_list"
 12545      69727475 
 12545      616C5F74 
 12545      696D6572 
 12545      735F6C69 
 12546              	.LASF246:
 12547 00db 636F6D5F 		.string	"com_listen"
 12547      6C697374 
 12547      656E00
 12548              	.LASF264:
 12549 00e6 5F5F6675 		.string	"__func__"
 12549      6E635F5F 
 12549      00
 12550              	.LASF251:
 12551 00ef 77726974 		.string	"write"
 12551      6500
 12552              	.LASF138:
 12553 00f5 63685F64 		.string	"ch_dyn_element"
 12553      796E5F65 
 12553      6C656D65 
 12553      6E7400
 12554              	.LASF169:
 12555 0104 5F494F5F 		.string	"_IO_write_base"
 12555      77726974 
 12555      655F6261 
 12555      736500
 12556              	.LASF270:
 12557 0113 73697A65 		.string	"sizep"
 12557      7000
 12558              	.LASF42:
 12559 0119 73746174 		.string	"state"
 12559      6500
 12560              	.LASF185:
 12561 011f 5F6C6F63 		.string	"_lock"
 12561      6B00
 12562              	.LASF253:
 12563 0125 70757474 		.string	"putt"
 12563      00
 12564              	.LASF174:
 12565 012a 5F494F5F 		.string	"_IO_save_base"
 12565      73617665 
 12565      5F626173 
 12565      6500
GAS LISTING /tmp/cccyco2T.s 			page 225


 12566              	.LASF143:
 12567 0138 6F626A5F 		.string	"obj_list"
 12567      6C697374 
 12567      00
 12568              	.LASF291:
 12569 0141 6F73616C 		.string	"osalThreadEnqueueTimeoutS"
 12569      54687265 
 12569      6164456E 
 12569      71756575 
 12569      6554696D 
 12570              	.LASF110:
 12571 015b 6F66665F 		.string	"off_older"
 12571      6F6C6465 
 12571      7200
 12572              	.LASF178:
 12573 0165 5F636861 		.string	"_chain"
 12573      696E00
 12574              	.LASF37:
 12575 016c 7072696F 		.string	"prio"
 12575      00
 12576              	.LASF296:
 12577 0171 6F73616C 		.string	"osalSysUnlock"
 12577      53797355 
 12577      6E6C6F63 
 12577      6B00
 12578              	.LASF182:
 12579 017f 5F637572 		.string	"_cur_column"
 12579      5F636F6C 
 12579      756D6E00 
 12580              	.LASF201:
 12581 018b 7379735F 		.string	"sys_nerr"
 12581      6E657272 
 12581      00
 12582              	.LASF89:
 12583 0194 65786974 		.string	"exitcode"
 12583      636F6465 
 12583      00
 12584              	.LASF11:
 12585 019d 5F5F7569 		.string	"__uint8_t"
 12585      6E74385F 
 12585      7400
 12586              	.LASF222:
 12587 01a7 715F746F 		.string	"q_top"
 12587      7000
 12588              	.LASF69:
 12589 01ad 73797374 		.string	"systime"
 12589      696D6500 
 12590              	.LASF256:
 12591 01b5 72656164 		.string	"readt"
 12591      7400
 12592              	.LASF221:
 12593 01bb 715F6275 		.string	"q_buffer"
 12593      66666572 
 12593      00
 12594              	.LASF294:
 12595 01c4 6F73616C 		.string	"osalTimeAddX"
 12595      54696D65 
GAS LISTING /tmp/cccyco2T.s 			page 226


 12595      41646458 
 12595      00
 12596              	.LASF225:
 12597 01d1 715F6E6F 		.string	"q_notify"
 12597      74696679 
 12597      00
 12598              	.LASF159:
 12599 01da 5F5F656E 		.string	"__environ"
 12599      7669726F 
 12599      6E00
 12600              	.LASF194:
 12601 01e4 46494C45 		.string	"FILE"
 12601      00
 12602              	.LASF3:
 12603 01e9 6C6F6E67 		.string	"long int"
 12603      20696E74 
 12603      00
 12604              	.LASF248:
 12605 01f2 636F6D5F 		.string	"com_name"
 12605      6E616D65 
 12605      00
 12606              	.LASF304:
 12607 01fb 706F7274 		.string	"port_unlock"
 12607      5F756E6C 
 12607      6F636B00 
 12608              	.LASF224:
 12609 0207 715F7264 		.string	"q_rdptr"
 12609      70747200 
 12610              	.LASF307:
 12611 020f 63685469 		.string	"chTimeAddX"
 12611      6D654164 
 12611      645800
 12612              	.LASF313:
 12613 021a 63685468 		.string	"chThdEnqueueTimeoutS"
 12613      64456E71 
 12613      75657565 
 12613      54696D65 
 12613      6F757453 
 12614              	.LASF101:
 12615 022f 7A65726F 		.string	"zero"
 12615      00
 12616              	.LASF195:
 12617 0234 5F494F5F 		.string	"_IO_marker"
 12617      6D61726B 
 12617      657200
 12618              	.LASF27:
 12619 023f 74737461 		.string	"tstate_t"
 12619      74655F74 
 12619      00
 12620              	.LASF47:
 12621 0248 6570656E 		.string	"epending"
 12621      64696E67 
 12621      00
 12622              	.LASF56:
 12623 0251 74687265 		.string	"threads_queue_t"
 12623      6164735F 
 12623      71756575 
GAS LISTING /tmp/cccyco2T.s 			page 227


 12623      655F7400 
 12624              	.LASF245:
 12625 0261 6F717565 		.string	"oqueue"
 12625      756500
 12626              	.LASF232:
 12627 0268 56503144 		.string	"VP1Data"
 12627      61746100 
 12628              	.LASF144:
 12629 0270 6F626A5F 		.string	"obj_pool"
 12629      706F6F6C 
 12629      00
 12630              	.LASF266:
 12631 0279 6F627150 		.string	"obqPostFullBuffer"
 12631      6F737446 
 12631      756C6C42 
 12631      75666665 
 12631      7200
 12632              	.LASF297:
 12633 028b 6F73616C 		.string	"osalSysLock"
 12633      5379734C 
 12633      6F636B00 
 12634              	.LASF237:
 12635 0297 70616C5F 		.string	"pal_default_config"
 12635      64656661 
 12635      756C745F 
 12635      636F6E66 
 12635      696700
 12636              	.LASF131:
 12637 02aa 6D656D63 		.string	"memcore_t"
 12637      6F72655F 
 12637      7400
 12638              	.LASF218:
 12639 02b4 696F5F71 		.string	"io_queue"
 12639      75657565 
 12639      00
 12640              	.LASF9:
 12641 02bd 7369676E 		.string	"signed char"
 12641      65642063 
 12641      68617200 
 12642              	.LASF95:
 12643 02c9 65776D61 		.string	"ewmask"
 12643      736B00
 12644              	.LASF21:
 12645 02d0 75696E74 		.string	"uint8_t"
 12645      385F7400 
 12646              	.LASF164:
 12647 02d8 5F494F5F 		.string	"_IO_FILE"
 12647      46494C45 
 12647      00
 12648              	.LASF197:
 12649 02e1 5F494F5F 		.string	"_IO_wide_data"
 12649      77696465 
 12649      5F646174 
 12649      6100
 12650              	.LASF31:
 12651 02ef 6576656E 		.string	"eventmask_t"
 12651      746D6173 
GAS LISTING /tmp/cccyco2T.s 			page 228


 12651      6B5F7400 
 12652              	.LASF91:
 12653 02fb 77747472 		.string	"wttrp"
 12653      7000
 12654              	.LASF7:
 12655 0301 756E7369 		.string	"unsigned char"
 12655      676E6564 
 12655      20636861 
 12655      7200
 12656              	.LASF226:
 12657 030f 715F6C69 		.string	"q_link"
 12657      6E6B00
 12658              	.LASF189:
 12659 0316 5F667265 		.string	"_freeres_list"
 12659      65726573 
 12659      5F6C6973 
 12659      7400
 12660              	.LASF72:
 12661 0324 70616E69 		.string	"panic_msg"
 12661      635F6D73 
 12661      6700
 12662              	.LASF306:
 12663 032e 63685469 		.string	"chTimeDiffX"
 12663      6D654469 
 12663      66665800 
 12664              	.LASF25:
 12665 033a 73797373 		.string	"syssts_t"
 12665      74735F74 
 12665      00
 12666              	.LASF70:
 12667 0343 73797374 		.string	"system_debug_t"
 12667      656D5F64 
 12667      65627567 
 12667      5F7400
 12668              	.LASF238:
 12669 0352 53445F55 		.string	"SD_UNINIT"
 12669      4E494E49 
 12669      5400
 12670              	.LASF83:
 12671 035c 5F426F6F 		.string	"_Bool"
 12671      6C00
 12672              	.LASF2:
 12673 0362 63686172 		.string	"char"
 12673      00
 12674              	.LASF146:
 12675 0367 73656D5F 		.string	"sem_list"
 12675      6C697374 
 12675      00
 12676              	.LASF318:
 12677 0370 5F494F5F 		.string	"_IO_lock_t"
 12677      6C6F636B 
 12677      5F7400
 12678              	.LASF13:
 12679 037b 5F5F7569 		.string	"__uint16_t"
 12679      6E743136 
 12679      5F7400
 12680              	.LASF254:
GAS LISTING /tmp/cccyco2T.s 			page 229


 12681 0386 67657474 		.string	"gett"
 12681      00
 12682              	.LASF90:
 12683 038b 77746F62 		.string	"wtobjp"
 12683      6A7000
 12684              	.LASF85:
 12685 0392 706F7274 		.string	"port_irq_sts"
 12685      5F697271 
 12685      5F737473 
 12685      00
 12686              	.LASF320:
 12687 039f 5F5F6275 		.string	"__builtin_memcpy"
 12687      696C7469 
 12687      6E5F6D65 
 12687      6D637079 
 12687      00
 12688              	.LASF115:
 12689 03b0 6F66665F 		.string	"off_refs"
 12689      72656673 
 12689      00
 12690              	.LASF43:
 12691 03b9 666C6167 		.string	"flags"
 12691      7300
 12692              	.LASF274:
 12693 03bf 69627152 		.string	"ibqReadTimeout"
 12693      65616454 
 12693      696D656F 
 12693      757400
 12694              	.LASF166:
 12695 03ce 5F494F5F 		.string	"_IO_read_ptr"
 12695      72656164 
 12695      5F707472 
 12695      00
 12696              	.LASF317:
 12697 03db 73746B61 		.string	"stkalign_t"
 12697      6C69676E 
 12697      5F7400
 12698              	.LASF198:
 12699 03e6 73746469 		.string	"stdin"
 12699      6E00
 12700              	.LASF50:
 12701 03ec 6D706F6F 		.string	"mpool"
 12701      6C00
 12702              	.LASF247:
 12703 03f2 636F6D5F 		.string	"com_data"
 12703      64617461 
 12703      00
 12704              	.LASF202:
 12705 03fb 7379735F 		.string	"sys_errlist"
 12705      6572726C 
 12705      69737400 
 12706              	.LASF121:
 12707 0407 6576656E 		.string	"event_listener_t"
 12707      745F6C69 
 12707      7374656E 
 12707      65725F74 
 12707      00
GAS LISTING /tmp/cccyco2T.s 			page 230


 12708              	.LASF104:
 12709 0418 70747273 		.string	"ptrsize"
 12709      697A6500 
 12710              	.LASF177:
 12711 0420 5F6D6172 		.string	"_markers"
 12711      6B657273 
 12711      00
 12712              	.LASF278:
 12713 0429 69627152 		.string	"ibqReleaseEmptyBufferS"
 12713      656C6561 
 12713      7365456D 
 12713      70747942 
 12713      75666665 
 12714              	.LASF157:
 12715 0440 696E3661 		.string	"in6addr_any"
 12715      6464725F 
 12715      616E7900 
 12716              	.LASF117:
 12717 044c 6F66665F 		.string	"off_time"
 12717      74696D65 
 12717      00
 12718              	.LASF33:
 12719 0455 636E745F 		.string	"cnt_t"
 12719      7400
 12720              	.LASF208:
 12721 045b 62726470 		.string	"brdptr"
 12721      747200
 12722              	.LASF280:
 12723 0462 6F627147 		.string	"obqGetEmptyBufferTimeoutS"
 12723      6574456D 
 12723      70747942 
 12723      75666665 
 12723      7254696D 
 12724              	.LASF288:
 12725 047c 6F73616C 		.string	"osalThreadDequeueAllI"
 12725      54687265 
 12725      61644465 
 12725      71756575 
 12725      65416C6C 
 12726              	.LASF94:
 12727 0492 77746D74 		.string	"wtmtxp"
 12727      787000
 12728              	.LASF235:
 12729 0499 76696F5F 		.string	"vio_port_1"
 12729      706F7274 
 12729      5F3100
 12730              	.LASF236:
 12731 04a4 76696F5F 		.string	"vio_port_2"
 12731      706F7274 
 12731      5F3200
 12732              	.LASF60:
 12733 04af 63685F72 		.string	"ch_ready_list"
 12733      65616479 
 12733      5F6C6973 
 12733      7400
 12734              	.LASF147:
 12735 04bd 73656D5F 		.string	"sem_pool"
GAS LISTING /tmp/cccyco2T.s 			page 231


 12735      706F6F6C 
 12735      00
 12736              	.LASF186:
 12737 04c6 5F6F6666 		.string	"_offset"
 12737      73657400 
 12738              	.LASF233:
 12739 04ce 56503244 		.string	"VP2Data"
 12739      61746100 
 12740              	.LASF129:
 12741 04d6 6E657874 		.string	"nextmem"
 12741      6D656D00 
 12742              	.LASF161:
 12743 04de 6F707469 		.string	"optind"
 12743      6E6400
 12744              	.LASF113:
 12745 04e5 6F66665F 		.string	"off_state"
 12745      73746174 
 12745      6500
 12746              	.LASF301:
 12747 04ef 63685379 		.string	"chSysUnlock"
 12747      73556E6C 
 12747      6F636B00 
 12748              	.LASF8:
 12749 04fb 6C6F6E67 		.string	"long unsigned int"
 12749      20756E73 
 12749      69676E65 
 12749      6420696E 
 12749      7400
 12750              	.LASF106:
 12751 050d 74687265 		.string	"threadsize"
 12751      61647369 
 12751      7A6500
 12752              	.LASF302:
 12753 0518 63685379 		.string	"chSysLock"
 12753      734C6F63 
 12753      6B00
 12754              	.LASF180:
 12755 0522 5F666C61 		.string	"_flags2"
 12755      67733200 
 12756              	.LASF96:
 12757 052a 63685F73 		.string	"ch_semaphore"
 12757      656D6170 
 12757      686F7265 
 12757      00
 12758              	.LASF53:
 12759 0537 63685F74 		.string	"ch_thread"
 12759      68726561 
 12759      6400
 12760              	.LASF168:
 12761 0541 5F494F5F 		.string	"_IO_read_base"
 12761      72656164 
 12761      5F626173 
 12761      6500
 12762              	.LASF67:
 12763 054f 76697274 		.string	"virtual_timers_list_t"
 12763      75616C5F 
 12763      74696D65 
GAS LISTING /tmp/cccyco2T.s 			page 232


 12763      72735F6C 
 12763      6973745F 
 12764              	.LASF99:
 12765 0565 63685F69 		.string	"ch_idle_thread_wa"
 12765      646C655F 
 12765      74687265 
 12765      61645F77 
 12765      6100
 12766              	.LASF213:
 12767 0577 6C696E6B 		.string	"link"
 12767      00
 12768              	.LASF193:
 12769 057c 5F756E75 		.string	"_unused2"
 12769      73656432 
 12769      00
 12770              	.LASF17:
 12771 0585 5F5F7175 		.string	"__quad_t"
 12771      61645F74 
 12771      00
 12772              	.LASF149:
 12773 058e 6669666F 		.string	"fifo_list"
 12773      5F6C6973 
 12773      7400
 12774              	.LASF63:
 12775 0598 76697274 		.string	"virtual_timer_t"
 12775      75616C5F 
 12775      74696D65 
 12775      725F7400 
 12776              	.LASF59:
 12777 05a8 72656164 		.string	"ready_list_t"
 12777      795F6C69 
 12777      73745F74 
 12777      00
 12778              	.LASF39:
 12779 05b5 6F6C6465 		.string	"older"
 12779      7200
 12780              	.LASF249:
 12781 05bb 53657269 		.string	"SerialDriverVMT"
 12781      616C4472 
 12781      69766572 
 12781      564D5400 
 12782              	.LASF49:
 12783 05cb 7265616C 		.string	"realprio"
 12783      7072696F 
 12783      00
 12784              	.LASF34:
 12785 05d4 75636E74 		.string	"ucnt_t"
 12785      5F7400
 12786              	.LASF268:
 12787 05db 6F627152 		.string	"obqReleaseEmptyBufferI"
 12787      656C6561 
 12787      7365456D 
 12787      70747942 
 12787      75666665 
 12788              	.LASF112:
 12789 05f2 6F66665F 		.string	"off_stklimit"
 12789      73746B6C 
GAS LISTING /tmp/cccyco2T.s 			page 233


 12789      696D6974 
 12789      00
 12790              	.LASF261:
 12791 05ff 64656164 		.string	"deadline"
 12791      6C696E65 
 12791      00
 12792              	.LASF133:
 12793 0608 706F6F6C 		.string	"pool_header"
 12793      5F686561 
 12793      64657200 
 12794              	.LASF54:
 12795 0614 63685F74 		.string	"ch_threads_list"
 12795      68726561 
 12795      64735F6C 
 12795      69737400 
 12796              	.LASF282:
 12797 0624 69627147 		.string	"ibqGetFullBufferTimeout"
 12797      65744675 
 12797      6C6C4275 
 12797      66666572 
 12797      54696D65 
 12798              	.LASF211:
 12799 063c 62756666 		.string	"buffers"
 12799      65727300 
 12800              	.LASF15:
 12801 0644 5F5F7569 		.string	"__uint32_t"
 12801      6E743332 
 12801      5F7400
 12802              	.LASF152:
 12803 064f 5F5F7536 		.string	"__u6_addr8"
 12803      5F616464 
 12803      723800
 12804              	.LASF48:
 12805 065a 6D74786C 		.string	"mtxlist"
 12805      69737400 
 12806              	.LASF4:
 12807 0662 6C6F6E67 		.string	"long long int"
 12807      206C6F6E 
 12807      6720696E 
 12807      7400
 12808              	.LASF262:
 12809 0670 6E657874 		.string	"next_timeout"
 12809      5F74696D 
 12809      656F7574 
 12809      00
 12810              	.LASF79:
 12811 067d 73797369 		.string	"sysinterval_t"
 12811      6E746572 
 12811      76616C5F 
 12811      7400
 12812              	.LASF142:
 12813 068b 63685F6F 		.string	"ch_objects_factory"
 12813      626A6563 
 12813      74735F66 
 12813      6163746F 
 12813      727900
 12814              	.LASF230:
GAS LISTING /tmp/cccyco2T.s 			page 234


 12815 069e 6C617463 		.string	"latch"
 12815      6800
 12816              	.LASF319:
 12817 06a4 6D656D63 		.string	"memcpy"
 12817      707900
 12818              	.LASF277:
 12819 06ab 6F627150 		.string	"obqPostFullBufferS"
 12819      6F737446 
 12819      756C6C42 
 12819      75666665 
 12819      725300
 12820              	.LASF289:
 12821 06be 6F73616C 		.string	"osalThreadDequeueNextI"
 12821      54687265 
 12821      61644465 
 12821      71756575 
 12821      654E6578 
 12822              	.LASF171:
 12823 06d5 5F494F5F 		.string	"_IO_write_end"
 12823      77726974 
 12823      655F656E 
 12823      6400
 12824              	.LASF127:
 12825 06e3 6576656E 		.string	"event_source_t"
 12825      745F736F 
 12825      75726365 
 12825      5F7400
 12826              	.LASF314:
 12827 06f2 474E5520 		.string	"GNU C17 8.3.0 -m32 -mtune=generic -march=i686 -ggdb -O2 -ffunction-sections -fdata-sectio
 12827      43313720 
 12827      382E332E 
 12827      30202D6D 
 12827      3332202D 
 12828              	.LASF135:
 12829 0773 616C6967 		.string	"align"
 12829      6E00
 12830              	.LASF260:
 12831 0779 74696D65 		.string	"timeout"
 12831      6F757400 
 12832              	.LASF311:
 12833 0781 63685468 		.string	"chThdDequeueNextI"
 12833      64446571 
 12833      75657565 
 12833      4E657874 
 12833      4900
 12834              	.LASF227:
 12835 0793 716E6F74 		.string	"qnotify_t"
 12835      6966795F 
 12835      7400
 12836              	.LASF269:
 12837 079d 6F627147 		.string	"obqGetFullBufferI"
 12837      65744675 
 12837      6C6C4275 
 12837      66666572 
 12837      4900
 12838              	.LASF243:
 12839 07af 6576656E 		.string	"event"
GAS LISTING /tmp/cccyco2T.s 			page 235


 12839      7400
 12840              	.LASF252:
 12841 07b5 72656164 		.string	"read"
 12841      00
 12842              	.LASF172:
 12843 07ba 5F494F5F 		.string	"_IO_buf_base"
 12843      6275665F 
 12843      62617365 
 12843      00
 12844              	.LASF109:
 12845 07c7 6F66665F 		.string	"off_newer"
 12845      6E657765 
 12845      7200
 12846              	.LASF0:
 12847 07d1 756E7369 		.string	"unsigned int"
 12847      676E6564 
 12847      20696E74 
 12847      00
 12848              	.LASF215:
 12849 07de 696E7075 		.string	"input_buffers_queue_t"
 12849      745F6275 
 12849      66666572 
 12849      735F7175 
 12849      6575655F 
 12850              	.LASF24:
 12851 07f4 7274636E 		.string	"rtcnt_t"
 12851      745F7400 
 12852              	.LASF271:
 12853 07fc 6F627152 		.string	"obqResetI"
 12853      65736574 
 12853      4900
 12854              	.LASF214:
 12855 0806 62716E6F 		.string	"bqnotify_t"
 12855      74696679 
 12855      5F7400
 12856              	.LASF181:
 12857 0811 5F6F6C64 		.string	"_old_offset"
 12857      5F6F6666 
 12857      73657400 
 12858              	.LASF191:
 12859 081d 5F5F7061 		.string	"__pad5"
 12859      643500
 12860              	.LASF267:
 12861 0824 6F627147 		.string	"obqGetEmptyBufferTimeout"
 12861      6574456D 
 12861      70747942 
 12861      75666665 
 12861      7254696D 
 12862              	.LASF206:
 12863 083d 62636F75 		.string	"bcounter"
 12863      6E746572 
 12863      00
 12864              	.LASF61:
 12865 0846 63757272 		.string	"current"
 12865      656E7400 
 12866              	.LASF165:
 12867 084e 5F666C61 		.string	"_flags"
GAS LISTING /tmp/cccyco2T.s 			page 236


 12867      677300
 12868              	.LASF86:
 12869 0855 6F666673 		.string	"offset"
 12869      657400
 12870              	.LASF192:
 12871 085c 5F6D6F64 		.string	"_mode"
 12871      6500
 12872              	.LASF84:
 12873 0862 706F7274 		.string	"port_isr_context_flag"
 12873      5F697372 
 12873      5F636F6E 
 12873      74657874 
 12873      5F666C61 
 12874              	.LASF275:
 12875 0878 69627170 		.string	"ibqp"
 12875      00
 12876              	.LASF207:
 12877 087d 62777270 		.string	"bwrptr"
 12877      747200
 12878              	.LASF187:
 12879 0884 5F636F64 		.string	"_codecvt"
 12879      65637674 
 12879      00
 12880              	.LASF155:
 12881 088d 696E365F 		.string	"in6_addr"
 12881      61646472 
 12881      00
 12882              	.LASF281:
 12883 0896 69627147 		.string	"ibqGetFullBufferTimeoutS"
 12883      65744675 
 12883      6C6C4275 
 12883      66666572 
 12883      54696D65 
 12884              	.LASF128:
 12885 08af 6D656D67 		.string	"memgetfunc_t"
 12885      65746675 
 12885      6E635F74 
 12885      00
 12886              	.LASF209:
 12887 08bc 62746F70 		.string	"btop"
 12887      00
 12888              	.LASF35:
 12889 08c1 74687265 		.string	"thread_t"
 12889      61645F74 
 12889      00
 12890              	.LASF257:
 12891 08ca 6F627170 		.string	"obqp"
 12891      00
 12892              	.LASF5:
 12893 08cf 6C6F6E67 		.string	"long double"
 12893      20646F75 
 12893      626C6500 
 12894              	.LASF258:
 12895 08db 6F627154 		.string	"obqTryFlushI"
 12895      7279466C 
 12895      75736849 
 12895      00
GAS LISTING /tmp/cccyco2T.s 			page 237


 12896              	.LASF125:
 12897 08e8 77666C61 		.string	"wflags"
 12897      677300
 12898              	.LASF51:
 12899 08ef 74687265 		.string	"thread_reference_t"
 12899      61645F72 
 12899      65666572 
 12899      656E6365 
 12899      5F7400
 12900              	.LASF92:
 12901 0902 73656E74 		.string	"sentmsg"
 12901      6D736700 
 12902              	.LASF231:
 12903 090a 73696D5F 		.string	"sim_vio_port_t"
 12903      76696F5F 
 12903      706F7274 
 12903      5F7400
 12904              	.LASF81:
 12905 0919 706F7274 		.string	"port_intctx"
 12905      5F696E74 
 12905      63747800 
 12906              	.LASF150:
 12907 0925 6F626A65 		.string	"objects_factory_t"
 12907      6374735F 
 12907      66616374 
 12907      6F72795F 
 12907      7400
 12908              	.LASF145:
 12909 0937 6275665F 		.string	"buf_list"
 12909      6C697374 
 12909      00
 12910              	.LASF263:
 12911 0940 6F627150 		.string	"obqPutTimeout"
 12911      75745469 
 12911      6D656F75 
 12911      7400
 12912              	.LASF300:
 12913 094e 63685654 		.string	"chVTGetSystemTimeX"
 12913      47657453 
 12913      79737465 
 12913      6D54696D 
 12913      655800
 12914              	.LASF287:
 12915 0961 696E6679 		.string	"infy"
 12915      00
 12916              	.LASF64:
 12917 0966 63685F76 		.string	"ch_virtual_timer"
 12917      69727475 
 12917      616C5F74 
 12917      696D6572 
 12917      00
 12918              	.LASF285:
 12919 0977 69627152 		.string	"ibqResetI"
 12919      65736574 
 12919      4900
 12920              	.LASF163:
 12921 0981 6F70746F 		.string	"optopt"
GAS LISTING /tmp/cccyco2T.s 			page 238


 12921      707400
 12922              	.LASF212:
 12923 0988 6E6F7469 		.string	"notify"
 12923      667900
 12924              	.LASF102:
 12925 098f 73697A65 		.string	"size"
 12925      00
 12926              	.LASF16:
 12927 0994 6C6F6E67 		.string	"long long unsigned int"
 12927      206C6F6E 
 12927      6720756E 
 12927      7369676E 
 12927      65642069 
 12928              	.LASF279:
 12929 09ab 69627152 		.string	"ibqReleaseEmptyBuffer"
 12929      656C6561 
 12929      7365456D 
 12929      70747942 
 12929      75666665 
 12930              	.LASF210:
 12931 09c1 6273697A 		.string	"bsize"
 12931      6500
 12932              	.LASF22:
 12933 09c7 75696E74 		.string	"uint16_t"
 12933      31365F74 
 12933      00
 12934              	.LASF18:
 12935 09d0 5F5F6F66 		.string	"__off_t"
 12935      665F7400 
 12936              	.LASF111:
 12937 09d8 6F66665F 		.string	"off_name"
 12937      6E616D65 
 12937      00
 12938              	.LASF30:
 12939 09e1 6D73675F 		.string	"msg_t"
 12939      7400
 12940              	.LASF57:
 12941 09e7 63685F74 		.string	"ch_threads_queue"
 12941      68726561 
 12941      64735F71 
 12941      75657565 
 12941      00
 12942              	.LASF273:
 12943 09f8 6F6E6679 		.string	"onfy"
 12943      00
 12944              	.LASF32:
 12945 09fd 6576656E 		.string	"eventflags_t"
 12945      74666C61 
 12945      67735F74 
 12945      00
 12946              	.LASF203:
 12947 0a0a 696F5F62 		.string	"io_buffers_queue_t"
 12947      75666665 
 12947      72735F71 
 12947      75657565 
 12947      5F7400
 12948              	.LASF65:
GAS LISTING /tmp/cccyco2T.s 			page 239


 12949 0a1d 64656C74 		.string	"delta"
 12949      6100
 12950              	.LASF190:
 12951 0a23 5F667265 		.string	"_freeres_buf"
 12951      65726573 
 12951      5F627566 
 12951      00
 12952              	.LASF44:
 12953 0a30 72656673 		.string	"refs"
 12953      00
 12954              	.LASF36:
 12955 0a35 71756575 		.string	"queue"
 12955      6500
 12956              	.LASF220:
 12957 0a3b 715F636F 		.string	"q_counter"
 12957      756E7465 
 12957      7200
 12958              	.LASF162:
 12959 0a45 6F707465 		.string	"opterr"
 12959      727200
 12960              	.LASF151:
 12961 0a4c 63685F66 		.string	"ch_factory"
 12961      6163746F 
 12961      727900
 12962              	.LASF148:
 12963 0a57 6D62785F 		.string	"mbx_list"
 12963      6C697374 
 12963      00
 12964              	.LASF77:
 12965 0a60 6D61696E 		.string	"mainthread"
 12965      74687265 
 12965      616400
 12966              	.LASF259:
 12967 0a6b 6F627157 		.string	"obqWriteTimeout"
 12967      72697465 
 12967      54696D65 
 12967      6F757400 
 12968              	.LASF103:
 12969 0a7b 76657273 		.string	"version"
 12969      696F6E00 
 12970              	.LASF175:
 12971 0a83 5F494F5F 		.string	"_IO_backup_base"
 12971      6261636B 
 12971      75705F62 
 12971      61736500 
 12972              	.LASF184:
 12973 0a93 5F73686F 		.string	"_shortbuf"
 12973      72746275 
 12973      6600
 12974              	.LASF41:
 12975 0a9d 77616261 		.string	"wabase"
 12975      736500
 12976              	.LASF242:
 12977 0aa4 53657269 		.string	"SerialDriver"
 12977      616C4472 
 12977      69766572 
 12977      00
GAS LISTING /tmp/cccyco2T.s 			page 240


 12978              	.LASF137:
 12979 0ab1 6D656D6F 		.string	"memory_pool_t"
 12979      72795F70 
 12979      6F6F6C5F 
 12979      7400
 12980              	.LASF316:
 12981 0abf 2F686F6D 		.string	"/home/phil/Documents/ChibiOS_18.2.1/demos/various/RT-Posix-SimulatorAtom"
 12981      652F7068 
 12981      696C2F44 
 12981      6F63756D 
 12981      656E7473 
 12982              	.LASF19:
 12983 0b08 5F5F6F66 		.string	"__off64_t"
 12983      6636345F 
 12983      7400
 12984              	.LASF219:
 12985 0b12 715F7761 		.string	"q_waiting"
 12985      6974696E 
 12985      6700
 12986              	.LASF75:
 12987 0b1c 726C6973 		.string	"rlist"
 12987      7400
 12988              	.LASF26:
 12989 0b22 746D6F64 		.string	"tmode_t"
 12989      655F7400 
 12990              	.LASF241:
 12991 0b2a 73647374 		.string	"sdstate_t"
 12991      6174655F 
 12991      7400
 12992              	.LASF240:
 12993 0b34 53445F52 		.string	"SD_READY"
 12993      45414459 
 12993      00
 12994              	.LASF173:
 12995 0b3d 5F494F5F 		.string	"_IO_buf_end"
 12995      6275665F 
 12995      656E6400 
 12996              	.LASF295:
 12997 0b49 696E7465 		.string	"interval"
 12997      7276616C 
 12997      00
 12998              	.LASF315:
 12999 0b52 2E2E2F2E 		.string	"../../../os/hal/src/hal_buffers.c"
 12999      2E2F2E2E 
 12999      2F6F732F 
 12999      68616C2F 
 12999      7372632F 
 13000              	.LASF205:
 13001 0b74 73757370 		.string	"suspended"
 13001      656E6465 
 13001      6400
 13002              	.LASF87:
 13003 0b7e 746D5F63 		.string	"tm_calibration_t"
 13003      616C6962 
 13003      72617469 
 13003      6F6E5F74 
 13003      00
GAS LISTING /tmp/cccyco2T.s 			page 241


 13004              	.LASF156:
 13005 0b8f 5F5F696E 		.string	"__in6_u"
 13005      365F7500 
 13006              	.LASF40:
 13007 0b97 6E616D65 		.string	"name"
 13007      00
 13008              	.LASF305:
 13009 0b9c 706F7274 		.string	"port_lock"
 13009      5F6C6F63 
 13009      6B00
 13010              	.LASF123:
 13011 0ba6 6C697374 		.string	"listener"
 13011      656E6572 
 13011      00
 13012              	.LASF309:
 13013 0baf 5F5F7372 		.string	"__src"
 13013      6300
 13014              	.LASF286:
 13015 0bb5 6962714F 		.string	"ibqObjectInit"
 13015      626A6563 
 13015      74496E69 
 13015      7400
 13016              	.LASF299:
 13017 0bc3 6F73616C 		.string	"osalOsGetSystemTimeX"
 13017      4F734765 
 13017      74537973 
 13017      74656D54 
 13017      696D6558 
 13018              	.LASF200:
 13019 0bd8 73746465 		.string	"stderr"
 13019      727200
 13020              	.LASF12:
 13021 0bdf 73686F72 		.string	"short int"
 13021      7420696E 
 13021      7400
 13022              	.LASF126:
 13023 0be9 6576656E 		.string	"event_source"
 13023      745F736F 
 13023      75726365 
 13023      00
 13024              	.LASF66:
 13025 0bf6 66756E63 		.string	"func"
 13025      00
 13026              	.LASF97:
 13027 0bfb 63685F6D 		.string	"ch_mutex"
 13027      75746578 
 13027      00
 13028              	.LASF46:
 13029 0c04 6D736771 		.string	"msgqueue"
 13029      75657565 
 13029      00
 13030              	.LASF244:
 13031 0c0d 69717565 		.string	"iqueue"
 13031      756500
 13032              	.LASF293:
 13033 0c14 73746172 		.string	"start"
 13033      7400
GAS LISTING /tmp/cccyco2T.s 			page 242


 13034              	.LASF183:
 13035 0c1a 5F767461 		.string	"_vtable_offset"
 13035      626C655F 
 13035      6F666673 
 13035      657400
 13036              	.LASF71:
 13037 0c29 63685F73 		.string	"ch_system_debug"
 13037      79737465 
 13037      6D5F6465 
 13037      62756700 
 13038              	.LASF141:
 13039 0c39 64796E5F 		.string	"dyn_list_t"
 13039      6C697374 
 13039      5F7400
 13040              	.LASF308:
 13041 0c44 5F5F6465 		.string	"__dest"
 13041      737400
 13042              	.LASF217:
 13043 0c4b 696F5F71 		.string	"io_queue_t"
 13043      75657565 
 13043      5F7400
 13044              	.LASF284:
 13045 0c56 69627147 		.string	"ibqGetEmptyBufferI"
 13045      6574456D 
 13045      70747942 
 13045      75666665 
 13045      724900
 13046              	.LASF234:
 13047 0c69 50414C43 		.string	"PALConfig"
 13047      6F6E6669 
 13047      6700
 13048              	.LASF265:
 13049 0c73 6F627146 		.string	"obqFlush"
 13049      6C757368 
 13049      00
 13050              	.LASF134:
 13051 0c7c 6F626A65 		.string	"object_size"
 13051      63745F73 
 13051      697A6500 
 13052              	.LASF76:
 13053 0c88 76746C69 		.string	"vtlist"
 13053      737400
 13054              	.LASF45:
 13055 0c8f 77616974 		.string	"waiting"
 13055      696E6700 
 13056              	.LASF139:
 13057 0c97 64796E5F 		.string	"dyn_element_t"
 13057      656C656D 
 13057      656E745F 
 13057      7400
 13058              	.LASF120:
 13059 0ca5 6D757465 		.string	"mutex_t"
 13059      785F7400 
 13060              	.LASF303:
 13061 0cad 71756575 		.string	"queue_init"
 13061      655F696E 
 13061      697400
GAS LISTING /tmp/cccyco2T.s 			page 243


 13062              	.LASF28:
 13063 0cb8 74726566 		.string	"trefs_t"
 13063      735F7400 
 13064              	.LASF82:
 13065 0cc0 706F7274 		.string	"port_context"
 13065      5F636F6E 
 13065      74657874 
 13065      00
 13066              	.LASF167:
 13067 0ccd 5F494F5F 		.string	"_IO_read_end"
 13067      72656164 
 13067      5F656E64 
 13067      00
 13068              	.LASF52:
 13069 0cda 74687265 		.string	"threads_list_t"
 13069      6164735F 
 13069      6C697374 
 13069      5F7400
 13070              	.LASF204:
 13071 0ce9 696F5F62 		.string	"io_buffers_queue"
 13071      75666665 
 13071      72735F71 
 13071      75657565 
 13071      00
 13072              	.LASF74:
 13073 0cfa 63685F73 		.string	"ch_system"
 13073      79737465 
 13073      6D00
 13074              	.LASF38:
 13075 0d04 6E657765 		.string	"newer"
 13075      7200
 13076              	.LASF153:
 13077 0d0a 5F5F7536 		.string	"__u6_addr16"
 13077      5F616464 
 13077      72313600 
 13078              	.LASF283:
 13079 0d16 69627150 		.string	"ibqPostFullBufferI"
 13079      6F737446 
 13079      756C6C42 
 13079      75666665 
 13079      724900
 13080              	.LASF23:
 13081 0d29 75696E74 		.string	"uint32_t"
 13081      33325F74 
 13081      00
 13082              	.LASF250:
 13083 0d32 696E7374 		.string	"instance_offset"
 13083      616E6365 
 13083      5F6F6666 
 13083      73657400 
 13084              	.LASF179:
 13085 0d42 5F66696C 		.string	"_fileno"
 13085      656E6F00 
 13086              	.LASF228:
 13087 0d4a 696E7075 		.string	"input_queue_t"
 13087      745F7175 
 13087      6575655F 
GAS LISTING /tmp/cccyco2T.s 			page 244


 13087      7400
 13088              	.LASF6:
 13089 0d58 5F466C6F 		.string	"_Float128"
 13089      61743132 
 13089      3800
 13090              	.LASF188:
 13091 0d62 5F776964 		.string	"_wide_data"
 13091      655F6461 
 13091      746100
 13092              	.LASF160:
 13093 0d6d 6F707461 		.string	"optarg"
 13093      726700
 13094              	.LASF122:
 13095 0d74 6576656E 		.string	"event_listener"
 13095      745F6C69 
 13095      7374656E 
 13095      657200
 13096              	.LASF88:
 13097 0d83 7264796D 		.string	"rdymsg"
 13097      736700
 13098              	.LASF223:
 13099 0d8a 715F7772 		.string	"q_wrptr"
 13099      70747200 
 13100              	.LASF1:
 13101 0d92 73686F72 		.string	"short unsigned int"
 13101      7420756E 
 13101      7369676E 
 13101      65642069 
 13101      6E7400
 13102              	.LASF199:
 13103 0da5 7374646F 		.string	"stdout"
 13103      757400
 13104              	.LASF80:
 13105 0dac 72656778 		.string	"regx86"
 13105      383600
 13106              	.LASF216:
 13107 0db3 6F757470 		.string	"output_buffers_queue_t"
 13107      75745F62 
 13107      75666665 
 13107      72735F71 
 13107      75657565 
 13108              	.LASF73:
 13109 0dca 63685F73 		.string	"ch_system_t"
 13109      79737465 
 13109      6D5F7400 
 13110              	.LASF118:
 13111 0dd6 63686465 		.string	"chdebug_t"
 13111      6275675F 
 13111      7400
 13112              	.LASF170:
 13113 0de0 5F494F5F 		.string	"_IO_write_ptr"
 13113      77726974 
 13113      655F7074 
 13113      7200
 13114              	.LASF292:
 13115 0dee 6F73616C 		.string	"osalTimeDiffX"
 13115      54696D65 
GAS LISTING /tmp/cccyco2T.s 			page 245


 13115      44696666 
 13115      5800
 13116              	.LASF229:
 13117 0dfc 6F757470 		.string	"output_queue_t"
 13117      75745F71 
 13117      75657565 
 13117      5F7400
 13118              	.LASF105:
 13119 0e0b 74696D65 		.string	"timesize"
 13119      73697A65 
 13119      00
 13120              	.LASF14:
 13121 0e14 5F5F696E 		.string	"__int32_t"
 13121      7433325F 
 13121      7400
 13122              	.LASF239:
 13123 0e1e 53445F53 		.string	"SD_STOP"
 13123      544F5000 
 13124              	.LASF272:
 13125 0e26 6F62714F 		.string	"obqObjectInit"
 13125      626A6563 
 13125      74496E69 
 13125      7400
 13126              	.LASF154:
 13127 0e34 5F5F7536 		.string	"__u6_addr32"
 13127      5F616464 
 13127      72333200 
 13128              	.LASF290:
 13129 0e40 6F73616C 		.string	"osalThreadQueueObjectInit"
 13129      54687265 
 13129      61645175 
 13129      6575654F 
 13129      626A6563 
 13130              	.LASF132:
 13131 0e5a 63685F6D 		.string	"ch_memcore"
 13131      656D636F 
 13131      726500
 13132              	.LASF114:
 13133 0e65 6F66665F 		.string	"off_flags"
 13133      666C6167 
 13133      7300
 13134              	.LASF310:
 13135 0e6f 5F5F6C65 		.string	"__len"
 13135      6E00
 13136              	.LASF276:
 13137 0e75 69627147 		.string	"ibqGetTimeout"
 13137      65745469 
 13137      6D656F75 
 13137      7400
 13138              	.LASF124:
 13139 0e83 6576656E 		.string	"events"
 13139      747300
 13140              	.LASF55:
 13141 0e8a 6E657874 		.string	"next"
 13141      00
 13142              	.LASF58:
 13143 0e8f 70726576 		.string	"prev"
GAS LISTING /tmp/cccyco2T.s 			page 246


 13143      00
 13144              	.LASF140:
 13145 0e94 63685F64 		.string	"ch_dyn_list"
 13145      796E5F6C 
 13145      69737400 
 13146              	.LASF100:
 13147 0ea0 6964656E 		.string	"identifier"
 13147      74696669 
 13147      657200
 13148              		.ident	"GCC: (Ubuntu 8.3.0-6ubuntu1) 8.3.0"
 13149              		.section	.note.GNU-stack,"",@progbits
GAS LISTING /tmp/cccyco2T.s 			page 247


DEFINED SYMBOLS
                            *ABS*:0000000000000000 hal_buffers.c
     /tmp/cccyco2T.s:8      .text.ibqObjectInit:0000000000000000 ibqObjectInit
     /tmp/cccyco2T.s:146    .text.ibqResetI:0000000000000000 ibqResetI
     /tmp/cccyco2T.s:3728   .text.__x86.get_pc_thunk.bx:0000000000000000 __x86.get_pc_thunk.bx
     /tmp/cccyco2T.s:209    .text.ibqGetEmptyBufferI:0000000000000000 ibqGetEmptyBufferI
     /tmp/cccyco2T.s:248    .text.ibqPostFullBufferI:0000000000000000 ibqPostFullBufferI
     /tmp/cccyco2T.s:328    .text.ibqGetFullBufferTimeoutS:0000000000000000 ibqGetFullBufferTimeoutS
     /tmp/cccyco2T.s:459    .text.ibqGetFullBufferTimeout:0000000000000000 ibqGetFullBufferTimeout
     /tmp/cccyco2T.s:3706   .text.__x86.get_pc_thunk.ax:0000000000000000 __x86.get_pc_thunk.ax
     /tmp/cccyco2T.s:564    .text.ibqReleaseEmptyBuffer:0000000000000000 ibqReleaseEmptyBuffer
     /tmp/cccyco2T.s:3717   .text.__x86.get_pc_thunk.dx:0000000000000000 __x86.get_pc_thunk.dx
     /tmp/cccyco2T.s:725    .text.ibqReleaseEmptyBufferS:0000000000000000 ibqReleaseEmptyBufferS
     /tmp/cccyco2T.s:782    .text.ibqGetTimeout:0000000000000000 ibqGetTimeout
     /tmp/cccyco2T.s:1001   .text.ibqReadTimeout:0000000000000000 ibqReadTimeout
     /tmp/cccyco2T.s:1663   .text.obqObjectInit:0000000000000000 obqObjectInit
     /tmp/cccyco2T.s:1797   .text.obqResetI:0000000000000000 obqResetI
     /tmp/cccyco2T.s:1862   .text.obqGetFullBufferI:0000000000000000 obqGetFullBufferI
     /tmp/cccyco2T.s:1908   .text.obqReleaseEmptyBufferI:0000000000000000 obqReleaseEmptyBufferI
     /tmp/cccyco2T.s:1978   .text.obqGetEmptyBufferTimeoutS:0000000000000000 obqGetEmptyBufferTimeoutS
     /tmp/cccyco2T.s:2109   .text.obqGetEmptyBufferTimeout:0000000000000000 obqGetEmptyBufferTimeout
     /tmp/cccyco2T.s:2212   .text.obqPostFullBuffer:0000000000000000 obqPostFullBuffer
     /tmp/cccyco2T.s:2387   .text.obqPostFullBufferS:0000000000000000 obqPostFullBufferS
     /tmp/cccyco2T.s:2454   .text.obqPutTimeout:0000000000000000 obqPutTimeout
     /tmp/cccyco2T.s:2729   .text.obqWriteTimeout:0000000000000000 obqWriteTimeout
     /tmp/cccyco2T.s:3413   .text.obqTryFlushI:0000000000000000 obqTryFlushI
     /tmp/cccyco2T.s:3508   .text.obqFlush:0000000000000000 obqFlush

UNDEFINED SYMBOLS
_GLOBAL_OFFSET_TABLE_
chThdDequeueAllI
chThdDequeueNextI
chThdEnqueueTimeoutS
port_irq_sts
ch
memcpy
