GAS LISTING /tmp/ccMjO69Q.s 			page 1


   1              		.file	"hal_pal.c"
   2              		.text
   3              	.Ltext0:
   4              		.section	.text.palReadBus,"ax",@progbits
   5              		.p2align 4,,15
   6              		.globl	palReadBus
   7              		.type	palReadBus, @function
   8              	palReadBus:
   9              	.LVL0:
  10              	.LFB222:
  11              		.file 1 "../../../os/hal/src/hal_pal.c"
  12              		.loc 1 65 43 view -0
  13              		.cfi_startproc
  14              		.loc 1 67 3 view .LVU1
  15              		.loc 1 67 3 view .LVU2
  16              		.loc 1 69 3 view .LVU3
  17              		.loc 1 65 43 is_stmt 0 view .LVU4
  18 0000 8B542404 		movl	4(%esp), %edx
  19              		.loc 1 69 10 view .LVU5
  20 0004 8B02     		movl	(%edx), %eax
  21 0006 0FB64A08 		movzbl	8(%edx), %ecx
  22 000a 8B4004   		movl	4(%eax), %eax
  23 000d D3E8     		shrl	%cl, %eax
  24 000f 234204   		andl	4(%edx), %eax
  25              		.loc 1 70 1 view .LVU6
  26 0012 C3       		ret
  27              		.cfi_endproc
  28              	.LFE222:
  29              		.size	palReadBus, .-palReadBus
  30              		.section	.text.palWriteBus,"ax",@progbits
  31              		.p2align 4,,15
  32              		.globl	palWriteBus
  33              		.type	palWriteBus, @function
  34              	palWriteBus:
  35              	.LVL1:
  36              	.LFB223:
  37              		.loc 1 90 55 is_stmt 1 view -0
  38              		.cfi_startproc
  39              		.loc 1 92 3 view .LVU8
  40              		.loc 1 92 3 view .LVU9
  41              		.loc 1 94 3 view .LVU10
  42              		.loc 1 90 55 is_stmt 0 view .LVU11
  43 0000 53       		pushl	%ebx
  44              		.cfi_def_cfa_offset 8
  45              		.cfi_offset 3, -8
  46              		.loc 1 90 55 view .LVU12
  47 0001 8B442408 		movl	8(%esp), %eax
  48              		.loc 1 94 3 view .LVU13
  49 0005 8B5004   		movl	4(%eax), %edx
  50 0008 0FB64808 		movzbl	8(%eax), %ecx
  51 000c 8B18     		movl	(%eax), %ebx
  52 000e 89D0     		movl	%edx, %eax
  53 0010 2354240C 		andl	12(%esp), %edx
  54 0014 D3E0     		sall	%cl, %eax
  55 0016 D3E2     		sall	%cl, %edx
  56 0018 F7D0     		notl	%eax
  57 001a 2303     		andl	(%ebx), %eax
GAS LISTING /tmp/ccMjO69Q.s 			page 2


  58 001c 09D0     		orl	%edx, %eax
  59 001e 8903     		movl	%eax, (%ebx)
  60              		.loc 1 95 1 view .LVU14
  61 0020 5B       		popl	%ebx
  62              		.cfi_restore 3
  63              		.cfi_def_cfa_offset 4
  64 0021 C3       		ret
  65              		.cfi_endproc
  66              	.LFE223:
  67              		.size	palWriteBus, .-palWriteBus
  68              		.section	.text.palSetBusMode,"ax",@progbits
  69              		.p2align 4,,15
  70              		.globl	palSetBusMode
  71              		.type	palSetBusMode, @function
  72              	palSetBusMode:
  73              	.LVL2:
  74              	.LFB224:
  75              		.loc 1 113 53 is_stmt 1 view -0
  76              		.cfi_startproc
  77              		.loc 1 115 3 view .LVU16
  78              		.loc 1 115 3 view .LVU17
  79              		.loc 1 117 3 view .LVU18
  80              		.loc 1 113 53 is_stmt 0 view .LVU19
  81 0000 53       		pushl	%ebx
  82              		.cfi_def_cfa_offset 8
  83              		.cfi_offset 3, -8
  84 0001 E8FCFFFF 		call	__x86.get_pc_thunk.bx
  84      FF
  85 0006 81C30200 		addl	$_GLOBAL_OFFSET_TABLE_, %ebx
  85      0000
  86 000c 83EC0C   		subl	$12, %esp
  87              		.cfi_def_cfa_offset 20
  88              		.loc 1 113 53 view .LVU20
  89 000f 8B442414 		movl	20(%esp), %eax
  90              		.loc 1 117 3 view .LVU21
  91 0013 FF742418 		pushl	24(%esp)
  92              		.cfi_def_cfa_offset 24
  93 0017 0FB64808 		movzbl	8(%eax), %ecx
  94 001b 8B5004   		movl	4(%eax), %edx
  95 001e D3E2     		sall	%cl, %edx
  96 0020 52       		pushl	%edx
  97              		.cfi_def_cfa_offset 28
  98 0021 FF30     		pushl	(%eax)
  99              		.cfi_def_cfa_offset 32
 100 0023 E8FCFFFF 		call	_pal_lld_setgroupmode@PLT
 100      FF
 101              	.LVL3:
 102              		.loc 1 118 1 view .LVU22
 103 0028 83C418   		addl	$24, %esp
 104              		.cfi_def_cfa_offset 8
 105 002b 5B       		popl	%ebx
 106              		.cfi_restore 3
 107              		.cfi_def_cfa_offset 4
 108 002c C3       		ret
 109              		.cfi_endproc
 110              	.LFE224:
 111              		.size	palSetBusMode, .-palSetBusMode
GAS LISTING /tmp/ccMjO69Q.s 			page 3


 112              		.section	.text.__x86.get_pc_thunk.bx,"axG",@progbits,__x86.get_pc_thunk.bx,comdat
 113              		.globl	__x86.get_pc_thunk.bx
 114              		.hidden	__x86.get_pc_thunk.bx
 115              		.type	__x86.get_pc_thunk.bx, @function
 116              	__x86.get_pc_thunk.bx:
 117              	.LFB225:
 118              		.cfi_startproc
 119 0000 8B1C24   		movl	(%esp), %ebx
 120 0003 C3       		ret
 121              		.cfi_endproc
 122              	.LFE225:
 123              		.text
 124              	.Letext0:
 125              		.file 2 "/usr/lib/gcc/x86_64-linux-gnu/8/include/stddef.h"
 126              		.file 3 "/usr/include/i386-linux-gnu/bits/types.h"
 127              		.file 4 "/usr/include/i386-linux-gnu/bits/stdint-intn.h"
 128              		.file 5 "/usr/include/i386-linux-gnu/bits/stdint-uintn.h"
 129              		.file 6 "/usr/include/stdint.h"
 130              		.file 7 "../../../os/common/ports/SIMIA32/compilers/GCC/chtypes.h"
 131              		.file 8 "../../../os/rt/include/chsystypes.h"
 132              		.file 9 "../../../os/rt/include/chschd.h"
 133              		.file 10 "../../../os/rt/include/chtime.h"
 134              		.file 11 "../../../os/common/ports/SIMIA32/chcore.h"
 135              		.file 12 "../../../os/rt/include/chtm.h"
 136              		.file 13 "../../../os/rt/include/chsem.h"
 137              		.file 14 "../../../os/rt/include/chmtx.h"
 138              		.file 15 "../../../os/rt/include/chsys.h"
 139              		.file 16 "../../../os/rt/include/chregistry.h"
 140              		.file 17 "../../../os/rt/include/chevents.h"
 141              		.file 18 "../../../os/common/oslib/include/chmemcore.h"
 142              		.file 19 "../../../os/common/oslib/include/chmempools.h"
 143              		.file 20 "../../../os/common/oslib/include/chfactory.h"
 144              		.file 21 "/usr/include/netinet/in.h"
 145              		.file 22 "/usr/include/unistd.h"
 146              		.file 23 "/usr/include/i386-linux-gnu/bits/getopt_core.h"
 147              		.file 24 "/usr/include/i386-linux-gnu/bits/types/struct_FILE.h"
 148              		.file 25 "/usr/include/i386-linux-gnu/bits/types/FILE.h"
 149              		.file 26 "/usr/include/stdio.h"
 150              		.file 27 "/usr/include/i386-linux-gnu/bits/sys_errlist.h"
 151              		.file 28 "../../../os/hal/include/hal_queues.h"
 152              		.file 29 "../../../os/hal/ports/simulator/hal_pal_lld.h"
 153              		.file 30 "../../../os/hal/include/hal_pal.h"
 154              		.file 31 "../../../os/hal/include/hal_serial.h"
 155              		.file 32 "../../../os/hal/ports/simulator/posix/hal_serial_lld.h"
 3825              		.section	.note.GNU-stack,"",@progbits
GAS LISTING /tmp/ccMjO69Q.s 			page 78

