GAS LISTING /tmp/ccEseu02.s 			page 1


   1              		.file	"hal_lld.c"
   2              		.text
   3              	.Ltext0:
   4              		.section	.rodata.hal_lld_init.str1.1,"aMS",@progbits,1
   5              	.LC0:
   6 0000 43686962 		.string	"ChibiOS/RT simulator (Linux)\n"
   6      694F532F 
   6      52542073 
   6      696D756C 
   6      61746F72 
   7              		.section	.text.hal_lld_init,"ax",@progbits
   8              		.p2align 4,,15
   9              		.globl	hal_lld_init
  10              		.type	hal_lld_init, @function
  11              	hal_lld_init:
  12              	.LFB232:
  13              		.file 1 "../../../os/hal/ports/simulator/posix/hal_lld.c"
  14              		.loc 1 57 25 view -0
  15              		.cfi_startproc
  16              		.loc 1 62 3 view .LVU1
  17              		.loc 1 57 25 is_stmt 0 view .LVU2
  18 0000 53       		pushl	%ebx
  19              		.cfi_def_cfa_offset 8
  20              		.cfi_offset 3, -8
  21 0001 E8FCFFFF 		call	__x86.get_pc_thunk.bx
  21      FF
  22 0006 81C30200 		addl	$_GLOBAL_OFFSET_TABLE_, %ebx
  22      0000
  23 000c 83EC14   		subl	$20, %esp
  24              		.cfi_def_cfa_offset 28
  25              		.loc 1 62 3 view .LVU3
  26 000f 8D830000 		leal	.LC0@GOTOFF(%ebx), %eax
  26      0000
  27 0015 50       		pushl	%eax
  28              		.cfi_def_cfa_offset 32
  29 0016 E8FCFFFF 		call	puts@PLT
  29      FF
  30              	.LVL0:
  31              		.loc 1 64 3 is_stmt 1 view .LVU4
  32 001b 58       		popl	%eax
  33              		.cfi_def_cfa_offset 28
  34 001c 8D830000 		leal	nextcnt@GOTOFF(%ebx), %eax
  34      0000
  35 0022 5A       		popl	%edx
  36              		.cfi_def_cfa_offset 24
  37 0023 6A00     		pushl	$0
  38              		.cfi_def_cfa_offset 28
  39 0025 50       		pushl	%eax
  40              		.cfi_def_cfa_offset 32
  41 0026 E8FCFFFF 		call	gettimeofday@PLT
  41      FF
  42              	.LVL1:
  43              		.loc 1 65 3 view .LVU5
  44              		.loc 1 65 3 view .LVU6
  45 002b 8B830400 		movl	4+nextcnt@GOTOFF(%ebx), %eax
  45      0000
  46 0031 8B8B0000 		movl	nextcnt@GOTOFF(%ebx), %ecx
GAS LISTING /tmp/ccEseu02.s 			page 2


  46      0000
  47              		.loc 1 65 3 view .LVU7
  48 0037 83C410   		addl	$16, %esp
  49              		.cfi_def_cfa_offset 16
  50 003a 8D90F401 		leal	500(%eax), %edx
  50      0000
  51 0040 89930400 		movl	%edx, 4+nextcnt@GOTOFF(%ebx)
  51      0000
  52              		.loc 1 65 3 view .LVU8
  53 0046 81FA3F42 		cmpl	$999999, %edx
  53      0F00
  54 004c 7E14     		jle	.L1
  55              		.loc 1 65 3 discriminator 1 view .LVU9
  56 004e 83C101   		addl	$1, %ecx
  57 0051 2D4C400F 		subl	$999500, %eax
  57      00
  58 0056 898B0000 		movl	%ecx, nextcnt@GOTOFF(%ebx)
  58      0000
  59              		.loc 1 65 3 discriminator 1 view .LVU10
  60 005c 89830400 		movl	%eax, 4+nextcnt@GOTOFF(%ebx)
  60      0000
  61              	.L1:
  62              		.loc 1 66 1 is_stmt 0 view .LVU11
  63 0062 83C408   		addl	$8, %esp
  64              		.cfi_def_cfa_offset 8
  65 0065 5B       		popl	%ebx
  66              		.cfi_restore 3
  67              		.cfi_def_cfa_offset 4
  68 0066 C3       		ret
  69              		.cfi_endproc
  70              	.LFE232:
  71              		.size	hal_lld_init, .-hal_lld_init
  72              		.section	.text._sim_check_for_interrupts,"ax",@progbits
  73              		.p2align 4,,15
  74              		.globl	_sim_check_for_interrupts
  75              		.type	_sim_check_for_interrupts, @function
  76              	_sim_check_for_interrupts:
  77              	.LFB233:
  78              		.loc 1 71 38 is_stmt 1 view -0
  79              		.cfi_startproc
  80 0000 57       		pushl	%edi
  81              		.cfi_def_cfa_offset 8
  82              		.cfi_offset 7, -8
  83 0001 56       		pushl	%esi
  84              		.cfi_def_cfa_offset 12
  85              		.cfi_offset 6, -12
  86 0002 53       		pushl	%ebx
  87              		.cfi_def_cfa_offset 16
  88              		.cfi_offset 3, -16
  89 0003 E8FCFFFF 		call	__x86.get_pc_thunk.bx
  89      FF
  90 0008 81C30200 		addl	$_GLOBAL_OFFSET_TABLE_, %ebx
  90      0000
  91 000e 83EC10   		subl	$16, %esp
  92              		.cfi_def_cfa_offset 32
  93              		.loc 1 71 38 is_stmt 0 view .LVU13
  94 0011 65A11400 		movl	%gs:20, %eax
GAS LISTING /tmp/ccEseu02.s 			page 3


  94      0000
  95 0017 8944240C 		movl	%eax, 12(%esp)
  96 001b 31C0     		xorl	%eax, %eax
  97              		.loc 1 72 3 is_stmt 1 view .LVU14
  98              		.loc 1 73 3 view .LVU15
  99              	.LVL2:
 100              		.loc 1 76 3 view .LVU16
 101              		.loc 1 76 7 is_stmt 0 view .LVU17
 102 001d E8FCFFFF 		call	sd_lld_interrupt_pending@PLT
 102      FF
 103              	.LVL3:
 104              		.loc 1 81 3 view .LVU18
 105 0022 83EC08   		subl	$8, %esp
 106              		.cfi_def_cfa_offset 40
 107 0025 6A00     		pushl	$0
 108              		.cfi_def_cfa_offset 44
 109              		.loc 1 76 7 view .LVU19
 110 0027 89C6     		movl	%eax, %esi
 111              	.LVL4:
 112              		.loc 1 81 3 is_stmt 1 view .LVU20
 113 0029 8D442410 		leal	16(%esp), %eax
 114              	.LVL5:
 115              		.loc 1 81 3 is_stmt 0 view .LVU21
 116 002d 50       		pushl	%eax
 117              		.cfi_def_cfa_offset 48
 118 002e E8FCFFFF 		call	gettimeofday@PLT
 118      FF
 119              	.LVL6:
 120              		.loc 1 82 3 is_stmt 1 view .LVU22
 121              		.loc 1 82 7 is_stmt 0 view .LVU23
 122 0033 8B542414 		movl	20(%esp), %edx
 123 0037 8B830000 		movl	nextcnt@GOTOFF(%ebx), %eax
 123      0000
 124 003d 83C410   		addl	$16, %esp
 125              		.cfi_def_cfa_offset 32
 126 0040 39C2     		cmpl	%eax, %edx
 127 0042 0F9DC1   		setge	%cl
 128 0045 750D     		jne	.L7
 129              		.loc 1 82 7 discriminator 1 view .LVU24
 130 0047 8BBB0400 		movl	4+nextcnt@GOTOFF(%ebx), %edi
 130      0000
 131 004d 397C2408 		cmpl	%edi, 8(%esp)
 132 0051 0F9DC1   		setge	%cl
 133              	.L7:
 134              		.loc 1 82 6 discriminator 4 view .LVU25
 135 0054 84C9     		testb	%cl, %cl
 136 0056 7478     		je	.L8
 137              		.loc 1 83 5 is_stmt 1 view .LVU26
 138              	.LVL7:
 139              		.loc 1 84 5 view .LVU27
 140              		.loc 1 84 5 view .LVU28
 141              		.loc 1 84 5 view .LVU29
 142 0058 8B930400 		movl	4+nextcnt@GOTOFF(%ebx), %edx
 142      0000
 143 005e 8D8AF401 		leal	500(%edx), %ecx
 143      0000
 144 0064 898B0400 		movl	%ecx, 4+nextcnt@GOTOFF(%ebx)
GAS LISTING /tmp/ccEseu02.s 			page 4


 144      0000
 145              		.loc 1 84 5 view .LVU30
 146 006a 81F93F42 		cmpl	$999999, %ecx
 146      0F00
 147 0070 7F46     		jg	.L19
 148              	.L9:
 149              		.loc 1 86 5 view .LVU31
 150 0072 8BB30000 		movl	port_isr_context_flag@GOT(%ebx), %esi
 150      0000
 151              	.LBB14:
 152              	.LBB15:
 153              	.LBB16:
 154              		.file 2 "../../../os/common/ports/SIMIA32/chcore.h"
 155              		.loc 2 383 16 is_stmt 0 view .LVU32
 156 0078 8BBB0000 		movl	port_irq_sts@GOT(%ebx), %edi
 156      0000
 157              	.LBE16:
 158              	.LBE15:
 159              	.LBE14:
 160              		.loc 1 86 5 view .LVU33
 161 007e C60601   		movb	$1, (%esi)
 162              		.loc 1 86 5 is_stmt 1 view .LVU34
 163              		.loc 1 86 5 view .LVU35
 164              		.loc 1 86 5 view .LVU36
 165              		.loc 1 86 5 view .LVU37
 166              		.loc 1 86 5 view .LVU38
 167              		.loc 1 86 22 view .LVU39
 168              		.loc 1 88 5 view .LVU40
 169              	.LBB19:
 170              	.LBI14:
 171              		.file 3 "../../../os/rt/include/chsys.h"
 172              		.loc 3 393 20 view .LVU41
 173              	.LBE19:
 174              		.loc 3 395 3 view .LVU42
 175              	.LBB20:
 176              	.LBB18:
 177              	.LBI15:
 178              		.loc 2 381 20 view .LVU43
 179              	.LBB17:
 180              		.loc 2 383 3 view .LVU44
 181              		.loc 2 383 16 is_stmt 0 view .LVU45
 182 0081 C7070100 		movl	$1, (%edi)
 182      0000
 183              	.LBE17:
 184              	.LBE18:
 185              	.LBE20:
 186              		.loc 3 396 34 is_stmt 1 view .LVU46
 187              		.loc 3 397 29 view .LVU47
 188              		.loc 1 89 5 view .LVU48
 189 0087 E8FCFFFF 		call	chSysTimerHandlerI@PLT
 189      FF
 190              	.LVL8:
 191              		.loc 1 90 5 view .LVU49
 192              	.LBB21:
 193              	.LBI21:
 194              		.loc 3 413 20 view .LVU50
 195              	.LBE21:
GAS LISTING /tmp/ccEseu02.s 			page 5


 196              		.loc 3 415 31 view .LVU51
 197              		.loc 3 416 33 view .LVU52
 198              		.loc 3 417 3 view .LVU53
 199              	.LBB24:
 200              	.LBB22:
 201              	.LBI22:
 202              		.loc 2 391 20 view .LVU54
 203              	.LBB23:
 204              		.loc 2 393 3 view .LVU55
 205              		.loc 2 393 16 is_stmt 0 view .LVU56
 206 008c C7070000 		movl	$0, (%edi)
 206      0000
 207              	.LBE23:
 208              	.LBE22:
 209              	.LBE24:
 210              		.loc 1 92 5 is_stmt 1 view .LVU57
 211              		.loc 1 92 5 view .LVU58
 212              		.loc 1 92 5 view .LVU59
 213              		.loc 1 92 5 view .LVU60
 214              		.loc 1 92 5 view .LVU61
 215 0092 C60600   		movb	$0, (%esi)
 216              		.loc 1 92 22 view .LVU62
 217              		.loc 1 95 3 view .LVU63
 218              		.loc 1 96 22 view .LVU64
 219              		.loc 1 97 5 view .LVU65
 220              		.loc 1 97 9 is_stmt 0 view .LVU66
 221 0095 E8FCFFFF 		call	chSchIsPreemptionRequired@PLT
 221      FF
 222              	.LVL9:
 223              		.loc 1 97 8 view .LVU67
 224 009a 84C0     		testb	%al, %al
 225 009c 7541     		jne	.L20
 226              	.LVL10:
 227              	.L5:
 228              		.loc 1 101 1 view .LVU68
 229 009e 8B44240C 		movl	12(%esp), %eax
 230 00a2 65330514 		xorl	%gs:20, %eax
 230      000000
 231 00a9 753B     		jne	.L21
 232 00ab 83C410   		addl	$16, %esp
 233              		.cfi_remember_state
 234              		.cfi_def_cfa_offset 16
 235 00ae 5B       		popl	%ebx
 236              		.cfi_restore 3
 237              		.cfi_def_cfa_offset 12
 238 00af 5E       		popl	%esi
 239              		.cfi_restore 6
 240              		.cfi_def_cfa_offset 8
 241 00b0 5F       		popl	%edi
 242              		.cfi_restore 7
 243              		.cfi_def_cfa_offset 4
 244 00b1 C3       		ret
 245              	.LVL11:
 246              		.p2align 4,,10
 247 00b2 8DB60000 		.p2align 3
 247      0000
 248              	.L19:
GAS LISTING /tmp/ccEseu02.s 			page 6


 249              		.cfi_restore_state
 250              		.loc 1 84 5 is_stmt 1 discriminator 1 view .LVU69
 251 00b8 83C001   		addl	$1, %eax
 252 00bb 81EA4C40 		subl	$999500, %edx
 252      0F00
 253 00c1 89830000 		movl	%eax, nextcnt@GOTOFF(%ebx)
 253      0000
 254              		.loc 1 84 5 discriminator 1 view .LVU70
 255 00c7 89930400 		movl	%edx, 4+nextcnt@GOTOFF(%ebx)
 255      0000
 256 00cd EBA3     		jmp	.L9
 257              	.LVL12:
 258 00cf 90       		.p2align 4,,10
 259              		.p2align 3
 260              	.L8:
 261              		.loc 1 92 22 discriminator 1 view .LVU71
 262              		.loc 1 95 3 discriminator 1 view .LVU72
 263              		.loc 1 95 6 is_stmt 0 discriminator 1 view .LVU73
 264 00d0 89F0     		movl	%esi, %eax
 265 00d2 84C0     		testb	%al, %al
 266 00d4 74C8     		je	.L5
 267              	.LVL13:
 268              		.loc 1 96 22 is_stmt 1 view .LVU74
 269              		.loc 1 97 5 view .LVU75
 270              		.loc 1 97 9 is_stmt 0 view .LVU76
 271 00d6 E8FCFFFF 		call	chSchIsPreemptionRequired@PLT
 271      FF
 272              	.LVL14:
 273              		.loc 1 97 8 view .LVU77
 274 00db 84C0     		testb	%al, %al
 275 00dd 74BF     		je	.L5
 276              	.LVL15:
 277              	.L20:
 278              		.loc 1 98 7 is_stmt 1 view .LVU78
 279 00df E8FCFFFF 		call	chSchDoReschedule@PLT
 279      FF
 280              	.LVL16:
 281              		.loc 1 99 24 view .LVU79
 282              		.loc 1 101 1 is_stmt 0 view .LVU80
 283 00e4 EBB8     		jmp	.L5
 284              	.L21:
 285 00e6 E8FCFFFF 		call	__stack_chk_fail_local
 285      FF
 286              	.LVL17:
 287              		.cfi_endproc
 288              	.LFE233:
 289              		.size	_sim_check_for_interrupts, .-_sim_check_for_interrupts
 290              		.section	.bss.nextcnt,"aw",@nobits
 291              		.align 4
 292              		.type	nextcnt, @object
 293              		.size	nextcnt, 8
 294              	nextcnt:
 295 0000 00000000 		.zero	8
 295      00000000 
 296              		.section	.text.__x86.get_pc_thunk.bx,"axG",@progbits,__x86.get_pc_thunk.bx,comdat
 297              		.globl	__x86.get_pc_thunk.bx
 298              		.hidden	__x86.get_pc_thunk.bx
GAS LISTING /tmp/ccEseu02.s 			page 7


 299              		.type	__x86.get_pc_thunk.bx, @function
 300              	__x86.get_pc_thunk.bx:
 301              	.LFB234:
 302              		.cfi_startproc
 303 0000 8B1C24   		movl	(%esp), %ebx
 304 0003 C3       		ret
 305              		.cfi_endproc
 306              	.LFE234:
 307              		.text
 308              	.Letext0:
 309              		.file 4 "/usr/lib/gcc/x86_64-linux-gnu/8/include/stddef.h"
 310              		.file 5 "/usr/include/i386-linux-gnu/bits/types.h"
 311              		.file 6 "/usr/include/i386-linux-gnu/bits/types/struct_FILE.h"
 312              		.file 7 "/usr/include/i386-linux-gnu/bits/types/FILE.h"
 313              		.file 8 "/usr/include/stdio.h"
 314              		.file 9 "/usr/include/i386-linux-gnu/bits/sys_errlist.h"
 315              		.file 10 "/usr/include/i386-linux-gnu/bits/stdint-intn.h"
 316              		.file 11 "/usr/include/i386-linux-gnu/bits/types/struct_timeval.h"
 317              		.file 12 "/usr/include/i386-linux-gnu/sys/time.h"
 318              		.file 13 "/usr/include/i386-linux-gnu/bits/stdint-uintn.h"
 319              		.file 14 "../../../os/common/ports/SIMIA32/compilers/GCC/chtypes.h"
 320              		.file 15 "../../../os/rt/include/chsystypes.h"
 321              		.file 16 "../../../os/rt/include/chschd.h"
 322              		.file 17 "../../../os/rt/include/chtime.h"
 323              		.file 18 "../../../os/rt/include/chtm.h"
 324              		.file 19 "../../../os/rt/include/chsem.h"
 325              		.file 20 "../../../os/rt/include/chmtx.h"
 326              		.file 21 "../../../os/rt/include/chregistry.h"
 327              		.file 22 "../../../os/rt/include/chevents.h"
 328              		.file 23 "../../../os/common/oslib/include/chmemcore.h"
 329              		.file 24 "../../../os/common/oslib/include/chmempools.h"
 330              		.file 25 "../../../os/common/oslib/include/chfactory.h"
 331              		.file 26 "/usr/include/netinet/in.h"
 332              		.file 27 "/usr/include/unistd.h"
 333              		.file 28 "/usr/include/i386-linux-gnu/bits/getopt_core.h"
 334              		.file 29 "../../../os/hal/include/hal_queues.h"
 335              		.file 30 "../../../os/hal/ports/simulator/hal_pal_lld.h"
 336              		.file 31 "../../../os/hal/include/hal_serial.h"
 337              		.file 32 "../../../os/hal/ports/simulator/posix/hal_serial_lld.h"
 4264              		.section	.note.GNU-stack,"",@progbits
GAS LISTING /tmp/ccEseu02.s 			page 87

