GAS LISTING /tmp/ccgX7BtH.s 			page 1


   1              		.file	"main.c"
   2              		.text
   3              	.Ltext0:
   4              		.section	.text.drawingThread,"ax",@progbits
   5              		.p2align 4,,15
   6              		.type	drawingThread, @function
   7              	drawingThread:
   8              	.LVL0:
   9              	.LFB249:
  10              		.file 1 "main.c"
  11              		.loc 1 100 41 view -0
  12              		.cfi_startproc
  13              		.loc 1 101 5 view .LVU1
  14              		.loc 1 103 5 view .LVU2
  15              		.loc 1 104 5 view .LVU3
  16              		.loc 1 105 5 view .LVU4
  17              		.loc 1 100 41 is_stmt 0 view .LVU5
  18 0000 57       		pushl	%edi
  19              		.cfi_def_cfa_offset 8
  20              		.cfi_offset 7, -8
  21 0001 56       		pushl	%esi
  22              		.cfi_def_cfa_offset 12
  23              		.cfi_offset 6, -12
  24 0002 53       		pushl	%ebx
  25              		.cfi_def_cfa_offset 16
  26              		.cfi_offset 3, -16
  27 0003 E8FCFFFF 		call	__x86.get_pc_thunk.bx
  27      FF
  28 0008 81C30200 		addl	$_GLOBAL_OFFSET_TABLE_, %ebx
  28      0000
  29              		.loc 1 105 11 view .LVU6
  30 000e E8FCFFFF 		call	dcInitDisplayX@PLT
  30      FF
  31              	.LVL1:
  32              		.loc 1 106 11 view .LVU7
  33 0013 83EC0C   		subl	$12, %esp
  34              		.cfi_def_cfa_offset 28
  35 0016 50       		pushl	%eax
  36              		.cfi_def_cfa_offset 32
  37              		.loc 1 105 11 view .LVU8
  38 0017 89C6     		movl	%eax, %esi
  39              	.LVL2:
  40              		.loc 1 106 5 is_stmt 1 view .LVU9
  41              		.loc 1 106 11 is_stmt 0 view .LVU10
  42 0019 E8FCFFFF 		call	cairo_create@PLT
  42      FF
  43              	.LVL3:
  44              		.loc 1 106 11 view .LVU11
  45 001e 83C410   		addl	$16, %esp
  46              		.cfi_def_cfa_offset 16
  47 0021 89C7     		movl	%eax, %edi
  48              	.LVL4:
  49              		.p2align 4,,10
  50 0023 8D742600 		.p2align 3
  50      90
  51              	.L2:
  52              		.loc 1 108 5 is_stmt 1 discriminator 1 view .LVU12
GAS LISTING /tmp/ccgX7BtH.s 			page 2


  53              		.loc 1 110 9 discriminator 1 view .LVU13
  54 0028 83EC08   		subl	$8, %esp
  55              		.cfi_def_cfa_offset 24
  56 002b 56       		pushl	%esi
  57              		.cfi_def_cfa_offset 28
  58 002c 57       		pushl	%edi
  59              		.cfi_def_cfa_offset 32
  60 002d E8FCFFFF 		call	dcDrawClocksX@PLT
  60      FF
  61              	.LVL5:
  62              		.loc 1 111 9 discriminator 1 view .LVU14
  63 0032 C7042464 		movl	$100, (%esp)
  63      000000
  64 0039 E8FCFFFF 		call	chThdSleep@PLT
  64      FF
  65              	.LVL6:
  66 003e 83C410   		addl	$16, %esp
  67              		.cfi_def_cfa_offset 16
  68 0041 EBE5     		jmp	.L2
  69              		.cfi_endproc
  70              	.LFE249:
  71              		.size	drawingThread, .-drawingThread
  72              		.section	.text.animationThread,"ax",@progbits
  73              		.p2align 4,,15
  74              		.type	animationThread, @function
  75              	animationThread:
  76              	.LVL7:
  77              	.LFB250:
  78              		.loc 1 116 43 view -0
  79              		.cfi_startproc
  80              		.loc 1 116 43 is_stmt 0 view .LVU16
  81 0000 57       		pushl	%edi
  82              		.cfi_def_cfa_offset 8
  83              		.cfi_offset 7, -8
  84 0001 56       		pushl	%esi
  85              		.cfi_def_cfa_offset 12
  86              		.cfi_offset 6, -12
  87 0002 53       		pushl	%ebx
  88              		.cfi_def_cfa_offset 16
  89              		.cfi_offset 3, -16
  90 0003 E8FCFFFF 		call	__x86.get_pc_thunk.bx
  90      FF
  91 0008 81C30200 		addl	$_GLOBAL_OFFSET_TABLE_, %ebx
  91      0000
  92 000e 8DBB0000 		leal	bSemaStepperGo@GOTOFF(%ebx), %edi
  92      0000
  93 0014 8DB30000 		leal	bSemaStepperDone@GOTOFF(%ebx), %esi
  93      0000
  94 001a 8DB60000 		.p2align 4,,10
  94      0000
  95              		.p2align 3
  96              	.L6:
  97              		.loc 1 117 5 is_stmt 1 discriminator 1 view .LVU17
  98              		.loc 1 119 5 discriminator 1 view .LVU18
  99              		.loc 1 129 9 discriminator 1 view .LVU19
 100 0020 83EC08   		subl	$8, %esp
 101              		.cfi_def_cfa_offset 24
GAS LISTING /tmp/ccgX7BtH.s 			page 3


 102 0023 57       		pushl	%edi
 103              		.cfi_def_cfa_offset 28
 104 0024 56       		pushl	%esi
 105              		.cfi_def_cfa_offset 32
 106 0025 E8FCFFFF 		call	aniSpiral@PLT
 106      FF
 107              	.LVL8:
 108 002a 83C410   		addl	$16, %esp
 109              		.cfi_def_cfa_offset 16
 110 002d EBF1     		jmp	.L6
 111              		.cfi_endproc
 112              	.LFE250:
 113              		.size	animationThread, .-animationThread
 114              		.section	.text.console_thread,"ax",@progbits
 115              		.p2align 4,,15
 116              		.type	console_thread, @function
 117              	console_thread:
 118              	.LVL9:
 119              	.LFB251:
 120              		.loc 1 146 42 view -0
 121              		.cfi_startproc
 122              		.loc 1 148 5 view .LVU21
 123              		.loc 1 149 5 view .LVU22
 124              	.LBB46:
 125              	.LBI46:
 126              		.file 2 "../../../os/rt/include/chthreads.h"
 127              		.loc 2 345 20 view .LVU23
 128              	.LBB47:
 129              		.loc 2 347 3 view .LVU24
 130              	.LBB48:
 131              	.LBI48:
 132              		.loc 2 272 25 view .LVU25
 133              	.LBB49:
 134              		.loc 2 274 3 view .LVU26
 135              	.LBE49:
 136              	.LBE48:
 137              	.LBE47:
 138              	.LBE46:
 139              		.loc 1 146 42 is_stmt 0 view .LVU27
 140 0000 55       		pushl	%ebp
 141              		.cfi_def_cfa_offset 8
 142              		.cfi_offset 5, -8
 143 0001 57       		pushl	%edi
 144              		.cfi_def_cfa_offset 12
 145              		.cfi_offset 7, -12
 146 0002 56       		pushl	%esi
 147              		.cfi_def_cfa_offset 16
 148              		.cfi_offset 6, -16
 149 0003 53       		pushl	%ebx
 150              		.cfi_def_cfa_offset 20
 151              		.cfi_offset 3, -20
 152 0004 E8FCFFFF 		call	__x86.get_pc_thunk.bx
 152      FF
 153 0009 81C30200 		addl	$_GLOBAL_OFFSET_TABLE_, %ebx
 153      0000
 154 000f 83EC0C   		subl	$12, %esp
 155              		.cfi_def_cfa_offset 32
GAS LISTING /tmp/ccgX7BtH.s 			page 4


 156              	.LBB56:
 157              	.LBB54:
 158              	.LBB52:
 159              	.LBB50:
 160              		.loc 2 274 18 view .LVU28
 161 0012 8BAB0000 		movl	ch@GOT(%ebx), %ebp
 161      0000
 162              	.LBE50:
 163              	.LBE52:
 164              		.loc 2 347 33 view .LVU29
 165 0018 8B4518   		movl	24(%ebp), %eax
 166              	.LBE54:
 167              	.LBE56:
 168              		.loc 1 149 11 view .LVU30
 169 001b F6402104 		testb	$4, 33(%eax)
 170 001f 753F     		jne	.L8
 171 0021 8BBB0000 		movl	stdout@GOT(%ebx), %edi
 171      0000
 172 0027 8DB42600 		.p2align 4,,10
 172      00000066 
 172      90
 173              		.p2align 3
 174              	.L10:
 175              	.LBB57:
 176              		.loc 1 150 9 is_stmt 1 view .LVU31
 177              		.loc 1 150 24 is_stmt 0 view .LVU32
 178 0030 E8FCFFFF 		call	chMsgWait@PLT
 178      FF
 179              	.LVL10:
 180              		.loc 1 151 9 view .LVU33
 181 0035 83EC0C   		subl	$12, %esp
 182              		.cfi_def_cfa_offset 44
 183 0038 FF7024   		pushl	36(%eax)
 184              		.cfi_def_cfa_offset 48
 185              		.loc 1 150 24 view .LVU34
 186 003b 89C6     		movl	%eax, %esi
 187              	.LVL11:
 188              		.loc 1 151 9 is_stmt 1 view .LVU35
 189              		.loc 1 151 9 is_stmt 0 view .LVU36
 190              	.LBE57:
 191              		.file 3 "../../../os/rt/include/chmsg.h"
 192              		.loc 3 98 3 is_stmt 1 view .LVU37
 193              		.loc 3 98 3 view .LVU38
 194              		.loc 3 100 3 view .LVU39
 195              	.LBB58:
 196              		.loc 1 151 9 is_stmt 0 view .LVU40
 197 003d E8FCFFFF 		call	puts@PLT
 197      FF
 198              	.LVL12:
 199              		.loc 1 152 9 is_stmt 1 view .LVU41
 200 0042 58       		popl	%eax
 201              		.cfi_def_cfa_offset 44
 202 0043 FF37     		pushl	(%edi)
 203              		.cfi_def_cfa_offset 48
 204 0045 E8FCFFFF 		call	fflush@PLT
 204      FF
 205              	.LVL13:
GAS LISTING /tmp/ccgX7BtH.s 			page 5


 206              		.loc 1 153 9 view .LVU42
 207 004a 5A       		popl	%edx
 208              		.cfi_def_cfa_offset 44
 209 004b 59       		popl	%ecx
 210              		.cfi_def_cfa_offset 40
 211 004c 6A00     		pushl	$0
 212              		.cfi_def_cfa_offset 44
 213 004e 56       		pushl	%esi
 214              		.cfi_def_cfa_offset 48
 215 004f E8FCFFFF 		call	chMsgRelease@PLT
 215      FF
 216              	.LVL14:
 217              	.LBE58:
 218              	.LBB59:
 219              		.loc 2 345 20 view .LVU43
 220              	.LBB55:
 221              		.loc 2 347 3 view .LVU44
 222              	.LBB53:
 223              		.loc 2 272 25 view .LVU45
 224              	.LBB51:
 225              		.loc 2 274 3 view .LVU46
 226              	.LBE51:
 227              	.LBE53:
 228              		.loc 2 347 33 is_stmt 0 view .LVU47
 229 0054 8B4518   		movl	24(%ebp), %eax
 230              	.LBE55:
 231              	.LBE59:
 232              		.loc 1 149 11 view .LVU48
 233 0057 83C410   		addl	$16, %esp
 234              		.cfi_def_cfa_offset 32
 235 005a F6402104 		testb	$4, 33(%eax)
 236 005e 74D0     		je	.L10
 237              	.LVL15:
 238              	.L8:
 239              		.loc 1 155 1 view .LVU49
 240 0060 83C40C   		addl	$12, %esp
 241              		.cfi_def_cfa_offset 20
 242 0063 5B       		popl	%ebx
 243              		.cfi_restore 3
 244              		.cfi_def_cfa_offset 16
 245 0064 5E       		popl	%esi
 246              		.cfi_restore 6
 247              		.cfi_def_cfa_offset 12
 248 0065 5F       		popl	%edi
 249              		.cfi_restore 7
 250              		.cfi_def_cfa_offset 8
 251 0066 5D       		popl	%ebp
 252              		.cfi_restore 5
 253              		.cfi_def_cfa_offset 4
 254 0067 C3       		ret
 255              		.cfi_endproc
 256              	.LFE251:
 257              		.size	console_thread, .-console_thread
 258              		.section	.rodata.Stepperthread.str1.1,"aMS",@progbits,1
 259              	.LC0:
 260 0000 73746570 		.string	"stepper"
 260      70657200 
GAS LISTING /tmp/ccgX7BtH.s 			page 6


 261              		.section	.text.Stepperthread,"ax",@progbits
 262              		.p2align 4,,15
 263              		.type	Stepperthread, @function
 264              	Stepperthread:
 265              	.LVL16:
 266              	.LFB247:
 267              		.loc 1 54 67 is_stmt 1 view -0
 268              		.cfi_startproc
 269              		.loc 1 55 5 view .LVU51
 270              		.loc 1 56 5 view .LVU52
 271              	.LBB75:
 272              	.LBI75:
 273              		.file 4 "../../../os/rt/include/chregistry.h"
 274              		.loc 4 133 20 view .LVU53
 275              	.LBB76:
 276              		.loc 4 136 3 view .LVU54
 277              	.LBE76:
 278              	.LBE75:
 279              		.loc 1 54 67 is_stmt 0 view .LVU55
 280 0000 55       		pushl	%ebp
 281              		.cfi_def_cfa_offset 8
 282              		.cfi_offset 5, -8
 283 0001 57       		pushl	%edi
 284              		.cfi_def_cfa_offset 12
 285              		.cfi_offset 7, -12
 286 0002 8D3D0000 		leal	bSemaStepperDone@GOTOFF, %edi
 286      0000
 287 0008 56       		pushl	%esi
 288              		.cfi_def_cfa_offset 16
 289              		.cfi_offset 6, -16
 290 0009 53       		pushl	%ebx
 291              		.cfi_def_cfa_offset 20
 292              		.cfi_offset 3, -20
 293 000a E8FCFFFF 		call	__x86.get_pc_thunk.bx
 293      FF
 294 000f 81C30200 		addl	$_GLOBAL_OFFSET_TABLE_, %ebx
 294      0000
 295 0015 83EC20   		subl	$32, %esp
 296              		.cfi_def_cfa_offset 52
 297              	.LBB78:
 298              	.LBB77:
 299              		.loc 4 136 11 view .LVU56
 300 0018 8B830000 		movl	ch@GOT(%ebx), %eax
 300      0000
 301              		.loc 4 136 26 view .LVU57
 302 001e 8D930000 		leal	.LC0@GOTOFF(%ebx), %edx
 302      0000
 303 0024 8DB30000 		leal	bSemaStepperGo@GOTOFF(%ebx), %esi
 303      0000
 304 002a 8B4018   		movl	24(%eax), %eax
 305 002d 895018   		movl	%edx, 24(%eax)
 306              	.LVL17:
 307              		.loc 4 136 26 view .LVU58
 308              	.LBE77:
 309              	.LBE78:
 310              		.loc 1 58 5 is_stmt 1 view .LVU59
 311 0030 6A00     		pushl	$0
GAS LISTING /tmp/ccgX7BtH.s 			page 7


 312              		.cfi_def_cfa_offset 56
 313 0032 6A00     		pushl	$0
 314              		.cfi_def_cfa_offset 60
 315 0034 68000048 		pushl	$0x43480000
 315      43
 316              		.cfi_def_cfa_offset 64
 317 0039 E8FCFFFF 		call	clAInit@PLT
 317      FF
 318              	.LVL18:
 319 003e 83C410   		addl	$16, %esp
 320              		.cfi_def_cfa_offset 48
 321 0041 8D830000 		leal	bSemaStepperDone@GOTOFF(%ebx), %eax
 321      0000
 322 0047 8BAB0000 		movl	port_irq_sts@GOT(%ebx), %ebp
 322      0000
 323 004d 8944240C 		movl	%eax, 12(%esp)
 324 0051 EB2A     		jmp	.L17
 325              	.LVL19:
 326              		.p2align 4,,10
 327 0053 8D742600 		.p2align 3
 327      90
 328              	.L16:
 329              	.LBB79:
 330              	.LBB80:
 331              		.file 5 "../../../os/common/oslib/include/chbsem.h"
 332              		.loc 5 286 3 view .LVU60
 333 0058 E8FCFFFF 		call	chSchRescheduleS@PLT
 333      FF
 334              	.LVL20:
 335              		.loc 5 287 3 view .LVU61
 336              	.LBB81:
 337              	.LBI81:
 338              		.file 6 "../../../os/rt/include/chsys.h"
 339              		.loc 6 365 20 view .LVU62
 340              	.LBB82:
 341              		.loc 6 367 22 view .LVU63
 342              		.loc 6 368 33 view .LVU64
 343              		.loc 6 374 3 view .LVU65
 344              		.loc 6 374 3 view .LVU66
 345              		.loc 6 378 3 view .LVU67
 346              	.LBB83:
 347              	.LBI83:
 348              		.file 7 "../../../os/common/ports/SIMIA32/chcore.h"
 349              		.loc 7 371 20 view .LVU68
 350              	.LBB84:
 351              		.loc 7 373 3 view .LVU69
 352              	.LBE84:
 353              	.LBE83:
 354              	.LBE82:
 355              	.LBE81:
 356              	.LBE80:
 357              	.LBE79:
 358              	.LBB104:
 359              	.LBB105:
 360              		.loc 5 143 10 is_stmt 0 view .LVU70
 361 005d 83EC0C   		subl	$12, %esp
 362              		.cfi_def_cfa_offset 60
GAS LISTING /tmp/ccgX7BtH.s 			page 8


 363              	.LBE105:
 364              	.LBE104:
 365              	.LBB107:
 366              	.LBB100:
 367              	.LBB88:
 368              	.LBB87:
 369              	.LBB86:
 370              	.LBB85:
 371              		.loc 7 373 16 view .LVU71
 372 0060 C7450000 		movl	$0, 0(%ebp)
 372      000000
 373              	.LVL21:
 374              		.loc 7 373 16 view .LVU72
 375              	.LBE85:
 376              	.LBE86:
 377              	.LBE87:
 378              	.LBE88:
 379              	.LBE100:
 380              	.LBE107:
 381              		.loc 1 67 13 is_stmt 1 view .LVU73
 382              	.LBB108:
 383              	.LBI104:
 384              		.loc 5 141 21 view .LVU74
 385              	.LBB106:
 386              		.loc 5 143 3 view .LVU75
 387              		.loc 5 143 10 is_stmt 0 view .LVU76
 388 0067 56       		pushl	%esi
 389              		.cfi_def_cfa_offset 64
 390 0068 E8FCFFFF 		call	chSemWait@PLT
 390      FF
 391              	.LVL22:
 392 006d 83C410   		addl	$16, %esp
 393              		.cfi_def_cfa_offset 48
 394              	.LVL23:
 395              	.L15:
 396              		.loc 5 143 10 view .LVU77
 397              	.LBE106:
 398              	.LBE108:
 399              		.loc 1 71 9 is_stmt 1 view .LVU78
 400 0070 83EC0C   		subl	$12, %esp
 401              		.cfi_def_cfa_offset 60
 402 0073 6A01     		pushl	$1
 403              		.cfi_def_cfa_offset 64
 404 0075 E8FCFFFF 		call	chThdSleep@PLT
 404      FF
 405              	.LVL24:
 406              		.loc 1 62 9 is_stmt 0 view .LVU79
 407 007a 83C410   		addl	$16, %esp
 408              		.cfi_def_cfa_offset 48
 409              	.L17:
 410              		.loc 1 61 5 is_stmt 1 view .LVU80
 411              		.loc 1 62 9 view .LVU81
 412 007d E8FCFFFF 		call	clARunToTargetAcceleration@PLT
 412      FF
 413              	.LVL25:
 414              		.loc 1 63 9 view .LVU82
 415              		.loc 1 63 13 is_stmt 0 view .LVU83
GAS LISTING /tmp/ccgX7BtH.s 			page 9


 416 0082 E8FCFFFF 		call	clATargetsReached@PLT
 416      FF
 417              	.LVL26:
 418              		.loc 1 63 12 view .LVU84
 419 0087 84C0     		testb	%al, %al
 420 0089 74E5     		je	.L15
 421              		.loc 1 66 13 is_stmt 1 view .LVU85
 422              	.LBB109:
 423              	.LBI79:
 424              		.loc 5 282 20 view .LVU86
 425              	.LVL27:
 426              	.LBB101:
 427              		.loc 5 284 3 view .LVU87
 428              	.LBB89:
 429              	.LBI89:
 430              		.loc 6 353 20 view .LVU88
 431              	.LBE89:
 432              	.LBE101:
 433              	.LBE109:
 434              		.loc 6 355 3 view .LVU89
 435              	.LBB110:
 436              	.LBB102:
 437              	.LBB94:
 438              	.LBB90:
 439              	.LBI90:
 440              		.loc 7 362 20 view .LVU90
 441              	.LBB91:
 442              		.loc 7 364 3 view .LVU91
 443              	.LBE91:
 444              	.LBE90:
 445              	.LBE94:
 446              	.LBB95:
 447              	.LBB96:
 448              		.loc 5 270 6 is_stmt 0 view .LVU92
 449 008b 8B441F08 		movl	8(%edi,%ebx), %eax
 450              	.LBE96:
 451              	.LBE95:
 452              	.LBB98:
 453              	.LBB93:
 454              	.LBB92:
 455              		.loc 7 364 16 view .LVU93
 456 008f C7450001 		movl	$1, 0(%ebp)
 456      000000
 457              	.LBE92:
 458              	.LBE93:
 459              	.LBE98:
 460              	.LBE102:
 461              	.LBE110:
 462              		.loc 6 356 34 is_stmt 1 view .LVU94
 463              		.loc 6 357 20 view .LVU95
 464              	.LBB111:
 465              	.LBB103:
 466              		.loc 5 285 3 view .LVU96
 467              	.LVL28:
 468              	.LBB99:
 469              	.LBI95:
 470              		.loc 5 266 20 view .LVU97
GAS LISTING /tmp/ccgX7BtH.s 			page 10


 471              	.LBB97:
 472              		.loc 5 268 21 view .LVU98
 473              		.loc 5 270 3 view .LVU99
 474              		.loc 5 270 6 is_stmt 0 view .LVU100
 475 0096 85C0     		testl	%eax, %eax
 476 0098 7FBE     		jg	.L16
 477              		.loc 5 271 5 is_stmt 1 view .LVU101
 478 009a 83EC0C   		subl	$12, %esp
 479              		.cfi_def_cfa_offset 60
 480 009d FF742418 		pushl	24(%esp)
 481              		.cfi_def_cfa_offset 64
 482 00a1 E8FCFFFF 		call	chSemSignalI@PLT
 482      FF
 483              	.LVL29:
 484 00a6 83C410   		addl	$16, %esp
 485              		.cfi_def_cfa_offset 48
 486 00a9 EBAD     		jmp	.L16
 487              	.LBE97:
 488              	.LBE99:
 489              	.LBE103:
 490              	.LBE111:
 491              		.cfi_endproc
 492              	.LFE247:
 493              		.size	Stepperthread, .-Stepperthread
 494              		.section	.rodata.main.str1.1,"aMS",@progbits,1
 495              	.LC2:
 496 0000 636F6E73 		.string	"console"
 496      6F6C6500 
 497              	.LC3:
 498 0008 64726177 		.string	"draw"
 498      00
 499              		.section	.text.startup.main,"ax",@progbits
 500              		.p2align 4,,15
 501              		.globl	main
 502              		.type	main, @function
 503              	main:
 504              	.LVL30:
 505              	.LFB252:
 506              		.loc 1 163 32 view -0
 507              		.cfi_startproc
 508              		.loc 1 167 5 view .LVU103
 509              		.loc 1 163 32 is_stmt 0 view .LVU104
 510 0000 8D4C2404 		leal	4(%esp), %ecx
 511              		.cfi_def_cfa 1, 0
 512 0004 83E4F0   		andl	$-16, %esp
 513 0007 FF71FC   		pushl	-4(%ecx)
 514 000a 55       		pushl	%ebp
 515              		.cfi_escape 0x10,0x5,0x2,0x75,0
 516 000b 89E5     		movl	%esp, %ebp
 517 000d 57       		pushl	%edi
 518 000e 56       		pushl	%esi
 519 000f 53       		pushl	%ebx
 520              		.cfi_escape 0x10,0x7,0x2,0x75,0x7c
 521              		.cfi_escape 0x10,0x6,0x2,0x75,0x78
 522              		.cfi_escape 0x10,0x3,0x2,0x75,0x74
 523 0010 E8FCFFFF 		call	__x86.get_pc_thunk.bx
 523      FF
GAS LISTING /tmp/ccgX7BtH.s 			page 11


 524 0015 81C30200 		addl	$_GLOBAL_OFFSET_TABLE_, %ebx
 524      0000
 525 001b 51       		pushl	%ecx
 526              		.cfi_escape 0xf,0x3,0x75,0x70,0x6
 527 001c 83EC08   		subl	$8, %esp
 528              		.loc 1 167 5 view .LVU105
 529 001f E8FCFFFF 		call	halInit@PLT
 529      FF
 530              	.LVL31:
 531              		.loc 1 168 5 is_stmt 1 view .LVU106
 532 0024 E8FCFFFF 		call	chSysInit@PLT
 532      FF
 533              	.LVL32:
 534              		.loc 1 169 5 view .LVU107
 535              	.LBB112:
 536              	.LBI112:
 537              		.loc 5 124 20 view .LVU108
 538              	.LBB113:
 539              		.loc 5 126 3 view .LVU109
 540 0029 83EC08   		subl	$8, %esp
 541 002c 8D830000 		leal	bSemaStepperDone@GOTOFF(%ebx), %eax
 541      0000
 542 0032 6A00     		pushl	$0
 543 0034 50       		pushl	%eax
 544 0035 E8FCFFFF 		call	chSemObjectInit@PLT
 544      FF
 545              	.LVL33:
 546              		.loc 5 126 3 is_stmt 0 view .LVU110
 547              	.LBE113:
 548              	.LBE112:
 549              		.loc 1 170 5 is_stmt 1 view .LVU111
 550              	.LBB114:
 551              	.LBI114:
 552              		.loc 5 124 20 view .LVU112
 553              	.LBB115:
 554              		.loc 5 126 3 view .LVU113
 555 003a 8D830000 		leal	bSemaStepperGo@GOTOFF(%ebx), %eax
 555      0000
 556 0040 5E       		popl	%esi
 557 0041 5F       		popl	%edi
 558 0042 6A00     		pushl	$0
 559 0044 50       		pushl	%eax
 560 0045 E8FCFFFF 		call	chSemObjectInit@PLT
 560      FF
 561              	.LVL34:
 562              		.loc 5 126 3 is_stmt 0 view .LVU114
 563              	.LBE115:
 564              	.LBE114:
 565              		.loc 1 174 5 is_stmt 1 view .LVU115
 566              		.loc 1 174 12 is_stmt 0 view .LVU116
 567 004a 58       		popl	%eax
 568 004b 8D830000 		leal	console_thread@GOTOFF(%ebx), %eax
 568      0000
 569 0051 5A       		popl	%edx
 570 0052 6A00     		pushl	$0
 571 0054 50       		pushl	%eax
 572 0055 8D830000 		leal	.LC2@GOTOFF(%ebx), %eax
GAS LISTING /tmp/ccgX7BtH.s 			page 12


 572      0000
 573 005b 6A7F     		pushl	$127
 574 005d 50       		pushl	%eax
 575 005e 68705000 		pushl	$20592
 575      00
 576 0063 6A00     		pushl	$0
 577 0065 E8FCFFFF 		call	chThdCreateFromHeap@PLT
 577      FF
 578              	.LVL35:
 579              		.loc 1 175 5 view .LVU117
 580 006a 83C414   		addl	$20, %esp
 581              		.loc 1 174 10 view .LVU118
 582 006d 89830000 		movl	%eax, cdtp@GOTOFF(%ebx)
 582      0000
 583              		.loc 1 175 5 is_stmt 1 view .LVU119
 584 0073 8D830000 		leal	animationThread@GOTOFF(%ebx), %eax
 584      0000
 585 0079 6A00     		pushl	$0
 586 007b 50       		pushl	%eax
 587 007c 8D830000 		leal	waThreadAnimation@GOTOFF(%ebx), %eax
 587      0000
 588 0082 68800000 		pushl	$128
 588      00
 589 0087 68705000 		pushl	$20592
 589      00
 590 008c 50       		pushl	%eax
 591 008d E8FCFFFF 		call	chThdCreateStatic@PLT
 591      FF
 592              	.LVL36:
 593              		.loc 1 177 5 view .LVU120
 594 0092 83C414   		addl	$20, %esp
 595 0095 8D830000 		leal	Stepperthread@GOTOFF(%ebx), %eax
 595      0000
 596 009b 6A00     		pushl	$0
 597 009d 50       		pushl	%eax
 598 009e 8D830000 		leal	waThreadStepper@GOTOFF(%ebx), %eax
 598      0000
 599 00a4 68820000 		pushl	$130
 599      00
 600 00a9 68705000 		pushl	$20592
 600      00
 601 00ae 50       		pushl	%eax
 602 00af E8FCFFFF 		call	chThdCreateStatic@PLT
 602      FF
 603              	.LVL37:
 604              		.loc 1 180 5 view .LVU121
 605 00b4 83C418   		addl	$24, %esp
 606 00b7 8D830000 		leal	drawingThread@GOTOFF(%ebx), %eax
 606      0000
 607 00bd 6A00     		pushl	$0
 608 00bf 50       		pushl	%eax
 609 00c0 8D830000 		leal	.LC3@GOTOFF(%ebx), %eax
 609      0000
 610 00c6 68810000 		pushl	$129
 610      00
 611 00cb 50       		pushl	%eax
 612 00cc 68705000 		pushl	$20592
GAS LISTING /tmp/ccgX7BtH.s 			page 13


 612      00
 613 00d1 6A00     		pushl	$0
 614 00d3 E8FCFFFF 		call	chThdCreateFromHeap@PLT
 614      FF
 615              	.LVL38:
 616              		.loc 1 188 5 view .LVU122
 617              	.LBB116:
 618              	.LBI116:
 619              		.loc 2 345 20 view .LVU123
 620              	.LBB117:
 621              		.loc 2 347 3 view .LVU124
 622              	.LBB118:
 623              	.LBI118:
 624              		.loc 2 272 25 view .LVU125
 625              	.LBB119:
 626              		.loc 2 274 3 view .LVU126
 627              		.loc 2 274 18 is_stmt 0 view .LVU127
 628 00d8 8BBB0000 		movl	ch@GOT(%ebx), %edi
 628      0000
 629              	.LBE119:
 630              	.LBE118:
 631              	.LBE117:
 632              	.LBE116:
 633              		.loc 1 188 11 view .LVU128
 634 00de 83C420   		addl	$32, %esp
 635              	.LBB124:
 636              	.LBB122:
 637              		.loc 2 347 33 view .LVU129
 638 00e1 8B4718   		movl	24(%edi), %eax
 639              	.LBE122:
 640              	.LBE124:
 641              		.loc 1 188 11 view .LVU130
 642 00e4 F6402104 		testb	$4, 33(%eax)
 643 00e8 7525     		jne	.L23
 644 00ea 8DB30000 		leal	fhandlers@GOTOFF(%ebx), %esi
 644      0000
 645              	.LVL39:
 646              		.p2align 4,,10
 647              		.p2align 3
 648              	.L24:
 649              		.loc 1 189 9 is_stmt 1 view .LVU131
 650 00f0 83EC0C   		subl	$12, %esp
 651 00f3 6AFF     		pushl	$-1
 652 00f5 E8FCFFFF 		call	chEvtWaitOne@PLT
 652      FF
 653              	.LVL40:
 654 00fa 5A       		popl	%edx
 655 00fb 59       		popl	%ecx
 656 00fc 50       		pushl	%eax
 657 00fd 56       		pushl	%esi
 658 00fe E8FCFFFF 		call	chEvtDispatch@PLT
 658      FF
 659              	.LVL41:
 660              	.LBB125:
 661              		.loc 2 345 20 view .LVU132
 662              	.LBB123:
 663              		.loc 2 347 3 view .LVU133
GAS LISTING /tmp/ccgX7BtH.s 			page 14


 664              	.LBB121:
 665              		.loc 2 272 25 view .LVU134
 666              	.LBB120:
 667              		.loc 2 274 3 view .LVU135
 668              	.LBE120:
 669              	.LBE121:
 670              		.loc 2 347 33 is_stmt 0 view .LVU136
 671 0103 8B4718   		movl	24(%edi), %eax
 672              	.LBE123:
 673              	.LBE125:
 674              		.loc 1 188 11 view .LVU137
 675 0106 83C410   		addl	$16, %esp
 676 0109 F6402104 		testb	$4, 33(%eax)
 677 010d 74E1     		je	.L24
 678              	.L23:
 679              		.loc 1 190 5 is_stmt 1 view .LVU138
 680              		.loc 1 191 1 is_stmt 0 view .LVU139
 681 010f 8D65F0   		leal	-16(%ebp), %esp
 682 0112 31C0     		xorl	%eax, %eax
 683 0114 59       		popl	%ecx
 684              		.cfi_restore 1
 685              		.cfi_def_cfa 1, 0
 686 0115 5B       		popl	%ebx
 687              		.cfi_restore 3
 688 0116 5E       		popl	%esi
 689              		.cfi_restore 6
 690 0117 5F       		popl	%edi
 691              		.cfi_restore 7
 692 0118 5D       		popl	%ebp
 693              		.cfi_restore 5
 694 0119 8D61FC   		leal	-4(%ecx), %esp
 695              		.cfi_def_cfa 4, 4
 696 011c C3       		ret
 697              		.cfi_endproc
 698              	.LFE252:
 699              		.size	main, .-main
 700              		.section	.bss.fhandlers,"aw",@nobits
 701              		.align 4
 702              		.type	fhandlers, @object
 703              		.size	fhandlers, 0
 704              	fhandlers:
 705              		.globl	bSemaStepperGo
 706              		.section	.bss.bSemaStepperGo,"aw",@nobits
 707              		.align 4
 708              		.type	bSemaStepperGo, @object
 709              		.size	bSemaStepperGo, 12
 710              	bSemaStepperGo:
 711 0000 00000000 		.zero	12
 711      00000000 
 711      00000000 
 712              		.globl	bSemaStepperDone
 713              		.section	.bss.bSemaStepperDone,"aw",@nobits
 714              		.align 4
 715              		.type	bSemaStepperDone, @object
 716              		.size	bSemaStepperDone, 12
 717              	bSemaStepperDone:
 718 0000 00000000 		.zero	12
GAS LISTING /tmp/ccgX7BtH.s 			page 15


 718      00000000 
 718      00000000 
 719              		.section	.bss.waThreadAnimation,"aw",@nobits
 720              		.align 32
 721              		.type	waThreadAnimation, @object
 722              		.size	waThreadAnimation, 20592
 723              	waThreadAnimation:
 724 0000 00000000 		.zero	20592
 724      00000000 
 724      00000000 
 724      00000000 
 724      00000000 
 725              		.section	.bss.waThreadStepper,"aw",@nobits
 726              		.align 32
 727              		.type	waThreadStepper, @object
 728              		.size	waThreadStepper, 20592
 729              	waThreadStepper:
 730 0000 00000000 		.zero	20592
 730      00000000 
 730      00000000 
 730      00000000 
 730      00000000 
 731              		.globl	cdtp
 732              		.section	.bss.cdtp,"aw",@nobits
 733              		.align 4
 734              		.type	cdtp, @object
 735              		.size	cdtp, 4
 736              	cdtp:
 737 0000 00000000 		.zero	4
 738              		.section	.text.__x86.get_pc_thunk.bx,"axG",@progbits,__x86.get_pc_thunk.bx,comdat
 739              		.globl	__x86.get_pc_thunk.bx
 740              		.hidden	__x86.get_pc_thunk.bx
 741              		.type	__x86.get_pc_thunk.bx, @function
 742              	__x86.get_pc_thunk.bx:
 743              	.LFB255:
 744              		.cfi_startproc
 745 0000 8B1C24   		movl	(%esp), %ebx
 746 0003 C3       		ret
 747              		.cfi_endproc
 748              	.LFE255:
 749              		.text
 750              	.Letext0:
 751              		.file 8 "/usr/lib/gcc/x86_64-linux-gnu/8/include/stddef.h"
 752              		.file 9 "/usr/include/i386-linux-gnu/bits/types.h"
 753              		.file 10 "/usr/include/i386-linux-gnu/bits/stdint-intn.h"
 754              		.file 11 "/usr/include/i386-linux-gnu/bits/stdint-uintn.h"
 755              		.file 12 "../../../os/common/ports/SIMIA32/compilers/GCC/chtypes.h"
 756              		.file 13 "../../../os/rt/include/chsystypes.h"
 757              		.file 14 "../../../os/rt/include/chschd.h"
 758              		.file 15 "../../../os/rt/include/chtime.h"
 759              		.file 16 "../../../os/rt/include/chtm.h"
 760              		.file 17 "../../../os/rt/include/chsem.h"
 761              		.file 18 "../../../os/rt/include/chmtx.h"
 762              		.file 19 "../../../os/rt/include/chevents.h"
 763              		.file 20 "../../../os/common/oslib/include/chmemcore.h"
 764              		.file 21 "../../../os/common/oslib/include/chmempools.h"
 765              		.file 22 "../../../os/common/oslib/include/chfactory.h"
GAS LISTING /tmp/ccgX7BtH.s 			page 16


 766              		.file 23 "/usr/include/netinet/in.h"
 767              		.file 24 "/usr/include/unistd.h"
 768              		.file 25 "/usr/include/i386-linux-gnu/bits/getopt_core.h"
 769              		.file 26 "/usr/include/i386-linux-gnu/bits/types/struct_FILE.h"
 770              		.file 27 "/usr/include/i386-linux-gnu/bits/types/FILE.h"
 771              		.file 28 "/usr/include/stdio.h"
 772              		.file 29 "/usr/include/i386-linux-gnu/bits/sys_errlist.h"
 773              		.file 30 "../../../os/hal/include/hal_queues.h"
 774              		.file 31 "../../../os/hal/ports/simulator/hal_pal_lld.h"
 775              		.file 32 "../../../os/hal/include/hal_serial.h"
 776              		.file 33 "../../../os/hal/ports/simulator/posix/hal_serial_lld.h"
 777              		.file 34 "../../../os/various/shell/shell.h"
 778              		.file 35 "/usr/include/time.h"
 779              		.file 36 "/usr/include/i386-linux-gnu/sys/time.h"
 780              		.file 37 "/usr/include/math.h"
 781              		.file 38 "accelStepper.h"
 782              		.file 39 "clock.h"
 783              		.file 40 "/usr/include/GL/freeglut_std.h"
 784              		.file 41 "/usr/include/X11/Xlib.h"
 785              		.file 42 "/usr/include/cairo/cairo.h"
 786              		.file 43 "../../../os/hal/include/hal.h"
 787              		.file 44 "../../../os/rt/include/chdynamic.h"
 788              		.file 45 "animations.h"
 789              		.file 46 "drawClockX11.h"
 6321              		.section	.note.GNU-stack,"",@progbits
GAS LISTING /tmp/ccgX7BtH.s 			page 127

