GAS LISTING /tmp/ccJ7cV0m.s 			page 1


   1              		.file	"memstreams.c"
   2              		.text
   3              	.Ltext0:
   4              		.section	.text._put,"ax",@progbits
   5              		.p2align 4,,15
   6              		.type	_put, @function
   7              	_put:
   8              	.LVL0:
   9              	.LFB235:
  10              		.file 1 "../../../os/hal/lib/streams/memstreams.c"
  11              		.loc 1 66 40 view -0
  12              		.cfi_startproc
  13              		.loc 1 67 3 view .LVU1
  14              		.loc 1 66 40 is_stmt 0 view .LVU2
  15 0000 53       		pushl	%ebx
  16              		.cfi_def_cfa_offset 8
  17              		.cfi_offset 3, -8
  18              		.loc 1 66 40 view .LVU3
  19 0001 8B442408 		movl	8(%esp), %eax
  20              	.LVL1:
  21              		.loc 1 69 3 is_stmt 1 view .LVU4
  22              		.loc 1 66 40 is_stmt 0 view .LVU5
  23 0005 8B4C240C 		movl	12(%esp), %ecx
  24              		.loc 1 69 22 view .LVU6
  25 0009 8B500C   		movl	12(%eax), %edx
  26              		.loc 1 69 6 view .LVU7
  27 000c 395008   		cmpl	%edx, 8(%eax)
  28 000f 740E     		je	.L3
  29              		.loc 1 71 3 is_stmt 1 view .LVU8
  30              		.loc 1 71 29 is_stmt 0 view .LVU9
  31 0011 8B5804   		movl	4(%eax), %ebx
  32 0014 880C13   		movb	%cl, (%ebx,%edx)
  33              		.loc 1 72 3 is_stmt 1 view .LVU10
  34              		.loc 1 72 12 is_stmt 0 view .LVU11
  35 0017 83400C01 		addl	$1, 12(%eax)
  36              		.loc 1 73 3 is_stmt 1 view .LVU12
  37              		.loc 1 73 10 is_stmt 0 view .LVU13
  38 001b 31C0     		xorl	%eax, %eax
  39              		.loc 1 74 1 view .LVU14
  40 001d 5B       		popl	%ebx
  41              		.cfi_remember_state
  42              		.cfi_restore 3
  43              		.cfi_def_cfa_offset 4
  44 001e C3       		ret
  45              	.LVL2:
  46              	.L3:
  47              		.cfi_restore_state
  48              		.loc 1 70 12 view .LVU15
  49 001f B8FEFFFF 		movl	$-2, %eax
  49      FF
  50              	.LVL3:
  51              		.loc 1 74 1 view .LVU16
  52 0024 5B       		popl	%ebx
  53              		.cfi_restore 3
  54              		.cfi_def_cfa_offset 4
  55 0025 C3       		ret
  56              		.cfi_endproc
GAS LISTING /tmp/ccJ7cV0m.s 			page 2


  57              	.LFE235:
  58              		.size	_put, .-_put
  59              		.section	.text._get,"ax",@progbits
  60              		.p2align 4,,15
  61              		.type	_get, @function
  62              	_get:
  63              	.LVL4:
  64              	.LFB236:
  65              		.loc 1 76 29 is_stmt 1 view -0
  66              		.cfi_startproc
  67              		.loc 1 77 3 view .LVU18
  68              		.loc 1 78 3 view .LVU19
  69              		.loc 1 76 29 is_stmt 0 view .LVU20
  70 0000 8B4C2404 		movl	4(%esp), %ecx
  71              	.LVL5:
  72              		.loc 1 80 3 is_stmt 1 view .LVU21
  73              		.loc 1 80 21 is_stmt 0 view .LVU22
  74 0004 8B5110   		movl	16(%ecx), %edx
  75              		.loc 1 80 6 view .LVU23
  76 0007 39510C   		cmpl	%edx, 12(%ecx)
  77 000a 740E     		je	.L8
  78              		.loc 1 82 3 is_stmt 1 view .LVU24
  79              		.loc 1 82 5 is_stmt 0 view .LVU25
  80 000c 8B4104   		movl	4(%ecx), %eax
  81 000f 0FB60410 		movzbl	(%eax,%edx), %eax
  82              	.LVL6:
  83              		.loc 1 83 3 is_stmt 1 view .LVU26
  84              		.loc 1 83 15 is_stmt 0 view .LVU27
  85 0013 83C201   		addl	$1, %edx
  86 0016 895110   		movl	%edx, 16(%ecx)
  87              		.loc 1 84 3 is_stmt 1 view .LVU28
  88              		.loc 1 84 10 is_stmt 0 view .LVU29
  89 0019 C3       		ret
  90              	.LVL7:
  91              	.L8:
  92              		.loc 1 81 12 view .LVU30
  93 001a B8FEFFFF 		movl	$-2, %eax
  93      FF
  94              		.loc 1 85 1 view .LVU31
  95 001f C3       		ret
  96              		.cfi_endproc
  97              	.LFE236:
  98              		.size	_get, .-_get
  99              		.section	.text._writes,"ax",@progbits
 100              		.p2align 4,,15
 101              		.type	_writes, @function
 102              	_writes:
 103              	.LVL8:
 104              	.LFB233:
 105              		.loc 1 46 62 is_stmt 1 view -0
 106              		.cfi_startproc
 107              		.loc 1 47 3 view .LVU33
 108              		.loc 1 46 62 is_stmt 0 view .LVU34
 109 0000 57       		pushl	%edi
 110              		.cfi_def_cfa_offset 8
 111              		.cfi_offset 7, -8
 112 0001 56       		pushl	%esi
GAS LISTING /tmp/ccJ7cV0m.s 			page 3


 113              		.cfi_def_cfa_offset 12
 114              		.cfi_offset 6, -12
 115 0002 53       		pushl	%ebx
 116              		.cfi_def_cfa_offset 16
 117              		.cfi_offset 3, -16
 118              		.loc 1 46 62 view .LVU35
 119 0003 8B7C2410 		movl	16(%esp), %edi
 120              	.LVL9:
 121              		.loc 1 49 3 is_stmt 1 view .LVU36
 122 0007 E8FCFFFF 		call	__x86.get_pc_thunk.bx
 122      FF
 123 000c 81C30200 		addl	$_GLOBAL_OFFSET_TABLE_, %ebx
 123      0000
 124              		.loc 1 46 62 is_stmt 0 view .LVU37
 125 0012 8B542418 		movl	24(%esp), %edx
 126              		.loc 1 49 22 view .LVU38
 127 0016 8B470C   		movl	12(%edi), %eax
 128              		.loc 1 49 17 view .LVU39
 129 0019 8B7708   		movl	8(%edi), %esi
 130 001c 29C6     		subl	%eax, %esi
 131 001e 39D6     		cmpl	%edx, %esi
 132 0020 0F47F2   		cmova	%edx, %esi
 133              	.LVL10:
 134              		.loc 1 51 3 is_stmt 1 view .LVU40
 135              	.LBB6:
 136              	.LBI6:
 137              		.file 2 "/usr/include/i386-linux-gnu/bits/string_fortified.h"
 138              		.loc 2 31 1 view .LVU41
 139              	.LBB7:
 140              		.loc 2 34 3 view .LVU42
 141              	.LBE7:
 142              	.LBE6:
 143              		.loc 1 51 22 is_stmt 0 view .LVU43
 144 0023 034704   		addl	4(%edi), %eax
 145              	.LVL11:
 146              	.LBB9:
 147              	.LBB8:
 148              		.loc 2 34 10 view .LVU44
 149 0026 83EC04   		subl	$4, %esp
 150              		.cfi_def_cfa_offset 20
 151 0029 56       		pushl	%esi
 152              		.cfi_def_cfa_offset 24
 153 002a FF74241C 		pushl	28(%esp)
 154              		.cfi_def_cfa_offset 28
 155 002e 50       		pushl	%eax
 156              		.cfi_def_cfa_offset 32
 157 002f E8FCFFFF 		call	memcpy@PLT
 157      FF
 158              	.LVL12:
 159              		.loc 2 34 10 view .LVU45
 160              	.LBE8:
 161              	.LBE9:
 162              		.loc 1 52 3 is_stmt 1 view .LVU46
 163              		.loc 1 53 10 is_stmt 0 view .LVU47
 164 0034 83C410   		addl	$16, %esp
 165              		.cfi_def_cfa_offset 16
 166              		.loc 1 52 12 view .LVU48
GAS LISTING /tmp/ccJ7cV0m.s 			page 4


 167 0037 01770C   		addl	%esi, 12(%edi)
 168              		.loc 1 53 3 is_stmt 1 view .LVU49
 169              		.loc 1 54 1 is_stmt 0 view .LVU50
 170 003a 89F0     		movl	%esi, %eax
 171 003c 5B       		popl	%ebx
 172              		.cfi_restore 3
 173              		.cfi_def_cfa_offset 12
 174 003d 5E       		popl	%esi
 175              		.cfi_restore 6
 176              		.cfi_def_cfa_offset 8
 177              	.LVL13:
 178              		.loc 1 54 1 view .LVU51
 179 003e 5F       		popl	%edi
 180              		.cfi_restore 7
 181              		.cfi_def_cfa_offset 4
 182 003f C3       		ret
 183              		.cfi_endproc
 184              	.LFE233:
 185              		.size	_writes, .-_writes
 186              		.section	.text._reads,"ax",@progbits
 187              		.p2align 4,,15
 188              		.type	_reads, @function
 189              	_reads:
 190              	.LVL14:
 191              	.LFB234:
 192              		.loc 1 56 55 is_stmt 1 view -0
 193              		.cfi_startproc
 194              		.loc 1 57 3 view .LVU53
 195              		.loc 1 56 55 is_stmt 0 view .LVU54
 196 0000 57       		pushl	%edi
 197              		.cfi_def_cfa_offset 8
 198              		.cfi_offset 7, -8
 199 0001 56       		pushl	%esi
 200              		.cfi_def_cfa_offset 12
 201              		.cfi_offset 6, -12
 202 0002 53       		pushl	%ebx
 203              		.cfi_def_cfa_offset 16
 204              		.cfi_offset 3, -16
 205              		.loc 1 56 55 view .LVU55
 206 0003 8B7C2410 		movl	16(%esp), %edi
 207              	.LVL15:
 208              		.loc 1 59 3 is_stmt 1 view .LVU56
 209 0007 E8FCFFFF 		call	__x86.get_pc_thunk.bx
 209      FF
 210 000c 81C30200 		addl	$_GLOBAL_OFFSET_TABLE_, %ebx
 210      0000
 211              		.loc 1 56 55 is_stmt 0 view .LVU57
 212 0012 8B542418 		movl	24(%esp), %edx
 213              		.loc 1 59 21 view .LVU58
 214 0016 8B4710   		movl	16(%edi), %eax
 215              		.loc 1 59 16 view .LVU59
 216 0019 8B770C   		movl	12(%edi), %esi
 217 001c 29C6     		subl	%eax, %esi
 218 001e 39D6     		cmpl	%edx, %esi
 219 0020 0F47F2   		cmova	%edx, %esi
 220              	.LVL16:
 221              		.loc 1 61 3 is_stmt 1 view .LVU60
GAS LISTING /tmp/ccJ7cV0m.s 			page 5


 222              	.LBB10:
 223              	.LBI10:
 224              		.loc 2 31 1 view .LVU61
 225              	.LBB11:
 226              		.loc 2 34 3 view .LVU62
 227              	.LBE11:
 228              	.LBE10:
 229              		.loc 1 61 26 is_stmt 0 view .LVU63
 230 0023 034704   		addl	4(%edi), %eax
 231              	.LVL17:
 232              	.LBB13:
 233              	.LBB12:
 234              		.loc 2 34 10 view .LVU64
 235 0026 83EC04   		subl	$4, %esp
 236              		.cfi_def_cfa_offset 20
 237 0029 56       		pushl	%esi
 238              		.cfi_def_cfa_offset 24
 239 002a 50       		pushl	%eax
 240              		.cfi_def_cfa_offset 28
 241 002b FF742420 		pushl	32(%esp)
 242              		.cfi_def_cfa_offset 32
 243 002f E8FCFFFF 		call	memcpy@PLT
 243      FF
 244              	.LVL18:
 245              		.loc 2 34 10 view .LVU65
 246              	.LBE12:
 247              	.LBE13:
 248              		.loc 1 62 3 is_stmt 1 view .LVU66
 249              		.loc 1 63 10 is_stmt 0 view .LVU67
 250 0034 83C410   		addl	$16, %esp
 251              		.cfi_def_cfa_offset 16
 252              		.loc 1 62 15 view .LVU68
 253 0037 017710   		addl	%esi, 16(%edi)
 254              		.loc 1 63 3 is_stmt 1 view .LVU69
 255              		.loc 1 64 1 is_stmt 0 view .LVU70
 256 003a 89F0     		movl	%esi, %eax
 257 003c 5B       		popl	%ebx
 258              		.cfi_restore 3
 259              		.cfi_def_cfa_offset 12
 260 003d 5E       		popl	%esi
 261              		.cfi_restore 6
 262              		.cfi_def_cfa_offset 8
 263              	.LVL19:
 264              		.loc 1 64 1 view .LVU71
 265 003e 5F       		popl	%edi
 266              		.cfi_restore 7
 267              		.cfi_def_cfa_offset 4
 268 003f C3       		ret
 269              		.cfi_endproc
 270              	.LFE234:
 271              		.size	_reads, .-_reads
 272              		.section	.text.msObjectInit,"ax",@progbits
 273              		.p2align 4,,15
 274              		.globl	msObjectInit
 275              		.type	msObjectInit, @function
 276              	msObjectInit:
 277              	.LVL20:
GAS LISTING /tmp/ccJ7cV0m.s 			page 6


 278              	.LFB237:
 279              		.loc 1 104 44 is_stmt 1 view -0
 280              		.cfi_startproc
 281              		.loc 1 106 3 view .LVU73
 282 0000 E8FCFFFF 		call	__x86.get_pc_thunk.dx
 282      FF
 283 0005 81C20200 		addl	$_GLOBAL_OFFSET_TABLE_, %edx
 283      0000
 284              		.loc 1 104 44 is_stmt 0 view .LVU74
 285 000b 8B442404 		movl	4(%esp), %eax
 286              		.loc 1 110 15 view .LVU75
 287 000f C7401000 		movl	$0, 16(%eax)
 287      000000
 288              		.loc 1 106 15 view .LVU76
 289 0016 8D920000 		leal	vmt@GOTOFF(%edx), %edx
 289      0000
 290 001c 8910     		movl	%edx, (%eax)
 291              		.loc 1 107 3 is_stmt 1 view .LVU77
 292              		.loc 1 107 15 is_stmt 0 view .LVU78
 293 001e 8B542408 		movl	8(%esp), %edx
 294 0022 895004   		movl	%edx, 4(%eax)
 295              		.loc 1 108 3 is_stmt 1 view .LVU79
 296              		.loc 1 108 15 is_stmt 0 view .LVU80
 297 0025 8B54240C 		movl	12(%esp), %edx
 298 0029 895008   		movl	%edx, 8(%eax)
 299              		.loc 1 109 3 is_stmt 1 view .LVU81
 300              		.loc 1 109 15 is_stmt 0 view .LVU82
 301 002c 8B542410 		movl	16(%esp), %edx
 302 0030 89500C   		movl	%edx, 12(%eax)
 303              		.loc 1 110 3 is_stmt 1 view .LVU83
 304              		.loc 1 111 1 is_stmt 0 view .LVU84
 305 0033 C3       		ret
 306              		.cfi_endproc
 307              	.LFE237:
 308              		.size	msObjectInit, .-msObjectInit
 309              		.section	.data.rel.ro.local.vmt,"aw"
 310              		.align 4
 311              		.type	vmt, @object
 312              		.size	vmt, 20
 313              	vmt:
 314 0000 00000000 		.long	0
 315 0004 00000000 		.long	_writes
 316 0008 00000000 		.long	_reads
 317 000c 00000000 		.long	_put
 318 0010 00000000 		.long	_get
 319              		.section	.text.__x86.get_pc_thunk.dx,"axG",@progbits,__x86.get_pc_thunk.dx,comdat
 320              		.globl	__x86.get_pc_thunk.dx
 321              		.hidden	__x86.get_pc_thunk.dx
 322              		.type	__x86.get_pc_thunk.dx, @function
 323              	__x86.get_pc_thunk.dx:
 324              	.LFB238:
 325              		.cfi_startproc
 326 0000 8B1424   		movl	(%esp), %edx
 327 0003 C3       		ret
 328              		.cfi_endproc
 329              	.LFE238:
 330              		.section	.text.__x86.get_pc_thunk.bx,"axG",@progbits,__x86.get_pc_thunk.bx,comdat
GAS LISTING /tmp/ccJ7cV0m.s 			page 7


 331              		.globl	__x86.get_pc_thunk.bx
 332              		.hidden	__x86.get_pc_thunk.bx
 333              		.type	__x86.get_pc_thunk.bx, @function
 334              	__x86.get_pc_thunk.bx:
 335              	.LFB239:
 336              		.cfi_startproc
 337 0000 8B1C24   		movl	(%esp), %ebx
 338 0003 C3       		ret
 339              		.cfi_endproc
 340              	.LFE239:
 341              		.text
 342              	.Letext0:
 343              		.file 3 "/usr/lib/gcc/x86_64-linux-gnu/8/include/stddef.h"
 344              		.file 4 "/usr/include/i386-linux-gnu/bits/types.h"
 345              		.file 5 "/usr/include/i386-linux-gnu/bits/stdint-intn.h"
 346              		.file 6 "/usr/include/i386-linux-gnu/bits/stdint-uintn.h"
 347              		.file 7 "../../../os/common/ports/SIMIA32/compilers/GCC/chtypes.h"
 348              		.file 8 "../../../os/rt/include/chsystypes.h"
 349              		.file 9 "../../../os/rt/include/chschd.h"
 350              		.file 10 "../../../os/rt/include/chtime.h"
 351              		.file 11 "../../../os/common/ports/SIMIA32/chcore.h"
 352              		.file 12 "../../../os/rt/include/chtm.h"
 353              		.file 13 "../../../os/rt/include/chsem.h"
 354              		.file 14 "../../../os/rt/include/chmtx.h"
 355              		.file 15 "../../../os/rt/include/chsys.h"
 356              		.file 16 "../../../os/rt/include/chregistry.h"
 357              		.file 17 "../../../os/rt/include/chevents.h"
 358              		.file 18 "../../../os/common/oslib/include/chmemcore.h"
 359              		.file 19 "../../../os/common/oslib/include/chmempools.h"
 360              		.file 20 "../../../os/common/oslib/include/chfactory.h"
 361              		.file 21 "/usr/include/netinet/in.h"
 362              		.file 22 "/usr/include/unistd.h"
 363              		.file 23 "/usr/include/i386-linux-gnu/bits/getopt_core.h"
 364              		.file 24 "/usr/include/i386-linux-gnu/bits/types/struct_FILE.h"
 365              		.file 25 "/usr/include/i386-linux-gnu/bits/types/FILE.h"
 366              		.file 26 "/usr/include/stdio.h"
 367              		.file 27 "/usr/include/i386-linux-gnu/bits/sys_errlist.h"
 368              		.file 28 "../../../os/hal/include/hal_queues.h"
 369              		.file 29 "../../../os/hal/ports/simulator/hal_pal_lld.h"
 370              		.file 30 "../../../os/hal/include/hal_serial.h"
 371              		.file 31 "../../../os/hal/ports/simulator/posix/hal_serial_lld.h"
 372              		.file 32 "../../../os/hal/lib/streams/memstreams.h"
 373              		.file 33 "<built-in>"
 374              		.section	.debug_info,"",@progbits
 375              	.Ldebug_info0:
 376 0000 EB140000 		.long	0x14eb
 377 0004 0400     		.value	0x4
 378 0006 00000000 		.long	.Ldebug_abbrev0
 379 000a 04       		.byte	0x4
 380 000b 01       		.uleb128 0x1
 381 000c AB050000 		.long	.LASF253
 382 0010 0C       		.byte	0xc
 383 0011 52030000 		.long	.LASF254
 384 0015 48080000 		.long	.LASF255
 385 0019 30000000 		.long	.Ldebug_ranges0+0x30
 386 001d 00000000 		.long	0
 387 0021 00000000 		.long	.Ldebug_line0
GAS LISTING /tmp/ccJ7cV0m.s 			page 8


 388 0025 02       		.uleb128 0x2
 389 0026 15000000 		.long	.LASF10
 390 002a 03       		.byte	0x3
 391 002b D8       		.byte	0xd8
 392 002c 17       		.byte	0x17
 393 002d 36000000 		.long	0x36
 394 0031 03       		.uleb128 0x3
 395 0032 25000000 		.long	0x25
 396 0036 04       		.uleb128 0x4
 397 0037 04       		.byte	0x4
 398 0038 07       		.byte	0x7
 399 0039 5E060000 		.long	.LASF0
 400 003d 04       		.uleb128 0x4
 401 003e 02       		.byte	0x2
 402 003f 07       		.byte	0x7
 403 0040 700A0000 		.long	.LASF1
 404 0044 05       		.uleb128 0x5
 405 0045 04       		.byte	0x4
 406 0046 05       		.byte	0x5
 407 0047 696E7400 		.string	"int"
 408 004b 06       		.uleb128 0x6
 409 004c 04       		.byte	0x4
 410 004d 62000000 		.long	0x62
 411 0051 03       		.uleb128 0x3
 412 0052 4B000000 		.long	0x4b
 413 0056 07       		.uleb128 0x7
 414 0057 4B000000 		.long	0x4b
 415 005b 04       		.uleb128 0x4
 416 005c 01       		.byte	0x1
 417 005d 06       		.byte	0x6
 418 005e C8020000 		.long	.LASF2
 419 0062 07       		.uleb128 0x7
 420 0063 5B000000 		.long	0x5b
 421 0067 04       		.uleb128 0x4
 422 0068 04       		.byte	0x4
 423 0069 05       		.byte	0x5
 424 006a 93010000 		.long	.LASF3
 425 006e 04       		.uleb128 0x4
 426 006f 08       		.byte	0x8
 427 0070 05       		.byte	0x5
 428 0071 4D050000 		.long	.LASF4
 429 0075 04       		.uleb128 0x4
 430 0076 0C       		.byte	0xc
 431 0077 04       		.byte	0x4
 432 0078 E0060000 		.long	.LASF5
 433 007c 04       		.uleb128 0x4
 434 007d 10       		.byte	0x10
 435 007e 04       		.byte	0x4
 436 007f 360A0000 		.long	.LASF6
 437 0083 04       		.uleb128 0x4
 438 0084 01       		.byte	0x1
 439 0085 08       		.byte	0x8
 440 0086 73020000 		.long	.LASF7
 441 008a 04       		.uleb128 0x4
 442 008b 04       		.byte	0x4
 443 008c 07       		.byte	0x7
 444 008d 28040000 		.long	.LASF8
GAS LISTING /tmp/ccJ7cV0m.s 			page 9


 445 0091 04       		.uleb128 0x4
 446 0092 01       		.byte	0x1
 447 0093 06       		.byte	0x6
 448 0094 2F020000 		.long	.LASF9
 449 0098 02       		.uleb128 0x2
 450 0099 54010000 		.long	.LASF11
 451 009d 04       		.byte	0x4
 452 009e 26       		.byte	0x26
 453 009f 17       		.byte	0x17
 454 00a0 83000000 		.long	0x83
 455 00a4 04       		.uleb128 0x4
 456 00a5 02       		.byte	0x2
 457 00a6 05       		.byte	0x5
 458 00a7 0E090000 		.long	.LASF12
 459 00ab 02       		.uleb128 0x2
 460 00ac E1020000 		.long	.LASF13
 461 00b0 04       		.byte	0x4
 462 00b1 28       		.byte	0x28
 463 00b2 1C       		.byte	0x1c
 464 00b3 3D000000 		.long	0x3d
 465 00b7 02       		.uleb128 0x2
 466 00b8 CD0A0000 		.long	.LASF14
 467 00bc 04       		.byte	0x4
 468 00bd 29       		.byte	0x29
 469 00be 14       		.byte	0x14
 470 00bf 44000000 		.long	0x44
 471 00c3 02       		.uleb128 0x2
 472 00c4 2F050000 		.long	.LASF15
 473 00c8 04       		.byte	0x4
 474 00c9 2A       		.byte	0x2a
 475 00ca 16       		.byte	0x16
 476 00cb 36000000 		.long	0x36
 477 00cf 04       		.uleb128 0x4
 478 00d0 08       		.byte	0x8
 479 00d1 07       		.byte	0x7
 480 00d2 61070000 		.long	.LASF16
 481 00d6 02       		.uleb128 0x2
 482 00d7 B0040000 		.long	.LASF17
 483 00db 04       		.byte	0x4
 484 00dc 42       		.byte	0x42
 485 00dd 25       		.byte	0x25
 486 00de 6E000000 		.long	0x6e
 487 00e2 02       		.uleb128 0x2
 488 00e3 81070000 		.long	.LASF18
 489 00e7 04       		.byte	0x4
 490 00e8 98       		.byte	0x98
 491 00e9 19       		.byte	0x19
 492 00ea 67000000 		.long	0x67
 493 00ee 02       		.uleb128 0x2
 494 00ef 91080000 		.long	.LASF19
 495 00f3 04       		.byte	0x4
 496 00f4 99       		.byte	0x99
 497 00f5 1B       		.byte	0x1b
 498 00f6 D6000000 		.long	0xd6
 499 00fa 08       		.uleb128 0x8
 500 00fb 04       		.byte	0x4
 501 00fc 09       		.uleb128 0x9
GAS LISTING /tmp/ccJ7cV0m.s 			page 10


 502 00fd FA000000 		.long	0xfa
 503 0101 06       		.uleb128 0x6
 504 0102 04       		.byte	0x4
 505 0103 5B000000 		.long	0x5b
 506 0107 02       		.uleb128 0x2
 507 0108 75000000 		.long	.LASF20
 508 010c 05       		.byte	0x5
 509 010d 1A       		.byte	0x1a
 510 010e 13       		.byte	0x13
 511 010f B7000000 		.long	0xb7
 512 0113 02       		.uleb128 0x2
 513 0114 42020000 		.long	.LASF21
 514 0118 06       		.byte	0x6
 515 0119 18       		.byte	0x18
 516 011a 13       		.byte	0x13
 517 011b 98000000 		.long	0x98
 518 011f 07       		.uleb128 0x7
 519 0120 13010000 		.long	0x113
 520 0124 02       		.uleb128 0x2
 521 0125 78070000 		.long	.LASF22
 522 0129 06       		.byte	0x6
 523 012a 19       		.byte	0x19
 524 012b 14       		.byte	0x14
 525 012c AB000000 		.long	0xab
 526 0130 02       		.uleb128 0x2
 527 0131 070A0000 		.long	.LASF23
 528 0135 06       		.byte	0x6
 529 0136 1A       		.byte	0x1a
 530 0137 14       		.byte	0x14
 531 0138 C3000000 		.long	0xc3
 532 013c 02       		.uleb128 0x2
 533 013d 6B060000 		.long	.LASF24
 534 0141 07       		.byte	0x7
 535 0142 45       		.byte	0x45
 536 0143 1D       		.byte	0x1d
 537 0144 30010000 		.long	0x130
 538 0148 02       		.uleb128 0x2
 539 0149 A0020000 		.long	.LASF25
 540 014d 07       		.byte	0x7
 541 014e 47       		.byte	0x47
 542 014f 1D       		.byte	0x1d
 543 0150 30010000 		.long	0x130
 544 0154 02       		.uleb128 0x2
 545 0155 AB080000 		.long	.LASF26
 546 0159 07       		.byte	0x7
 547 015a 48       		.byte	0x48
 548 015b 1D       		.byte	0x1d
 549 015c 13010000 		.long	0x113
 550 0160 02       		.uleb128 0x2
 551 0161 BD010000 		.long	.LASF27
 552 0165 07       		.byte	0x7
 553 0166 49       		.byte	0x49
 554 0167 1D       		.byte	0x1d
 555 0168 13010000 		.long	0x113
 556 016c 02       		.uleb128 0x2
 557 016d BA090000 		.long	.LASF28
 558 0171 07       		.byte	0x7
GAS LISTING /tmp/ccJ7cV0m.s 			page 11


 559 0172 4A       		.byte	0x4a
 560 0173 1D       		.byte	0x1d
 561 0174 13010000 		.long	0x113
 562 0178 02       		.uleb128 0x2
 563 0179 4F000000 		.long	.LASF29
 564 017d 07       		.byte	0x7
 565 017e 4C       		.byte	0x4c
 566 017f 1D       		.byte	0x1d
 567 0180 30010000 		.long	0x130
 568 0184 02       		.uleb128 0x2
 569 0185 92070000 		.long	.LASF30
 570 0189 07       		.byte	0x7
 571 018a 4D       		.byte	0x4d
 572 018b 1D       		.byte	0x1d
 573 018c 07010000 		.long	0x107
 574 0190 02       		.uleb128 0x2
 575 0191 61020000 		.long	.LASF31
 576 0195 07       		.byte	0x7
 577 0196 4F       		.byte	0x4f
 578 0197 1D       		.byte	0x1d
 579 0198 30010000 		.long	0x130
 580 019c 02       		.uleb128 0x2
 581 019d A9070000 		.long	.LASF32
 582 01a1 07       		.byte	0x7
 583 01a2 50       		.byte	0x50
 584 01a3 1D       		.byte	0x1d
 585 01a4 30010000 		.long	0x130
 586 01a8 02       		.uleb128 0x2
 587 01a9 BE030000 		.long	.LASF33
 588 01ad 07       		.byte	0x7
 589 01ae 51       		.byte	0x51
 590 01af 1D       		.byte	0x1d
 591 01b0 07010000 		.long	0x107
 592 01b4 02       		.uleb128 0x2
 593 01b5 FF040000 		.long	.LASF34
 594 01b9 07       		.byte	0x7
 595 01ba 52       		.byte	0x52
 596 01bb 1D       		.byte	0x1d
 597 01bc 30010000 		.long	0x130
 598 01c0 02       		.uleb128 0x2
 599 01c1 D7060000 		.long	.LASF35
 600 01c5 08       		.byte	0x8
 601 01c6 34       		.byte	0x34
 602 01c7 1A       		.byte	0x1a
 603 01c8 CC010000 		.long	0x1cc
 604 01cc 0A       		.uleb128 0xa
 605 01cd 67040000 		.long	.LASF53
 606 01d1 44       		.byte	0x44
 607 01d2 09       		.byte	0x9
 608 01d3 8E       		.byte	0x8e
 609 01d4 08       		.byte	0x8
 610 01d5 BC020000 		.long	0x2bc
 611 01d9 0B       		.uleb128 0xb
 612 01da CE070000 		.long	.LASF36
 613 01de 09       		.byte	0x9
 614 01df 8F       		.byte	0x8f
 615 01e0 19       		.byte	0x19
GAS LISTING /tmp/ccJ7cV0m.s 			page 12


 616 01e1 F5020000 		.long	0x2f5
 617 01e5 00       		.byte	0
 618 01e6 0B       		.uleb128 0xb
 619 01e7 31010000 		.long	.LASF37
 620 01eb 09       		.byte	0x9
 621 01ec 90       		.byte	0x90
 622 01ed 19       		.byte	0x19
 623 01ee 78010000 		.long	0x178
 624 01f2 08       		.byte	0x8
 625 01f3 0C       		.uleb128 0xc
 626 01f4 63747800 		.string	"ctx"
 627 01f8 09       		.byte	0x9
 628 01f9 91       		.byte	0x91
 629 01fa 19       		.byte	0x19
 630 01fb 9C050000 		.long	0x59c
 631 01ff 0C       		.byte	0xc
 632 0200 0B       		.uleb128 0xb
 633 0201 F5090000 		.long	.LASF38
 634 0205 09       		.byte	0x9
 635 0206 93       		.byte	0x93
 636 0207 1A       		.byte	0x1a
 637 0208 C8020000 		.long	0x2c8
 638 020c 10       		.byte	0x10
 639 020d 0B       		.uleb128 0xb
 640 020e E0040000 		.long	.LASF39
 641 0212 09       		.byte	0x9
 642 0213 94       		.byte	0x94
 643 0214 1A       		.byte	0x1a
 644 0215 C8020000 		.long	0x2c8
 645 0219 14       		.byte	0x14
 646 021a 0B       		.uleb128 0xb
 647 021b EB080000 		.long	.LASF40
 648 021f 09       		.byte	0x9
 649 0220 9B       		.byte	0x9b
 650 0221 1A       		.byte	0x1a
 651 0222 4B000000 		.long	0x4b
 652 0226 18       		.byte	0x18
 653 0227 0B       		.uleb128 0xb
 654 0228 26080000 		.long	.LASF41
 655 022c 09       		.byte	0x9
 656 022d A4       		.byte	0xa4
 657 022e 1A       		.byte	0x1a
 658 022f DA060000 		.long	0x6da
 659 0233 1C       		.byte	0x1c
 660 0234 0B       		.uleb128 0xb
 661 0235 F1000000 		.long	.LASF42
 662 0239 09       		.byte	0x9
 663 023a A9       		.byte	0xa9
 664 023b 19       		.byte	0x19
 665 023c 60010000 		.long	0x160
 666 0240 20       		.byte	0x20
 667 0241 0B       		.uleb128 0xb
 668 0242 1F030000 		.long	.LASF43
 669 0246 09       		.byte	0x9
 670 0247 AD       		.byte	0xad
 671 0248 19       		.byte	0x19
 672 0249 54010000 		.long	0x154
GAS LISTING /tmp/ccJ7cV0m.s 			page 13


 673 024d 21       		.byte	0x21
 674 024e 0B       		.uleb128 0xb
 675 024f C9070000 		.long	.LASF44
 676 0253 09       		.byte	0x9
 677 0254 B2       		.byte	0xb2
 678 0255 19       		.byte	0x19
 679 0256 6C010000 		.long	0x16c
 680 025a 22       		.byte	0x22
 681 025b 0D       		.uleb128 0xd
 682 025c 7500     		.string	"u"
 683 025e 09       		.byte	0x9
 684 025f 0301     		.value	0x103
 685 0261 19       		.byte	0x19
 686 0262 00060000 		.long	0x600
 687 0266 24       		.byte	0x24
 688 0267 0E       		.uleb128 0xe
 689 0268 9C090000 		.long	.LASF45
 690 026c 09       		.byte	0x9
 691 026d 0801     		.value	0x108
 692 026f 19       		.byte	0x19
 693 0270 CE020000 		.long	0x2ce
 694 0274 28       		.byte	0x28
 695 0275 0E       		.uleb128 0xe
 696 0276 33090000 		.long	.LASF46
 697 027a 09       		.byte	0x9
 698 027b 0E01     		.value	0x10e
 699 027d 19       		.byte	0x19
 700 027e F5020000 		.long	0x2f5
 701 0282 2C       		.byte	0x2c
 702 0283 0E       		.uleb128 0xe
 703 0284 C6010000 		.long	.LASF47
 704 0288 09       		.byte	0x9
 705 0289 1401     		.value	0x114
 706 028b 19       		.byte	0x19
 707 028c 90010000 		.long	0x190
 708 0290 34       		.byte	0x34
 709 0291 0E       		.uleb128 0xe
 710 0292 45050000 		.long	.LASF48
 711 0296 09       		.byte	0x9
 712 0297 1B01     		.value	0x11b
 713 0299 1A       		.byte	0x1a
 714 029a D4060000 		.long	0x6d4
 715 029e 38       		.byte	0x38
 716 029f 0E       		.uleb128 0xe
 717 02a0 F6040000 		.long	.LASF49
 718 02a4 09       		.byte	0x9
 719 02a5 1F01     		.value	0x11f
 720 02a7 19       		.byte	0x19
 721 02a8 78010000 		.long	0x178
 722 02ac 3C       		.byte	0x3c
 723 02ad 0E       		.uleb128 0xe
 724 02ae 43030000 		.long	.LASF50
 725 02b2 09       		.byte	0x9
 726 02b3 2601     		.value	0x126
 727 02b5 1A       		.byte	0x1a
 728 02b6 FA000000 		.long	0xfa
 729 02ba 40       		.byte	0x40
GAS LISTING /tmp/ccJ7cV0m.s 			page 14


 730 02bb 00       		.byte	0
 731 02bc 02       		.uleb128 0x2
 732 02bd F3060000 		.long	.LASF51
 733 02c1 08       		.byte	0x8
 734 02c2 39       		.byte	0x39
 735 02c3 14       		.byte	0x14
 736 02c4 C8020000 		.long	0x2c8
 737 02c8 06       		.uleb128 0x6
 738 02c9 04       		.byte	0x4
 739 02ca C0010000 		.long	0x1c0
 740 02ce 02       		.uleb128 0x2
 741 02cf DC090000 		.long	.LASF52
 742 02d3 08       		.byte	0x8
 743 02d4 3E       		.byte	0x3e
 744 02d5 20       		.byte	0x20
 745 02d6 DA020000 		.long	0x2da
 746 02da 0A       		.uleb128 0xa
 747 02db 1F050000 		.long	.LASF54
 748 02df 04       		.byte	0x4
 749 02e0 09       		.byte	0x9
 750 02e1 7C       		.byte	0x7c
 751 02e2 08       		.byte	0x8
 752 02e3 F5020000 		.long	0x2f5
 753 02e7 0B       		.uleb128 0xb
 754 02e8 0D0B0000 		.long	.LASF55
 755 02ec 09       		.byte	0x9
 756 02ed 7D       		.byte	0x7d
 757 02ee 1A       		.byte	0x1a
 758 02ef C8020000 		.long	0x2c8
 759 02f3 00       		.byte	0
 760 02f4 00       		.byte	0
 761 02f5 02       		.uleb128 0x2
 762 02f6 CF010000 		.long	.LASF56
 763 02fa 08       		.byte	0x8
 764 02fb 45       		.byte	0x45
 765 02fc 21       		.byte	0x21
 766 02fd 01030000 		.long	0x301
 767 0301 0A       		.uleb128 0xa
 768 0302 98070000 		.long	.LASF57
 769 0306 08       		.byte	0x8
 770 0307 09       		.byte	0x9
 771 0308 83       		.byte	0x83
 772 0309 08       		.byte	0x8
 773 030a 29030000 		.long	0x329
 774 030e 0B       		.uleb128 0xb
 775 030f 0D0B0000 		.long	.LASF55
 776 0313 09       		.byte	0x9
 777 0314 84       		.byte	0x84
 778 0315 1A       		.byte	0x1a
 779 0316 C8020000 		.long	0x2c8
 780 031a 00       		.byte	0
 781 031b 0B       		.uleb128 0xb
 782 031c 120B0000 		.long	.LASF58
 783 0320 09       		.byte	0x9
 784 0321 85       		.byte	0x85
 785 0322 1A       		.byte	0x1a
 786 0323 C8020000 		.long	0x2c8
GAS LISTING /tmp/ccJ7cV0m.s 			page 15


 787 0327 04       		.byte	0x4
 788 0328 00       		.byte	0
 789 0329 02       		.uleb128 0x2
 790 032a D3040000 		.long	.LASF59
 791 032e 08       		.byte	0x8
 792 032f 4C       		.byte	0x4c
 793 0330 1E       		.byte	0x1e
 794 0331 35030000 		.long	0x335
 795 0335 0F       		.uleb128 0xf
 796 0336 E8030000 		.long	.LASF60
 797 033a 1C       		.byte	0x1c
 798 033b 09       		.byte	0x9
 799 033c 5E01     		.value	0x15e
 800 033e 08       		.byte	0x8
 801 033f 98030000 		.long	0x398
 802 0343 0E       		.uleb128 0xe
 803 0344 CE070000 		.long	.LASF36
 804 0348 09       		.byte	0x9
 805 0349 5F01     		.value	0x15f
 806 034b 19       		.byte	0x19
 807 034c F5020000 		.long	0x2f5
 808 0350 00       		.byte	0
 809 0351 0E       		.uleb128 0xe
 810 0352 31010000 		.long	.LASF37
 811 0356 09       		.byte	0x9
 812 0357 6001     		.value	0x160
 813 0359 19       		.byte	0x19
 814 035a 78010000 		.long	0x178
 815 035e 08       		.byte	0x8
 816 035f 0D       		.uleb128 0xd
 817 0360 63747800 		.string	"ctx"
 818 0364 09       		.byte	0x9
 819 0365 6201     		.value	0x162
 820 0367 19       		.byte	0x19
 821 0368 9C050000 		.long	0x59c
 822 036c 0C       		.byte	0xc
 823 036d 0E       		.uleb128 0xe
 824 036e F5090000 		.long	.LASF38
 825 0372 09       		.byte	0x9
 826 0373 6501     		.value	0x165
 827 0375 1A       		.byte	0x1a
 828 0376 C8020000 		.long	0x2c8
 829 037a 10       		.byte	0x10
 830 037b 0E       		.uleb128 0xe
 831 037c E0040000 		.long	.LASF39
 832 0380 09       		.byte	0x9
 833 0381 6601     		.value	0x166
 834 0383 1A       		.byte	0x1a
 835 0384 C8020000 		.long	0x2c8
 836 0388 14       		.byte	0x14
 837 0389 0E       		.uleb128 0xe
 838 038a 86060000 		.long	.LASF61
 839 038e 09       		.byte	0x9
 840 038f 6901     		.value	0x169
 841 0391 1A       		.byte	0x1a
 842 0392 C8020000 		.long	0x2c8
 843 0396 18       		.byte	0x18
GAS LISTING /tmp/ccJ7cV0m.s 			page 16


 844 0397 00       		.byte	0
 845 0398 02       		.uleb128 0x2
 846 0399 84000000 		.long	.LASF62
 847 039d 08       		.byte	0x8
 848 039e 51       		.byte	0x51
 849 039f 10       		.byte	0x10
 850 03a0 A4030000 		.long	0x3a4
 851 03a4 06       		.uleb128 0x6
 852 03a5 04       		.byte	0x4
 853 03a6 AA030000 		.long	0x3aa
 854 03aa 10       		.uleb128 0x10
 855 03ab B5030000 		.long	0x3b5
 856 03af 11       		.uleb128 0x11
 857 03b0 FA000000 		.long	0xfa
 858 03b4 00       		.byte	0
 859 03b5 02       		.uleb128 0x2
 860 03b6 C3040000 		.long	.LASF63
 861 03ba 08       		.byte	0x8
 862 03bb 56       		.byte	0x56
 863 03bc 21       		.byte	0x21
 864 03bd C1030000 		.long	0x3c1
 865 03c1 0F       		.uleb128 0xf
 866 03c2 44070000 		.long	.LASF64
 867 03c6 14       		.byte	0x14
 868 03c7 09       		.byte	0x9
 869 03c8 3901     		.value	0x139
 870 03ca 08       		.byte	0x8
 871 03cb 16040000 		.long	0x416
 872 03cf 0E       		.uleb128 0xe
 873 03d0 0D0B0000 		.long	.LASF55
 874 03d4 09       		.byte	0x9
 875 03d5 3A01     		.value	0x13a
 876 03d7 1A       		.byte	0x1a
 877 03d8 E0060000 		.long	0x6e0
 878 03dc 00       		.byte	0
 879 03dd 0E       		.uleb128 0xe
 880 03de 120B0000 		.long	.LASF58
 881 03e2 09       		.byte	0x9
 882 03e3 3B01     		.value	0x13b
 883 03e5 1A       		.byte	0x1a
 884 03e6 E0060000 		.long	0x6e0
 885 03ea 04       		.byte	0x4
 886 03eb 0E       		.uleb128 0xe
 887 03ec B6070000 		.long	.LASF65
 888 03f0 09       		.byte	0x9
 889 03f1 3C01     		.value	0x13c
 890 03f3 19       		.byte	0x19
 891 03f4 03050000 		.long	0x503
 892 03f8 08       		.byte	0x8
 893 03f9 0E       		.uleb128 0xe
 894 03fa 25090000 		.long	.LASF66
 895 03fe 09       		.byte	0x9
 896 03ff 3D01     		.value	0x13d
 897 0401 19       		.byte	0x19
 898 0402 98030000 		.long	0x398
 899 0406 0C       		.byte	0xc
 900 0407 0D       		.uleb128 0xd
GAS LISTING /tmp/ccJ7cV0m.s 			page 17


 901 0408 70617200 		.string	"par"
 902 040c 09       		.byte	0x9
 903 040d 3F01     		.value	0x13f
 904 040f 1A       		.byte	0x1a
 905 0410 FA000000 		.long	0xfa
 906 0414 10       		.byte	0x10
 907 0415 00       		.byte	0
 908 0416 02       		.uleb128 0x2
 909 0417 7F040000 		.long	.LASF67
 910 041b 08       		.byte	0x8
 911 041c 5B       		.byte	0x5b
 912 041d 28       		.byte	0x28
 913 041e 22040000 		.long	0x422
 914 0422 0F       		.uleb128 0xf
 915 0423 AB000000 		.long	.LASF68
 916 0427 10       		.byte	0x10
 917 0428 09       		.byte	0x9
 918 0429 4901     		.value	0x149
 919 042b 08       		.byte	0x8
 920 042c 69040000 		.long	0x469
 921 0430 0E       		.uleb128 0xe
 922 0431 0D0B0000 		.long	.LASF55
 923 0435 09       		.byte	0x9
 924 0436 4A01     		.value	0x14a
 925 0438 1A       		.byte	0x1a
 926 0439 E0060000 		.long	0x6e0
 927 043d 00       		.byte	0
 928 043e 0E       		.uleb128 0xe
 929 043f 120B0000 		.long	.LASF58
 930 0443 09       		.byte	0x9
 931 0444 4C01     		.value	0x14c
 932 0446 1A       		.byte	0x1a
 933 0447 E0060000 		.long	0x6e0
 934 044b 04       		.byte	0x4
 935 044c 0E       		.uleb128 0xe
 936 044d B6070000 		.long	.LASF65
 937 0451 09       		.byte	0x9
 938 0452 4E01     		.value	0x14e
 939 0454 19       		.byte	0x19
 940 0455 03050000 		.long	0x503
 941 0459 08       		.byte	0x8
 942 045a 0E       		.uleb128 0xe
 943 045b 64010000 		.long	.LASF69
 944 045f 09       		.byte	0x9
 945 0460 5001     		.value	0x150
 946 0462 19       		.byte	0x19
 947 0463 FE040000 		.long	0x4fe
 948 0467 0C       		.byte	0xc
 949 0468 00       		.byte	0
 950 0469 02       		.uleb128 0x2
 951 046a A9020000 		.long	.LASF70
 952 046e 08       		.byte	0x8
 953 046f 60       		.byte	0x60
 954 0470 20       		.byte	0x20
 955 0471 75040000 		.long	0x475
 956 0475 0F       		.uleb128 0xf
 957 0476 52090000 		.long	.LASF71
GAS LISTING /tmp/ccJ7cV0m.s 			page 18


 958 047a 04       		.byte	0x4
 959 047b 09       		.byte	0x9
 960 047c 7001     		.value	0x170
 961 047e 08       		.byte	0x8
 962 047f 92040000 		.long	0x492
 963 0483 0E       		.uleb128 0xe
 964 0484 96020000 		.long	.LASF72
 965 0488 09       		.byte	0x9
 966 0489 7801     		.value	0x178
 967 048b 24       		.byte	0x24
 968 048c 51000000 		.long	0x51
 969 0490 00       		.byte	0
 970 0491 00       		.byte	0
 971 0492 02       		.uleb128 0x2
 972 0493 910A0000 		.long	.LASF73
 973 0497 08       		.byte	0x8
 974 0498 65       		.byte	0x65
 975 0499 1A       		.byte	0x1a
 976 049a 9E040000 		.long	0x49e
 977 049e 0F       		.uleb128 0xf
 978 049f EB090000 		.long	.LASF74
 979 04a3 78       		.byte	0x78
 980 04a4 09       		.byte	0x9
 981 04a5 9001     		.value	0x190
 982 04a7 08       		.byte	0x8
 983 04a8 F2040000 		.long	0x4f2
 984 04ac 0E       		.uleb128 0xe
 985 04ad A5080000 		.long	.LASF75
 986 04b1 09       		.byte	0x9
 987 04b2 9401     		.value	0x194
 988 04b4 19       		.byte	0x19
 989 04b5 29030000 		.long	0x329
 990 04b9 00       		.byte	0
 991 04ba 0E       		.uleb128 0xe
 992 04bb 95090000 		.long	.LASF76
 993 04bf 09       		.byte	0x9
 994 04c0 9801     		.value	0x198
 995 04c2 19       		.byte	0x19
 996 04c3 16040000 		.long	0x416
 997 04c7 1C       		.byte	0x1c
 998 04c8 0D       		.uleb128 0xd
 999 04c9 64626700 		.string	"dbg"
 1000 04cd 09       		.byte	0x9
 1001 04ce 9C01     		.value	0x19c
 1002 04d0 19       		.byte	0x19
 1003 04d1 69040000 		.long	0x469
 1004 04d5 2C       		.byte	0x2c
 1005 04d6 0E       		.uleb128 0xe
 1006 04d7 F9070000 		.long	.LASF77
 1007 04db 09       		.byte	0x9
 1008 04dc A001     		.value	0x1a0
 1009 04de 19       		.byte	0x19
 1010 04df C0010000 		.long	0x1c0
 1011 04e3 30       		.byte	0x30
 1012 04e4 0D       		.uleb128 0xd
 1013 04e5 746D00   		.string	"tm"
 1014 04e8 09       		.byte	0x9
GAS LISTING /tmp/ccJ7cV0m.s 			page 19


 1015 04e9 A501     		.value	0x1a5
 1016 04eb 19       		.byte	0x19
 1017 04ec F4050000 		.long	0x5f4
 1018 04f0 74       		.byte	0x74
 1019 04f1 00       		.byte	0
 1020 04f2 02       		.uleb128 0x2
 1021 04f3 33000000 		.long	.LASF78
 1022 04f7 0A       		.byte	0xa
 1023 04f8 8E       		.byte	0x8e
 1024 04f9 12       		.byte	0x12
 1025 04fa 24010000 		.long	0x124
 1026 04fe 03       		.uleb128 0x3
 1027 04ff F2040000 		.long	0x4f2
 1028 0503 02       		.uleb128 0x2
 1029 0504 5B050000 		.long	.LASF79
 1030 0508 0A       		.byte	0xa
 1031 0509 98       		.byte	0x98
 1032 050a 12       		.byte	0x12
 1033 050b 30010000 		.long	0x130
 1034 050f 12       		.uleb128 0x12
 1035 0510 10       		.byte	0x10
 1036 0511 0B       		.byte	0xb
 1037 0512 91       		.byte	0x91
 1038 0513 09       		.byte	0x9
 1039 0514 24050000 		.long	0x524
 1040 0518 0C       		.uleb128 0xc
 1041 0519 6100     		.string	"a"
 1042 051b 0B       		.byte	0xb
 1043 051c 92       		.byte	0x92
 1044 051d 0B       		.byte	0xb
 1045 051e 24050000 		.long	0x524
 1046 0522 00       		.byte	0
 1047 0523 00       		.byte	0
 1048 0524 13       		.uleb128 0x13
 1049 0525 13010000 		.long	0x113
 1050 0529 34050000 		.long	0x534
 1051 052d 14       		.uleb128 0x14
 1052 052e 36000000 		.long	0x36
 1053 0532 0F       		.byte	0xf
 1054 0533 00       		.byte	0
 1055 0534 15       		.uleb128 0x15
 1056 0535 32030000 		.long	.LASF256
 1057 0539 0B       		.byte	0xb
 1058 053a 93       		.byte	0x93
 1059 053b 03       		.byte	0x3
 1060 053c 0F050000 		.long	0x50f
 1061 0540 10       		.byte	0x10
 1062 0541 02       		.uleb128 0x2
 1063 0542 8A0A0000 		.long	.LASF80
 1064 0546 0B       		.byte	0xb
 1065 0547 98       		.byte	0x98
 1066 0548 0F       		.byte	0xf
 1067 0549 FA000000 		.long	0xfa
 1068 054d 0A       		.uleb128 0xa
 1069 054e 1D070000 		.long	.LASF81
 1070 0552 14       		.byte	0x14
 1071 0553 0B       		.byte	0xb
GAS LISTING /tmp/ccJ7cV0m.s 			page 20


 1072 0554 A7       		.byte	0xa7
 1073 0555 08       		.byte	0x8
 1074 0556 9C050000 		.long	0x59c
 1075 055a 0C       		.uleb128 0xc
 1076 055b 65627800 		.string	"ebx"
 1077 055f 0B       		.byte	0xb
 1078 0560 A8       		.byte	0xa8
 1079 0561 0B       		.byte	0xb
 1080 0562 41050000 		.long	0x541
 1081 0566 00       		.byte	0
 1082 0567 0C       		.uleb128 0xc
 1083 0568 65646900 		.string	"edi"
 1084 056c 0B       		.byte	0xb
 1085 056d A9       		.byte	0xa9
 1086 056e 0B       		.byte	0xb
 1087 056f 41050000 		.long	0x541
 1088 0573 04       		.byte	0x4
 1089 0574 0C       		.uleb128 0xc
 1090 0575 65736900 		.string	"esi"
 1091 0579 0B       		.byte	0xb
 1092 057a AA       		.byte	0xaa
 1093 057b 0B       		.byte	0xb
 1094 057c 41050000 		.long	0x541
 1095 0580 08       		.byte	0x8
 1096 0581 0C       		.uleb128 0xc
 1097 0582 65627000 		.string	"ebp"
 1098 0586 0B       		.byte	0xb
 1099 0587 AB       		.byte	0xab
 1100 0588 0B       		.byte	0xb
 1101 0589 41050000 		.long	0x541
 1102 058d 0C       		.byte	0xc
 1103 058e 0C       		.uleb128 0xc
 1104 058f 65697000 		.string	"eip"
 1105 0593 0B       		.byte	0xb
 1106 0594 AC       		.byte	0xac
 1107 0595 0B       		.byte	0xb
 1108 0596 41050000 		.long	0x541
 1109 059a 10       		.byte	0x10
 1110 059b 00       		.byte	0
 1111 059c 0A       		.uleb128 0xa
 1112 059d C2090000 		.long	.LASF82
 1113 05a1 04       		.byte	0x4
 1114 05a2 0B       		.byte	0xb
 1115 05a3 B4       		.byte	0xb4
 1116 05a4 08       		.byte	0x8
 1117 05a5 B6050000 		.long	0x5b6
 1118 05a9 0C       		.uleb128 0xc
 1119 05aa 737000   		.string	"sp"
 1120 05ad 0B       		.byte	0xb
 1121 05ae B5       		.byte	0xb5
 1122 05af 17       		.byte	0x17
 1123 05b0 B6050000 		.long	0x5b6
 1124 05b4 00       		.byte	0
 1125 05b5 00       		.byte	0
 1126 05b6 06       		.uleb128 0x6
 1127 05b7 04       		.byte	0x4
 1128 05b8 4D050000 		.long	0x54d
GAS LISTING /tmp/ccJ7cV0m.s 			page 21


 1129 05bc 16       		.uleb128 0x16
 1130 05bd A2060000 		.long	.LASF84
 1131 05c1 0B       		.byte	0xb
 1132 05c2 1E01     		.value	0x11e
 1133 05c4 0D       		.byte	0xd
 1134 05c5 C9050000 		.long	0x5c9
 1135 05c9 04       		.uleb128 0x4
 1136 05ca 01       		.byte	0x1
 1137 05cb 02       		.byte	0x2
 1138 05cc C2020000 		.long	.LASF83
 1139 05d0 16       		.uleb128 0x16
 1140 05d1 F8020000 		.long	.LASF85
 1141 05d5 0B       		.byte	0xb
 1142 05d6 1F01     		.value	0x11f
 1143 05d8 11       		.byte	0x11
 1144 05d9 48010000 		.long	0x148
 1145 05dd 12       		.uleb128 0x12
 1146 05de 04       		.byte	0x4
 1147 05df 0C       		.byte	0xc
 1148 05e0 38       		.byte	0x38
 1149 05e1 09       		.byte	0x9
 1150 05e2 F4050000 		.long	0x5f4
 1151 05e6 0B       		.uleb128 0xb
 1152 05e7 95060000 		.long	.LASF86
 1153 05eb 0C       		.byte	0xc
 1154 05ec 3C       		.byte	0x3c
 1155 05ed 19       		.byte	0x19
 1156 05ee 3C010000 		.long	0x13c
 1157 05f2 00       		.byte	0
 1158 05f3 00       		.byte	0
 1159 05f4 02       		.uleb128 0x2
 1160 05f5 D2080000 		.long	.LASF87
 1161 05f9 0C       		.byte	0xc
 1162 05fa 3D       		.byte	0x3d
 1163 05fb 03       		.byte	0x3
 1164 05fc DD050000 		.long	0x5dd
 1165 0600 17       		.uleb128 0x17
 1166 0601 04       		.byte	0x4
 1167 0602 09       		.byte	0x9
 1168 0603 C6       		.byte	0xc6
 1169 0604 03       		.byte	0x3
 1170 0605 6B060000 		.long	0x66b
 1171 0609 18       		.uleb128 0x18
 1172 060a 610A0000 		.long	.LASF88
 1173 060e 09       		.byte	0x9
 1174 060f CD       		.byte	0xcd
 1175 0610 19       		.byte	0x19
 1176 0611 84010000 		.long	0x184
 1177 0615 18       		.uleb128 0x18
 1178 0616 4B010000 		.long	.LASF89
 1179 061a 09       		.byte	0x9
 1180 061b D4       		.byte	0xd4
 1181 061c 19       		.byte	0x19
 1182 061d 84010000 		.long	0x184
 1183 0621 18       		.uleb128 0x18
 1184 0622 F1020000 		.long	.LASF90
 1185 0626 09       		.byte	0x9
GAS LISTING /tmp/ccJ7cV0m.s 			page 22


 1186 0627 DB       		.byte	0xdb
 1187 0628 1A       		.byte	0x1a
 1188 0629 FA000000 		.long	0xfa
 1189 062d 18       		.uleb128 0x18
 1190 062e 6D020000 		.long	.LASF91
 1191 0632 09       		.byte	0x9
 1192 0633 E2       		.byte	0xe2
 1193 0634 1A       		.byte	0x1a
 1194 0635 6B060000 		.long	0x66b
 1195 0639 18       		.uleb128 0x18
 1196 063a 06070000 		.long	.LASF92
 1197 063e 09       		.byte	0x9
 1198 063f E7       		.byte	0xe7
 1199 0640 19       		.byte	0x19
 1200 0641 84010000 		.long	0x184
 1201 0645 18       		.uleb128 0x18
 1202 0646 2C000000 		.long	.LASF93
 1203 064a 09       		.byte	0x9
 1204 064b F0       		.byte	0xf0
 1205 064c 1A       		.byte	0x1a
 1206 064d 99060000 		.long	0x699
 1207 0651 18       		.uleb128 0x18
 1208 0652 CB030000 		.long	.LASF94
 1209 0656 09       		.byte	0x9
 1210 0657 F9       		.byte	0xf9
 1211 0658 1A       		.byte	0x1a
 1212 0659 D4060000 		.long	0x6d4
 1213 065d 19       		.uleb128 0x19
 1214 065e 3B020000 		.long	.LASF95
 1215 0662 09       		.byte	0x9
 1216 0663 0101     		.value	0x101
 1217 0665 19       		.byte	0x19
 1218 0666 90010000 		.long	0x190
 1219 066a 00       		.byte	0
 1220 066b 06       		.uleb128 0x6
 1221 066c 04       		.byte	0x4
 1222 066d BC020000 		.long	0x2bc
 1223 0671 0A       		.uleb128 0xa
 1224 0672 5A040000 		.long	.LASF96
 1225 0676 0C       		.byte	0xc
 1226 0677 0D       		.byte	0xd
 1227 0678 34       		.byte	0x34
 1228 0679 10       		.byte	0x10
 1229 067a 99060000 		.long	0x699
 1230 067e 0B       		.uleb128 0xb
 1231 067f CE070000 		.long	.LASF36
 1232 0683 0D       		.byte	0xd
 1233 0684 35       		.byte	0x35
 1234 0685 19       		.byte	0x19
 1235 0686 F5020000 		.long	0x2f5
 1236 068a 00       		.byte	0
 1237 068b 0C       		.uleb128 0xc
 1238 068c 636E7400 		.string	"cnt"
 1239 0690 0D       		.byte	0xd
 1240 0691 37       		.byte	0x37
 1241 0692 19       		.byte	0x19
 1242 0693 A8010000 		.long	0x1a8
GAS LISTING /tmp/ccJ7cV0m.s 			page 23


 1243 0697 08       		.byte	0x8
 1244 0698 00       		.byte	0
 1245 0699 06       		.uleb128 0x6
 1246 069a 04       		.byte	0x4
 1247 069b 71060000 		.long	0x671
 1248 069f 0A       		.uleb128 0xa
 1249 06a0 2A090000 		.long	.LASF97
 1250 06a4 10       		.byte	0x10
 1251 06a5 0E       		.byte	0xe
 1252 06a6 39       		.byte	0x39
 1253 06a7 08       		.byte	0x8
 1254 06a8 D4060000 		.long	0x6d4
 1255 06ac 0B       		.uleb128 0xb
 1256 06ad CE070000 		.long	.LASF36
 1257 06b1 0E       		.byte	0xe
 1258 06b2 3A       		.byte	0x3a
 1259 06b3 19       		.byte	0x19
 1260 06b4 F5020000 		.long	0x2f5
 1261 06b8 00       		.byte	0
 1262 06b9 0B       		.uleb128 0xb
 1263 06ba 49000000 		.long	.LASF98
 1264 06be 0E       		.byte	0xe
 1265 06bf 3C       		.byte	0x3c
 1266 06c0 1A       		.byte	0x1a
 1267 06c1 C8020000 		.long	0x2c8
 1268 06c5 08       		.byte	0x8
 1269 06c6 0B       		.uleb128 0xb
 1270 06c7 0D0B0000 		.long	.LASF55
 1271 06cb 0E       		.byte	0xe
 1272 06cc 3E       		.byte	0x3e
 1273 06cd 1A       		.byte	0x1a
 1274 06ce 38080000 		.long	0x838
 1275 06d2 0C       		.byte	0xc
 1276 06d3 00       		.byte	0
 1277 06d4 06       		.uleb128 0x6
 1278 06d5 04       		.byte	0x4
 1279 06d6 9F060000 		.long	0x69f
 1280 06da 06       		.uleb128 0x6
 1281 06db 04       		.byte	0x4
 1282 06dc 34050000 		.long	0x534
 1283 06e0 06       		.uleb128 0x6
 1284 06e1 04       		.byte	0x4
 1285 06e2 B5030000 		.long	0x3b5
 1286 06e6 1A       		.uleb128 0x1a
 1287 06e7 636800   		.string	"ch"
 1288 06ea 09       		.byte	0x9
 1289 06eb C701     		.value	0x1c7
 1290 06ed 14       		.byte	0x14
 1291 06ee 92040000 		.long	0x492
 1292 06f2 1B       		.uleb128 0x1b
 1293 06f3 34050000 		.long	0x534
 1294 06f7 10       		.byte	0x10
 1295 06f8 FE060000 		.long	0x6fe
 1296 06fc 1C       		.uleb128 0x1c
 1297 06fd 00       		.byte	0
 1298 06fe 16       		.uleb128 0x16
 1299 06ff 95040000 		.long	.LASF99
GAS LISTING /tmp/ccJ7cV0m.s 			page 24


 1300 0703 0F       		.byte	0xf
 1301 0704 1701     		.value	0x117
 1302 0706 13       		.byte	0x13
 1303 0707 F2060000 		.long	0x6f2
 1304 070b 12       		.uleb128 0x12
 1305 070c 16       		.byte	0x16
 1306 070d 10       		.byte	0x10
 1307 070e 34       		.byte	0x34
 1308 070f 09       		.byte	0x9
 1309 0710 FF070000 		.long	0x7ff
 1310 0714 0B       		.uleb128 0xb
 1311 0715 230B0000 		.long	.LASF100
 1312 0719 10       		.byte	0x10
 1313 071a 35       		.byte	0x35
 1314 071b 0D       		.byte	0xd
 1315 071c FF070000 		.long	0x7ff
 1316 0720 00       		.byte	0
 1317 0721 0B       		.uleb128 0xb
 1318 0722 AD010000 		.long	.LASF101
 1319 0726 10       		.byte	0x10
 1320 0727 36       		.byte	0x36
 1321 0728 0D       		.byte	0xd
 1322 0729 13010000 		.long	0x113
 1323 072d 04       		.byte	0x4
 1324 072e 0B       		.uleb128 0xb
 1325 072f 5C070000 		.long	.LASF102
 1326 0733 10       		.byte	0x10
 1327 0734 37       		.byte	0x37
 1328 0735 0D       		.byte	0xd
 1329 0736 13010000 		.long	0x113
 1330 073a 05       		.byte	0x5
 1331 073b 0B       		.uleb128 0xb
 1332 073c 04080000 		.long	.LASF103
 1333 0740 10       		.byte	0x10
 1334 0741 38       		.byte	0x38
 1335 0742 0D       		.byte	0xd
 1336 0743 24010000 		.long	0x124
 1337 0747 06       		.byte	0x6
 1338 0748 0B       		.uleb128 0xb
 1339 0749 98030000 		.long	.LASF104
 1340 074d 10       		.byte	0x10
 1341 074e 39       		.byte	0x39
 1342 074f 0D       		.byte	0xd
 1343 0750 13010000 		.long	0x113
 1344 0754 08       		.byte	0x8
 1345 0755 0B       		.uleb128 0xb
 1346 0756 C40A0000 		.long	.LASF105
 1347 075a 10       		.byte	0x10
 1348 075b 3A       		.byte	0x3a
 1349 075c 0D       		.byte	0xd
 1350 075d 13010000 		.long	0x113
 1351 0761 09       		.byte	0x9
 1352 0762 0B       		.uleb128 0xb
 1353 0763 3A040000 		.long	.LASF106
 1354 0767 10       		.byte	0x10
 1355 0768 3B       		.byte	0x3b
 1356 0769 0D       		.byte	0xd
GAS LISTING /tmp/ccJ7cV0m.s 			page 25


 1357 076a 13010000 		.long	0x113
 1358 076e 0A       		.byte	0xa
 1359 076f 0B       		.uleb128 0xb
 1360 0770 1C000000 		.long	.LASF107
 1361 0774 10       		.byte	0x10
 1362 0775 3C       		.byte	0x3c
 1363 0776 0D       		.byte	0xd
 1364 0777 13010000 		.long	0x113
 1365 077b 0B       		.byte	0xb
 1366 077c 0B       		.uleb128 0xb
 1367 077d 00000000 		.long	.LASF108
 1368 0781 10       		.byte	0x10
 1369 0782 3D       		.byte	0x3d
 1370 0783 0D       		.byte	0xd
 1371 0784 13010000 		.long	0x113
 1372 0788 0C       		.byte	0xc
 1373 0789 0B       		.uleb128 0xb
 1374 078a 54060000 		.long	.LASF109
 1375 078e 10       		.byte	0x10
 1376 078f 3E       		.byte	0x3e
 1377 0790 0D       		.byte	0xd
 1378 0791 13010000 		.long	0x113
 1379 0795 0D       		.byte	0xd
 1380 0796 0B       		.uleb128 0xb
 1381 0797 20010000 		.long	.LASF110
 1382 079b 10       		.byte	0x10
 1383 079c 3F       		.byte	0x3f
 1384 079d 0D       		.byte	0xd
 1385 079e 13010000 		.long	0x113
 1386 07a2 0E       		.byte	0xe
 1387 07a3 0B       		.uleb128 0xb
 1388 07a4 89070000 		.long	.LASF111
 1389 07a8 10       		.byte	0x10
 1390 07a9 40       		.byte	0x40
 1391 07aa 0D       		.byte	0xd
 1392 07ab 13010000 		.long	0x113
 1393 07af 0F       		.byte	0xf
 1394 07b0 0B       		.uleb128 0xb
 1395 07b1 06050000 		.long	.LASF112
 1396 07b5 10       		.byte	0x10
 1397 07b6 41       		.byte	0x41
 1398 07b7 0D       		.byte	0xd
 1399 07b8 13010000 		.long	0x113
 1400 07bc 10       		.byte	0x10
 1401 07bd 0B       		.uleb128 0xb
 1402 07be 1E040000 		.long	.LASF113
 1403 07c2 10       		.byte	0x10
 1404 07c3 42       		.byte	0x42
 1405 07c4 0D       		.byte	0xd
 1406 07c5 13010000 		.long	0x113
 1407 07c9 11       		.byte	0x11
 1408 07ca 0B       		.uleb128 0xb
 1409 07cb F60A0000 		.long	.LASF114
 1410 07cf 10       		.byte	0x10
 1411 07d0 43       		.byte	0x43
 1412 07d1 0D       		.byte	0xd
 1413 07d2 13010000 		.long	0x113
GAS LISTING /tmp/ccJ7cV0m.s 			page 26


 1414 07d6 12       		.byte	0x12
 1415 07d7 0B       		.uleb128 0xb
 1416 07d8 16030000 		.long	.LASF115
 1417 07dc 10       		.byte	0x10
 1418 07dd 44       		.byte	0x44
 1419 07de 0D       		.byte	0xd
 1420 07df 13010000 		.long	0x113
 1421 07e3 13       		.byte	0x13
 1422 07e4 0B       		.uleb128 0xb
 1423 07e5 3D000000 		.long	.LASF116
 1424 07e9 10       		.byte	0x10
 1425 07ea 45       		.byte	0x45
 1426 07eb 0D       		.byte	0xd
 1427 07ec 13010000 		.long	0x113
 1428 07f0 14       		.byte	0x14
 1429 07f1 0B       		.uleb128 0xb
 1430 07f2 B5030000 		.long	.LASF117
 1431 07f6 10       		.byte	0x10
 1432 07f7 46       		.byte	0x46
 1433 07f8 0D       		.byte	0xd
 1434 07f9 13010000 		.long	0x113
 1435 07fd 15       		.byte	0x15
 1436 07fe 00       		.byte	0
 1437 07ff 13       		.uleb128 0x13
 1438 0800 5B000000 		.long	0x5b
 1439 0804 0F080000 		.long	0x80f
 1440 0808 14       		.uleb128 0x14
 1441 0809 36000000 		.long	0x36
 1442 080d 03       		.byte	0x3
 1443 080e 00       		.byte	0
 1444 080f 02       		.uleb128 0x2
 1445 0810 9D0A0000 		.long	.LASF118
 1446 0814 10       		.byte	0x10
 1447 0815 47       		.byte	0x47
 1448 0816 03       		.byte	0x3
 1449 0817 0B070000 		.long	0x70b
 1450 081b 07       		.uleb128 0x7
 1451 081c 0F080000 		.long	0x80f
 1452 0820 1D       		.uleb128 0x1d
 1453 0821 57000000 		.long	.LASF119
 1454 0825 10       		.byte	0x10
 1455 0826 6C       		.byte	0x6c
 1456 0827 1D       		.byte	0x1d
 1457 0828 1B080000 		.long	0x81b
 1458 082c 02       		.uleb128 0x2
 1459 082d B2090000 		.long	.LASF120
 1460 0831 0E       		.byte	0xe
 1461 0832 34       		.byte	0x34
 1462 0833 19       		.byte	0x19
 1463 0834 9F060000 		.long	0x69f
 1464 0838 06       		.uleb128 0x6
 1465 0839 04       		.byte	0x4
 1466 083a 2C080000 		.long	0x82c
 1467 083e 02       		.uleb128 0x2
 1468 083f 87030000 		.long	.LASF121
 1469 0843 11       		.byte	0x11
 1470 0844 34       		.byte	0x34
GAS LISTING /tmp/ccJ7cV0m.s 			page 27


 1471 0845 1F       		.byte	0x1f
 1472 0846 4A080000 		.long	0x84a
 1473 084a 0A       		.uleb128 0xa
 1474 084b 520A0000 		.long	.LASF122
 1475 084f 14       		.byte	0x14
 1476 0850 11       		.byte	0x11
 1477 0851 39       		.byte	0x39
 1478 0852 08       		.byte	0x8
 1479 0853 99080000 		.long	0x899
 1480 0857 0B       		.uleb128 0xb
 1481 0858 0D0B0000 		.long	.LASF55
 1482 085c 11       		.byte	0x11
 1483 085d 3A       		.byte	0x3a
 1484 085e 1A       		.byte	0x1a
 1485 085f 99080000 		.long	0x899
 1486 0863 00       		.byte	0
 1487 0864 0B       		.uleb128 0xb
 1488 0865 F0080000 		.long	.LASF123
 1489 0869 11       		.byte	0x11
 1490 086a 3D       		.byte	0x3d
 1491 086b 1A       		.byte	0x1a
 1492 086c C8020000 		.long	0x2c8
 1493 0870 04       		.byte	0x4
 1494 0871 0B       		.uleb128 0xb
 1495 0872 060B0000 		.long	.LASF124
 1496 0876 11       		.byte	0x11
 1497 0877 3F       		.byte	0x3f
 1498 0878 19       		.byte	0x19
 1499 0879 90010000 		.long	0x190
 1500 087d 08       		.byte	0x8
 1501 087e 0B       		.uleb128 0xb
 1502 087f 1F030000 		.long	.LASF43
 1503 0883 11       		.byte	0x11
 1504 0884 41       		.byte	0x41
 1505 0885 19       		.byte	0x19
 1506 0886 9C010000 		.long	0x19c
 1507 088a 0C       		.byte	0xc
 1508 088b 0B       		.uleb128 0xb
 1509 088c EC060000 		.long	.LASF125
 1510 0890 11       		.byte	0x11
 1511 0891 43       		.byte	0x43
 1512 0892 19       		.byte	0x19
 1513 0893 9C010000 		.long	0x19c
 1514 0897 10       		.byte	0x10
 1515 0898 00       		.byte	0
 1516 0899 06       		.uleb128 0x6
 1517 089a 04       		.byte	0x4
 1518 089b 3E080000 		.long	0x83e
 1519 089f 0A       		.uleb128 0xa
 1520 08a0 18090000 		.long	.LASF126
 1521 08a4 04       		.byte	0x4
 1522 08a5 11       		.byte	0x11
 1523 08a6 4A       		.byte	0x4a
 1524 08a7 10       		.byte	0x10
 1525 08a8 BA080000 		.long	0x8ba
 1526 08ac 0B       		.uleb128 0xb
 1527 08ad 0D0B0000 		.long	.LASF55
GAS LISTING /tmp/ccJ7cV0m.s 			page 28


 1528 08b1 11       		.byte	0x11
 1529 08b2 4B       		.byte	0x4b
 1530 08b3 1A       		.byte	0x1a
 1531 08b4 99080000 		.long	0x899
 1532 08b8 00       		.byte	0
 1533 08b9 00       		.byte	0
 1534 08ba 02       		.uleb128 0x2
 1535 08bb 9C050000 		.long	.LASF127
 1536 08bf 11       		.byte	0x11
 1537 08c0 4E       		.byte	0x4e
 1538 08c1 03       		.byte	0x3
 1539 08c2 9F080000 		.long	0x89f
 1540 08c6 02       		.uleb128 0x2
 1541 08c7 CA060000 		.long	.LASF128
 1542 08cb 12       		.byte	0x12
 1543 08cc 4B       		.byte	0x4b
 1544 08cd 11       		.byte	0x11
 1545 08ce D2080000 		.long	0x8d2
 1546 08d2 06       		.uleb128 0x6
 1547 08d3 04       		.byte	0x4
 1548 08d4 D8080000 		.long	0x8d8
 1549 08d8 1E       		.uleb128 0x1e
 1550 08d9 FA000000 		.long	0xfa
 1551 08dd EC080000 		.long	0x8ec
 1552 08e1 11       		.uleb128 0x11
 1553 08e2 25000000 		.long	0x25
 1554 08e6 11       		.uleb128 0x11
 1555 08e7 36000000 		.long	0x36
 1556 08eb 00       		.byte	0
 1557 08ec 12       		.uleb128 0x12
 1558 08ed 08       		.byte	0x8
 1559 08ee 12       		.byte	0x12
 1560 08ef 55       		.byte	0x55
 1561 08f0 09       		.byte	0x9
 1562 08f1 10090000 		.long	0x910
 1563 08f5 0B       		.uleb128 0xb
 1564 08f6 0F040000 		.long	.LASF129
 1565 08fa 12       		.byte	0x12
 1566 08fb 59       		.byte	0x59
 1567 08fc 0C       		.byte	0xc
 1568 08fd 10090000 		.long	0x910
 1569 0901 00       		.byte	0
 1570 0902 0B       		.uleb128 0xb
 1571 0903 25000000 		.long	.LASF130
 1572 0907 12       		.byte	0x12
 1573 0908 5D       		.byte	0x5d
 1574 0909 0C       		.byte	0xc
 1575 090a 10090000 		.long	0x910
 1576 090e 04       		.byte	0x4
 1577 090f 00       		.byte	0
 1578 0910 06       		.uleb128 0x6
 1579 0911 04       		.byte	0x4
 1580 0912 13010000 		.long	0x113
 1581 0916 02       		.uleb128 0x2
 1582 0917 1C020000 		.long	.LASF131
 1583 091b 12       		.byte	0x12
 1584 091c 5E       		.byte	0x5e
GAS LISTING /tmp/ccJ7cV0m.s 			page 29


 1585 091d 03       		.byte	0x3
 1586 091e EC080000 		.long	0x8ec
 1587 0922 1D       		.uleb128 0x1d
 1588 0923 EB0A0000 		.long	.LASF132
 1589 0927 12       		.byte	0x12
 1590 0928 69       		.byte	0x69
 1591 0929 12       		.byte	0x12
 1592 092a 16090000 		.long	0x916
 1593 092e 0A       		.uleb128 0xa
 1594 092f 13050000 		.long	.LASF133
 1595 0933 04       		.byte	0x4
 1596 0934 13       		.byte	0x13
 1597 0935 3C       		.byte	0x3c
 1598 0936 08       		.byte	0x8
 1599 0937 49090000 		.long	0x949
 1600 093b 0B       		.uleb128 0xb
 1601 093c 0D0B0000 		.long	.LASF55
 1602 0940 13       		.byte	0x13
 1603 0941 3D       		.byte	0x3d
 1604 0942 1A       		.byte	0x1a
 1605 0943 49090000 		.long	0x949
 1606 0947 00       		.byte	0
 1607 0948 00       		.byte	0
 1608 0949 06       		.uleb128 0x6
 1609 094a 04       		.byte	0x4
 1610 094b 2E090000 		.long	0x92e
 1611 094f 12       		.uleb128 0x12
 1612 0950 10       		.byte	0x10
 1613 0951 13       		.byte	0x13
 1614 0952 44       		.byte	0x44
 1615 0953 09       		.byte	0x9
 1616 0954 8D090000 		.long	0x98d
 1617 0958 0B       		.uleb128 0xb
 1618 0959 0D0B0000 		.long	.LASF55
 1619 095d 13       		.byte	0x13
 1620 095e 45       		.byte	0x45
 1621 095f 1A       		.byte	0x1a
 1622 0960 49090000 		.long	0x949
 1623 0964 00       		.byte	0
 1624 0965 0B       		.uleb128 0xb
 1625 0966 89090000 		.long	.LASF134
 1626 096a 13       		.byte	0x13
 1627 096b 46       		.byte	0x46
 1628 096c 19       		.byte	0x19
 1629 096d 25000000 		.long	0x25
 1630 0971 04       		.byte	0x4
 1631 0972 0B       		.uleb128 0xb
 1632 0973 2C060000 		.long	.LASF135
 1633 0977 13       		.byte	0x13
 1634 0978 48       		.byte	0x48
 1635 0979 19       		.byte	0x19
 1636 097a 36000000 		.long	0x36
 1637 097e 08       		.byte	0x8
 1638 097f 0B       		.uleb128 0xb
 1639 0980 60000000 		.long	.LASF136
 1640 0984 13       		.byte	0x13
 1641 0985 49       		.byte	0x49
GAS LISTING /tmp/ccJ7cV0m.s 			page 30


 1642 0986 19       		.byte	0x19
 1643 0987 C6080000 		.long	0x8c6
 1644 098b 0C       		.byte	0xc
 1645 098c 00       		.byte	0
 1646 098d 02       		.uleb128 0x2
 1647 098e 3A080000 		.long	.LASF137
 1648 0992 13       		.byte	0x13
 1649 0993 4B       		.byte	0x4b
 1650 0994 03       		.byte	0x3
 1651 0995 4F090000 		.long	0x94f
 1652 0999 0A       		.uleb128 0xa
 1653 099a D3000000 		.long	.LASF138
 1654 099e 10       		.byte	0x10
 1655 099f 14       		.byte	0x14
 1656 09a0 97       		.byte	0x97
 1657 09a1 10       		.byte	0x10
 1658 09a2 CE090000 		.long	0x9ce
 1659 09a6 0B       		.uleb128 0xb
 1660 09a7 0D0B0000 		.long	.LASF55
 1661 09ab 14       		.byte	0x14
 1662 09ac 9B       		.byte	0x9b
 1663 09ad 1A       		.byte	0x1a
 1664 09ae CE090000 		.long	0x9ce
 1665 09b2 00       		.byte	0
 1666 09b3 0B       		.uleb128 0xb
 1667 09b4 C9070000 		.long	.LASF44
 1668 09b8 14       		.byte	0x14
 1669 09b9 9F       		.byte	0x9f
 1670 09ba 19       		.byte	0x19
 1671 09bb B4010000 		.long	0x1b4
 1672 09bf 04       		.byte	0x4
 1673 09c0 0B       		.uleb128 0xb
 1674 09c1 EB080000 		.long	.LASF40
 1675 09c5 14       		.byte	0x14
 1676 09c6 A1       		.byte	0xa1
 1677 09c7 19       		.byte	0x19
 1678 09c8 D4090000 		.long	0x9d4
 1679 09cc 08       		.byte	0x8
 1680 09cd 00       		.byte	0
 1681 09ce 06       		.uleb128 0x6
 1682 09cf 04       		.byte	0x4
 1683 09d0 99090000 		.long	0x999
 1684 09d4 13       		.uleb128 0x13
 1685 09d5 5B000000 		.long	0x5b
 1686 09d9 E4090000 		.long	0x9e4
 1687 09dd 14       		.uleb128 0x14
 1688 09de 36000000 		.long	0x36
 1689 09e2 07       		.byte	0x7
 1690 09e3 00       		.byte	0
 1691 09e4 02       		.uleb128 0x2
 1692 09e5 A4090000 		.long	.LASF139
 1693 09e9 14       		.byte	0x14
 1694 09ea A5       		.byte	0xa5
 1695 09eb 03       		.byte	0x3
 1696 09ec 99090000 		.long	0x999
 1697 09f0 0A       		.uleb128 0xa
 1698 09f1 170B0000 		.long	.LASF140
GAS LISTING /tmp/ccJ7cV0m.s 			page 31


 1699 09f5 04       		.byte	0x4
 1700 09f6 14       		.byte	0x14
 1701 09f7 AA       		.byte	0xaa
 1702 09f8 10       		.byte	0x10
 1703 09f9 0B0A0000 		.long	0xa0b
 1704 09fd 0B       		.uleb128 0xb
 1705 09fe 0D0B0000 		.long	.LASF55
 1706 0a02 14       		.byte	0x14
 1707 0a03 AB       		.byte	0xab
 1708 0a04 1A       		.byte	0x1a
 1709 0a05 0B0A0000 		.long	0xa0b
 1710 0a09 00       		.byte	0
 1711 0a0a 00       		.byte	0
 1712 0a0b 06       		.uleb128 0x6
 1713 0a0c 04       		.byte	0x4
 1714 0a0d E4090000 		.long	0x9e4
 1715 0a11 02       		.uleb128 0x2
 1716 0a12 62090000 		.long	.LASF141
 1717 0a16 14       		.byte	0x14
 1718 0a17 AC       		.byte	0xac
 1719 0a18 03       		.byte	0x3
 1720 0a19 F0090000 		.long	0x9f0
 1721 0a1d 0F       		.uleb128 0xf
 1722 0a1e 69050000 		.long	.LASF142
 1723 0a22 44       		.byte	0x44
 1724 0a23 14       		.byte	0x14
 1725 0a24 1501     		.value	0x115
 1726 0a26 10       		.byte	0x10
 1727 0a27 9C0A0000 		.long	0xa9c
 1728 0a2b 0D       		.uleb128 0xd
 1729 0a2c 6D747800 		.string	"mtx"
 1730 0a30 14       		.byte	0x14
 1731 0a31 1A01     		.value	0x11a
 1732 0a33 19       		.byte	0x19
 1733 0a34 2C080000 		.long	0x82c
 1734 0a38 00       		.byte	0
 1735 0a39 0E       		.uleb128 0xe
 1736 0a3a 10010000 		.long	.LASF143
 1737 0a3e 14       		.byte	0x14
 1738 0a3f 2101     		.value	0x121
 1739 0a41 19       		.byte	0x19
 1740 0a42 110A0000 		.long	0xa11
 1741 0a46 10       		.byte	0x10
 1742 0a47 0E       		.uleb128 0xe
 1743 0a48 00020000 		.long	.LASF144
 1744 0a4c 14       		.byte	0x14
 1745 0a4d 2501     		.value	0x125
 1746 0a4f 19       		.byte	0x19
 1747 0a50 8D090000 		.long	0x98d
 1748 0a54 14       		.byte	0x14
 1749 0a55 0E       		.uleb128 0xe
 1750 0a56 3B070000 		.long	.LASF145
 1751 0a5a 14       		.byte	0x14
 1752 0a5b 2A01     		.value	0x12a
 1753 0a5d 19       		.byte	0x19
 1754 0a5e 110A0000 		.long	0xa11
 1755 0a62 24       		.byte	0x24
GAS LISTING /tmp/ccJ7cV0m.s 			page 32


 1756 0a63 0E       		.uleb128 0xe
 1757 0a64 CD020000 		.long	.LASF146
 1758 0a68 14       		.byte	0x14
 1759 0a69 3001     		.value	0x130
 1760 0a6b 19       		.byte	0x19
 1761 0a6c 110A0000 		.long	0xa11
 1762 0a70 28       		.byte	0x28
 1763 0a71 0E       		.uleb128 0xe
 1764 0a72 F6030000 		.long	.LASF147
 1765 0a76 14       		.byte	0x14
 1766 0a77 3401     		.value	0x134
 1767 0a79 19       		.byte	0x19
 1768 0a7a 8D090000 		.long	0x98d
 1769 0a7e 2C       		.byte	0x2c
 1770 0a7f 0E       		.uleb128 0xe
 1771 0a80 F0070000 		.long	.LASF148
 1772 0a84 14       		.byte	0x14
 1773 0a85 3A01     		.value	0x13a
 1774 0a87 19       		.byte	0x19
 1775 0a88 110A0000 		.long	0xa11
 1776 0a8c 3C       		.byte	0x3c
 1777 0a8d 0E       		.uleb128 0xe
 1778 0a8e B9040000 		.long	.LASF149
 1779 0a92 14       		.byte	0x14
 1780 0a93 4001     		.value	0x140
 1781 0a95 19       		.byte	0x19
 1782 0a96 110A0000 		.long	0xa11
 1783 0a9a 40       		.byte	0x40
 1784 0a9b 00       		.byte	0
 1785 0a9c 1F       		.uleb128 0x1f
 1786 0a9d 29070000 		.long	.LASF150
 1787 0aa1 14       		.byte	0x14
 1788 0aa2 4201     		.value	0x142
 1789 0aa4 03       		.byte	0x3
 1790 0aa5 1D0A0000 		.long	0xa1d
 1791 0aa9 16       		.uleb128 0x16
 1792 0aaa E5070000 		.long	.LASF151
 1793 0aae 14       		.byte	0x14
 1794 0aaf 4D01     		.value	0x14d
 1795 0ab1 1A       		.byte	0x1a
 1796 0ab2 9C0A0000 		.long	0xa9c
 1797 0ab6 13       		.uleb128 0x13
 1798 0ab7 5B000000 		.long	0x5b
 1799 0abb C60A0000 		.long	0xac6
 1800 0abf 14       		.uleb128 0x14
 1801 0ac0 36000000 		.long	0x36
 1802 0ac4 27       		.byte	0x27
 1803 0ac5 00       		.byte	0
 1804 0ac6 17       		.uleb128 0x17
 1805 0ac7 10       		.byte	0x10
 1806 0ac8 15       		.byte	0x15
 1807 0ac9 D5       		.byte	0xd5
 1808 0aca 05       		.byte	0x5
 1809 0acb F40A0000 		.long	0xaf4
 1810 0acf 18       		.uleb128 0x18
 1811 0ad0 3A050000 		.long	.LASF152
 1812 0ad4 15       		.byte	0x15
GAS LISTING /tmp/ccJ7cV0m.s 			page 33


 1813 0ad5 D7       		.byte	0xd7
 1814 0ad6 0A       		.byte	0xa
 1815 0ad7 24050000 		.long	0x524
 1816 0adb 18       		.uleb128 0x18
 1817 0adc FB090000 		.long	.LASF153
 1818 0ae0 15       		.byte	0x15
 1819 0ae1 D8       		.byte	0xd8
 1820 0ae2 0B       		.byte	0xb
 1821 0ae3 F40A0000 		.long	0xaf4
 1822 0ae7 18       		.uleb128 0x18
 1823 0ae8 DF0A0000 		.long	.LASF154
 1824 0aec 15       		.byte	0x15
 1825 0aed D9       		.byte	0xd9
 1826 0aee 0B       		.byte	0xb
 1827 0aef 040B0000 		.long	0xb04
 1828 0af3 00       		.byte	0
 1829 0af4 13       		.uleb128 0x13
 1830 0af5 24010000 		.long	0x124
 1831 0af9 040B0000 		.long	0xb04
 1832 0afd 14       		.uleb128 0x14
 1833 0afe 36000000 		.long	0x36
 1834 0b02 07       		.byte	0x7
 1835 0b03 00       		.byte	0
 1836 0b04 13       		.uleb128 0x13
 1837 0b05 30010000 		.long	0x130
 1838 0b09 140B0000 		.long	0xb14
 1839 0b0d 14       		.uleb128 0x14
 1840 0b0e 36000000 		.long	0x36
 1841 0b12 03       		.byte	0x3
 1842 0b13 00       		.byte	0
 1843 0b14 0A       		.uleb128 0xa
 1844 0b15 C1060000 		.long	.LASF155
 1845 0b19 10       		.byte	0x10
 1846 0b1a 15       		.byte	0x15
 1847 0b1b D3       		.byte	0xd3
 1848 0b1c 08       		.byte	0x8
 1849 0b1d 2F0B0000 		.long	0xb2f
 1850 0b21 0B       		.uleb128 0xb
 1851 0b22 E3080000 		.long	.LASF156
 1852 0b26 15       		.byte	0x15
 1853 0b27 DA       		.byte	0xda
 1854 0b28 09       		.byte	0x9
 1855 0b29 C60A0000 		.long	0xac6
 1856 0b2d 00       		.byte	0
 1857 0b2e 00       		.byte	0
 1858 0b2f 07       		.uleb128 0x7
 1859 0b30 140B0000 		.long	0xb14
 1860 0b34 1D       		.uleb128 0x1d
 1861 0b35 A9030000 		.long	.LASF157
 1862 0b39 15       		.byte	0x15
 1863 0b3a E3       		.byte	0xe3
 1864 0b3b 1E       		.byte	0x1e
 1865 0b3c 2F0B0000 		.long	0xb2f
 1866 0b40 1D       		.uleb128 0x1d
 1867 0b41 9A000000 		.long	.LASF158
 1868 0b45 15       		.byte	0x15
 1869 0b46 E4       		.byte	0xe4
GAS LISTING /tmp/ccJ7cV0m.s 			page 34


 1870 0b47 1E       		.byte	0x1e
 1871 0b48 2F0B0000 		.long	0xb2f
 1872 0b4c 06       		.uleb128 0x6
 1873 0b4d 04       		.byte	0x4
 1874 0b4e 01010000 		.long	0x101
 1875 0b52 16       		.uleb128 0x16
 1876 0b53 84010000 		.long	.LASF159
 1877 0b57 16       		.byte	0x16
 1878 0b58 1F02     		.value	0x21f
 1879 0b5a 0F       		.byte	0xf
 1880 0b5b 4C0B0000 		.long	0xb4c
 1881 0b5f 1D       		.uleb128 0x1d
 1882 0b60 4B0A0000 		.long	.LASF160
 1883 0b64 17       		.byte	0x17
 1884 0b65 24       		.byte	0x24
 1885 0b66 0E       		.byte	0xe
 1886 0b67 01010000 		.long	0x101
 1887 0b6b 1D       		.uleb128 0x1d
 1888 0b6c 17040000 		.long	.LASF161
 1889 0b70 17       		.byte	0x17
 1890 0b71 32       		.byte	0x32
 1891 0b72 0C       		.byte	0xc
 1892 0b73 44000000 		.long	0x44
 1893 0b77 1D       		.uleb128 0x1d
 1894 0b78 DE070000 		.long	.LASF162
 1895 0b7c 17       		.byte	0x17
 1896 0b7d 37       		.byte	0x37
 1897 0b7e 0C       		.byte	0xc
 1898 0b7f 44000000 		.long	0x44
 1899 0b83 1D       		.uleb128 0x1d
 1900 0b84 55070000 		.long	.LASF163
 1901 0b88 17       		.byte	0x17
 1902 0b89 3B       		.byte	0x3b
 1903 0b8a 0C       		.byte	0xc
 1904 0b8b 44000000 		.long	0x44
 1905 0b8f 0A       		.uleb128 0xa
 1906 0b90 4A020000 		.long	.LASF164
 1907 0b94 94       		.byte	0x94
 1908 0b95 18       		.byte	0x18
 1909 0b96 31       		.byte	0x31
 1910 0b97 08       		.byte	0x8
 1911 0b98 160D0000 		.long	0xd16
 1912 0b9c 0B       		.uleb128 0xb
 1913 0b9d 8E060000 		.long	.LASF165
 1914 0ba1 18       		.byte	0x18
 1915 0ba2 33       		.byte	0x33
 1916 0ba3 07       		.byte	0x7
 1917 0ba4 44000000 		.long	0x44
 1918 0ba8 00       		.byte	0
 1919 0ba9 0B       		.uleb128 0xb
 1920 0baa 25030000 		.long	.LASF166
 1921 0bae 18       		.byte	0x18
 1922 0baf 36       		.byte	0x36
 1923 0bb0 09       		.byte	0x9
 1924 0bb1 01010000 		.long	0x101
 1925 0bb5 04       		.byte	0x4
 1926 0bb6 0B       		.uleb128 0xb
GAS LISTING /tmp/ccJ7cV0m.s 			page 35


 1927 0bb7 CF090000 		.long	.LASF167
 1928 0bbb 18       		.byte	0x18
 1929 0bbc 37       		.byte	0x37
 1930 0bbd 09       		.byte	0x9
 1931 0bbe 01010000 		.long	0x101
 1932 0bc2 08       		.byte	0x8
 1933 0bc3 0B       		.uleb128 0xb
 1934 0bc4 71040000 		.long	.LASF168
 1935 0bc8 18       		.byte	0x18
 1936 0bc9 38       		.byte	0x38
 1937 0bca 09       		.byte	0x9
 1938 0bcb 01010000 		.long	0x101
 1939 0bcf 0C       		.byte	0xc
 1940 0bd0 0B       		.uleb128 0xb
 1941 0bd1 E2000000 		.long	.LASF169
 1942 0bd5 18       		.byte	0x18
 1943 0bd6 39       		.byte	0x39
 1944 0bd7 09       		.byte	0x9
 1945 0bd8 01010000 		.long	0x101
 1946 0bdc 10       		.byte	0x10
 1947 0bdd 0B       		.uleb128 0xb
 1948 0bde A70A0000 		.long	.LASF170
 1949 0be2 18       		.byte	0x18
 1950 0be3 3A       		.byte	0x3a
 1951 0be4 09       		.byte	0x9
 1952 0be5 01010000 		.long	0x101
 1953 0be9 14       		.byte	0x14
 1954 0bea 0B       		.uleb128 0xb
 1955 0beb 8E050000 		.long	.LASF171
 1956 0bef 18       		.byte	0x18
 1957 0bf0 3B       		.byte	0x3b
 1958 0bf1 09       		.byte	0x9
 1959 0bf2 01010000 		.long	0x101
 1960 0bf6 18       		.byte	0x18
 1961 0bf7 0B       		.uleb128 0xb
 1962 0bf8 47060000 		.long	.LASF172
 1963 0bfc 18       		.byte	0x18
 1964 0bfd 3C       		.byte	0x3c
 1965 0bfe 09       		.byte	0x9
 1966 0bff 01010000 		.long	0x101
 1967 0c03 1C       		.byte	0x1c
 1968 0c04 0B       		.uleb128 0xb
 1969 0c05 C6080000 		.long	.LASF173
 1970 0c09 18       		.byte	0x18
 1971 0c0a 3D       		.byte	0x3d
 1972 0c0b 09       		.byte	0x9
 1973 0c0c 01010000 		.long	0x101
 1974 0c10 20       		.byte	0x20
 1975 0c11 0B       		.uleb128 0xb
 1976 0c12 02010000 		.long	.LASF174
 1977 0c16 18       		.byte	0x18
 1978 0c17 40       		.byte	0x40
 1979 0c18 09       		.byte	0x9
 1980 0c19 01010000 		.long	0x101
 1981 0c1d 24       		.byte	0x24
 1982 0c1e 0B       		.uleb128 0xb
 1983 0c1f 0C080000 		.long	.LASF175
GAS LISTING /tmp/ccJ7cV0m.s 			page 36


 1984 0c23 18       		.byte	0x18
 1985 0c24 41       		.byte	0x41
 1986 0c25 09       		.byte	0x9
 1987 0c26 01010000 		.long	0x101
 1988 0c2a 28       		.byte	0x28
 1989 0c2b 0B       		.uleb128 0xb
 1990 0c2c 8D000000 		.long	.LASF176
 1991 0c30 18       		.byte	0x18
 1992 0c31 42       		.byte	0x42
 1993 0c32 09       		.byte	0x9
 1994 0c33 01010000 		.long	0x101
 1995 0c37 2C       		.byte	0x2c
 1996 0c38 0B       		.uleb128 0xb
 1997 0c39 A0030000 		.long	.LASF177
 1998 0c3d 18       		.byte	0x18
 1999 0c3e 44       		.byte	0x44
 2000 0c3f 16       		.byte	0x16
 2001 0c40 2F0D0000 		.long	0xd2f
 2002 0c44 30       		.byte	0x30
 2003 0c45 0B       		.uleb128 0xb
 2004 0c46 2A010000 		.long	.LASF178
 2005 0c4a 18       		.byte	0x18
 2006 0c4b 46       		.byte	0x46
 2007 0c4c 14       		.byte	0x14
 2008 0c4d 350D0000 		.long	0xd35
 2009 0c51 34       		.byte	0x34
 2010 0c52 0B       		.uleb128 0xb
 2011 0c53 200A0000 		.long	.LASF179
 2012 0c57 18       		.byte	0x18
 2013 0c58 48       		.byte	0x48
 2014 0c59 07       		.byte	0x7
 2015 0c5a 44000000 		.long	0x44
 2016 0c5e 38       		.byte	0x38
 2017 0c5f 0B       		.uleb128 0xb
 2018 0c60 52040000 		.long	.LASF180
 2019 0c64 18       		.byte	0x18
 2020 0c65 49       		.byte	0x49
 2021 0c66 07       		.byte	0x7
 2022 0c67 44000000 		.long	0x44
 2023 0c6b 3C       		.byte	0x3c
 2024 0c6c 0B       		.uleb128 0xb
 2025 0c6d 73060000 		.long	.LASF181
 2026 0c71 18       		.byte	0x18
 2027 0c72 4A       		.byte	0x4a
 2028 0c73 0B       		.byte	0xb
 2029 0c74 E2000000 		.long	0xe2
 2030 0c78 40       		.byte	0x40
 2031 0c79 0B       		.uleb128 0xb
 2032 0c7a 36010000 		.long	.LASF182
 2033 0c7e 18       		.byte	0x18
 2034 0c7f 4D       		.byte	0x4d
 2035 0c80 12       		.byte	0x12
 2036 0c81 3D000000 		.long	0x3d
 2037 0c85 44       		.byte	0x44
 2038 0c86 0B       		.uleb128 0xb
 2039 0c87 43090000 		.long	.LASF183
 2040 0c8b 18       		.byte	0x18
GAS LISTING /tmp/ccJ7cV0m.s 			page 37


 2041 0c8c 4E       		.byte	0x4e
 2042 0c8d 0F       		.byte	0xf
 2043 0c8e 91000000 		.long	0x91
 2044 0c92 46       		.byte	0x46
 2045 0c93 0B       		.uleb128 0xb
 2046 0c94 1C080000 		.long	.LASF184
 2047 0c98 18       		.byte	0x18
 2048 0c99 4F       		.byte	0x4f
 2049 0c9a 08       		.byte	0x8
 2050 0c9b 3B0D0000 		.long	0xd3b
 2051 0c9f 47       		.byte	0x47
 2052 0ca0 0B       		.uleb128 0xb
 2053 0ca1 F7000000 		.long	.LASF185
 2054 0ca5 18       		.byte	0x18
 2055 0ca6 51       		.byte	0x51
 2056 0ca7 0F       		.byte	0xf
 2057 0ca8 4B0D0000 		.long	0xd4b
 2058 0cac 48       		.byte	0x48
 2059 0cad 0B       		.uleb128 0xb
 2060 0cae FF030000 		.long	.LASF186
 2061 0cb2 18       		.byte	0x18
 2062 0cb3 59       		.byte	0x59
 2063 0cb4 0D       		.byte	0xd
 2064 0cb5 EE000000 		.long	0xee
 2065 0cb9 4C       		.byte	0x4c
 2066 0cba 0B       		.uleb128 0xb
 2067 0cbb B8060000 		.long	.LASF187
 2068 0cbf 18       		.byte	0x18
 2069 0cc0 5B       		.byte	0x5b
 2070 0cc1 17       		.byte	0x17
 2071 0cc2 560D0000 		.long	0xd56
 2072 0cc6 54       		.byte	0x54
 2073 0cc7 0B       		.uleb128 0xb
 2074 0cc8 400A0000 		.long	.LASF188
 2075 0ccc 18       		.byte	0x18
 2076 0ccd 5C       		.byte	0x5c
 2077 0cce 19       		.byte	0x19
 2078 0ccf 610D0000 		.long	0xd61
 2079 0cd3 58       		.byte	0x58
 2080 0cd4 0B       		.uleb128 0xb
 2081 0cd5 88020000 		.long	.LASF189
 2082 0cd9 18       		.byte	0x18
 2083 0cda 5D       		.byte	0x5d
 2084 0cdb 14       		.byte	0x14
 2085 0cdc 350D0000 		.long	0xd35
 2086 0ce0 5C       		.byte	0x5c
 2087 0ce1 0B       		.uleb128 0xb
 2088 0ce2 BC070000 		.long	.LASF190
 2089 0ce6 18       		.byte	0x18
 2090 0ce7 5E       		.byte	0x5e
 2091 0ce8 09       		.byte	0x9
 2092 0ce9 FA000000 		.long	0xfa
 2093 0ced 60       		.byte	0x60
 2094 0cee 0B       		.uleb128 0xb
 2095 0cef 7F060000 		.long	.LASF191
 2096 0cf3 18       		.byte	0x18
 2097 0cf4 5F       		.byte	0x5f
GAS LISTING /tmp/ccJ7cV0m.s 			page 38


 2098 0cf5 0A       		.byte	0xa
 2099 0cf6 25000000 		.long	0x25
 2100 0cfa 64       		.byte	0x64
 2101 0cfb 0B       		.uleb128 0xb
 2102 0cfc 9C060000 		.long	.LASF192
 2103 0d00 18       		.byte	0x18
 2104 0d01 60       		.byte	0x60
 2105 0d02 07       		.byte	0x7
 2106 0d03 44000000 		.long	0x44
 2107 0d07 68       		.byte	0x68
 2108 0d08 0B       		.uleb128 0xb
 2109 0d09 A7040000 		.long	.LASF193
 2110 0d0d 18       		.byte	0x18
 2111 0d0e 62       		.byte	0x62
 2112 0d0f 08       		.byte	0x8
 2113 0d10 B60A0000 		.long	0xab6
 2114 0d14 6C       		.byte	0x6c
 2115 0d15 00       		.byte	0
 2116 0d16 02       		.uleb128 0x2
 2117 0d17 8E010000 		.long	.LASF194
 2118 0d1b 19       		.byte	0x19
 2119 0d1c 07       		.byte	0x7
 2120 0d1d 19       		.byte	0x19
 2121 0d1e 8F0B0000 		.long	0xb8f
 2122 0d22 20       		.uleb128 0x20
 2123 0d23 D6020000 		.long	.LASF257
 2124 0d27 18       		.byte	0x18
 2125 0d28 2B       		.byte	0x2b
 2126 0d29 0E       		.byte	0xe
 2127 0d2a 21       		.uleb128 0x21
 2128 0d2b B2010000 		.long	.LASF195
 2129 0d2f 06       		.uleb128 0x6
 2130 0d30 04       		.byte	0x4
 2131 0d31 2A0D0000 		.long	0xd2a
 2132 0d35 06       		.uleb128 0x6
 2133 0d36 04       		.byte	0x4
 2134 0d37 8F0B0000 		.long	0xb8f
 2135 0d3b 13       		.uleb128 0x13
 2136 0d3c 5B000000 		.long	0x5b
 2137 0d40 4B0D0000 		.long	0xd4b
 2138 0d44 14       		.uleb128 0x14
 2139 0d45 36000000 		.long	0x36
 2140 0d49 00       		.byte	0
 2141 0d4a 00       		.byte	0
 2142 0d4b 06       		.uleb128 0x6
 2143 0d4c 04       		.byte	0x4
 2144 0d4d 220D0000 		.long	0xd22
 2145 0d51 21       		.uleb128 0x21
 2146 0d52 69000000 		.long	.LASF196
 2147 0d56 06       		.uleb128 0x6
 2148 0d57 04       		.byte	0x4
 2149 0d58 510D0000 		.long	0xd51
 2150 0d5c 21       		.uleb128 0x21
 2151 0d5d 53020000 		.long	.LASF197
 2152 0d61 06       		.uleb128 0x6
 2153 0d62 04       		.byte	0x4
 2154 0d63 5C0D0000 		.long	0xd5c
GAS LISTING /tmp/ccJ7cV0m.s 			page 39


 2155 0d67 1D       		.uleb128 0x1d
 2156 0d68 3D030000 		.long	.LASF198
 2157 0d6c 1A       		.byte	0x1a
 2158 0d6d 89       		.byte	0x89
 2159 0d6e 0E       		.byte	0xe
 2160 0d6f 730D0000 		.long	0xd73
 2161 0d73 06       		.uleb128 0x6
 2162 0d74 04       		.byte	0x4
 2163 0d75 160D0000 		.long	0xd16
 2164 0d79 1D       		.uleb128 0x1d
 2165 0d7a 830A0000 		.long	.LASF199
 2166 0d7e 1A       		.byte	0x1a
 2167 0d7f 8A       		.byte	0x8a
 2168 0d80 0E       		.byte	0xe
 2169 0d81 730D0000 		.long	0xd73
 2170 0d85 1D       		.uleb128 0x1d
 2171 0d86 07090000 		.long	.LASF200
 2172 0d8a 1A       		.byte	0x1a
 2173 0d8b 8B       		.byte	0x8b
 2174 0d8c 0E       		.byte	0xe
 2175 0d8d 730D0000 		.long	0xd73
 2176 0d91 1D       		.uleb128 0x1d
 2177 0d92 42010000 		.long	.LASF201
 2178 0d96 1B       		.byte	0x1b
 2179 0d97 1A       		.byte	0x1a
 2180 0d98 0C       		.byte	0xc
 2181 0d99 44000000 		.long	0x44
 2182 0d9d 13       		.uleb128 0x13
 2183 0d9e 56000000 		.long	0x56
 2184 0da2 A80D0000 		.long	0xda8
 2185 0da6 1C       		.uleb128 0x1c
 2186 0da7 00       		.byte	0
 2187 0da8 07       		.uleb128 0x7
 2188 0da9 9D0D0000 		.long	0xd9d
 2189 0dad 1D       		.uleb128 0x1d
 2190 0dae 7B030000 		.long	.LASF202
 2191 0db2 1B       		.byte	0x1b
 2192 0db3 1B       		.byte	0x1b
 2193 0db4 1A       		.byte	0x1a
 2194 0db5 A80D0000 		.long	0xda8
 2195 0db9 1E       		.uleb128 0x1e
 2196 0dba 25000000 		.long	0x25
 2197 0dbe D20D0000 		.long	0xdd2
 2198 0dc2 11       		.uleb128 0x11
 2199 0dc3 FA000000 		.long	0xfa
 2200 0dc7 11       		.uleb128 0x11
 2201 0dc8 D20D0000 		.long	0xdd2
 2202 0dcc 11       		.uleb128 0x11
 2203 0dcd 25000000 		.long	0x25
 2204 0dd1 00       		.byte	0
 2205 0dd2 06       		.uleb128 0x6
 2206 0dd3 04       		.byte	0x4
 2207 0dd4 1F010000 		.long	0x11f
 2208 0dd8 06       		.uleb128 0x6
 2209 0dd9 04       		.byte	0x4
 2210 0dda B90D0000 		.long	0xdb9
 2211 0dde 1E       		.uleb128 0x1e
GAS LISTING /tmp/ccJ7cV0m.s 			page 40


 2212 0ddf 25000000 		.long	0x25
 2213 0de3 F70D0000 		.long	0xdf7
 2214 0de7 11       		.uleb128 0x11
 2215 0de8 FA000000 		.long	0xfa
 2216 0dec 11       		.uleb128 0x11
 2217 0ded 10090000 		.long	0x910
 2218 0df1 11       		.uleb128 0x11
 2219 0df2 25000000 		.long	0x25
 2220 0df6 00       		.byte	0
 2221 0df7 06       		.uleb128 0x6
 2222 0df8 04       		.byte	0x4
 2223 0df9 DE0D0000 		.long	0xdde
 2224 0dfd 1E       		.uleb128 0x1e
 2225 0dfe 84010000 		.long	0x184
 2226 0e02 110E0000 		.long	0xe11
 2227 0e06 11       		.uleb128 0x11
 2228 0e07 FA000000 		.long	0xfa
 2229 0e0b 11       		.uleb128 0x11
 2230 0e0c 13010000 		.long	0x113
 2231 0e10 00       		.byte	0
 2232 0e11 06       		.uleb128 0x6
 2233 0e12 04       		.byte	0x4
 2234 0e13 FD0D0000 		.long	0xdfd
 2235 0e17 1E       		.uleb128 0x1e
 2236 0e18 84010000 		.long	0x184
 2237 0e1c 260E0000 		.long	0xe26
 2238 0e20 11       		.uleb128 0x11
 2239 0e21 FA000000 		.long	0xfa
 2240 0e25 00       		.byte	0
 2241 0e26 06       		.uleb128 0x6
 2242 0e27 04       		.byte	0x4
 2243 0e28 170E0000 		.long	0xe17
 2244 0e2c 1E       		.uleb128 0x1e
 2245 0e2d 84010000 		.long	0x184
 2246 0e31 450E0000 		.long	0xe45
 2247 0e35 11       		.uleb128 0x11
 2248 0e36 FA000000 		.long	0xfa
 2249 0e3a 11       		.uleb128 0x11
 2250 0e3b 13010000 		.long	0x113
 2251 0e3f 11       		.uleb128 0x11
 2252 0e40 03050000 		.long	0x503
 2253 0e44 00       		.byte	0
 2254 0e45 06       		.uleb128 0x6
 2255 0e46 04       		.byte	0x4
 2256 0e47 2C0E0000 		.long	0xe2c
 2257 0e4b 1E       		.uleb128 0x1e
 2258 0e4c 84010000 		.long	0x184
 2259 0e50 5F0E0000 		.long	0xe5f
 2260 0e54 11       		.uleb128 0x11
 2261 0e55 FA000000 		.long	0xfa
 2262 0e59 11       		.uleb128 0x11
 2263 0e5a 03050000 		.long	0x503
 2264 0e5e 00       		.byte	0
 2265 0e5f 06       		.uleb128 0x6
 2266 0e60 04       		.byte	0x4
 2267 0e61 4B0E0000 		.long	0xe4b
 2268 0e65 1E       		.uleb128 0x1e
GAS LISTING /tmp/ccJ7cV0m.s 			page 41


 2269 0e66 25000000 		.long	0x25
 2270 0e6a 830E0000 		.long	0xe83
 2271 0e6e 11       		.uleb128 0x11
 2272 0e6f FA000000 		.long	0xfa
 2273 0e73 11       		.uleb128 0x11
 2274 0e74 D20D0000 		.long	0xdd2
 2275 0e78 11       		.uleb128 0x11
 2276 0e79 25000000 		.long	0x25
 2277 0e7d 11       		.uleb128 0x11
 2278 0e7e 03050000 		.long	0x503
 2279 0e82 00       		.byte	0
 2280 0e83 06       		.uleb128 0x6
 2281 0e84 04       		.byte	0x4
 2282 0e85 650E0000 		.long	0xe65
 2283 0e89 1E       		.uleb128 0x1e
 2284 0e8a 25000000 		.long	0x25
 2285 0e8e A70E0000 		.long	0xea7
 2286 0e92 11       		.uleb128 0x11
 2287 0e93 FA000000 		.long	0xfa
 2288 0e97 11       		.uleb128 0x11
 2289 0e98 10090000 		.long	0x910
 2290 0e9c 11       		.uleb128 0x11
 2291 0e9d 25000000 		.long	0x25
 2292 0ea1 11       		.uleb128 0x11
 2293 0ea2 03050000 		.long	0x503
 2294 0ea6 00       		.byte	0
 2295 0ea7 06       		.uleb128 0x6
 2296 0ea8 04       		.byte	0x4
 2297 0ea9 890E0000 		.long	0xe89
 2298 0ead 1E       		.uleb128 0x1e
 2299 0eae 84010000 		.long	0x184
 2300 0eb2 C60E0000 		.long	0xec6
 2301 0eb6 11       		.uleb128 0x11
 2302 0eb7 FA000000 		.long	0xfa
 2303 0ebb 11       		.uleb128 0x11
 2304 0ebc 36000000 		.long	0x36
 2305 0ec0 11       		.uleb128 0x11
 2306 0ec1 FA000000 		.long	0xfa
 2307 0ec5 00       		.byte	0
 2308 0ec6 06       		.uleb128 0x6
 2309 0ec7 04       		.byte	0x4
 2310 0ec8 AD0E0000 		.long	0xead
 2311 0ecc 02       		.uleb128 0x2
 2312 0ecd 74090000 		.long	.LASF203
 2313 0ed1 1C       		.byte	0x1c
 2314 0ed2 3A       		.byte	0x3a
 2315 0ed3 19       		.byte	0x19
 2316 0ed4 D80E0000 		.long	0xed8
 2317 0ed8 0A       		.uleb128 0xa
 2318 0ed9 26020000 		.long	.LASF204
 2319 0edd 24       		.byte	0x24
 2320 0ede 1C       		.byte	0x1c
 2321 0edf 4B       		.byte	0x4b
 2322 0ee0 08       		.byte	0x8
 2323 0ee1 4E0F0000 		.long	0xf4e
 2324 0ee5 0B       		.uleb128 0xb
 2325 0ee6 9B080000 		.long	.LASF205
GAS LISTING /tmp/ccJ7cV0m.s 			page 42


 2326 0eea 1C       		.byte	0x1c
 2327 0eeb 4C       		.byte	0x4c
 2328 0eec 19       		.byte	0x19
 2329 0eed F5020000 		.long	0x2f5
 2330 0ef1 00       		.byte	0
 2331 0ef2 0B       		.uleb128 0xb
 2332 0ef3 D4070000 		.long	.LASF206
 2333 0ef7 1C       		.byte	0x1c
 2334 0ef8 4D       		.byte	0x4d
 2335 0ef9 19       		.byte	0x19
 2336 0efa 31000000 		.long	0x31
 2337 0efe 08       		.byte	0x8
 2338 0eff 0B       		.uleb128 0xb
 2339 0f00 72010000 		.long	.LASF207
 2340 0f04 1C       		.byte	0x1c
 2341 0f05 4E       		.byte	0x4e
 2342 0f06 1A       		.byte	0x1a
 2343 0f07 10090000 		.long	0x910
 2344 0f0b 0C       		.byte	0xc
 2345 0f0c 0B       		.uleb128 0xb
 2346 0f0d 5E010000 		.long	.LASF208
 2347 0f11 1C       		.byte	0x1c
 2348 0f12 4F       		.byte	0x4f
 2349 0f13 1A       		.byte	0x1a
 2350 0f14 10090000 		.long	0x910
 2351 0f18 10       		.byte	0x10
 2352 0f19 0B       		.uleb128 0xb
 2353 0f1a 680A0000 		.long	.LASF209
 2354 0f1e 1C       		.byte	0x1c
 2355 0f1f 51       		.byte	0x51
 2356 0f20 1A       		.byte	0x1a
 2357 0f21 10090000 		.long	0x910
 2358 0f25 14       		.byte	0x14
 2359 0f26 0B       		.uleb128 0xb
 2360 0f27 A5010000 		.long	.LASF210
 2361 0f2b 1C       		.byte	0x1c
 2362 0f2c 52       		.byte	0x52
 2363 0f2d 1A       		.byte	0x1a
 2364 0f2e 10090000 		.long	0x910
 2365 0f32 18       		.byte	0x18
 2366 0f33 0B       		.uleb128 0xb
 2367 0f34 7B010000 		.long	.LASF211
 2368 0f38 1C       		.byte	0x1c
 2369 0f39 53       		.byte	0x53
 2370 0f3a 19       		.byte	0x19
 2371 0f3b 4E0F0000 		.long	0xf4e
 2372 0f3f 1C       		.byte	0x1c
 2373 0f40 0B       		.uleb128 0xb
 2374 0f41 81020000 		.long	.LASF212
 2375 0f45 1C       		.byte	0x1c
 2376 0f46 54       		.byte	0x54
 2377 0f47 1A       		.byte	0x1a
 2378 0f48 FA000000 		.long	0xfa
 2379 0f4c 20       		.byte	0x20
 2380 0f4d 00       		.byte	0
 2381 0f4e 02       		.uleb128 0x2
 2382 0f4f 32060000 		.long	.LASF213
GAS LISTING /tmp/ccJ7cV0m.s 			page 43


 2383 0f53 1C       		.byte	0x1c
 2384 0f54 41       		.byte	0x41
 2385 0f55 10       		.byte	0x10
 2386 0f56 5A0F0000 		.long	0xf5a
 2387 0f5a 06       		.uleb128 0x6
 2388 0f5b 04       		.byte	0x4
 2389 0f5c 600F0000 		.long	0xf60
 2390 0f60 10       		.uleb128 0x10
 2391 0f61 6B0F0000 		.long	0xf6b
 2392 0f65 11       		.uleb128 0x11
 2393 0f66 6B0F0000 		.long	0xf6b
 2394 0f6a 00       		.byte	0
 2395 0f6b 06       		.uleb128 0x6
 2396 0f6c 04       		.byte	0x4
 2397 0f6d CC0E0000 		.long	0xecc
 2398 0f71 02       		.uleb128 0x2
 2399 0f72 280A0000 		.long	.LASF214
 2400 0f76 1C       		.byte	0x1c
 2401 0f77 61       		.byte	0x61
 2402 0f78 14       		.byte	0x14
 2403 0f79 CC0E0000 		.long	0xecc
 2404 0f7d 02       		.uleb128 0x2
 2405 0f7e B50A0000 		.long	.LASF215
 2406 0f82 1C       		.byte	0x1c
 2407 0f83 6D       		.byte	0x6d
 2408 0f84 14       		.byte	0x14
 2409 0f85 CC0E0000 		.long	0xecc
 2410 0f89 12       		.uleb128 0x12
 2411 0f8a 0C       		.byte	0xc
 2412 0f8b 1D       		.byte	0x1d
 2413 0f8c 2E       		.byte	0x2e
 2414 0f8d 09       		.byte	0x9
 2415 0f8e BA0F0000 		.long	0xfba
 2416 0f92 0B       		.uleb128 0xb
 2417 0f93 7C050000 		.long	.LASF216
 2418 0f97 1D       		.byte	0x1d
 2419 0f98 33       		.byte	0x33
 2420 0f99 15       		.byte	0x15
 2421 0f9a 30010000 		.long	0x130
 2422 0f9e 00       		.byte	0
 2423 0f9f 0C       		.uleb128 0xc
 2424 0fa0 70696E00 		.string	"pin"
 2425 0fa4 1D       		.byte	0x1d
 2426 0fa5 39       		.byte	0x39
 2427 0fa6 15       		.byte	0x15
 2428 0fa7 30010000 		.long	0x130
 2429 0fab 04       		.byte	0x4
 2430 0fac 0C       		.uleb128 0xc
 2431 0fad 64697200 		.string	"dir"
 2432 0fb1 1D       		.byte	0x1d
 2433 0fb2 3E       		.byte	0x3e
 2434 0fb3 15       		.byte	0x15
 2435 0fb4 30010000 		.long	0x130
 2436 0fb8 08       		.byte	0x8
 2437 0fb9 00       		.byte	0
 2438 0fba 02       		.uleb128 0x2
 2439 0fbb 0E070000 		.long	.LASF217
GAS LISTING /tmp/ccJ7cV0m.s 			page 44


 2440 0fbf 1D       		.byte	0x1d
 2441 0fc0 3F       		.byte	0x3f
 2442 0fc1 03       		.byte	0x3
 2443 0fc2 890F0000 		.long	0xf89
 2444 0fc6 12       		.uleb128 0x12
 2445 0fc7 18       		.byte	0x18
 2446 0fc8 1D       		.byte	0x1d
 2447 0fc9 48       		.byte	0x48
 2448 0fca 09       		.byte	0x9
 2449 0fcb EA0F0000 		.long	0xfea
 2450 0fcf 0B       		.uleb128 0xb
 2451 0fd0 EB010000 		.long	.LASF218
 2452 0fd4 1D       		.byte	0x1d
 2453 0fd5 4C       		.byte	0x4c
 2454 0fd6 15       		.byte	0x15
 2455 0fd7 BA0F0000 		.long	0xfba
 2456 0fdb 00       		.byte	0
 2457 0fdc 0B       		.uleb128 0xb
 2458 0fdd 07040000 		.long	.LASF219
 2459 0fe1 1D       		.byte	0x1d
 2460 0fe2 50       		.byte	0x50
 2461 0fe3 15       		.byte	0x15
 2462 0fe4 BA0F0000 		.long	0xfba
 2463 0fe8 0C       		.byte	0xc
 2464 0fe9 00       		.byte	0
 2465 0fea 02       		.uleb128 0x2
 2466 0feb 7F090000 		.long	.LASF220
 2467 0fef 1D       		.byte	0x1d
 2468 0ff0 51       		.byte	0x51
 2469 0ff1 03       		.byte	0x3
 2470 0ff2 C60F0000 		.long	0xfc6
 2471 0ff6 07       		.uleb128 0x7
 2472 0ff7 EA0F0000 		.long	0xfea
 2473 0ffb 1D       		.uleb128 0x1d
 2474 0ffc D2030000 		.long	.LASF221
 2475 1000 1D       		.byte	0x1d
 2476 1001 F8       		.byte	0xf8
 2477 1002 17       		.byte	0x17
 2478 1003 BA0F0000 		.long	0xfba
 2479 1007 1D       		.uleb128 0x1d
 2480 1008 DD030000 		.long	.LASF222
 2481 100c 1D       		.byte	0x1d
 2482 100d F9       		.byte	0xf9
 2483 100e 17       		.byte	0x17
 2484 100f BA0F0000 		.long	0xfba
 2485 1013 1D       		.uleb128 0x1d
 2486 1014 09020000 		.long	.LASF223
 2487 1018 1D       		.byte	0x1d
 2488 1019 FA       		.byte	0xfa
 2489 101a 18       		.byte	0x18
 2490 101b F60F0000 		.long	0xff6
 2491 101f 22       		.uleb128 0x22
 2492 1020 07       		.byte	0x7
 2493 1021 04       		.byte	0x4
 2494 1022 36000000 		.long	0x36
 2495 1026 1E       		.byte	0x1e
 2496 1027 58       		.byte	0x58
GAS LISTING /tmp/ccJ7cV0m.s 			page 45


 2497 1028 0E       		.byte	0xe
 2498 1029 40100000 		.long	0x1040
 2499 102d 23       		.uleb128 0x23
 2500 102e B8020000 		.long	.LASF224
 2501 1032 00       		.byte	0
 2502 1033 23       		.uleb128 0x23
 2503 1034 D70A0000 		.long	.LASF225
 2504 1038 01       		.byte	0x1
 2505 1039 23       		.uleb128 0x23
 2506 103a BD080000 		.long	.LASF226
 2507 103e 02       		.byte	0x2
 2508 103f 00       		.byte	0
 2509 1040 02       		.uleb128 0x2
 2510 1041 B3080000 		.long	.LASF227
 2511 1045 1E       		.byte	0x1e
 2512 1046 5C       		.byte	0x5c
 2513 1047 03       		.byte	0x3
 2514 1048 1F100000 		.long	0x101f
 2515 104c 02       		.uleb128 0x2
 2516 104d 2D080000 		.long	.LASF228
 2517 1051 1E       		.byte	0x1e
 2518 1052 61       		.byte	0x61
 2519 1053 1D       		.byte	0x1d
 2520 1054 58100000 		.long	0x1058
 2521 1058 0A       		.uleb128 0xa
 2522 1059 2D080000 		.long	.LASF228
 2523 105d A0       		.byte	0xa0
 2524 105e 1E       		.byte	0x1e
 2525 105f 7B       		.byte	0x7b
 2526 1060 08       		.byte	0x8
 2527 1061 E6100000 		.long	0x10e6
 2528 1065 0C       		.uleb128 0xc
 2529 1066 766D7400 		.string	"vmt"
 2530 106a 1E       		.byte	0x1e
 2531 106b 7D       		.byte	0x7d
 2532 106c 21       		.byte	0x21
 2533 106d 93110000 		.long	0x1193
 2534 1071 00       		.byte	0
 2535 1072 0B       		.uleb128 0xb
 2536 1073 3C060000 		.long	.LASF229
 2537 1077 1E       		.byte	0x1e
 2538 1078 7E       		.byte	0x7e
 2539 1079 03       		.byte	0x3
 2540 107a BA080000 		.long	0x8ba
 2541 107e 04       		.byte	0x4
 2542 107f 0B       		.uleb128 0xb
 2543 1080 F1000000 		.long	.LASF42
 2544 1084 1E       		.byte	0x1e
 2545 1085 7E       		.byte	0x7e
 2546 1086 03       		.byte	0x3
 2547 1087 40100000 		.long	0x1040
 2548 108b 08       		.byte	0x8
 2549 108c 0B       		.uleb128 0xb
 2550 108d 3C090000 		.long	.LASF230
 2551 1091 1E       		.byte	0x1e
 2552 1092 7E       		.byte	0x7e
 2553 1093 03       		.byte	0x3
GAS LISTING /tmp/ccJ7cV0m.s 			page 46


 2554 1094 710F0000 		.long	0xf71
 2555 1098 0C       		.byte	0xc
 2556 1099 0B       		.uleb128 0xb
 2557 109a DF010000 		.long	.LASF231
 2558 109e 1E       		.byte	0x1e
 2559 109f 7E       		.byte	0x7e
 2560 10a0 03       		.byte	0x3
 2561 10a1 7D0F0000 		.long	0xf7d
 2562 10a5 30       		.byte	0x30
 2563 10a6 0C       		.uleb128 0xc
 2564 10a7 696200   		.string	"ib"
 2565 10aa 1E       		.byte	0x1e
 2566 10ab 7E       		.byte	0x7e
 2567 10ac 03       		.byte	0x3
 2568 10ad 99110000 		.long	0x1199
 2569 10b1 54       		.byte	0x54
 2570 10b2 0C       		.uleb128 0xc
 2571 10b3 6F6200   		.string	"ob"
 2572 10b6 1E       		.byte	0x1e
 2573 10b7 7E       		.byte	0x7e
 2574 10b8 03       		.byte	0x3
 2575 10b9 99110000 		.long	0x1199
 2576 10bd 74       		.byte	0x74
 2577 10be 0B       		.uleb128 0xb
 2578 10bf C2000000 		.long	.LASF232
 2579 10c3 1E       		.byte	0x1e
 2580 10c4 7E       		.byte	0x7e
 2581 10c5 03       		.byte	0x3
 2582 10c6 44000000 		.long	0x44
 2583 10ca 94       		.byte	0x94
 2584 10cb 0B       		.uleb128 0xb
 2585 10cc 49030000 		.long	.LASF233
 2586 10d0 1E       		.byte	0x1e
 2587 10d1 7E       		.byte	0x7e
 2588 10d2 03       		.byte	0x3
 2589 10d3 44000000 		.long	0x44
 2590 10d7 98       		.byte	0x98
 2591 10d8 0B       		.uleb128 0xb
 2592 10d9 9C010000 		.long	.LASF234
 2593 10dd 1E       		.byte	0x1e
 2594 10de 7E       		.byte	0x7e
 2595 10df 03       		.byte	0x3
 2596 10e0 4B000000 		.long	0x4b
 2597 10e4 9C       		.byte	0x9c
 2598 10e5 00       		.byte	0
 2599 10e6 24       		.uleb128 0x24
 2600 10e7 53443100 		.string	"SD1"
 2601 10eb 1F       		.byte	0x1f
 2602 10ec 7A       		.byte	0x7a
 2603 10ed 15       		.byte	0x15
 2604 10ee 4C100000 		.long	0x104c
 2605 10f2 24       		.uleb128 0x24
 2606 10f3 53443200 		.string	"SD2"
 2607 10f7 1F       		.byte	0x1f
 2608 10f8 7D       		.byte	0x7d
 2609 10f9 15       		.byte	0x15
 2610 10fa 4C100000 		.long	0x104c
GAS LISTING /tmp/ccJ7cV0m.s 			page 47


 2611 10fe 0A       		.uleb128 0xa
 2612 10ff E6040000 		.long	.LASF235
 2613 1103 28       		.byte	0x28
 2614 1104 1E       		.byte	0x1e
 2615 1105 70       		.byte	0x70
 2616 1106 08       		.byte	0x8
 2617 1107 8E110000 		.long	0x118e
 2618 110b 0B       		.uleb128 0xb
 2619 110c 100A0000 		.long	.LASF236
 2620 1110 1E       		.byte	0x1e
 2621 1111 71       		.byte	0x71
 2622 1112 03       		.byte	0x3
 2623 1113 25000000 		.long	0x25
 2624 1117 00       		.byte	0
 2625 1118 0B       		.uleb128 0xb
 2626 1119 CD000000 		.long	.LASF237
 2627 111d 1E       		.byte	0x1e
 2628 111e 71       		.byte	0x71
 2629 111f 03       		.byte	0x3
 2630 1120 D80D0000 		.long	0xdd8
 2631 1124 04       		.byte	0x4
 2632 1125 0B       		.uleb128 0xb
 2633 1126 42060000 		.long	.LASF238
 2634 112a 1E       		.byte	0x1e
 2635 112b 71       		.byte	0x71
 2636 112c 03       		.byte	0x3
 2637 112d F70D0000 		.long	0xdf7
 2638 1131 08       		.byte	0x8
 2639 1132 0C       		.uleb128 0xc
 2640 1133 70757400 		.string	"put"
 2641 1137 1E       		.byte	0x1e
 2642 1138 71       		.byte	0x71
 2643 1139 03       		.byte	0x3
 2644 113a 110E0000 		.long	0xe11
 2645 113e 0C       		.byte	0xc
 2646 113f 0C       		.uleb128 0xc
 2647 1140 67657400 		.string	"get"
 2648 1144 1E       		.byte	0x1e
 2649 1145 71       		.byte	0x71
 2650 1146 03       		.byte	0x3
 2651 1147 260E0000 		.long	0xe26
 2652 114b 10       		.byte	0x10
 2653 114c 0B       		.uleb128 0xb
 2654 114d FD000000 		.long	.LASF239
 2655 1151 1E       		.byte	0x1e
 2656 1152 71       		.byte	0x71
 2657 1153 03       		.byte	0x3
 2658 1154 450E0000 		.long	0xe45
 2659 1158 14       		.byte	0x14
 2660 1159 0B       		.uleb128 0xb
 2661 115a EC020000 		.long	.LASF240
 2662 115e 1E       		.byte	0x1e
 2663 115f 71       		.byte	0x71
 2664 1160 03       		.byte	0x3
 2665 1161 5F0E0000 		.long	0xe5f
 2666 1165 18       		.byte	0x18
 2667 1166 0B       		.uleb128 0xb
GAS LISTING /tmp/ccJ7cV0m.s 			page 48


 2668 1167 7D000000 		.long	.LASF241
 2669 116b 1E       		.byte	0x1e
 2670 116c 71       		.byte	0x71
 2671 116d 03       		.byte	0x3
 2672 116e 830E0000 		.long	0xe83
 2673 1172 1C       		.byte	0x1c
 2674 1173 0B       		.uleb128 0xb
 2675 1174 6C010000 		.long	.LASF242
 2676 1178 1E       		.byte	0x1e
 2677 1179 71       		.byte	0x71
 2678 117a 03       		.byte	0x3
 2679 117b A70E0000 		.long	0xea7
 2680 117f 20       		.byte	0x20
 2681 1180 0C       		.uleb128 0xc
 2682 1181 63746C00 		.string	"ctl"
 2683 1185 1E       		.byte	0x1e
 2684 1186 71       		.byte	0x71
 2685 1187 03       		.byte	0x3
 2686 1188 C60E0000 		.long	0xec6
 2687 118c 24       		.byte	0x24
 2688 118d 00       		.byte	0
 2689 118e 07       		.uleb128 0x7
 2690 118f FE100000 		.long	0x10fe
 2691 1193 06       		.uleb128 0x6
 2692 1194 04       		.byte	0x4
 2693 1195 8E110000 		.long	0x118e
 2694 1199 13       		.uleb128 0x13
 2695 119a 13010000 		.long	0x113
 2696 119e A9110000 		.long	0x11a9
 2697 11a2 14       		.uleb128 0x14
 2698 11a3 36000000 		.long	0x36
 2699 11a7 1F       		.byte	0x1f
 2700 11a8 00       		.byte	0
 2701 11a9 0A       		.uleb128 0xa
 2702 11aa 45040000 		.long	.LASF243
 2703 11ae 14       		.byte	0x14
 2704 11af 20       		.byte	0x20
 2705 11b0 3D       		.byte	0x3d
 2706 11b1 08       		.byte	0x8
 2707 11b2 F8110000 		.long	0x11f8
 2708 11b6 0B       		.uleb128 0xb
 2709 11b7 100A0000 		.long	.LASF236
 2710 11bb 20       		.byte	0x20
 2711 11bc 3E       		.byte	0x3e
 2712 11bd 03       		.byte	0x3
 2713 11be 25000000 		.long	0x25
 2714 11c2 00       		.byte	0
 2715 11c3 0B       		.uleb128 0xb
 2716 11c4 CD000000 		.long	.LASF237
 2717 11c8 20       		.byte	0x20
 2718 11c9 3E       		.byte	0x3e
 2719 11ca 03       		.byte	0x3
 2720 11cb D80D0000 		.long	0xdd8
 2721 11cf 04       		.byte	0x4
 2722 11d0 0B       		.uleb128 0xb
 2723 11d1 42060000 		.long	.LASF238
 2724 11d5 20       		.byte	0x20
GAS LISTING /tmp/ccJ7cV0m.s 			page 49


 2725 11d6 3E       		.byte	0x3e
 2726 11d7 03       		.byte	0x3
 2727 11d8 F70D0000 		.long	0xdf7
 2728 11dc 08       		.byte	0x8
 2729 11dd 0C       		.uleb128 0xc
 2730 11de 70757400 		.string	"put"
 2731 11e2 20       		.byte	0x20
 2732 11e3 3E       		.byte	0x3e
 2733 11e4 03       		.byte	0x3
 2734 11e5 110E0000 		.long	0xe11
 2735 11e9 0C       		.byte	0xc
 2736 11ea 0C       		.uleb128 0xc
 2737 11eb 67657400 		.string	"get"
 2738 11ef 20       		.byte	0x20
 2739 11f0 3E       		.byte	0x3e
 2740 11f1 03       		.byte	0x3
 2741 11f2 260E0000 		.long	0xe26
 2742 11f6 10       		.byte	0x10
 2743 11f7 00       		.byte	0
 2744 11f8 07       		.uleb128 0x7
 2745 11f9 A9110000 		.long	0x11a9
 2746 11fd 12       		.uleb128 0x12
 2747 11fe 14       		.byte	0x14
 2748 11ff 20       		.byte	0x20
 2749 1200 46       		.byte	0x46
 2750 1201 09       		.byte	0x9
 2751 1202 48120000 		.long	0x1248
 2752 1206 0C       		.uleb128 0xc
 2753 1207 766D7400 		.string	"vmt"
 2754 120b 20       		.byte	0x20
 2755 120c 48       		.byte	0x48
 2756 120d 1E       		.byte	0x1e
 2757 120e 48120000 		.long	0x1248
 2758 1212 00       		.byte	0
 2759 1213 0B       		.uleb128 0xb
 2760 1214 C4030000 		.long	.LASF244
 2761 1218 20       		.byte	0x20
 2762 1219 49       		.byte	0x49
 2763 121a 03       		.byte	0x3
 2764 121b 10090000 		.long	0x910
 2765 121f 04       		.byte	0x4
 2766 1220 0B       		.uleb128 0xb
 2767 1221 5C070000 		.long	.LASF102
 2768 1225 20       		.byte	0x20
 2769 1226 49       		.byte	0x49
 2770 1227 03       		.byte	0x3
 2771 1228 25000000 		.long	0x25
 2772 122c 08       		.byte	0x8
 2773 122d 0C       		.uleb128 0xc
 2774 122e 656F7300 		.string	"eos"
 2775 1232 20       		.byte	0x20
 2776 1233 49       		.byte	0x49
 2777 1234 03       		.byte	0x3
 2778 1235 25000000 		.long	0x25
 2779 1239 0C       		.byte	0xc
 2780 123a 0B       		.uleb128 0xb
 2781 123b 95060000 		.long	.LASF86
GAS LISTING /tmp/ccJ7cV0m.s 			page 50


 2782 123f 20       		.byte	0x20
 2783 1240 49       		.byte	0x49
 2784 1241 03       		.byte	0x3
 2785 1242 25000000 		.long	0x25
 2786 1246 10       		.byte	0x10
 2787 1247 00       		.byte	0
 2788 1248 06       		.uleb128 0x6
 2789 1249 04       		.byte	0x4
 2790 124a F8110000 		.long	0x11f8
 2791 124e 02       		.uleb128 0x2
 2792 124f 08000000 		.long	.LASF245
 2793 1253 20       		.byte	0x20
 2794 1254 4A       		.byte	0x4a
 2795 1255 03       		.byte	0x3
 2796 1256 FD110000 		.long	0x11fd
 2797 125a 25       		.uleb128 0x25
 2798 125b 766D7400 		.string	"vmt"
 2799 125f 01       		.byte	0x1
 2800 1260 57       		.byte	0x57
 2801 1261 22       		.byte	0x22
 2802 1262 F8110000 		.long	0x11f8
 2803 1266 05       		.uleb128 0x5
 2804 1267 03       		.byte	0x3
 2805 1268 00000000 		.long	vmt
 2806 126c 26       		.uleb128 0x26
 2807 126d F3010000 		.long	.LASF258
 2808 1271 01       		.byte	0x1
 2809 1272 67       		.byte	0x67
 2810 1273 06       		.byte	0x6
 2811 1274 00000000 		.long	.LFB237
 2812 1278 34000000 		.long	.LFE237-.LFB237
 2813 127c 01       		.uleb128 0x1
 2814 127d 9C       		.byte	0x9c
 2815 127e BF120000 		.long	0x12bf
 2816 1282 27       		.uleb128 0x27
 2817 1283 6D737000 		.string	"msp"
 2818 1287 01       		.byte	0x1
 2819 1288 67       		.byte	0x67
 2820 1289 21       		.byte	0x21
 2821 128a BF120000 		.long	0x12bf
 2822 128e 02       		.uleb128 0x2
 2823 128f 91       		.byte	0x91
 2824 1290 00       		.sleb128 0
 2825 1291 28       		.uleb128 0x28
 2826 1292 C4030000 		.long	.LASF244
 2827 1296 01       		.byte	0x1
 2828 1297 67       		.byte	0x67
 2829 1298 2F       		.byte	0x2f
 2830 1299 10090000 		.long	0x910
 2831 129d 02       		.uleb128 0x2
 2832 129e 91       		.byte	0x91
 2833 129f 04       		.sleb128 4
 2834 12a0 28       		.uleb128 0x28
 2835 12a1 5C070000 		.long	.LASF102
 2836 12a5 01       		.byte	0x1
 2837 12a6 68       		.byte	0x68
 2838 12a7 1A       		.byte	0x1a
GAS LISTING /tmp/ccJ7cV0m.s 			page 51


 2839 12a8 25000000 		.long	0x25
 2840 12ac 02       		.uleb128 0x2
 2841 12ad 91       		.byte	0x91
 2842 12ae 08       		.sleb128 8
 2843 12af 27       		.uleb128 0x27
 2844 12b0 656F7300 		.string	"eos"
 2845 12b4 01       		.byte	0x1
 2846 12b5 68       		.byte	0x68
 2847 12b6 27       		.byte	0x27
 2848 12b7 25000000 		.long	0x25
 2849 12bb 02       		.uleb128 0x2
 2850 12bc 91       		.byte	0x91
 2851 12bd 0C       		.sleb128 12
 2852 12be 00       		.byte	0
 2853 12bf 06       		.uleb128 0x6
 2854 12c0 04       		.byte	0x4
 2855 12c1 4E120000 		.long	0x124e
 2856 12c5 29       		.uleb128 0x29
 2857 12c6 E6010000 		.long	.LASF246
 2858 12ca 01       		.byte	0x1
 2859 12cb 4C       		.byte	0x4c
 2860 12cc 0E       		.byte	0xe
 2861 12cd 84010000 		.long	0x184
 2862 12d1 00000000 		.long	.LFB236
 2863 12d5 20000000 		.long	.LFE236-.LFB236
 2864 12d9 01       		.uleb128 0x1
 2865 12da 9C       		.byte	0x9c
 2866 12db 14130000 		.long	0x1314
 2867 12df 27       		.uleb128 0x27
 2868 12e0 697000   		.string	"ip"
 2869 12e3 01       		.byte	0x1
 2870 12e4 4C       		.byte	0x4c
 2871 12e5 19       		.byte	0x19
 2872 12e6 FA000000 		.long	0xfa
 2873 12ea 02       		.uleb128 0x2
 2874 12eb 91       		.byte	0x91
 2875 12ec 00       		.sleb128 0
 2876 12ed 2A       		.uleb128 0x2a
 2877 12ee 6200     		.string	"b"
 2878 12f0 01       		.byte	0x1
 2879 12f1 4D       		.byte	0x4d
 2880 12f2 0B       		.byte	0xb
 2881 12f3 13010000 		.long	0x113
 2882 12f7 02000000 		.long	.LLST2
 2883 12fb 00000000 		.long	.LVUS2
 2884 12ff 2A       		.uleb128 0x2a
 2885 1300 6D737000 		.string	"msp"
 2886 1304 01       		.byte	0x1
 2887 1305 4E       		.byte	0x4e
 2888 1306 11       		.byte	0x11
 2889 1307 BF120000 		.long	0x12bf
 2890 130b 17000000 		.long	.LLST3
 2891 130f 15000000 		.long	.LVUS3
 2892 1313 00       		.byte	0
 2893 1314 29       		.uleb128 0x29
 2894 1315 89050000 		.long	.LASF247
 2895 1319 01       		.byte	0x1
GAS LISTING /tmp/ccJ7cV0m.s 			page 52


 2896 131a 42       		.byte	0x42
 2897 131b 0E       		.byte	0xe
 2898 131c 84010000 		.long	0x184
 2899 1320 00000000 		.long	.LFB235
 2900 1324 26000000 		.long	.LFE235-.LFB235
 2901 1328 01       		.uleb128 0x1
 2902 1329 9C       		.byte	0x9c
 2903 132a 63130000 		.long	0x1363
 2904 132e 2B       		.uleb128 0x2b
 2905 132f 697000   		.string	"ip"
 2906 1332 01       		.byte	0x1
 2907 1333 42       		.byte	0x42
 2908 1334 19       		.byte	0x19
 2909 1335 FA000000 		.long	0xfa
 2910 1339 31000000 		.long	.LLST0
 2911 133d 2B000000 		.long	.LVUS0
 2912 1341 27       		.uleb128 0x27
 2913 1342 6200     		.string	"b"
 2914 1344 01       		.byte	0x1
 2915 1345 42       		.byte	0x42
 2916 1346 25       		.byte	0x25
 2917 1347 13010000 		.long	0x113
 2918 134b 02       		.uleb128 0x2
 2919 134c 91       		.byte	0x91
 2920 134d 04       		.sleb128 4
 2921 134e 2A       		.uleb128 0x2a
 2922 134f 6D737000 		.string	"msp"
 2923 1353 01       		.byte	0x1
 2924 1354 43       		.byte	0x43
 2925 1355 11       		.byte	0x11
 2926 1356 BF120000 		.long	0x12bf
 2927 135a 62000000 		.long	.LLST1
 2928 135e 5C000000 		.long	.LVUS1
 2929 1362 00       		.byte	0
 2930 1363 29       		.uleb128 0x29
 2931 1364 19010000 		.long	.LASF248
 2932 1368 01       		.byte	0x1
 2933 1369 38       		.byte	0x38
 2934 136a 0F       		.byte	0xf
 2935 136b 25000000 		.long	0x25
 2936 136f 00000000 		.long	.LFB234
 2937 1373 40000000 		.long	.LFE234-.LFB234
 2938 1377 01       		.uleb128 0x1
 2939 1378 9C       		.byte	0x9c
 2940 1379 02140000 		.long	0x1402
 2941 137d 27       		.uleb128 0x27
 2942 137e 697000   		.string	"ip"
 2943 1381 01       		.byte	0x1
 2944 1382 38       		.byte	0x38
 2945 1383 1C       		.byte	0x1c
 2946 1384 FA000000 		.long	0xfa
 2947 1388 02       		.uleb128 0x2
 2948 1389 91       		.byte	0x91
 2949 138a 00       		.sleb128 0
 2950 138b 27       		.uleb128 0x27
 2951 138c 627000   		.string	"bp"
 2952 138f 01       		.byte	0x1
GAS LISTING /tmp/ccJ7cV0m.s 			page 53


 2953 1390 38       		.byte	0x38
 2954 1391 29       		.byte	0x29
 2955 1392 10090000 		.long	0x910
 2956 1396 02       		.uleb128 0x2
 2957 1397 91       		.byte	0x91
 2958 1398 04       		.sleb128 4
 2959 1399 2B       		.uleb128 0x2b
 2960 139a 6E00     		.string	"n"
 2961 139c 01       		.byte	0x1
 2962 139d 38       		.byte	0x38
 2963 139e 34       		.byte	0x34
 2964 139f 25000000 		.long	0x25
 2965 13a3 93000000 		.long	.LLST9
 2966 13a7 8D000000 		.long	.LVUS9
 2967 13ab 2A       		.uleb128 0x2a
 2968 13ac 6D737000 		.string	"msp"
 2969 13b0 01       		.byte	0x1
 2970 13b1 39       		.byte	0x39
 2971 13b2 11       		.byte	0x11
 2972 13b3 BF120000 		.long	0x12bf
 2973 13b7 BF000000 		.long	.LLST10
 2974 13bb BD000000 		.long	.LVUS10
 2975 13bf 2C       		.uleb128 0x2c
 2976 13c0 A1140000 		.long	0x14a1
 2977 13c4 23000000 		.long	.LBI10
 2978 13c8 01       		.byte	.LVU61
 2979 13c9 18000000 		.long	.Ldebug_ranges0+0x18
 2980 13cd 01       		.byte	0x1
 2981 13ce 3D       		.byte	0x3d
 2982 13cf 03       		.byte	0x3
 2983 13d0 2D       		.uleb128 0x2d
 2984 13d1 CA140000 		.long	0x14ca
 2985 13d5 D5000000 		.long	.LLST11
 2986 13d9 D3000000 		.long	.LVUS11
 2987 13dd 2D       		.uleb128 0x2d
 2988 13de BE140000 		.long	0x14be
 2989 13e2 EC000000 		.long	.LLST12
 2990 13e6 E8000000 		.long	.LVUS12
 2991 13ea 2D       		.uleb128 0x2d
 2992 13eb B2140000 		.long	0x14b2
 2993 13ef 15010000 		.long	.LLST13
 2994 13f3 13010000 		.long	.LVUS13
 2995 13f7 2E       		.uleb128 0x2e
 2996 13f8 34000000 		.long	.LVL18
 2997 13fc E3140000 		.long	0x14e3
 2998 1400 00       		.byte	0
 2999 1401 00       		.byte	0
 3000 1402 29       		.uleb128 0x29
 3001 1403 FF080000 		.long	.LASF249
 3002 1407 01       		.byte	0x1
 3003 1408 2E       		.byte	0x2e
 3004 1409 0F       		.byte	0xf
 3005 140a 25000000 		.long	0x25
 3006 140e 00000000 		.long	.LFB233
 3007 1412 40000000 		.long	.LFE233-.LFB233
 3008 1416 01       		.uleb128 0x1
 3009 1417 9C       		.byte	0x9c
GAS LISTING /tmp/ccJ7cV0m.s 			page 54


 3010 1418 A1140000 		.long	0x14a1
 3011 141c 27       		.uleb128 0x27
 3012 141d 697000   		.string	"ip"
 3013 1420 01       		.byte	0x1
 3014 1421 2E       		.byte	0x2e
 3015 1422 1D       		.byte	0x1d
 3016 1423 FA000000 		.long	0xfa
 3017 1427 02       		.uleb128 0x2
 3018 1428 91       		.byte	0x91
 3019 1429 00       		.sleb128 0
 3020 142a 27       		.uleb128 0x27
 3021 142b 627000   		.string	"bp"
 3022 142e 01       		.byte	0x1
 3023 142f 2E       		.byte	0x2e
 3024 1430 30       		.byte	0x30
 3025 1431 D20D0000 		.long	0xdd2
 3026 1435 02       		.uleb128 0x2
 3027 1436 91       		.byte	0x91
 3028 1437 04       		.sleb128 4
 3029 1438 2B       		.uleb128 0x2b
 3030 1439 6E00     		.string	"n"
 3031 143b 01       		.byte	0x1
 3032 143c 2E       		.byte	0x2e
 3033 143d 3B       		.byte	0x3b
 3034 143e 25000000 		.long	0x25
 3035 1442 2F010000 		.long	.LLST4
 3036 1446 29010000 		.long	.LVUS4
 3037 144a 2A       		.uleb128 0x2a
 3038 144b 6D737000 		.string	"msp"
 3039 144f 01       		.byte	0x1
 3040 1450 2F       		.byte	0x2f
 3041 1451 11       		.byte	0x11
 3042 1452 BF120000 		.long	0x12bf
 3043 1456 5B010000 		.long	.LLST5
 3044 145a 59010000 		.long	.LVUS5
 3045 145e 2C       		.uleb128 0x2c
 3046 145f A1140000 		.long	0x14a1
 3047 1463 23000000 		.long	.LBI6
 3048 1467 01       		.byte	.LVU41
 3049 1468 00000000 		.long	.Ldebug_ranges0+0
 3050 146c 01       		.byte	0x1
 3051 146d 33       		.byte	0x33
 3052 146e 03       		.byte	0x3
 3053 146f 2D       		.uleb128 0x2d
 3054 1470 CA140000 		.long	0x14ca
 3055 1474 71010000 		.long	.LLST6
 3056 1478 6F010000 		.long	.LVUS6
 3057 147c 2D       		.uleb128 0x2d
 3058 147d BE140000 		.long	0x14be
 3059 1481 86010000 		.long	.LLST7
 3060 1485 84010000 		.long	.LVUS7
 3061 1489 2D       		.uleb128 0x2d
 3062 148a B2140000 		.long	0x14b2
 3063 148e 9E010000 		.long	.LLST8
 3064 1492 9A010000 		.long	.LVUS8
 3065 1496 2E       		.uleb128 0x2e
 3066 1497 34000000 		.long	.LVL12
GAS LISTING /tmp/ccJ7cV0m.s 			page 55


 3067 149b E3140000 		.long	0x14e3
 3068 149f 00       		.byte	0
 3069 14a0 00       		.byte	0
 3070 14a1 2F       		.uleb128 0x2f
 3071 14a2 82050000 		.long	.LASF259
 3072 14a6 02       		.byte	0x2
 3073 14a7 1F       		.byte	0x1f
 3074 14a8 01       		.byte	0x1
 3075 14a9 FA000000 		.long	0xfa
 3076 14ad 03       		.byte	0x3
 3077 14ae D7140000 		.long	0x14d7
 3078 14b2 30       		.uleb128 0x30
 3079 14b3 6D090000 		.long	.LASF250
 3080 14b7 02       		.byte	0x2
 3081 14b8 1F       		.byte	0x1f
 3082 14b9 01       		.byte	0x1
 3083 14ba FC000000 		.long	0xfc
 3084 14be 30       		.uleb128 0x30
 3085 14bf F9080000 		.long	.LASF251
 3086 14c3 02       		.byte	0x2
 3087 14c4 1F       		.byte	0x1f
 3088 14c5 01       		.byte	0x1
 3089 14c6 DD140000 		.long	0x14dd
 3090 14ca 30       		.uleb128 0x30
 3091 14cb 000B0000 		.long	.LASF252
 3092 14cf 02       		.byte	0x2
 3093 14d0 1F       		.byte	0x1f
 3094 14d1 01       		.byte	0x1
 3095 14d2 25000000 		.long	0x25
 3096 14d6 00       		.byte	0
 3097 14d7 06       		.uleb128 0x6
 3098 14d8 04       		.byte	0x4
 3099 14d9 E2140000 		.long	0x14e2
 3100 14dd 09       		.uleb128 0x9
 3101 14de D7140000 		.long	0x14d7
 3102 14e2 31       		.uleb128 0x31
 3103 14e3 32       		.uleb128 0x32
 3104 14e4 82050000 		.long	.LASF259
 3105 14e8 05030000 		.long	.LASF260
 3106 14ec 21       		.byte	0x21
 3107 14ed 00       		.byte	0
 3108 14ee 00       		.byte	0
 3109              		.section	.debug_abbrev,"",@progbits
 3110              	.Ldebug_abbrev0:
 3111 0000 01       		.uleb128 0x1
 3112 0001 11       		.uleb128 0x11
 3113 0002 01       		.byte	0x1
 3114 0003 25       		.uleb128 0x25
 3115 0004 0E       		.uleb128 0xe
 3116 0005 13       		.uleb128 0x13
 3117 0006 0B       		.uleb128 0xb
 3118 0007 03       		.uleb128 0x3
 3119 0008 0E       		.uleb128 0xe
 3120 0009 1B       		.uleb128 0x1b
 3121 000a 0E       		.uleb128 0xe
 3122 000b 55       		.uleb128 0x55
 3123 000c 17       		.uleb128 0x17
GAS LISTING /tmp/ccJ7cV0m.s 			page 56


 3124 000d 11       		.uleb128 0x11
 3125 000e 01       		.uleb128 0x1
 3126 000f 10       		.uleb128 0x10
 3127 0010 17       		.uleb128 0x17
 3128 0011 00       		.byte	0
 3129 0012 00       		.byte	0
 3130 0013 02       		.uleb128 0x2
 3131 0014 16       		.uleb128 0x16
 3132 0015 00       		.byte	0
 3133 0016 03       		.uleb128 0x3
 3134 0017 0E       		.uleb128 0xe
 3135 0018 3A       		.uleb128 0x3a
 3136 0019 0B       		.uleb128 0xb
 3137 001a 3B       		.uleb128 0x3b
 3138 001b 0B       		.uleb128 0xb
 3139 001c 39       		.uleb128 0x39
 3140 001d 0B       		.uleb128 0xb
 3141 001e 49       		.uleb128 0x49
 3142 001f 13       		.uleb128 0x13
 3143 0020 00       		.byte	0
 3144 0021 00       		.byte	0
 3145 0022 03       		.uleb128 0x3
 3146 0023 35       		.uleb128 0x35
 3147 0024 00       		.byte	0
 3148 0025 49       		.uleb128 0x49
 3149 0026 13       		.uleb128 0x13
 3150 0027 00       		.byte	0
 3151 0028 00       		.byte	0
 3152 0029 04       		.uleb128 0x4
 3153 002a 24       		.uleb128 0x24
 3154 002b 00       		.byte	0
 3155 002c 0B       		.uleb128 0xb
 3156 002d 0B       		.uleb128 0xb
 3157 002e 3E       		.uleb128 0x3e
 3158 002f 0B       		.uleb128 0xb
 3159 0030 03       		.uleb128 0x3
 3160 0031 0E       		.uleb128 0xe
 3161 0032 00       		.byte	0
 3162 0033 00       		.byte	0
 3163 0034 05       		.uleb128 0x5
 3164 0035 24       		.uleb128 0x24
 3165 0036 00       		.byte	0
 3166 0037 0B       		.uleb128 0xb
 3167 0038 0B       		.uleb128 0xb
 3168 0039 3E       		.uleb128 0x3e
 3169 003a 0B       		.uleb128 0xb
 3170 003b 03       		.uleb128 0x3
 3171 003c 08       		.uleb128 0x8
 3172 003d 00       		.byte	0
 3173 003e 00       		.byte	0
 3174 003f 06       		.uleb128 0x6
 3175 0040 0F       		.uleb128 0xf
 3176 0041 00       		.byte	0
 3177 0042 0B       		.uleb128 0xb
 3178 0043 0B       		.uleb128 0xb
 3179 0044 49       		.uleb128 0x49
 3180 0045 13       		.uleb128 0x13
GAS LISTING /tmp/ccJ7cV0m.s 			page 57


 3181 0046 00       		.byte	0
 3182 0047 00       		.byte	0
 3183 0048 07       		.uleb128 0x7
 3184 0049 26       		.uleb128 0x26
 3185 004a 00       		.byte	0
 3186 004b 49       		.uleb128 0x49
 3187 004c 13       		.uleb128 0x13
 3188 004d 00       		.byte	0
 3189 004e 00       		.byte	0
 3190 004f 08       		.uleb128 0x8
 3191 0050 0F       		.uleb128 0xf
 3192 0051 00       		.byte	0
 3193 0052 0B       		.uleb128 0xb
 3194 0053 0B       		.uleb128 0xb
 3195 0054 00       		.byte	0
 3196 0055 00       		.byte	0
 3197 0056 09       		.uleb128 0x9
 3198 0057 37       		.uleb128 0x37
 3199 0058 00       		.byte	0
 3200 0059 49       		.uleb128 0x49
 3201 005a 13       		.uleb128 0x13
 3202 005b 00       		.byte	0
 3203 005c 00       		.byte	0
 3204 005d 0A       		.uleb128 0xa
 3205 005e 13       		.uleb128 0x13
 3206 005f 01       		.byte	0x1
 3207 0060 03       		.uleb128 0x3
 3208 0061 0E       		.uleb128 0xe
 3209 0062 0B       		.uleb128 0xb
 3210 0063 0B       		.uleb128 0xb
 3211 0064 3A       		.uleb128 0x3a
 3212 0065 0B       		.uleb128 0xb
 3213 0066 3B       		.uleb128 0x3b
 3214 0067 0B       		.uleb128 0xb
 3215 0068 39       		.uleb128 0x39
 3216 0069 0B       		.uleb128 0xb
 3217 006a 01       		.uleb128 0x1
 3218 006b 13       		.uleb128 0x13
 3219 006c 00       		.byte	0
 3220 006d 00       		.byte	0
 3221 006e 0B       		.uleb128 0xb
 3222 006f 0D       		.uleb128 0xd
 3223 0070 00       		.byte	0
 3224 0071 03       		.uleb128 0x3
 3225 0072 0E       		.uleb128 0xe
 3226 0073 3A       		.uleb128 0x3a
 3227 0074 0B       		.uleb128 0xb
 3228 0075 3B       		.uleb128 0x3b
 3229 0076 0B       		.uleb128 0xb
 3230 0077 39       		.uleb128 0x39
 3231 0078 0B       		.uleb128 0xb
 3232 0079 49       		.uleb128 0x49
 3233 007a 13       		.uleb128 0x13
 3234 007b 38       		.uleb128 0x38
 3235 007c 0B       		.uleb128 0xb
 3236 007d 00       		.byte	0
 3237 007e 00       		.byte	0
GAS LISTING /tmp/ccJ7cV0m.s 			page 58


 3238 007f 0C       		.uleb128 0xc
 3239 0080 0D       		.uleb128 0xd
 3240 0081 00       		.byte	0
 3241 0082 03       		.uleb128 0x3
 3242 0083 08       		.uleb128 0x8
 3243 0084 3A       		.uleb128 0x3a
 3244 0085 0B       		.uleb128 0xb
 3245 0086 3B       		.uleb128 0x3b
 3246 0087 0B       		.uleb128 0xb
 3247 0088 39       		.uleb128 0x39
 3248 0089 0B       		.uleb128 0xb
 3249 008a 49       		.uleb128 0x49
 3250 008b 13       		.uleb128 0x13
 3251 008c 38       		.uleb128 0x38
 3252 008d 0B       		.uleb128 0xb
 3253 008e 00       		.byte	0
 3254 008f 00       		.byte	0
 3255 0090 0D       		.uleb128 0xd
 3256 0091 0D       		.uleb128 0xd
 3257 0092 00       		.byte	0
 3258 0093 03       		.uleb128 0x3
 3259 0094 08       		.uleb128 0x8
 3260 0095 3A       		.uleb128 0x3a
 3261 0096 0B       		.uleb128 0xb
 3262 0097 3B       		.uleb128 0x3b
 3263 0098 05       		.uleb128 0x5
 3264 0099 39       		.uleb128 0x39
 3265 009a 0B       		.uleb128 0xb
 3266 009b 49       		.uleb128 0x49
 3267 009c 13       		.uleb128 0x13
 3268 009d 38       		.uleb128 0x38
 3269 009e 0B       		.uleb128 0xb
 3270 009f 00       		.byte	0
 3271 00a0 00       		.byte	0
 3272 00a1 0E       		.uleb128 0xe
 3273 00a2 0D       		.uleb128 0xd
 3274 00a3 00       		.byte	0
 3275 00a4 03       		.uleb128 0x3
 3276 00a5 0E       		.uleb128 0xe
 3277 00a6 3A       		.uleb128 0x3a
 3278 00a7 0B       		.uleb128 0xb
 3279 00a8 3B       		.uleb128 0x3b
 3280 00a9 05       		.uleb128 0x5
 3281 00aa 39       		.uleb128 0x39
 3282 00ab 0B       		.uleb128 0xb
 3283 00ac 49       		.uleb128 0x49
 3284 00ad 13       		.uleb128 0x13
 3285 00ae 38       		.uleb128 0x38
 3286 00af 0B       		.uleb128 0xb
 3287 00b0 00       		.byte	0
 3288 00b1 00       		.byte	0
 3289 00b2 0F       		.uleb128 0xf
 3290 00b3 13       		.uleb128 0x13
 3291 00b4 01       		.byte	0x1
 3292 00b5 03       		.uleb128 0x3
 3293 00b6 0E       		.uleb128 0xe
 3294 00b7 0B       		.uleb128 0xb
GAS LISTING /tmp/ccJ7cV0m.s 			page 59


 3295 00b8 0B       		.uleb128 0xb
 3296 00b9 3A       		.uleb128 0x3a
 3297 00ba 0B       		.uleb128 0xb
 3298 00bb 3B       		.uleb128 0x3b
 3299 00bc 05       		.uleb128 0x5
 3300 00bd 39       		.uleb128 0x39
 3301 00be 0B       		.uleb128 0xb
 3302 00bf 01       		.uleb128 0x1
 3303 00c0 13       		.uleb128 0x13
 3304 00c1 00       		.byte	0
 3305 00c2 00       		.byte	0
 3306 00c3 10       		.uleb128 0x10
 3307 00c4 15       		.uleb128 0x15
 3308 00c5 01       		.byte	0x1
 3309 00c6 27       		.uleb128 0x27
 3310 00c7 19       		.uleb128 0x19
 3311 00c8 01       		.uleb128 0x1
 3312 00c9 13       		.uleb128 0x13
 3313 00ca 00       		.byte	0
 3314 00cb 00       		.byte	0
 3315 00cc 11       		.uleb128 0x11
 3316 00cd 05       		.uleb128 0x5
 3317 00ce 00       		.byte	0
 3318 00cf 49       		.uleb128 0x49
 3319 00d0 13       		.uleb128 0x13
 3320 00d1 00       		.byte	0
 3321 00d2 00       		.byte	0
 3322 00d3 12       		.uleb128 0x12
 3323 00d4 13       		.uleb128 0x13
 3324 00d5 01       		.byte	0x1
 3325 00d6 0B       		.uleb128 0xb
 3326 00d7 0B       		.uleb128 0xb
 3327 00d8 3A       		.uleb128 0x3a
 3328 00d9 0B       		.uleb128 0xb
 3329 00da 3B       		.uleb128 0x3b
 3330 00db 0B       		.uleb128 0xb
 3331 00dc 39       		.uleb128 0x39
 3332 00dd 0B       		.uleb128 0xb
 3333 00de 01       		.uleb128 0x1
 3334 00df 13       		.uleb128 0x13
 3335 00e0 00       		.byte	0
 3336 00e1 00       		.byte	0
 3337 00e2 13       		.uleb128 0x13
 3338 00e3 01       		.uleb128 0x1
 3339 00e4 01       		.byte	0x1
 3340 00e5 49       		.uleb128 0x49
 3341 00e6 13       		.uleb128 0x13
 3342 00e7 01       		.uleb128 0x1
 3343 00e8 13       		.uleb128 0x13
 3344 00e9 00       		.byte	0
 3345 00ea 00       		.byte	0
 3346 00eb 14       		.uleb128 0x14
 3347 00ec 21       		.uleb128 0x21
 3348 00ed 00       		.byte	0
 3349 00ee 49       		.uleb128 0x49
 3350 00ef 13       		.uleb128 0x13
 3351 00f0 2F       		.uleb128 0x2f
GAS LISTING /tmp/ccJ7cV0m.s 			page 60


 3352 00f1 0B       		.uleb128 0xb
 3353 00f2 00       		.byte	0
 3354 00f3 00       		.byte	0
 3355 00f4 15       		.uleb128 0x15
 3356 00f5 16       		.uleb128 0x16
 3357 00f6 00       		.byte	0
 3358 00f7 03       		.uleb128 0x3
 3359 00f8 0E       		.uleb128 0xe
 3360 00f9 3A       		.uleb128 0x3a
 3361 00fa 0B       		.uleb128 0xb
 3362 00fb 3B       		.uleb128 0x3b
 3363 00fc 0B       		.uleb128 0xb
 3364 00fd 39       		.uleb128 0x39
 3365 00fe 0B       		.uleb128 0xb
 3366 00ff 49       		.uleb128 0x49
 3367 0100 13       		.uleb128 0x13
 3368 0101 8801     		.uleb128 0x88
 3369 0103 0B       		.uleb128 0xb
 3370 0104 00       		.byte	0
 3371 0105 00       		.byte	0
 3372 0106 16       		.uleb128 0x16
 3373 0107 34       		.uleb128 0x34
 3374 0108 00       		.byte	0
 3375 0109 03       		.uleb128 0x3
 3376 010a 0E       		.uleb128 0xe
 3377 010b 3A       		.uleb128 0x3a
 3378 010c 0B       		.uleb128 0xb
 3379 010d 3B       		.uleb128 0x3b
 3380 010e 05       		.uleb128 0x5
 3381 010f 39       		.uleb128 0x39
 3382 0110 0B       		.uleb128 0xb
 3383 0111 49       		.uleb128 0x49
 3384 0112 13       		.uleb128 0x13
 3385 0113 3F       		.uleb128 0x3f
 3386 0114 19       		.uleb128 0x19
 3387 0115 3C       		.uleb128 0x3c
 3388 0116 19       		.uleb128 0x19
 3389 0117 00       		.byte	0
 3390 0118 00       		.byte	0
 3391 0119 17       		.uleb128 0x17
 3392 011a 17       		.uleb128 0x17
 3393 011b 01       		.byte	0x1
 3394 011c 0B       		.uleb128 0xb
 3395 011d 0B       		.uleb128 0xb
 3396 011e 3A       		.uleb128 0x3a
 3397 011f 0B       		.uleb128 0xb
 3398 0120 3B       		.uleb128 0x3b
 3399 0121 0B       		.uleb128 0xb
 3400 0122 39       		.uleb128 0x39
 3401 0123 0B       		.uleb128 0xb
 3402 0124 01       		.uleb128 0x1
 3403 0125 13       		.uleb128 0x13
 3404 0126 00       		.byte	0
 3405 0127 00       		.byte	0
 3406 0128 18       		.uleb128 0x18
 3407 0129 0D       		.uleb128 0xd
 3408 012a 00       		.byte	0
GAS LISTING /tmp/ccJ7cV0m.s 			page 61


 3409 012b 03       		.uleb128 0x3
 3410 012c 0E       		.uleb128 0xe
 3411 012d 3A       		.uleb128 0x3a
 3412 012e 0B       		.uleb128 0xb
 3413 012f 3B       		.uleb128 0x3b
 3414 0130 0B       		.uleb128 0xb
 3415 0131 39       		.uleb128 0x39
 3416 0132 0B       		.uleb128 0xb
 3417 0133 49       		.uleb128 0x49
 3418 0134 13       		.uleb128 0x13
 3419 0135 00       		.byte	0
 3420 0136 00       		.byte	0
 3421 0137 19       		.uleb128 0x19
 3422 0138 0D       		.uleb128 0xd
 3423 0139 00       		.byte	0
 3424 013a 03       		.uleb128 0x3
 3425 013b 0E       		.uleb128 0xe
 3426 013c 3A       		.uleb128 0x3a
 3427 013d 0B       		.uleb128 0xb
 3428 013e 3B       		.uleb128 0x3b
 3429 013f 05       		.uleb128 0x5
 3430 0140 39       		.uleb128 0x39
 3431 0141 0B       		.uleb128 0xb
 3432 0142 49       		.uleb128 0x49
 3433 0143 13       		.uleb128 0x13
 3434 0144 00       		.byte	0
 3435 0145 00       		.byte	0
 3436 0146 1A       		.uleb128 0x1a
 3437 0147 34       		.uleb128 0x34
 3438 0148 00       		.byte	0
 3439 0149 03       		.uleb128 0x3
 3440 014a 08       		.uleb128 0x8
 3441 014b 3A       		.uleb128 0x3a
 3442 014c 0B       		.uleb128 0xb
 3443 014d 3B       		.uleb128 0x3b
 3444 014e 05       		.uleb128 0x5
 3445 014f 39       		.uleb128 0x39
 3446 0150 0B       		.uleb128 0xb
 3447 0151 49       		.uleb128 0x49
 3448 0152 13       		.uleb128 0x13
 3449 0153 3F       		.uleb128 0x3f
 3450 0154 19       		.uleb128 0x19
 3451 0155 3C       		.uleb128 0x3c
 3452 0156 19       		.uleb128 0x19
 3453 0157 00       		.byte	0
 3454 0158 00       		.byte	0
 3455 0159 1B       		.uleb128 0x1b
 3456 015a 01       		.uleb128 0x1
 3457 015b 01       		.byte	0x1
 3458 015c 49       		.uleb128 0x49
 3459 015d 13       		.uleb128 0x13
 3460 015e 8801     		.uleb128 0x88
 3461 0160 0B       		.uleb128 0xb
 3462 0161 01       		.uleb128 0x1
 3463 0162 13       		.uleb128 0x13
 3464 0163 00       		.byte	0
 3465 0164 00       		.byte	0
GAS LISTING /tmp/ccJ7cV0m.s 			page 62


 3466 0165 1C       		.uleb128 0x1c
 3467 0166 21       		.uleb128 0x21
 3468 0167 00       		.byte	0
 3469 0168 00       		.byte	0
 3470 0169 00       		.byte	0
 3471 016a 1D       		.uleb128 0x1d
 3472 016b 34       		.uleb128 0x34
 3473 016c 00       		.byte	0
 3474 016d 03       		.uleb128 0x3
 3475 016e 0E       		.uleb128 0xe
 3476 016f 3A       		.uleb128 0x3a
 3477 0170 0B       		.uleb128 0xb
 3478 0171 3B       		.uleb128 0x3b
 3479 0172 0B       		.uleb128 0xb
 3480 0173 39       		.uleb128 0x39
 3481 0174 0B       		.uleb128 0xb
 3482 0175 49       		.uleb128 0x49
 3483 0176 13       		.uleb128 0x13
 3484 0177 3F       		.uleb128 0x3f
 3485 0178 19       		.uleb128 0x19
 3486 0179 3C       		.uleb128 0x3c
 3487 017a 19       		.uleb128 0x19
 3488 017b 00       		.byte	0
 3489 017c 00       		.byte	0
 3490 017d 1E       		.uleb128 0x1e
 3491 017e 15       		.uleb128 0x15
 3492 017f 01       		.byte	0x1
 3493 0180 27       		.uleb128 0x27
 3494 0181 19       		.uleb128 0x19
 3495 0182 49       		.uleb128 0x49
 3496 0183 13       		.uleb128 0x13
 3497 0184 01       		.uleb128 0x1
 3498 0185 13       		.uleb128 0x13
 3499 0186 00       		.byte	0
 3500 0187 00       		.byte	0
 3501 0188 1F       		.uleb128 0x1f
 3502 0189 16       		.uleb128 0x16
 3503 018a 00       		.byte	0
 3504 018b 03       		.uleb128 0x3
 3505 018c 0E       		.uleb128 0xe
 3506 018d 3A       		.uleb128 0x3a
 3507 018e 0B       		.uleb128 0xb
 3508 018f 3B       		.uleb128 0x3b
 3509 0190 05       		.uleb128 0x5
 3510 0191 39       		.uleb128 0x39
 3511 0192 0B       		.uleb128 0xb
 3512 0193 49       		.uleb128 0x49
 3513 0194 13       		.uleb128 0x13
 3514 0195 00       		.byte	0
 3515 0196 00       		.byte	0
 3516 0197 20       		.uleb128 0x20
 3517 0198 16       		.uleb128 0x16
 3518 0199 00       		.byte	0
 3519 019a 03       		.uleb128 0x3
 3520 019b 0E       		.uleb128 0xe
 3521 019c 3A       		.uleb128 0x3a
 3522 019d 0B       		.uleb128 0xb
GAS LISTING /tmp/ccJ7cV0m.s 			page 63


 3523 019e 3B       		.uleb128 0x3b
 3524 019f 0B       		.uleb128 0xb
 3525 01a0 39       		.uleb128 0x39
 3526 01a1 0B       		.uleb128 0xb
 3527 01a2 00       		.byte	0
 3528 01a3 00       		.byte	0
 3529 01a4 21       		.uleb128 0x21
 3530 01a5 13       		.uleb128 0x13
 3531 01a6 00       		.byte	0
 3532 01a7 03       		.uleb128 0x3
 3533 01a8 0E       		.uleb128 0xe
 3534 01a9 3C       		.uleb128 0x3c
 3535 01aa 19       		.uleb128 0x19
 3536 01ab 00       		.byte	0
 3537 01ac 00       		.byte	0
 3538 01ad 22       		.uleb128 0x22
 3539 01ae 04       		.uleb128 0x4
 3540 01af 01       		.byte	0x1
 3541 01b0 3E       		.uleb128 0x3e
 3542 01b1 0B       		.uleb128 0xb
 3543 01b2 0B       		.uleb128 0xb
 3544 01b3 0B       		.uleb128 0xb
 3545 01b4 49       		.uleb128 0x49
 3546 01b5 13       		.uleb128 0x13
 3547 01b6 3A       		.uleb128 0x3a
 3548 01b7 0B       		.uleb128 0xb
 3549 01b8 3B       		.uleb128 0x3b
 3550 01b9 0B       		.uleb128 0xb
 3551 01ba 39       		.uleb128 0x39
 3552 01bb 0B       		.uleb128 0xb
 3553 01bc 01       		.uleb128 0x1
 3554 01bd 13       		.uleb128 0x13
 3555 01be 00       		.byte	0
 3556 01bf 00       		.byte	0
 3557 01c0 23       		.uleb128 0x23
 3558 01c1 28       		.uleb128 0x28
 3559 01c2 00       		.byte	0
 3560 01c3 03       		.uleb128 0x3
 3561 01c4 0E       		.uleb128 0xe
 3562 01c5 1C       		.uleb128 0x1c
 3563 01c6 0B       		.uleb128 0xb
 3564 01c7 00       		.byte	0
 3565 01c8 00       		.byte	0
 3566 01c9 24       		.uleb128 0x24
 3567 01ca 34       		.uleb128 0x34
 3568 01cb 00       		.byte	0
 3569 01cc 03       		.uleb128 0x3
 3570 01cd 08       		.uleb128 0x8
 3571 01ce 3A       		.uleb128 0x3a
 3572 01cf 0B       		.uleb128 0xb
 3573 01d0 3B       		.uleb128 0x3b
 3574 01d1 0B       		.uleb128 0xb
 3575 01d2 39       		.uleb128 0x39
 3576 01d3 0B       		.uleb128 0xb
 3577 01d4 49       		.uleb128 0x49
 3578 01d5 13       		.uleb128 0x13
 3579 01d6 3F       		.uleb128 0x3f
GAS LISTING /tmp/ccJ7cV0m.s 			page 64


 3580 01d7 19       		.uleb128 0x19
 3581 01d8 3C       		.uleb128 0x3c
 3582 01d9 19       		.uleb128 0x19
 3583 01da 00       		.byte	0
 3584 01db 00       		.byte	0
 3585 01dc 25       		.uleb128 0x25
 3586 01dd 34       		.uleb128 0x34
 3587 01de 00       		.byte	0
 3588 01df 03       		.uleb128 0x3
 3589 01e0 08       		.uleb128 0x8
 3590 01e1 3A       		.uleb128 0x3a
 3591 01e2 0B       		.uleb128 0xb
 3592 01e3 3B       		.uleb128 0x3b
 3593 01e4 0B       		.uleb128 0xb
 3594 01e5 39       		.uleb128 0x39
 3595 01e6 0B       		.uleb128 0xb
 3596 01e7 49       		.uleb128 0x49
 3597 01e8 13       		.uleb128 0x13
 3598 01e9 02       		.uleb128 0x2
 3599 01ea 18       		.uleb128 0x18
 3600 01eb 00       		.byte	0
 3601 01ec 00       		.byte	0
 3602 01ed 26       		.uleb128 0x26
 3603 01ee 2E       		.uleb128 0x2e
 3604 01ef 01       		.byte	0x1
 3605 01f0 3F       		.uleb128 0x3f
 3606 01f1 19       		.uleb128 0x19
 3607 01f2 03       		.uleb128 0x3
 3608 01f3 0E       		.uleb128 0xe
 3609 01f4 3A       		.uleb128 0x3a
 3610 01f5 0B       		.uleb128 0xb
 3611 01f6 3B       		.uleb128 0x3b
 3612 01f7 0B       		.uleb128 0xb
 3613 01f8 39       		.uleb128 0x39
 3614 01f9 0B       		.uleb128 0xb
 3615 01fa 27       		.uleb128 0x27
 3616 01fb 19       		.uleb128 0x19
 3617 01fc 11       		.uleb128 0x11
 3618 01fd 01       		.uleb128 0x1
 3619 01fe 12       		.uleb128 0x12
 3620 01ff 06       		.uleb128 0x6
 3621 0200 40       		.uleb128 0x40
 3622 0201 18       		.uleb128 0x18
 3623 0202 9742     		.uleb128 0x2117
 3624 0204 19       		.uleb128 0x19
 3625 0205 01       		.uleb128 0x1
 3626 0206 13       		.uleb128 0x13
 3627 0207 00       		.byte	0
 3628 0208 00       		.byte	0
 3629 0209 27       		.uleb128 0x27
 3630 020a 05       		.uleb128 0x5
 3631 020b 00       		.byte	0
 3632 020c 03       		.uleb128 0x3
 3633 020d 08       		.uleb128 0x8
 3634 020e 3A       		.uleb128 0x3a
 3635 020f 0B       		.uleb128 0xb
 3636 0210 3B       		.uleb128 0x3b
GAS LISTING /tmp/ccJ7cV0m.s 			page 65


 3637 0211 0B       		.uleb128 0xb
 3638 0212 39       		.uleb128 0x39
 3639 0213 0B       		.uleb128 0xb
 3640 0214 49       		.uleb128 0x49
 3641 0215 13       		.uleb128 0x13
 3642 0216 02       		.uleb128 0x2
 3643 0217 18       		.uleb128 0x18
 3644 0218 00       		.byte	0
 3645 0219 00       		.byte	0
 3646 021a 28       		.uleb128 0x28
 3647 021b 05       		.uleb128 0x5
 3648 021c 00       		.byte	0
 3649 021d 03       		.uleb128 0x3
 3650 021e 0E       		.uleb128 0xe
 3651 021f 3A       		.uleb128 0x3a
 3652 0220 0B       		.uleb128 0xb
 3653 0221 3B       		.uleb128 0x3b
 3654 0222 0B       		.uleb128 0xb
 3655 0223 39       		.uleb128 0x39
 3656 0224 0B       		.uleb128 0xb
 3657 0225 49       		.uleb128 0x49
 3658 0226 13       		.uleb128 0x13
 3659 0227 02       		.uleb128 0x2
 3660 0228 18       		.uleb128 0x18
 3661 0229 00       		.byte	0
 3662 022a 00       		.byte	0
 3663 022b 29       		.uleb128 0x29
 3664 022c 2E       		.uleb128 0x2e
 3665 022d 01       		.byte	0x1
 3666 022e 03       		.uleb128 0x3
 3667 022f 0E       		.uleb128 0xe
 3668 0230 3A       		.uleb128 0x3a
 3669 0231 0B       		.uleb128 0xb
 3670 0232 3B       		.uleb128 0x3b
 3671 0233 0B       		.uleb128 0xb
 3672 0234 39       		.uleb128 0x39
 3673 0235 0B       		.uleb128 0xb
 3674 0236 27       		.uleb128 0x27
 3675 0237 19       		.uleb128 0x19
 3676 0238 49       		.uleb128 0x49
 3677 0239 13       		.uleb128 0x13
 3678 023a 11       		.uleb128 0x11
 3679 023b 01       		.uleb128 0x1
 3680 023c 12       		.uleb128 0x12
 3681 023d 06       		.uleb128 0x6
 3682 023e 40       		.uleb128 0x40
 3683 023f 18       		.uleb128 0x18
 3684 0240 9742     		.uleb128 0x2117
 3685 0242 19       		.uleb128 0x19
 3686 0243 01       		.uleb128 0x1
 3687 0244 13       		.uleb128 0x13
 3688 0245 00       		.byte	0
 3689 0246 00       		.byte	0
 3690 0247 2A       		.uleb128 0x2a
 3691 0248 34       		.uleb128 0x34
 3692 0249 00       		.byte	0
 3693 024a 03       		.uleb128 0x3
GAS LISTING /tmp/ccJ7cV0m.s 			page 66


 3694 024b 08       		.uleb128 0x8
 3695 024c 3A       		.uleb128 0x3a
 3696 024d 0B       		.uleb128 0xb
 3697 024e 3B       		.uleb128 0x3b
 3698 024f 0B       		.uleb128 0xb
 3699 0250 39       		.uleb128 0x39
 3700 0251 0B       		.uleb128 0xb
 3701 0252 49       		.uleb128 0x49
 3702 0253 13       		.uleb128 0x13
 3703 0254 02       		.uleb128 0x2
 3704 0255 17       		.uleb128 0x17
 3705 0256 B742     		.uleb128 0x2137
 3706 0258 17       		.uleb128 0x17
 3707 0259 00       		.byte	0
 3708 025a 00       		.byte	0
 3709 025b 2B       		.uleb128 0x2b
 3710 025c 05       		.uleb128 0x5
 3711 025d 00       		.byte	0
 3712 025e 03       		.uleb128 0x3
 3713 025f 08       		.uleb128 0x8
 3714 0260 3A       		.uleb128 0x3a
 3715 0261 0B       		.uleb128 0xb
 3716 0262 3B       		.uleb128 0x3b
 3717 0263 0B       		.uleb128 0xb
 3718 0264 39       		.uleb128 0x39
 3719 0265 0B       		.uleb128 0xb
 3720 0266 49       		.uleb128 0x49
 3721 0267 13       		.uleb128 0x13
 3722 0268 02       		.uleb128 0x2
 3723 0269 17       		.uleb128 0x17
 3724 026a B742     		.uleb128 0x2137
 3725 026c 17       		.uleb128 0x17
 3726 026d 00       		.byte	0
 3727 026e 00       		.byte	0
 3728 026f 2C       		.uleb128 0x2c
 3729 0270 1D       		.uleb128 0x1d
 3730 0271 01       		.byte	0x1
 3731 0272 31       		.uleb128 0x31
 3732 0273 13       		.uleb128 0x13
 3733 0274 52       		.uleb128 0x52
 3734 0275 01       		.uleb128 0x1
 3735 0276 B842     		.uleb128 0x2138
 3736 0278 0B       		.uleb128 0xb
 3737 0279 55       		.uleb128 0x55
 3738 027a 17       		.uleb128 0x17
 3739 027b 58       		.uleb128 0x58
 3740 027c 0B       		.uleb128 0xb
 3741 027d 59       		.uleb128 0x59
 3742 027e 0B       		.uleb128 0xb
 3743 027f 57       		.uleb128 0x57
 3744 0280 0B       		.uleb128 0xb
 3745 0281 00       		.byte	0
 3746 0282 00       		.byte	0
 3747 0283 2D       		.uleb128 0x2d
 3748 0284 05       		.uleb128 0x5
 3749 0285 00       		.byte	0
 3750 0286 31       		.uleb128 0x31
GAS LISTING /tmp/ccJ7cV0m.s 			page 67


 3751 0287 13       		.uleb128 0x13
 3752 0288 02       		.uleb128 0x2
 3753 0289 17       		.uleb128 0x17
 3754 028a B742     		.uleb128 0x2137
 3755 028c 17       		.uleb128 0x17
 3756 028d 00       		.byte	0
 3757 028e 00       		.byte	0
 3758 028f 2E       		.uleb128 0x2e
 3759 0290 898201   		.uleb128 0x4109
 3760 0293 00       		.byte	0
 3761 0294 11       		.uleb128 0x11
 3762 0295 01       		.uleb128 0x1
 3763 0296 31       		.uleb128 0x31
 3764 0297 13       		.uleb128 0x13
 3765 0298 00       		.byte	0
 3766 0299 00       		.byte	0
 3767 029a 2F       		.uleb128 0x2f
 3768 029b 2E       		.uleb128 0x2e
 3769 029c 01       		.byte	0x1
 3770 029d 3F       		.uleb128 0x3f
 3771 029e 19       		.uleb128 0x19
 3772 029f 03       		.uleb128 0x3
 3773 02a0 0E       		.uleb128 0xe
 3774 02a1 3A       		.uleb128 0x3a
 3775 02a2 0B       		.uleb128 0xb
 3776 02a3 3B       		.uleb128 0x3b
 3777 02a4 0B       		.uleb128 0xb
 3778 02a5 39       		.uleb128 0x39
 3779 02a6 0B       		.uleb128 0xb
 3780 02a7 27       		.uleb128 0x27
 3781 02a8 19       		.uleb128 0x19
 3782 02a9 49       		.uleb128 0x49
 3783 02aa 13       		.uleb128 0x13
 3784 02ab 20       		.uleb128 0x20
 3785 02ac 0B       		.uleb128 0xb
 3786 02ad 34       		.uleb128 0x34
 3787 02ae 19       		.uleb128 0x19
 3788 02af 01       		.uleb128 0x1
 3789 02b0 13       		.uleb128 0x13
 3790 02b1 00       		.byte	0
 3791 02b2 00       		.byte	0
 3792 02b3 30       		.uleb128 0x30
 3793 02b4 05       		.uleb128 0x5
 3794 02b5 00       		.byte	0
 3795 02b6 03       		.uleb128 0x3
 3796 02b7 0E       		.uleb128 0xe
 3797 02b8 3A       		.uleb128 0x3a
 3798 02b9 0B       		.uleb128 0xb
 3799 02ba 3B       		.uleb128 0x3b
 3800 02bb 0B       		.uleb128 0xb
 3801 02bc 39       		.uleb128 0x39
 3802 02bd 0B       		.uleb128 0xb
 3803 02be 49       		.uleb128 0x49
 3804 02bf 13       		.uleb128 0x13
 3805 02c0 00       		.byte	0
 3806 02c1 00       		.byte	0
 3807 02c2 31       		.uleb128 0x31
GAS LISTING /tmp/ccJ7cV0m.s 			page 68


 3808 02c3 26       		.uleb128 0x26
 3809 02c4 00       		.byte	0
 3810 02c5 00       		.byte	0
 3811 02c6 00       		.byte	0
 3812 02c7 32       		.uleb128 0x32
 3813 02c8 2E       		.uleb128 0x2e
 3814 02c9 00       		.byte	0
 3815 02ca 3F       		.uleb128 0x3f
 3816 02cb 19       		.uleb128 0x19
 3817 02cc 3C       		.uleb128 0x3c
 3818 02cd 19       		.uleb128 0x19
 3819 02ce 6E       		.uleb128 0x6e
 3820 02cf 0E       		.uleb128 0xe
 3821 02d0 03       		.uleb128 0x3
 3822 02d1 0E       		.uleb128 0xe
 3823 02d2 3A       		.uleb128 0x3a
 3824 02d3 0B       		.uleb128 0xb
 3825 02d4 3B       		.uleb128 0x3b
 3826 02d5 0B       		.uleb128 0xb
 3827 02d6 00       		.byte	0
 3828 02d7 00       		.byte	0
 3829 02d8 00       		.byte	0
 3830              		.section	.debug_loc,"",@progbits
 3831              	.Ldebug_loc0:
 3832              	.LVUS2:
 3833 0000 00       		.uleb128 .LVU26
 3834 0001 00       		.uleb128 .LVU30
 3835              	.LLST2:
 3836 0002 13000000 		.long	.LVL6
 3837 0006 1A000000 		.long	.LVL7
 3838 000a 0100     		.value	0x1
 3839 000c 50       		.byte	0x50
 3840 000d 00000000 		.long	0
 3841 0011 00000000 		.long	0
 3842              	.LVUS3:
 3843 0015 00       		.uleb128 .LVU21
 3844 0016 00       		.uleb128 0
 3845              	.LLST3:
 3846 0017 04000000 		.long	.LVL5
 3847 001b 20000000 		.long	.LFE236
 3848 001f 0200     		.value	0x2
 3849 0021 91       		.byte	0x91
 3850 0022 00       		.sleb128 0
 3851 0023 00000000 		.long	0
 3852 0027 00000000 		.long	0
 3853              	.LVUS0:
 3854 002b 00       		.uleb128 0
 3855 002c 00       		.uleb128 .LVU15
 3856 002d 00       		.uleb128 .LVU15
 3857 002e 00       		.uleb128 .LVU16
 3858 002f 00       		.uleb128 .LVU16
 3859 0030 00       		.uleb128 0
 3860              	.LLST0:
 3861 0031 00000000 		.long	.LVL0
 3862 0035 1F000000 		.long	.LVL2
 3863 0039 0200     		.value	0x2
 3864 003b 91       		.byte	0x91
GAS LISTING /tmp/ccJ7cV0m.s 			page 69


 3865 003c 00       		.sleb128 0
 3866 003d 1F000000 		.long	.LVL2
 3867 0041 24000000 		.long	.LVL3
 3868 0045 0100     		.value	0x1
 3869 0047 50       		.byte	0x50
 3870 0048 24000000 		.long	.LVL3
 3871 004c 26000000 		.long	.LFE235
 3872 0050 0200     		.value	0x2
 3873 0052 91       		.byte	0x91
 3874 0053 00       		.sleb128 0
 3875 0054 00000000 		.long	0
 3876 0058 00000000 		.long	0
 3877              	.LVUS1:
 3878 005c 00       		.uleb128 .LVU4
 3879 005d 00       		.uleb128 .LVU15
 3880 005e 00       		.uleb128 .LVU15
 3881 005f 00       		.uleb128 .LVU16
 3882 0060 00       		.uleb128 .LVU16
 3883 0061 00       		.uleb128 0
 3884              	.LLST1:
 3885 0062 05000000 		.long	.LVL1
 3886 0066 1F000000 		.long	.LVL2
 3887 006a 0200     		.value	0x2
 3888 006c 91       		.byte	0x91
 3889 006d 00       		.sleb128 0
 3890 006e 1F000000 		.long	.LVL2
 3891 0072 24000000 		.long	.LVL3
 3892 0076 0100     		.value	0x1
 3893 0078 50       		.byte	0x50
 3894 0079 24000000 		.long	.LVL3
 3895 007d 26000000 		.long	.LFE235
 3896 0081 0200     		.value	0x2
 3897 0083 91       		.byte	0x91
 3898 0084 00       		.sleb128 0
 3899 0085 00000000 		.long	0
 3900 0089 00000000 		.long	0
 3901              	.LVUS9:
 3902 008d 00       		.uleb128 0
 3903 008e 00       		.uleb128 .LVU60
 3904 008f 00       		.uleb128 .LVU60
 3905 0090 00       		.uleb128 .LVU71
 3906 0091 00       		.uleb128 .LVU71
 3907 0092 00       		.uleb128 0
 3908              	.LLST9:
 3909 0093 00000000 		.long	.LVL14
 3910 0097 23000000 		.long	.LVL16
 3911 009b 0200     		.value	0x2
 3912 009d 91       		.byte	0x91
 3913 009e 08       		.sleb128 8
 3914 009f 23000000 		.long	.LVL16
 3915 00a3 3E000000 		.long	.LVL19
 3916 00a7 0100     		.value	0x1
 3917 00a9 56       		.byte	0x56
 3918 00aa 3E000000 		.long	.LVL19
 3919 00ae 40000000 		.long	.LFE234
 3920 00b2 0100     		.value	0x1
 3921 00b4 50       		.byte	0x50
GAS LISTING /tmp/ccJ7cV0m.s 			page 70


 3922 00b5 00000000 		.long	0
 3923 00b9 00000000 		.long	0
 3924              	.LVUS10:
 3925 00bd 00       		.uleb128 .LVU56
 3926 00be 00       		.uleb128 0
 3927              	.LLST10:
 3928 00bf 07000000 		.long	.LVL15
 3929 00c3 40000000 		.long	.LFE234
 3930 00c7 0200     		.value	0x2
 3931 00c9 91       		.byte	0x91
 3932 00ca 00       		.sleb128 0
 3933 00cb 00000000 		.long	0
 3934 00cf 00000000 		.long	0
 3935              	.LVUS11:
 3936 00d3 01       		.uleb128 .LVU61
 3937 00d4 00       		.uleb128 .LVU65
 3938              	.LLST11:
 3939 00d5 23000000 		.long	.LVL16
 3940 00d9 34000000 		.long	.LVL18
 3941 00dd 0100     		.value	0x1
 3942 00df 56       		.byte	0x56
 3943 00e0 00000000 		.long	0
 3944 00e4 00000000 		.long	0
 3945              	.LVUS12:
 3946 00e8 01       		.uleb128 .LVU61
 3947 00e9 00       		.uleb128 .LVU64
 3948 00ea 00       		.uleb128 .LVU64
 3949 00eb 00       		.uleb128 .LVU65
 3950              	.LLST12:
 3951 00ec 23000000 		.long	.LVL16
 3952 00f0 26000000 		.long	.LVL17
 3953 00f4 0A00     		.value	0xa
 3954 00f6 91       		.byte	0x91
 3955 00f7 00       		.sleb128 0
 3956 00f8 06       		.byte	0x6
 3957 00f9 23       		.byte	0x23
 3958 00fa 04       		.uleb128 0x4
 3959 00fb 06       		.byte	0x6
 3960 00fc 70       		.byte	0x70
 3961 00fd 00       		.sleb128 0
 3962 00fe 22       		.byte	0x22
 3963 00ff 9F       		.byte	0x9f
 3964 0100 26000000 		.long	.LVL17
 3965 0104 33000000 		.long	.LVL18-1
 3966 0108 0100     		.value	0x1
 3967 010a 50       		.byte	0x50
 3968 010b 00000000 		.long	0
 3969 010f 00000000 		.long	0
 3970              	.LVUS13:
 3971 0113 01       		.uleb128 .LVU61
 3972 0114 00       		.uleb128 .LVU65
 3973              	.LLST13:
 3974 0115 23000000 		.long	.LVL16
 3975 0119 34000000 		.long	.LVL18
 3976 011d 0200     		.value	0x2
 3977 011f 91       		.byte	0x91
 3978 0120 04       		.sleb128 4
GAS LISTING /tmp/ccJ7cV0m.s 			page 71


 3979 0121 00000000 		.long	0
 3980 0125 00000000 		.long	0
 3981              	.LVUS4:
 3982 0129 00       		.uleb128 0
 3983 012a 00       		.uleb128 .LVU40
 3984 012b 00       		.uleb128 .LVU40
 3985 012c 00       		.uleb128 .LVU51
 3986 012d 00       		.uleb128 .LVU51
 3987 012e 00       		.uleb128 0
 3988              	.LLST4:
 3989 012f 00000000 		.long	.LVL8
 3990 0133 23000000 		.long	.LVL10
 3991 0137 0200     		.value	0x2
 3992 0139 91       		.byte	0x91
 3993 013a 08       		.sleb128 8
 3994 013b 23000000 		.long	.LVL10
 3995 013f 3E000000 		.long	.LVL13
 3996 0143 0100     		.value	0x1
 3997 0145 56       		.byte	0x56
 3998 0146 3E000000 		.long	.LVL13
 3999 014a 40000000 		.long	.LFE233
 4000 014e 0100     		.value	0x1
 4001 0150 50       		.byte	0x50
 4002 0151 00000000 		.long	0
 4003 0155 00000000 		.long	0
 4004              	.LVUS5:
 4005 0159 00       		.uleb128 .LVU36
 4006 015a 00       		.uleb128 0
 4007              	.LLST5:
 4008 015b 07000000 		.long	.LVL9
 4009 015f 40000000 		.long	.LFE233
 4010 0163 0200     		.value	0x2
 4011 0165 91       		.byte	0x91
 4012 0166 00       		.sleb128 0
 4013 0167 00000000 		.long	0
 4014 016b 00000000 		.long	0
 4015              	.LVUS6:
 4016 016f 01       		.uleb128 .LVU41
 4017 0170 00       		.uleb128 .LVU45
 4018              	.LLST6:
 4019 0171 23000000 		.long	.LVL10
 4020 0175 34000000 		.long	.LVL12
 4021 0179 0100     		.value	0x1
 4022 017b 56       		.byte	0x56
 4023 017c 00000000 		.long	0
 4024 0180 00000000 		.long	0
 4025              	.LVUS7:
 4026 0184 01       		.uleb128 .LVU41
 4027 0185 00       		.uleb128 .LVU45
 4028              	.LLST7:
 4029 0186 23000000 		.long	.LVL10
 4030 018a 34000000 		.long	.LVL12
 4031 018e 0200     		.value	0x2
 4032 0190 91       		.byte	0x91
 4033 0191 04       		.sleb128 4
 4034 0192 00000000 		.long	0
 4035 0196 00000000 		.long	0
GAS LISTING /tmp/ccJ7cV0m.s 			page 72


 4036              	.LVUS8:
 4037 019a 01       		.uleb128 .LVU41
 4038 019b 00       		.uleb128 .LVU44
 4039 019c 00       		.uleb128 .LVU44
 4040 019d 00       		.uleb128 .LVU45
 4041              	.LLST8:
 4042 019e 23000000 		.long	.LVL10
 4043 01a2 26000000 		.long	.LVL11
 4044 01a6 0A00     		.value	0xa
 4045 01a8 91       		.byte	0x91
 4046 01a9 00       		.sleb128 0
 4047 01aa 06       		.byte	0x6
 4048 01ab 23       		.byte	0x23
 4049 01ac 04       		.uleb128 0x4
 4050 01ad 06       		.byte	0x6
 4051 01ae 70       		.byte	0x70
 4052 01af 00       		.sleb128 0
 4053 01b0 22       		.byte	0x22
 4054 01b1 9F       		.byte	0x9f
 4055 01b2 26000000 		.long	.LVL11
 4056 01b6 33000000 		.long	.LVL12-1
 4057 01ba 0100     		.value	0x1
 4058 01bc 50       		.byte	0x50
 4059 01bd 00000000 		.long	0
 4060 01c1 00000000 		.long	0
 4061              		.section	.debug_aranges,"",@progbits
 4062 0000 3C000000 		.long	0x3c
 4063 0004 0200     		.value	0x2
 4064 0006 00000000 		.long	.Ldebug_info0
 4065 000a 04       		.byte	0x4
 4066 000b 00       		.byte	0
 4067 000c 0000     		.value	0
 4068 000e 0000     		.value	0
 4069 0010 00000000 		.long	.LFB235
 4070 0014 26000000 		.long	.LFE235-.LFB235
 4071 0018 00000000 		.long	.LFB236
 4072 001c 20000000 		.long	.LFE236-.LFB236
 4073 0020 00000000 		.long	.LFB233
 4074 0024 40000000 		.long	.LFE233-.LFB233
 4075 0028 00000000 		.long	.LFB234
 4076 002c 40000000 		.long	.LFE234-.LFB234
 4077 0030 00000000 		.long	.LFB237
 4078 0034 34000000 		.long	.LFE237-.LFB237
 4079 0038 00000000 		.long	0
 4080 003c 00000000 		.long	0
 4081              		.section	.debug_ranges,"",@progbits
 4082              	.Ldebug_ranges0:
 4083 0000 23000000 		.long	.LBB6
 4084 0004 23000000 		.long	.LBE6
 4085 0008 26000000 		.long	.LBB9
 4086 000c 34000000 		.long	.LBE9
 4087 0010 00000000 		.long	0
 4088 0014 00000000 		.long	0
 4089 0018 23000000 		.long	.LBB10
 4090 001c 23000000 		.long	.LBE10
 4091 0020 26000000 		.long	.LBB13
 4092 0024 34000000 		.long	.LBE13
GAS LISTING /tmp/ccJ7cV0m.s 			page 73


 4093 0028 00000000 		.long	0
 4094 002c 00000000 		.long	0
 4095 0030 00000000 		.long	.LFB235
 4096 0034 26000000 		.long	.LFE235
 4097 0038 00000000 		.long	.LFB236
 4098 003c 20000000 		.long	.LFE236
 4099 0040 00000000 		.long	.LFB233
 4100 0044 40000000 		.long	.LFE233
 4101 0048 00000000 		.long	.LFB234
 4102 004c 40000000 		.long	.LFE234
 4103 0050 00000000 		.long	.LFB237
 4104 0054 34000000 		.long	.LFE237
 4105 0058 00000000 		.long	0
 4106 005c 00000000 		.long	0
 4107              		.section	.debug_line,"",@progbits
 4108              	.Ldebug_line0:
 4109 0000 07050000 		.section	.debug_str,"MS",@progbits,1
 4109      03007E03 
 4109      00000101 
 4109      FB0E0D00 
 4109      01010101 
 4110              	.LASF108:
 4111 0000 6F66665F 		.string	"off_ctx"
 4111      63747800 
 4112              	.LASF245:
 4113 0008 4D656D6F 		.string	"MemoryStream"
 4113      72795374 
 4113      7265616D 
 4113      00
 4114              	.LASF10:
 4115 0015 73697A65 		.string	"size_t"
 4115      5F7400
 4116              	.LASF107:
 4117 001c 6F66665F 		.string	"off_prio"
 4117      7072696F 
 4117      00
 4118              	.LASF130:
 4119 0025 656E646D 		.string	"endmem"
 4119      656D00
 4120              	.LASF93:
 4121 002c 77747365 		.string	"wtsemp"
 4121      6D7000
 4122              	.LASF78:
 4123 0033 73797374 		.string	"systime_t"
 4123      696D655F 
 4123      7400
 4124              	.LASF116:
 4125 003d 6F66665F 		.string	"off_preempt"
 4125      70726565 
 4125      6D707400 
 4126              	.LASF98:
 4127 0049 6F776E65 		.string	"owner"
 4127      7200
 4128              	.LASF29:
 4129 004f 74707269 		.string	"tprio_t"
 4129      6F5F7400 
 4130              	.LASF119:
GAS LISTING /tmp/ccJ7cV0m.s 			page 74


 4131 0057 63685F64 		.string	"ch_debug"
 4131      65627567 
 4131      00
 4132              	.LASF136:
 4133 0060 70726F76 		.string	"provider"
 4133      69646572 
 4133      00
 4134              	.LASF196:
 4135 0069 5F494F5F 		.string	"_IO_codecvt"
 4135      636F6465 
 4135      63767400 
 4136              	.LASF20:
 4137 0075 696E7433 		.string	"int32_t"
 4137      325F7400 
 4138              	.LASF241:
 4139 007d 77726974 		.string	"writet"
 4139      657400
 4140              	.LASF62:
 4141 0084 76746675 		.string	"vtfunc_t"
 4141      6E635F74 
 4141      00
 4142              	.LASF176:
 4143 008d 5F494F5F 		.string	"_IO_save_end"
 4143      73617665 
 4143      5F656E64 
 4143      00
 4144              	.LASF158:
 4145 009a 696E3661 		.string	"in6addr_loopback"
 4145      6464725F 
 4145      6C6F6F70 
 4145      6261636B 
 4145      00
 4146              	.LASF68:
 4147 00ab 63685F76 		.string	"ch_virtual_timers_list"
 4147      69727475 
 4147      616C5F74 
 4147      696D6572 
 4147      735F6C69 
 4148              	.LASF232:
 4149 00c2 636F6D5F 		.string	"com_listen"
 4149      6C697374 
 4149      656E00
 4150              	.LASF237:
 4151 00cd 77726974 		.string	"write"
 4151      6500
 4152              	.LASF138:
 4153 00d3 63685F64 		.string	"ch_dyn_element"
 4153      796E5F65 
 4153      6C656D65 
 4153      6E7400
 4154              	.LASF169:
 4155 00e2 5F494F5F 		.string	"_IO_write_base"
 4155      77726974 
 4155      655F6261 
 4155      736500
 4156              	.LASF42:
 4157 00f1 73746174 		.string	"state"
GAS LISTING /tmp/ccJ7cV0m.s 			page 75


 4157      6500
 4158              	.LASF185:
 4159 00f7 5F6C6F63 		.string	"_lock"
 4159      6B00
 4160              	.LASF239:
 4161 00fd 70757474 		.string	"putt"
 4161      00
 4162              	.LASF174:
 4163 0102 5F494F5F 		.string	"_IO_save_base"
 4163      73617665 
 4163      5F626173 
 4163      6500
 4164              	.LASF143:
 4165 0110 6F626A5F 		.string	"obj_list"
 4165      6C697374 
 4165      00
 4166              	.LASF248:
 4167 0119 5F726561 		.string	"_reads"
 4167      647300
 4168              	.LASF110:
 4169 0120 6F66665F 		.string	"off_older"
 4169      6F6C6465 
 4169      7200
 4170              	.LASF178:
 4171 012a 5F636861 		.string	"_chain"
 4171      696E00
 4172              	.LASF37:
 4173 0131 7072696F 		.string	"prio"
 4173      00
 4174              	.LASF182:
 4175 0136 5F637572 		.string	"_cur_column"
 4175      5F636F6C 
 4175      756D6E00 
 4176              	.LASF201:
 4177 0142 7379735F 		.string	"sys_nerr"
 4177      6E657272 
 4177      00
 4178              	.LASF89:
 4179 014b 65786974 		.string	"exitcode"
 4179      636F6465 
 4179      00
 4180              	.LASF11:
 4181 0154 5F5F7569 		.string	"__uint8_t"
 4181      6E74385F 
 4181      7400
 4182              	.LASF208:
 4183 015e 715F746F 		.string	"q_top"
 4183      7000
 4184              	.LASF69:
 4185 0164 73797374 		.string	"systime"
 4185      696D6500 
 4186              	.LASF242:
 4187 016c 72656164 		.string	"readt"
 4187      7400
 4188              	.LASF207:
 4189 0172 715F6275 		.string	"q_buffer"
 4189      66666572 
GAS LISTING /tmp/ccJ7cV0m.s 			page 76


 4189      00
 4190              	.LASF211:
 4191 017b 715F6E6F 		.string	"q_notify"
 4191      74696679 
 4191      00
 4192              	.LASF159:
 4193 0184 5F5F656E 		.string	"__environ"
 4193      7669726F 
 4193      6E00
 4194              	.LASF194:
 4195 018e 46494C45 		.string	"FILE"
 4195      00
 4196              	.LASF3:
 4197 0193 6C6F6E67 		.string	"long int"
 4197      20696E74 
 4197      00
 4198              	.LASF234:
 4199 019c 636F6D5F 		.string	"com_name"
 4199      6E616D65 
 4199      00
 4200              	.LASF210:
 4201 01a5 715F7264 		.string	"q_rdptr"
 4201      70747200 
 4202              	.LASF101:
 4203 01ad 7A65726F 		.string	"zero"
 4203      00
 4204              	.LASF195:
 4205 01b2 5F494F5F 		.string	"_IO_marker"
 4205      6D61726B 
 4205      657200
 4206              	.LASF27:
 4207 01bd 74737461 		.string	"tstate_t"
 4207      74655F74 
 4207      00
 4208              	.LASF47:
 4209 01c6 6570656E 		.string	"epending"
 4209      64696E67 
 4209      00
 4210              	.LASF56:
 4211 01cf 74687265 		.string	"threads_queue_t"
 4211      6164735F 
 4211      71756575 
 4211      655F7400 
 4212              	.LASF231:
 4213 01df 6F717565 		.string	"oqueue"
 4213      756500
 4214              	.LASF246:
 4215 01e6 5F676574 		.string	"_get"
 4215      00
 4216              	.LASF218:
 4217 01eb 56503144 		.string	"VP1Data"
 4217      61746100 
 4218              	.LASF258:
 4219 01f3 6D734F62 		.string	"msObjectInit"
 4219      6A656374 
 4219      496E6974 
 4219      00
GAS LISTING /tmp/ccJ7cV0m.s 			page 77


 4220              	.LASF144:
 4221 0200 6F626A5F 		.string	"obj_pool"
 4221      706F6F6C 
 4221      00
 4222              	.LASF223:
 4223 0209 70616C5F 		.string	"pal_default_config"
 4223      64656661 
 4223      756C745F 
 4223      636F6E66 
 4223      696700
 4224              	.LASF131:
 4225 021c 6D656D63 		.string	"memcore_t"
 4225      6F72655F 
 4225      7400
 4226              	.LASF204:
 4227 0226 696F5F71 		.string	"io_queue"
 4227      75657565 
 4227      00
 4228              	.LASF9:
 4229 022f 7369676E 		.string	"signed char"
 4229      65642063 
 4229      68617200 
 4230              	.LASF95:
 4231 023b 65776D61 		.string	"ewmask"
 4231      736B00
 4232              	.LASF21:
 4233 0242 75696E74 		.string	"uint8_t"
 4233      385F7400 
 4234              	.LASF164:
 4235 024a 5F494F5F 		.string	"_IO_FILE"
 4235      46494C45 
 4235      00
 4236              	.LASF197:
 4237 0253 5F494F5F 		.string	"_IO_wide_data"
 4237      77696465 
 4237      5F646174 
 4237      6100
 4238              	.LASF31:
 4239 0261 6576656E 		.string	"eventmask_t"
 4239      746D6173 
 4239      6B5F7400 
 4240              	.LASF91:
 4241 026d 77747472 		.string	"wttrp"
 4241      7000
 4242              	.LASF7:
 4243 0273 756E7369 		.string	"unsigned char"
 4243      676E6564 
 4243      20636861 
 4243      7200
 4244              	.LASF212:
 4245 0281 715F6C69 		.string	"q_link"
 4245      6E6B00
 4246              	.LASF189:
 4247 0288 5F667265 		.string	"_freeres_list"
 4247      65726573 
 4247      5F6C6973 
 4247      7400
GAS LISTING /tmp/ccJ7cV0m.s 			page 78


 4248              	.LASF72:
 4249 0296 70616E69 		.string	"panic_msg"
 4249      635F6D73 
 4249      6700
 4250              	.LASF25:
 4251 02a0 73797373 		.string	"syssts_t"
 4251      74735F74 
 4251      00
 4252              	.LASF70:
 4253 02a9 73797374 		.string	"system_debug_t"
 4253      656D5F64 
 4253      65627567 
 4253      5F7400
 4254              	.LASF224:
 4255 02b8 53445F55 		.string	"SD_UNINIT"
 4255      4E494E49 
 4255      5400
 4256              	.LASF83:
 4257 02c2 5F426F6F 		.string	"_Bool"
 4257      6C00
 4258              	.LASF2:
 4259 02c8 63686172 		.string	"char"
 4259      00
 4260              	.LASF146:
 4261 02cd 73656D5F 		.string	"sem_list"
 4261      6C697374 
 4261      00
 4262              	.LASF257:
 4263 02d6 5F494F5F 		.string	"_IO_lock_t"
 4263      6C6F636B 
 4263      5F7400
 4264              	.LASF13:
 4265 02e1 5F5F7569 		.string	"__uint16_t"
 4265      6E743136 
 4265      5F7400
 4266              	.LASF240:
 4267 02ec 67657474 		.string	"gett"
 4267      00
 4268              	.LASF90:
 4269 02f1 77746F62 		.string	"wtobjp"
 4269      6A7000
 4270              	.LASF85:
 4271 02f8 706F7274 		.string	"port_irq_sts"
 4271      5F697271 
 4271      5F737473 
 4271      00
 4272              	.LASF260:
 4273 0305 5F5F6275 		.string	"__builtin_memcpy"
 4273      696C7469 
 4273      6E5F6D65 
 4273      6D637079 
 4273      00
 4274              	.LASF115:
 4275 0316 6F66665F 		.string	"off_refs"
 4275      72656673 
 4275      00
 4276              	.LASF43:
GAS LISTING /tmp/ccJ7cV0m.s 			page 79


 4277 031f 666C6167 		.string	"flags"
 4277      7300
 4278              	.LASF166:
 4279 0325 5F494F5F 		.string	"_IO_read_ptr"
 4279      72656164 
 4279      5F707472 
 4279      00
 4280              	.LASF256:
 4281 0332 73746B61 		.string	"stkalign_t"
 4281      6C69676E 
 4281      5F7400
 4282              	.LASF198:
 4283 033d 73746469 		.string	"stdin"
 4283      6E00
 4284              	.LASF50:
 4285 0343 6D706F6F 		.string	"mpool"
 4285      6C00
 4286              	.LASF233:
 4287 0349 636F6D5F 		.string	"com_data"
 4287      64617461 
 4287      00
 4288              	.LASF254:
 4289 0352 2E2E2F2E 		.string	"../../../os/hal/lib/streams/memstreams.c"
 4289      2E2F2E2E 
 4289      2F6F732F 
 4289      68616C2F 
 4289      6C69622F 
 4290              	.LASF202:
 4291 037b 7379735F 		.string	"sys_errlist"
 4291      6572726C 
 4291      69737400 
 4292              	.LASF121:
 4293 0387 6576656E 		.string	"event_listener_t"
 4293      745F6C69 
 4293      7374656E 
 4293      65725F74 
 4293      00
 4294              	.LASF104:
 4295 0398 70747273 		.string	"ptrsize"
 4295      697A6500 
 4296              	.LASF177:
 4297 03a0 5F6D6172 		.string	"_markers"
 4297      6B657273 
 4297      00
 4298              	.LASF157:
 4299 03a9 696E3661 		.string	"in6addr_any"
 4299      6464725F 
 4299      616E7900 
 4300              	.LASF117:
 4301 03b5 6F66665F 		.string	"off_time"
 4301      74696D65 
 4301      00
 4302              	.LASF33:
 4303 03be 636E745F 		.string	"cnt_t"
 4303      7400
 4304              	.LASF244:
 4305 03c4 62756666 		.string	"buffer"
GAS LISTING /tmp/ccJ7cV0m.s 			page 80


 4305      657200
 4306              	.LASF94:
 4307 03cb 77746D74 		.string	"wtmtxp"
 4307      787000
 4308              	.LASF221:
 4309 03d2 76696F5F 		.string	"vio_port_1"
 4309      706F7274 
 4309      5F3100
 4310              	.LASF222:
 4311 03dd 76696F5F 		.string	"vio_port_2"
 4311      706F7274 
 4311      5F3200
 4312              	.LASF60:
 4313 03e8 63685F72 		.string	"ch_ready_list"
 4313      65616479 
 4313      5F6C6973 
 4313      7400
 4314              	.LASF147:
 4315 03f6 73656D5F 		.string	"sem_pool"
 4315      706F6F6C 
 4315      00
 4316              	.LASF186:
 4317 03ff 5F6F6666 		.string	"_offset"
 4317      73657400 
 4318              	.LASF219:
 4319 0407 56503244 		.string	"VP2Data"
 4319      61746100 
 4320              	.LASF129:
 4321 040f 6E657874 		.string	"nextmem"
 4321      6D656D00 
 4322              	.LASF161:
 4323 0417 6F707469 		.string	"optind"
 4323      6E6400
 4324              	.LASF113:
 4325 041e 6F66665F 		.string	"off_state"
 4325      73746174 
 4325      6500
 4326              	.LASF8:
 4327 0428 6C6F6E67 		.string	"long unsigned int"
 4327      20756E73 
 4327      69676E65 
 4327      6420696E 
 4327      7400
 4328              	.LASF106:
 4329 043a 74687265 		.string	"threadsize"
 4329      61647369 
 4329      7A6500
 4330              	.LASF243:
 4331 0445 4D656D53 		.string	"MemStreamVMT"
 4331      74726561 
 4331      6D564D54 
 4331      00
 4332              	.LASF180:
 4333 0452 5F666C61 		.string	"_flags2"
 4333      67733200 
 4334              	.LASF96:
 4335 045a 63685F73 		.string	"ch_semaphore"
GAS LISTING /tmp/ccJ7cV0m.s 			page 81


 4335      656D6170 
 4335      686F7265 
 4335      00
 4336              	.LASF53:
 4337 0467 63685F74 		.string	"ch_thread"
 4337      68726561 
 4337      6400
 4338              	.LASF168:
 4339 0471 5F494F5F 		.string	"_IO_read_base"
 4339      72656164 
 4339      5F626173 
 4339      6500
 4340              	.LASF67:
 4341 047f 76697274 		.string	"virtual_timers_list_t"
 4341      75616C5F 
 4341      74696D65 
 4341      72735F6C 
 4341      6973745F 
 4342              	.LASF99:
 4343 0495 63685F69 		.string	"ch_idle_thread_wa"
 4343      646C655F 
 4343      74687265 
 4343      61645F77 
 4343      6100
 4344              	.LASF193:
 4345 04a7 5F756E75 		.string	"_unused2"
 4345      73656432 
 4345      00
 4346              	.LASF17:
 4347 04b0 5F5F7175 		.string	"__quad_t"
 4347      61645F74 
 4347      00
 4348              	.LASF149:
 4349 04b9 6669666F 		.string	"fifo_list"
 4349      5F6C6973 
 4349      7400
 4350              	.LASF63:
 4351 04c3 76697274 		.string	"virtual_timer_t"
 4351      75616C5F 
 4351      74696D65 
 4351      725F7400 
 4352              	.LASF59:
 4353 04d3 72656164 		.string	"ready_list_t"
 4353      795F6C69 
 4353      73745F74 
 4353      00
 4354              	.LASF39:
 4355 04e0 6F6C6465 		.string	"older"
 4355      7200
 4356              	.LASF235:
 4357 04e6 53657269 		.string	"SerialDriverVMT"
 4357      616C4472 
 4357      69766572 
 4357      564D5400 
 4358              	.LASF49:
 4359 04f6 7265616C 		.string	"realprio"
 4359      7072696F 
GAS LISTING /tmp/ccJ7cV0m.s 			page 82


 4359      00
 4360              	.LASF34:
 4361 04ff 75636E74 		.string	"ucnt_t"
 4361      5F7400
 4362              	.LASF112:
 4363 0506 6F66665F 		.string	"off_stklimit"
 4363      73746B6C 
 4363      696D6974 
 4363      00
 4364              	.LASF133:
 4365 0513 706F6F6C 		.string	"pool_header"
 4365      5F686561 
 4365      64657200 
 4366              	.LASF54:
 4367 051f 63685F74 		.string	"ch_threads_list"
 4367      68726561 
 4367      64735F6C 
 4367      69737400 
 4368              	.LASF15:
 4369 052f 5F5F7569 		.string	"__uint32_t"
 4369      6E743332 
 4369      5F7400
 4370              	.LASF152:
 4371 053a 5F5F7536 		.string	"__u6_addr8"
 4371      5F616464 
 4371      723800
 4372              	.LASF48:
 4373 0545 6D74786C 		.string	"mtxlist"
 4373      69737400 
 4374              	.LASF4:
 4375 054d 6C6F6E67 		.string	"long long int"
 4375      206C6F6E 
 4375      6720696E 
 4375      7400
 4376              	.LASF79:
 4377 055b 73797369 		.string	"sysinterval_t"
 4377      6E746572 
 4377      76616C5F 
 4377      7400
 4378              	.LASF142:
 4379 0569 63685F6F 		.string	"ch_objects_factory"
 4379      626A6563 
 4379      74735F66 
 4379      6163746F 
 4379      727900
 4380              	.LASF216:
 4381 057c 6C617463 		.string	"latch"
 4381      6800
 4382              	.LASF259:
 4383 0582 6D656D63 		.string	"memcpy"
 4383      707900
 4384              	.LASF247:
 4385 0589 5F707574 		.string	"_put"
 4385      00
 4386              	.LASF171:
 4387 058e 5F494F5F 		.string	"_IO_write_end"
 4387      77726974 
GAS LISTING /tmp/ccJ7cV0m.s 			page 83


 4387      655F656E 
 4387      6400
 4388              	.LASF127:
 4389 059c 6576656E 		.string	"event_source_t"
 4389      745F736F 
 4389      75726365 
 4389      5F7400
 4390              	.LASF253:
 4391 05ab 474E5520 		.string	"GNU C17 8.3.0 -m32 -mtune=generic -march=i686 -ggdb -O2 -ffunction-sections -fdata-sectio
 4391      43313720 
 4391      382E332E 
 4391      30202D6D 
 4391      3332202D 
 4392              	.LASF135:
 4393 062c 616C6967 		.string	"align"
 4393      6E00
 4394              	.LASF213:
 4395 0632 716E6F74 		.string	"qnotify_t"
 4395      6966795F 
 4395      7400
 4396              	.LASF229:
 4397 063c 6576656E 		.string	"event"
 4397      7400
 4398              	.LASF238:
 4399 0642 72656164 		.string	"read"
 4399      00
 4400              	.LASF172:
 4401 0647 5F494F5F 		.string	"_IO_buf_base"
 4401      6275665F 
 4401      62617365 
 4401      00
 4402              	.LASF109:
 4403 0654 6F66665F 		.string	"off_newer"
 4403      6E657765 
 4403      7200
 4404              	.LASF0:
 4405 065e 756E7369 		.string	"unsigned int"
 4405      676E6564 
 4405      20696E74 
 4405      00
 4406              	.LASF24:
 4407 066b 7274636E 		.string	"rtcnt_t"
 4407      745F7400 
 4408              	.LASF181:
 4409 0673 5F6F6C64 		.string	"_old_offset"
 4409      5F6F6666 
 4409      73657400 
 4410              	.LASF191:
 4411 067f 5F5F7061 		.string	"__pad5"
 4411      643500
 4412              	.LASF61:
 4413 0686 63757272 		.string	"current"
 4413      656E7400 
 4414              	.LASF165:
 4415 068e 5F666C61 		.string	"_flags"
 4415      677300
 4416              	.LASF86:
GAS LISTING /tmp/ccJ7cV0m.s 			page 84


 4417 0695 6F666673 		.string	"offset"
 4417      657400
 4418              	.LASF192:
 4419 069c 5F6D6F64 		.string	"_mode"
 4419      6500
 4420              	.LASF84:
 4421 06a2 706F7274 		.string	"port_isr_context_flag"
 4421      5F697372 
 4421      5F636F6E 
 4421      74657874 
 4421      5F666C61 
 4422              	.LASF187:
 4423 06b8 5F636F64 		.string	"_codecvt"
 4423      65637674 
 4423      00
 4424              	.LASF155:
 4425 06c1 696E365F 		.string	"in6_addr"
 4425      61646472 
 4425      00
 4426              	.LASF128:
 4427 06ca 6D656D67 		.string	"memgetfunc_t"
 4427      65746675 
 4427      6E635F74 
 4427      00
 4428              	.LASF35:
 4429 06d7 74687265 		.string	"thread_t"
 4429      61645F74 
 4429      00
 4430              	.LASF5:
 4431 06e0 6C6F6E67 		.string	"long double"
 4431      20646F75 
 4431      626C6500 
 4432              	.LASF125:
 4433 06ec 77666C61 		.string	"wflags"
 4433      677300
 4434              	.LASF51:
 4435 06f3 74687265 		.string	"thread_reference_t"
 4435      61645F72 
 4435      65666572 
 4435      656E6365 
 4435      5F7400
 4436              	.LASF92:
 4437 0706 73656E74 		.string	"sentmsg"
 4437      6D736700 
 4438              	.LASF217:
 4439 070e 73696D5F 		.string	"sim_vio_port_t"
 4439      76696F5F 
 4439      706F7274 
 4439      5F7400
 4440              	.LASF81:
 4441 071d 706F7274 		.string	"port_intctx"
 4441      5F696E74 
 4441      63747800 
 4442              	.LASF150:
 4443 0729 6F626A65 		.string	"objects_factory_t"
 4443      6374735F 
 4443      66616374 
GAS LISTING /tmp/ccJ7cV0m.s 			page 85


 4443      6F72795F 
 4443      7400
 4444              	.LASF145:
 4445 073b 6275665F 		.string	"buf_list"
 4445      6C697374 
 4445      00
 4446              	.LASF64:
 4447 0744 63685F76 		.string	"ch_virtual_timer"
 4447      69727475 
 4447      616C5F74 
 4447      696D6572 
 4447      00
 4448              	.LASF163:
 4449 0755 6F70746F 		.string	"optopt"
 4449      707400
 4450              	.LASF102:
 4451 075c 73697A65 		.string	"size"
 4451      00
 4452              	.LASF16:
 4453 0761 6C6F6E67 		.string	"long long unsigned int"
 4453      206C6F6E 
 4453      6720756E 
 4453      7369676E 
 4453      65642069 
 4454              	.LASF22:
 4455 0778 75696E74 		.string	"uint16_t"
 4455      31365F74 
 4455      00
 4456              	.LASF18:
 4457 0781 5F5F6F66 		.string	"__off_t"
 4457      665F7400 
 4458              	.LASF111:
 4459 0789 6F66665F 		.string	"off_name"
 4459      6E616D65 
 4459      00
 4460              	.LASF30:
 4461 0792 6D73675F 		.string	"msg_t"
 4461      7400
 4462              	.LASF57:
 4463 0798 63685F74 		.string	"ch_threads_queue"
 4463      68726561 
 4463      64735F71 
 4463      75657565 
 4463      00
 4464              	.LASF32:
 4465 07a9 6576656E 		.string	"eventflags_t"
 4465      74666C61 
 4465      67735F74 
 4465      00
 4466              	.LASF65:
 4467 07b6 64656C74 		.string	"delta"
 4467      6100
 4468              	.LASF190:
 4469 07bc 5F667265 		.string	"_freeres_buf"
 4469      65726573 
 4469      5F627566 
 4469      00
GAS LISTING /tmp/ccJ7cV0m.s 			page 86


 4470              	.LASF44:
 4471 07c9 72656673 		.string	"refs"
 4471      00
 4472              	.LASF36:
 4473 07ce 71756575 		.string	"queue"
 4473      6500
 4474              	.LASF206:
 4475 07d4 715F636F 		.string	"q_counter"
 4475      756E7465 
 4475      7200
 4476              	.LASF162:
 4477 07de 6F707465 		.string	"opterr"
 4477      727200
 4478              	.LASF151:
 4479 07e5 63685F66 		.string	"ch_factory"
 4479      6163746F 
 4479      727900
 4480              	.LASF148:
 4481 07f0 6D62785F 		.string	"mbx_list"
 4481      6C697374 
 4481      00
 4482              	.LASF77:
 4483 07f9 6D61696E 		.string	"mainthread"
 4483      74687265 
 4483      616400
 4484              	.LASF103:
 4485 0804 76657273 		.string	"version"
 4485      696F6E00 
 4486              	.LASF175:
 4487 080c 5F494F5F 		.string	"_IO_backup_base"
 4487      6261636B 
 4487      75705F62 
 4487      61736500 
 4488              	.LASF184:
 4489 081c 5F73686F 		.string	"_shortbuf"
 4489      72746275 
 4489      6600
 4490              	.LASF41:
 4491 0826 77616261 		.string	"wabase"
 4491      736500
 4492              	.LASF228:
 4493 082d 53657269 		.string	"SerialDriver"
 4493      616C4472 
 4493      69766572 
 4493      00
 4494              	.LASF137:
 4495 083a 6D656D6F 		.string	"memory_pool_t"
 4495      72795F70 
 4495      6F6F6C5F 
 4495      7400
 4496              	.LASF255:
 4497 0848 2F686F6D 		.string	"/home/phil/Documents/ChibiOS_18.2.1/demos/various/RT-Posix-SimulatorAtom"
 4497      652F7068 
 4497      696C2F44 
 4497      6F63756D 
 4497      656E7473 
 4498              	.LASF19:
GAS LISTING /tmp/ccJ7cV0m.s 			page 87


 4499 0891 5F5F6F66 		.string	"__off64_t"
 4499      6636345F 
 4499      7400
 4500              	.LASF205:
 4501 089b 715F7761 		.string	"q_waiting"
 4501      6974696E 
 4501      6700
 4502              	.LASF75:
 4503 08a5 726C6973 		.string	"rlist"
 4503      7400
 4504              	.LASF26:
 4505 08ab 746D6F64 		.string	"tmode_t"
 4505      655F7400 
 4506              	.LASF227:
 4507 08b3 73647374 		.string	"sdstate_t"
 4507      6174655F 
 4507      7400
 4508              	.LASF226:
 4509 08bd 53445F52 		.string	"SD_READY"
 4509      45414459 
 4509      00
 4510              	.LASF173:
 4511 08c6 5F494F5F 		.string	"_IO_buf_end"
 4511      6275665F 
 4511      656E6400 
 4512              	.LASF87:
 4513 08d2 746D5F63 		.string	"tm_calibration_t"
 4513      616C6962 
 4513      72617469 
 4513      6F6E5F74 
 4513      00
 4514              	.LASF156:
 4515 08e3 5F5F696E 		.string	"__in6_u"
 4515      365F7500 
 4516              	.LASF40:
 4517 08eb 6E616D65 		.string	"name"
 4517      00
 4518              	.LASF123:
 4519 08f0 6C697374 		.string	"listener"
 4519      656E6572 
 4519      00
 4520              	.LASF251:
 4521 08f9 5F5F7372 		.string	"__src"
 4521      6300
 4522              	.LASF249:
 4523 08ff 5F777269 		.string	"_writes"
 4523      74657300 
 4524              	.LASF200:
 4525 0907 73746465 		.string	"stderr"
 4525      727200
 4526              	.LASF12:
 4527 090e 73686F72 		.string	"short int"
 4527      7420696E 
 4527      7400
 4528              	.LASF126:
 4529 0918 6576656E 		.string	"event_source"
 4529      745F736F 
GAS LISTING /tmp/ccJ7cV0m.s 			page 88


 4529      75726365 
 4529      00
 4530              	.LASF66:
 4531 0925 66756E63 		.string	"func"
 4531      00
 4532              	.LASF97:
 4533 092a 63685F6D 		.string	"ch_mutex"
 4533      75746578 
 4533      00
 4534              	.LASF46:
 4535 0933 6D736771 		.string	"msgqueue"
 4535      75657565 
 4535      00
 4536              	.LASF230:
 4537 093c 69717565 		.string	"iqueue"
 4537      756500
 4538              	.LASF183:
 4539 0943 5F767461 		.string	"_vtable_offset"
 4539      626C655F 
 4539      6F666673 
 4539      657400
 4540              	.LASF71:
 4541 0952 63685F73 		.string	"ch_system_debug"
 4541      79737465 
 4541      6D5F6465 
 4541      62756700 
 4542              	.LASF141:
 4543 0962 64796E5F 		.string	"dyn_list_t"
 4543      6C697374 
 4543      5F7400
 4544              	.LASF250:
 4545 096d 5F5F6465 		.string	"__dest"
 4545      737400
 4546              	.LASF203:
 4547 0974 696F5F71 		.string	"io_queue_t"
 4547      75657565 
 4547      5F7400
 4548              	.LASF220:
 4549 097f 50414C43 		.string	"PALConfig"
 4549      6F6E6669 
 4549      6700
 4550              	.LASF134:
 4551 0989 6F626A65 		.string	"object_size"
 4551      63745F73 
 4551      697A6500 
 4552              	.LASF76:
 4553 0995 76746C69 		.string	"vtlist"
 4553      737400
 4554              	.LASF45:
 4555 099c 77616974 		.string	"waiting"
 4555      696E6700 
 4556              	.LASF139:
 4557 09a4 64796E5F 		.string	"dyn_element_t"
 4557      656C656D 
 4557      656E745F 
 4557      7400
 4558              	.LASF120:
GAS LISTING /tmp/ccJ7cV0m.s 			page 89


 4559 09b2 6D757465 		.string	"mutex_t"
 4559      785F7400 
 4560              	.LASF28:
 4561 09ba 74726566 		.string	"trefs_t"
 4561      735F7400 
 4562              	.LASF82:
 4563 09c2 706F7274 		.string	"port_context"
 4563      5F636F6E 
 4563      74657874 
 4563      00
 4564              	.LASF167:
 4565 09cf 5F494F5F 		.string	"_IO_read_end"
 4565      72656164 
 4565      5F656E64 
 4565      00
 4566              	.LASF52:
 4567 09dc 74687265 		.string	"threads_list_t"
 4567      6164735F 
 4567      6C697374 
 4567      5F7400
 4568              	.LASF74:
 4569 09eb 63685F73 		.string	"ch_system"
 4569      79737465 
 4569      6D00
 4570              	.LASF38:
 4571 09f5 6E657765 		.string	"newer"
 4571      7200
 4572              	.LASF153:
 4573 09fb 5F5F7536 		.string	"__u6_addr16"
 4573      5F616464 
 4573      72313600 
 4574              	.LASF23:
 4575 0a07 75696E74 		.string	"uint32_t"
 4575      33325F74 
 4575      00
 4576              	.LASF236:
 4577 0a10 696E7374 		.string	"instance_offset"
 4577      616E6365 
 4577      5F6F6666 
 4577      73657400 
 4578              	.LASF179:
 4579 0a20 5F66696C 		.string	"_fileno"
 4579      656E6F00 
 4580              	.LASF214:
 4581 0a28 696E7075 		.string	"input_queue_t"
 4581      745F7175 
 4581      6575655F 
 4581      7400
 4582              	.LASF6:
 4583 0a36 5F466C6F 		.string	"_Float128"
 4583      61743132 
 4583      3800
 4584              	.LASF188:
 4585 0a40 5F776964 		.string	"_wide_data"
 4585      655F6461 
 4585      746100
 4586              	.LASF160:
GAS LISTING /tmp/ccJ7cV0m.s 			page 90


 4587 0a4b 6F707461 		.string	"optarg"
 4587      726700
 4588              	.LASF122:
 4589 0a52 6576656E 		.string	"event_listener"
 4589      745F6C69 
 4589      7374656E 
 4589      657200
 4590              	.LASF88:
 4591 0a61 7264796D 		.string	"rdymsg"
 4591      736700
 4592              	.LASF209:
 4593 0a68 715F7772 		.string	"q_wrptr"
 4593      70747200 
 4594              	.LASF1:
 4595 0a70 73686F72 		.string	"short unsigned int"
 4595      7420756E 
 4595      7369676E 
 4595      65642069 
 4595      6E7400
 4596              	.LASF199:
 4597 0a83 7374646F 		.string	"stdout"
 4597      757400
 4598              	.LASF80:
 4599 0a8a 72656778 		.string	"regx86"
 4599      383600
 4600              	.LASF73:
 4601 0a91 63685F73 		.string	"ch_system_t"
 4601      79737465 
 4601      6D5F7400 
 4602              	.LASF118:
 4603 0a9d 63686465 		.string	"chdebug_t"
 4603      6275675F 
 4603      7400
 4604              	.LASF170:
 4605 0aa7 5F494F5F 		.string	"_IO_write_ptr"
 4605      77726974 
 4605      655F7074 
 4605      7200
 4606              	.LASF215:
 4607 0ab5 6F757470 		.string	"output_queue_t"
 4607      75745F71 
 4607      75657565 
 4607      5F7400
 4608              	.LASF105:
 4609 0ac4 74696D65 		.string	"timesize"
 4609      73697A65 
 4609      00
 4610              	.LASF14:
 4611 0acd 5F5F696E 		.string	"__int32_t"
 4611      7433325F 
 4611      7400
 4612              	.LASF225:
 4613 0ad7 53445F53 		.string	"SD_STOP"
 4613      544F5000 
 4614              	.LASF154:
 4615 0adf 5F5F7536 		.string	"__u6_addr32"
 4615      5F616464 
GAS LISTING /tmp/ccJ7cV0m.s 			page 91


 4615      72333200 
 4616              	.LASF132:
 4617 0aeb 63685F6D 		.string	"ch_memcore"
 4617      656D636F 
 4617      726500
 4618              	.LASF114:
 4619 0af6 6F66665F 		.string	"off_flags"
 4619      666C6167 
 4619      7300
 4620              	.LASF252:
 4621 0b00 5F5F6C65 		.string	"__len"
 4621      6E00
 4622              	.LASF124:
 4623 0b06 6576656E 		.string	"events"
 4623      747300
 4624              	.LASF55:
 4625 0b0d 6E657874 		.string	"next"
 4625      00
 4626              	.LASF58:
 4627 0b12 70726576 		.string	"prev"
 4627      00
 4628              	.LASF140:
 4629 0b17 63685F64 		.string	"ch_dyn_list"
 4629      796E5F6C 
 4629      69737400 
 4630              	.LASF100:
 4631 0b23 6964656E 		.string	"identifier"
 4631      74696669 
 4631      657200
 4632              		.ident	"GCC: (Ubuntu 8.3.0-6ubuntu1) 8.3.0"
 4633              		.section	.note.GNU-stack,"",@progbits
GAS LISTING /tmp/ccJ7cV0m.s 			page 92


DEFINED SYMBOLS
                            *ABS*:0000000000000000 memstreams.c
     /tmp/ccJ7cV0m.s:7      .text._put:0000000000000000 _put
     /tmp/ccJ7cV0m.s:62     .text._get:0000000000000000 _get
     /tmp/ccJ7cV0m.s:102    .text._writes:0000000000000000 _writes
     /tmp/ccJ7cV0m.s:334    .text.__x86.get_pc_thunk.bx:0000000000000000 __x86.get_pc_thunk.bx
     /tmp/ccJ7cV0m.s:189    .text._reads:0000000000000000 _reads
     /tmp/ccJ7cV0m.s:276    .text.msObjectInit:0000000000000000 msObjectInit
     /tmp/ccJ7cV0m.s:323    .text.__x86.get_pc_thunk.dx:0000000000000000 __x86.get_pc_thunk.dx
     /tmp/ccJ7cV0m.s:313    .data.rel.ro.local.vmt:0000000000000000 vmt

UNDEFINED SYMBOLS
_GLOBAL_OFFSET_TABLE_
memcpy
