GAS LISTING /tmp/ccJ7cV0m.s 			page 1


   1              		.file	"memstreams.c"
   2              		.text
   3              	.Ltext0:
   4              		.section	.text._put,"ax",@progbits
   5              		.p2align 4,,15
   6              		.type	_put, @function
   7              	_put:
   8              	.LVL0:
   9              	.LFB235:
  10              		.file 1 "../../../os/hal/lib/streams/memstreams.c"
  11              		.loc 1 66 40 view -0
  12              		.cfi_startproc
  13              		.loc 1 67 3 view .LVU1
  14              		.loc 1 66 40 is_stmt 0 view .LVU2
  15 0000 53       		pushl	%ebx
  16              		.cfi_def_cfa_offset 8
  17              		.cfi_offset 3, -8
  18              		.loc 1 66 40 view .LVU3
  19 0001 8B442408 		movl	8(%esp), %eax
  20              	.LVL1:
  21              		.loc 1 69 3 is_stmt 1 view .LVU4
  22              		.loc 1 66 40 is_stmt 0 view .LVU5
  23 0005 8B4C240C 		movl	12(%esp), %ecx
  24              		.loc 1 69 22 view .LVU6
  25 0009 8B500C   		movl	12(%eax), %edx
  26              		.loc 1 69 6 view .LVU7
  27 000c 395008   		cmpl	%edx, 8(%eax)
  28 000f 740E     		je	.L3
  29              		.loc 1 71 3 is_stmt 1 view .LVU8
  30              		.loc 1 71 29 is_stmt 0 view .LVU9
  31 0011 8B5804   		movl	4(%eax), %ebx
  32 0014 880C13   		movb	%cl, (%ebx,%edx)
  33              		.loc 1 72 3 is_stmt 1 view .LVU10
  34              		.loc 1 72 12 is_stmt 0 view .LVU11
  35 0017 83400C01 		addl	$1, 12(%eax)
  36              		.loc 1 73 3 is_stmt 1 view .LVU12
  37              		.loc 1 73 10 is_stmt 0 view .LVU13
  38 001b 31C0     		xorl	%eax, %eax
  39              		.loc 1 74 1 view .LVU14
  40 001d 5B       		popl	%ebx
  41              		.cfi_remember_state
  42              		.cfi_restore 3
  43              		.cfi_def_cfa_offset 4
  44 001e C3       		ret
  45              	.LVL2:
  46              	.L3:
  47              		.cfi_restore_state
  48              		.loc 1 70 12 view .LVU15
  49 001f B8FEFFFF 		movl	$-2, %eax
  49      FF
  50              	.LVL3:
  51              		.loc 1 74 1 view .LVU16
  52 0024 5B       		popl	%ebx
  53              		.cfi_restore 3
  54              		.cfi_def_cfa_offset 4
  55 0025 C3       		ret
  56              		.cfi_endproc
GAS LISTING /tmp/ccJ7cV0m.s 			page 2


  57              	.LFE235:
  58              		.size	_put, .-_put
  59              		.section	.text._get,"ax",@progbits
  60              		.p2align 4,,15
  61              		.type	_get, @function
  62              	_get:
  63              	.LVL4:
  64              	.LFB236:
  65              		.loc 1 76 29 is_stmt 1 view -0
  66              		.cfi_startproc
  67              		.loc 1 77 3 view .LVU18
  68              		.loc 1 78 3 view .LVU19
  69              		.loc 1 76 29 is_stmt 0 view .LVU20
  70 0000 8B4C2404 		movl	4(%esp), %ecx
  71              	.LVL5:
  72              		.loc 1 80 3 is_stmt 1 view .LVU21
  73              		.loc 1 80 21 is_stmt 0 view .LVU22
  74 0004 8B5110   		movl	16(%ecx), %edx
  75              		.loc 1 80 6 view .LVU23
  76 0007 39510C   		cmpl	%edx, 12(%ecx)
  77 000a 740E     		je	.L8
  78              		.loc 1 82 3 is_stmt 1 view .LVU24
  79              		.loc 1 82 5 is_stmt 0 view .LVU25
  80 000c 8B4104   		movl	4(%ecx), %eax
  81 000f 0FB60410 		movzbl	(%eax,%edx), %eax
  82              	.LVL6:
  83              		.loc 1 83 3 is_stmt 1 view .LVU26
  84              		.loc 1 83 15 is_stmt 0 view .LVU27
  85 0013 83C201   		addl	$1, %edx
  86 0016 895110   		movl	%edx, 16(%ecx)
  87              		.loc 1 84 3 is_stmt 1 view .LVU28
  88              		.loc 1 84 10 is_stmt 0 view .LVU29
  89 0019 C3       		ret
  90              	.LVL7:
  91              	.L8:
  92              		.loc 1 81 12 view .LVU30
  93 001a B8FEFFFF 		movl	$-2, %eax
  93      FF
  94              		.loc 1 85 1 view .LVU31
  95 001f C3       		ret
  96              		.cfi_endproc
  97              	.LFE236:
  98              		.size	_get, .-_get
  99              		.section	.text._writes,"ax",@progbits
 100              		.p2align 4,,15
 101              		.type	_writes, @function
 102              	_writes:
 103              	.LVL8:
 104              	.LFB233:
 105              		.loc 1 46 62 is_stmt 1 view -0
 106              		.cfi_startproc
 107              		.loc 1 47 3 view .LVU33
 108              		.loc 1 46 62 is_stmt 0 view .LVU34
 109 0000 57       		pushl	%edi
 110              		.cfi_def_cfa_offset 8
 111              		.cfi_offset 7, -8
 112 0001 56       		pushl	%esi
GAS LISTING /tmp/ccJ7cV0m.s 			page 3


 113              		.cfi_def_cfa_offset 12
 114              		.cfi_offset 6, -12
 115 0002 53       		pushl	%ebx
 116              		.cfi_def_cfa_offset 16
 117              		.cfi_offset 3, -16
 118              		.loc 1 46 62 view .LVU35
 119 0003 8B7C2410 		movl	16(%esp), %edi
 120              	.LVL9:
 121              		.loc 1 49 3 is_stmt 1 view .LVU36
 122 0007 E8FCFFFF 		call	__x86.get_pc_thunk.bx
 122      FF
 123 000c 81C30200 		addl	$_GLOBAL_OFFSET_TABLE_, %ebx
 123      0000
 124              		.loc 1 46 62 is_stmt 0 view .LVU37
 125 0012 8B542418 		movl	24(%esp), %edx
 126              		.loc 1 49 22 view .LVU38
 127 0016 8B470C   		movl	12(%edi), %eax
 128              		.loc 1 49 17 view .LVU39
 129 0019 8B7708   		movl	8(%edi), %esi
 130 001c 29C6     		subl	%eax, %esi
 131 001e 39D6     		cmpl	%edx, %esi
 132 0020 0F47F2   		cmova	%edx, %esi
 133              	.LVL10:
 134              		.loc 1 51 3 is_stmt 1 view .LVU40
 135              	.LBB6:
 136              	.LBI6:
 137              		.file 2 "/usr/include/i386-linux-gnu/bits/string_fortified.h"
 138              		.loc 2 31 1 view .LVU41
 139              	.LBB7:
 140              		.loc 2 34 3 view .LVU42
 141              	.LBE7:
 142              	.LBE6:
 143              		.loc 1 51 22 is_stmt 0 view .LVU43
 144 0023 034704   		addl	4(%edi), %eax
 145              	.LVL11:
 146              	.LBB9:
 147              	.LBB8:
 148              		.loc 2 34 10 view .LVU44
 149 0026 83EC04   		subl	$4, %esp
 150              		.cfi_def_cfa_offset 20
 151 0029 56       		pushl	%esi
 152              		.cfi_def_cfa_offset 24
 153 002a FF74241C 		pushl	28(%esp)
 154              		.cfi_def_cfa_offset 28
 155 002e 50       		pushl	%eax
 156              		.cfi_def_cfa_offset 32
 157 002f E8FCFFFF 		call	memcpy@PLT
 157      FF
 158              	.LVL12:
 159              		.loc 2 34 10 view .LVU45
 160              	.LBE8:
 161              	.LBE9:
 162              		.loc 1 52 3 is_stmt 1 view .LVU46
 163              		.loc 1 53 10 is_stmt 0 view .LVU47
 164 0034 83C410   		addl	$16, %esp
 165              		.cfi_def_cfa_offset 16
 166              		.loc 1 52 12 view .LVU48
GAS LISTING /tmp/ccJ7cV0m.s 			page 4


 167 0037 01770C   		addl	%esi, 12(%edi)
 168              		.loc 1 53 3 is_stmt 1 view .LVU49
 169              		.loc 1 54 1 is_stmt 0 view .LVU50
 170 003a 89F0     		movl	%esi, %eax
 171 003c 5B       		popl	%ebx
 172              		.cfi_restore 3
 173              		.cfi_def_cfa_offset 12
 174 003d 5E       		popl	%esi
 175              		.cfi_restore 6
 176              		.cfi_def_cfa_offset 8
 177              	.LVL13:
 178              		.loc 1 54 1 view .LVU51
 179 003e 5F       		popl	%edi
 180              		.cfi_restore 7
 181              		.cfi_def_cfa_offset 4
 182 003f C3       		ret
 183              		.cfi_endproc
 184              	.LFE233:
 185              		.size	_writes, .-_writes
 186              		.section	.text._reads,"ax",@progbits
 187              		.p2align 4,,15
 188              		.type	_reads, @function
 189              	_reads:
 190              	.LVL14:
 191              	.LFB234:
 192              		.loc 1 56 55 is_stmt 1 view -0
 193              		.cfi_startproc
 194              		.loc 1 57 3 view .LVU53
 195              		.loc 1 56 55 is_stmt 0 view .LVU54
 196 0000 57       		pushl	%edi
 197              		.cfi_def_cfa_offset 8
 198              		.cfi_offset 7, -8
 199 0001 56       		pushl	%esi
 200              		.cfi_def_cfa_offset 12
 201              		.cfi_offset 6, -12
 202 0002 53       		pushl	%ebx
 203              		.cfi_def_cfa_offset 16
 204              		.cfi_offset 3, -16
 205              		.loc 1 56 55 view .LVU55
 206 0003 8B7C2410 		movl	16(%esp), %edi
 207              	.LVL15:
 208              		.loc 1 59 3 is_stmt 1 view .LVU56
 209 0007 E8FCFFFF 		call	__x86.get_pc_thunk.bx
 209      FF
 210 000c 81C30200 		addl	$_GLOBAL_OFFSET_TABLE_, %ebx
 210      0000
 211              		.loc 1 56 55 is_stmt 0 view .LVU57
 212 0012 8B542418 		movl	24(%esp), %edx
 213              		.loc 1 59 21 view .LVU58
 214 0016 8B4710   		movl	16(%edi), %eax
 215              		.loc 1 59 16 view .LVU59
 216 0019 8B770C   		movl	12(%edi), %esi
 217 001c 29C6     		subl	%eax, %esi
 218 001e 39D6     		cmpl	%edx, %esi
 219 0020 0F47F2   		cmova	%edx, %esi
 220              	.LVL16:
 221              		.loc 1 61 3 is_stmt 1 view .LVU60
GAS LISTING /tmp/ccJ7cV0m.s 			page 5


 222              	.LBB10:
 223              	.LBI10:
 224              		.loc 2 31 1 view .LVU61
 225              	.LBB11:
 226              		.loc 2 34 3 view .LVU62
 227              	.LBE11:
 228              	.LBE10:
 229              		.loc 1 61 26 is_stmt 0 view .LVU63
 230 0023 034704   		addl	4(%edi), %eax
 231              	.LVL17:
 232              	.LBB13:
 233              	.LBB12:
 234              		.loc 2 34 10 view .LVU64
 235 0026 83EC04   		subl	$4, %esp
 236              		.cfi_def_cfa_offset 20
 237 0029 56       		pushl	%esi
 238              		.cfi_def_cfa_offset 24
 239 002a 50       		pushl	%eax
 240              		.cfi_def_cfa_offset 28
 241 002b FF742420 		pushl	32(%esp)
 242              		.cfi_def_cfa_offset 32
 243 002f E8FCFFFF 		call	memcpy@PLT
 243      FF
 244              	.LVL18:
 245              		.loc 2 34 10 view .LVU65
 246              	.LBE12:
 247              	.LBE13:
 248              		.loc 1 62 3 is_stmt 1 view .LVU66
 249              		.loc 1 63 10 is_stmt 0 view .LVU67
 250 0034 83C410   		addl	$16, %esp
 251              		.cfi_def_cfa_offset 16
 252              		.loc 1 62 15 view .LVU68
 253 0037 017710   		addl	%esi, 16(%edi)
 254              		.loc 1 63 3 is_stmt 1 view .LVU69
 255              		.loc 1 64 1 is_stmt 0 view .LVU70
 256 003a 89F0     		movl	%esi, %eax
 257 003c 5B       		popl	%ebx
 258              		.cfi_restore 3
 259              		.cfi_def_cfa_offset 12
 260 003d 5E       		popl	%esi
 261              		.cfi_restore 6
 262              		.cfi_def_cfa_offset 8
 263              	.LVL19:
 264              		.loc 1 64 1 view .LVU71
 265 003e 5F       		popl	%edi
 266              		.cfi_restore 7
 267              		.cfi_def_cfa_offset 4
 268 003f C3       		ret
 269              		.cfi_endproc
 270              	.LFE234:
 271              		.size	_reads, .-_reads
 272              		.section	.text.msObjectInit,"ax",@progbits
 273              		.p2align 4,,15
 274              		.globl	msObjectInit
 275              		.type	msObjectInit, @function
 276              	msObjectInit:
 277              	.LVL20:
GAS LISTING /tmp/ccJ7cV0m.s 			page 6


 278              	.LFB237:
 279              		.loc 1 104 44 is_stmt 1 view -0
 280              		.cfi_startproc
 281              		.loc 1 106 3 view .LVU73
 282 0000 E8FCFFFF 		call	__x86.get_pc_thunk.dx
 282      FF
 283 0005 81C20200 		addl	$_GLOBAL_OFFSET_TABLE_, %edx
 283      0000
 284              		.loc 1 104 44 is_stmt 0 view .LVU74
 285 000b 8B442404 		movl	4(%esp), %eax
 286              		.loc 1 110 15 view .LVU75
 287 000f C7401000 		movl	$0, 16(%eax)
 287      000000
 288              		.loc 1 106 15 view .LVU76
 289 0016 8D920000 		leal	vmt@GOTOFF(%edx), %edx
 289      0000
 290 001c 8910     		movl	%edx, (%eax)
 291              		.loc 1 107 3 is_stmt 1 view .LVU77
 292              		.loc 1 107 15 is_stmt 0 view .LVU78
 293 001e 8B542408 		movl	8(%esp), %edx
 294 0022 895004   		movl	%edx, 4(%eax)
 295              		.loc 1 108 3 is_stmt 1 view .LVU79
 296              		.loc 1 108 15 is_stmt 0 view .LVU80
 297 0025 8B54240C 		movl	12(%esp), %edx
 298 0029 895008   		movl	%edx, 8(%eax)
 299              		.loc 1 109 3 is_stmt 1 view .LVU81
 300              		.loc 1 109 15 is_stmt 0 view .LVU82
 301 002c 8B542410 		movl	16(%esp), %edx
 302 0030 89500C   		movl	%edx, 12(%eax)
 303              		.loc 1 110 3 is_stmt 1 view .LVU83
 304              		.loc 1 111 1 is_stmt 0 view .LVU84
 305 0033 C3       		ret
 306              		.cfi_endproc
 307              	.LFE237:
 308              		.size	msObjectInit, .-msObjectInit
 309              		.section	.data.rel.ro.local.vmt,"aw"
 310              		.align 4
 311              		.type	vmt, @object
 312              		.size	vmt, 20
 313              	vmt:
 314 0000 00000000 		.long	0
 315 0004 00000000 		.long	_writes
 316 0008 00000000 		.long	_reads
 317 000c 00000000 		.long	_put
 318 0010 00000000 		.long	_get
 319              		.section	.text.__x86.get_pc_thunk.dx,"axG",@progbits,__x86.get_pc_thunk.dx,comdat
 320              		.globl	__x86.get_pc_thunk.dx
 321              		.hidden	__x86.get_pc_thunk.dx
 322              		.type	__x86.get_pc_thunk.dx, @function
 323              	__x86.get_pc_thunk.dx:
 324              	.LFB238:
 325              		.cfi_startproc
 326 0000 8B1424   		movl	(%esp), %edx
 327 0003 C3       		ret
 328              		.cfi_endproc
 329              	.LFE238:
 330              		.section	.text.__x86.get_pc_thunk.bx,"axG",@progbits,__x86.get_pc_thunk.bx,comdat
GAS LISTING /tmp/ccJ7cV0m.s 			page 7


 331              		.globl	__x86.get_pc_thunk.bx
 332              		.hidden	__x86.get_pc_thunk.bx
 333              		.type	__x86.get_pc_thunk.bx, @function
 334              	__x86.get_pc_thunk.bx:
 335              	.LFB239:
 336              		.cfi_startproc
 337 0000 8B1C24   		movl	(%esp), %ebx
 338 0003 C3       		ret
 339              		.cfi_endproc
 340              	.LFE239:
 341              		.text
 342              	.Letext0:
 343              		.file 3 "/usr/lib/gcc/x86_64-linux-gnu/8/include/stddef.h"
 344              		.file 4 "/usr/include/i386-linux-gnu/bits/types.h"
 345              		.file 5 "/usr/include/i386-linux-gnu/bits/stdint-intn.h"
 346              		.file 6 "/usr/include/i386-linux-gnu/bits/stdint-uintn.h"
 347              		.file 7 "../../../os/common/ports/SIMIA32/compilers/GCC/chtypes.h"
 348              		.file 8 "../../../os/rt/include/chsystypes.h"
 349              		.file 9 "../../../os/rt/include/chschd.h"
 350              		.file 10 "../../../os/rt/include/chtime.h"
 351              		.file 11 "../../../os/common/ports/SIMIA32/chcore.h"
 352              		.file 12 "../../../os/rt/include/chtm.h"
 353              		.file 13 "../../../os/rt/include/chsem.h"
 354              		.file 14 "../../../os/rt/include/chmtx.h"
 355              		.file 15 "../../../os/rt/include/chsys.h"
 356              		.file 16 "../../../os/rt/include/chregistry.h"
 357              		.file 17 "../../../os/rt/include/chevents.h"
 358              		.file 18 "../../../os/common/oslib/include/chmemcore.h"
 359              		.file 19 "../../../os/common/oslib/include/chmempools.h"
 360              		.file 20 "../../../os/common/oslib/include/chfactory.h"
 361              		.file 21 "/usr/include/netinet/in.h"
 362              		.file 22 "/usr/include/unistd.h"
 363              		.file 23 "/usr/include/i386-linux-gnu/bits/getopt_core.h"
 364              		.file 24 "/usr/include/i386-linux-gnu/bits/types/struct_FILE.h"
 365              		.file 25 "/usr/include/i386-linux-gnu/bits/types/FILE.h"
 366              		.file 26 "/usr/include/stdio.h"
 367              		.file 27 "/usr/include/i386-linux-gnu/bits/sys_errlist.h"
 368              		.file 28 "../../../os/hal/include/hal_queues.h"
 369              		.file 29 "../../../os/hal/ports/simulator/hal_pal_lld.h"
 370              		.file 30 "../../../os/hal/include/hal_serial.h"
 371              		.file 31 "../../../os/hal/ports/simulator/posix/hal_serial_lld.h"
 372              		.file 32 "../../../os/hal/lib/streams/memstreams.h"
 373              		.file 33 "<built-in>"
 4633              		.section	.note.GNU-stack,"",@progbits
GAS LISTING /tmp/ccJ7cV0m.s 			page 92

